; ModuleID = '/home/foo/ResearchAlgorithms/llfi/in_01_recursive-llfi_index.ll'
target datalayout = "e-p:64:64:64-i1:8:8-i8:8:8-i16:16:16-i32:32:32-i64:64:64-f32:32:32-f64:64:64-v64:64:64-v128:128:128-a0:0:64-s0:64:64-f80:128:128-n8:16:32:64-S128"
target triple = "x86_64-unknown-linux-gnu"

%"class.std::ios_base::Init" = type { i8 }
%"class.std::basic_ostream" = type { i32 (...)**, %"class.std::basic_ios" }
%"class.std::basic_ios" = type { %"class.std::ios_base", %"class.std::basic_ostream"*, i8, i8, %"class.std::basic_streambuf"*, %"class.std::ctype"*, %"class.std::num_put"*, %"class.std::num_get"* }
%"class.std::ios_base" = type { i32 (...)**, i64, i64, i32, i32, i32, %"struct.std::ios_base::_Callback_list"*, %"struct.std::ios_base::_Words", [8 x %"struct.std::ios_base::_Words"], i32, %"struct.std::ios_base::_Words"*, %"class.std::locale" }
%"struct.std::ios_base::_Callback_list" = type { %"struct.std::ios_base::_Callback_list"*, void (i32, %"class.std::ios_base"*, i32)*, i32, i32 }
%"struct.std::ios_base::_Words" = type { i8*, i64 }
%"class.std::locale" = type { %"class.std::locale::_Impl"* }
%"class.std::locale::_Impl" = type { i32, %"class.std::locale::facet"**, i64, %"class.std::locale::facet"**, i8** }
%"class.std::locale::facet" = type { i32 (...)**, i32 }
%"class.std::basic_streambuf" = type { i32 (...)**, i8*, i8*, i8*, i8*, i8*, i8*, %"class.std::locale" }
%"class.std::ctype" = type { %"class.std::locale::facet", %struct.__locale_struct*, i8, i32*, i32*, i16*, i8, [256 x i8], [256 x i8], i8 }
%struct.__locale_struct = type { [13 x %struct.__locale_data*], i16*, i32*, i32*, [13 x i8*] }
%struct.__locale_data = type opaque
%"class.std::num_put" = type { %"class.std::locale::facet" }
%"class.std::num_get" = type { %"class.std::locale::facet" }
%struct.Node = type { i32, %struct.Node*, %struct.Node*, %struct.Node* }
%"class.std::vector" = type { %"struct.std::_Vector_base" }
%"struct.std::_Vector_base" = type { %"struct.std::_Vector_base<int, std::allocator<int> >::_Vector_impl" }
%"struct.std::_Vector_base<int, std::allocator<int> >::_Vector_impl" = type { i32*, i32*, i32* }
%"class.std::allocator" = type { i8 }
%"class.std::__cxx11::basic_string" = type { %"struct.std::__cxx11::basic_string<char, std::char_traits<char>, std::allocator<char> >::_Alloc_hider", i64, %union.anon }
%"struct.std::__cxx11::basic_string<char, std::char_traits<char>, std::allocator<char> >::_Alloc_hider" = type { i8* }
%union.anon = type { i64, [8 x i8] }
%"class.std::allocator.0" = type { i8 }
%"class.std::basic_ifstream" = type { %"class.std::basic_istream.base", %"class.std::basic_filebuf", %"class.std::basic_ios" }
%"class.std::basic_istream.base" = type { i32 (...)**, i64 }
%"class.std::basic_filebuf" = type { %"class.std::basic_streambuf", %union.pthread_mutex_t, %"class.std::__basic_file", i32, %struct.__mbstate_t, %struct.__mbstate_t, %struct.__mbstate_t, i8*, i64, i8, i8, i8, i8, i8*, i8*, i8, %"class.std::codecvt"*, i8*, i64, i8*, i8* }
%union.pthread_mutex_t = type { %"struct.<anonymous union>::__pthread_mutex_s" }
%"struct.<anonymous union>::__pthread_mutex_s" = type { i32, i32, i32, i32, i32, i16, i16, %struct.__pthread_internal_list }
%struct.__pthread_internal_list = type { %struct.__pthread_internal_list*, %struct.__pthread_internal_list* }
%"class.std::__basic_file" = type { %struct._IO_FILE*, i8 }
%struct._IO_FILE = type { i32, i8*, i8*, i8*, i8*, i8*, i8*, i8*, i8*, i8*, i8*, i8*, %struct._IO_marker*, %struct._IO_FILE*, i32, i32, i64, i16, i8, [1 x i8], i8*, i64, i8*, i8*, i8*, i8*, i64, i32, [20 x i8] }
%struct._IO_marker = type { %struct._IO_marker*, %struct._IO_FILE*, i32 }
%struct.__mbstate_t = type { i32, %union.anon.3 }
%union.anon.3 = type { i32 }
%"class.std::codecvt" = type { %"class.std::__codecvt_abstract_base", %struct.__locale_struct* }
%"class.std::__codecvt_abstract_base" = type { %"class.std::locale::facet" }
%"class.std::initializer_list" = type { i32*, i64 }
%"class.__gnu_cxx::__normal_iterator" = type { i32* }
%"class.std::basic_istream" = type { i32 (...)**, i64, %"class.std::basic_ios" }
%"struct.std::forward_iterator_tag" = type { i8 }
%"struct.std::random_access_iterator_tag" = type { i8 }
%"class.__gnu_cxx::new_allocator" = type { i8 }
%"class.__gnu_cxx::__normal_iterator.4" = type { i32* }
%"class.std::move_iterator" = type { i32* }

@_ZStL8__ioinit = internal global %"class.std::ios_base::Init" zeroinitializer, align 1
@__dso_handle = external global i8
@.str = private unnamed_addr constant [12 x i8] c"numbers.txt\00", align 1
@_ZSt4cout = external global %"class.std::basic_ostream"
@.str1 = private unnamed_addr constant [20 x i8] c"VERIFICATION PASSED\00", align 1
@.str2 = private unnamed_addr constant [7 x i8] c"FAILED\00", align 1
@.str3 = private unnamed_addr constant [28 x i8] c"vector::_M_emplace_back_aux\00", align 1
@llvm.global_ctors = appending global [1 x { i32, void ()* }] [{ i32, void ()* } { i32 65535, void ()* @_GLOBAL__I_a }]
@getelementptr_namestr = internal constant [14 x i8] c"getelementptr\00"
@load_namestr = internal constant [5 x i8] c"load\00"
@bitcast_namestr = internal constant [8 x i8] c"bitcast\00"
@icmp_namestr = internal constant [5 x i8] c"icmp\00"
@ptrtoint_namestr = internal constant [9 x i8] c"ptrtoint\00"
@sub_namestr = internal constant [4 x i8] c"sub\00"
@sdiv_namestr = internal constant [5 x i8] c"sdiv\00"
@add_namestr = internal constant [4 x i8] c"add\00"
@trunc_namestr = internal constant [6 x i8] c"trunc\00"
@mul_namestr = internal constant [4 x i8] c"mul\00"

; Function Attrs: nounwind
define internal void @__cxx_global_var_init() #0 section ".text.startup" {
  call void @_ZNSt8ios_base4InitC1Ev(%"class.std::ios_base::Init"* @_ZStL8__ioinit), !llfi_index !1
  %1 = call i32 @__cxa_atexit(void (i8*)* bitcast (void (%"class.std::ios_base::Init"*)* @_ZNSt8ios_base4InitD1Ev to void (i8*)*), i8* getelementptr inbounds (%"class.std::ios_base::Init"* @_ZStL8__ioinit, i32 0, i32 0), i8* @__dso_handle) #0, !llfi_index !2
  ret void, !llfi_index !3
}

declare void @_ZNSt8ios_base4InitC1Ev(%"class.std::ios_base::Init"*) #1

; Function Attrs: nounwind
declare void @_ZNSt8ios_base4InitD1Ev(%"class.std::ios_base::Init"*) #2

; Function Attrs: nounwind
declare i32 @__cxa_atexit(void (i8*)*, i8*, i8*) #0

; Function Attrs: nounwind uwtable
define void @_Z6helperP4NodeRSt6vectorIiSaIiEE(%struct.Node* %root, %"class.std::vector"* %res) #3 {
  %1 = alloca %struct.Node*, align 8, !llfi_index !4
  %2 = alloca %"class.std::vector"*, align 8, !llfi_index !5
  store %struct.Node* %root, %struct.Node** %1, align 8, !llfi_index !6
  store %"class.std::vector"* %res, %"class.std::vector"** %2, align 8, !llfi_index !7
  %3 = load %struct.Node** %1, align 8, !llfi_index !8
  %fi = call %struct.Node* @injectFault5(i64 8, %struct.Node* %3, i32 27, i32 0, i32 1, i32 0, i8* getelementptr inbounds ([5 x i8]* @load_namestr, i32 0, i32 0)), !llfi_injectfault !9
  %4 = icmp ne %struct.Node* %fi, null, !llfi_index !10
  %fi1 = call i1 @injectFault6(i64 9, i1 %4, i32 46, i32 0, i32 1, i32 0, i8* getelementptr inbounds ([5 x i8]* @icmp_namestr, i32 0, i32 0)), !llfi_injectfault !9
  br i1 %fi1, label %6, label %5, !llfi_index !11

; <label>:5                                       ; preds = %0
  br label %18, !llfi_index !12

; <label>:6                                       ; preds = %0
  %7 = load %struct.Node** %1, align 8, !llfi_index !13
  %fi2 = call %struct.Node* @injectFault5(i64 12, %struct.Node* %7, i32 27, i32 0, i32 1, i32 0, i8* getelementptr inbounds ([5 x i8]* @load_namestr, i32 0, i32 0)), !llfi_injectfault !9
  %8 = getelementptr %struct.Node* %fi2, i32 0, i32 1, !llfi_index !14
  %fi3 = call %struct.Node** @injectFault7(i64 13, %struct.Node** %8, i32 29, i32 0, i32 1, i32 0, i8* getelementptr inbounds ([14 x i8]* @getelementptr_namestr, i32 0, i32 0)), !llfi_injectfault !9
  %9 = load %struct.Node** %fi3, align 8, !llfi_index !15
  %fi5 = call %struct.Node* @injectFault5(i64 14, %struct.Node* %9, i32 27, i32 0, i32 1, i32 0, i8* getelementptr inbounds ([5 x i8]* @load_namestr, i32 0, i32 0)), !llfi_injectfault !9
  %10 = load %"class.std::vector"** %2, align 8, !llfi_index !16
  %fi6 = call %"class.std::vector"* @injectFault8(i64 15, %"class.std::vector"* %10, i32 27, i32 0, i32 1, i32 0, i8* getelementptr inbounds ([5 x i8]* @load_namestr, i32 0, i32 0)), !llfi_injectfault !9
  call void @_Z6helperP4NodeRSt6vectorIiSaIiEE(%struct.Node* %fi5, %"class.std::vector"* %fi6), !llfi_index !17
  %11 = load %"class.std::vector"** %2, align 8, !llfi_index !18
  %fi7 = call %"class.std::vector"* @injectFault8(i64 17, %"class.std::vector"* %11, i32 27, i32 0, i32 1, i32 0, i8* getelementptr inbounds ([5 x i8]* @load_namestr, i32 0, i32 0)), !llfi_injectfault !9
  %12 = load %struct.Node** %1, align 8, !llfi_index !19
  %fi8 = call %struct.Node* @injectFault5(i64 18, %struct.Node* %12, i32 27, i32 0, i32 1, i32 0, i8* getelementptr inbounds ([5 x i8]* @load_namestr, i32 0, i32 0)), !llfi_injectfault !9
  %13 = getelementptr %struct.Node* %fi8, i32 0, i32 0, !llfi_index !20
  %fi9 = call i32* @injectFault1(i64 19, i32* %13, i32 29, i32 0, i32 1, i32 0, i8* getelementptr inbounds ([14 x i8]* @getelementptr_namestr, i32 0, i32 0)), !llfi_injectfault !9
  call void @_ZNSt6vectorIiSaIiEE9push_backERKi(%"class.std::vector"* %fi7, i32* %fi9), !llfi_index !21
  %14 = load %struct.Node** %1, align 8, !llfi_index !22
  %fi10 = call %struct.Node* @injectFault5(i64 21, %struct.Node* %14, i32 27, i32 0, i32 1, i32 0, i8* getelementptr inbounds ([5 x i8]* @load_namestr, i32 0, i32 0)), !llfi_injectfault !9
  %15 = getelementptr %struct.Node* %fi10, i32 0, i32 2, !llfi_index !23
  %fi11 = call %struct.Node** @injectFault7(i64 22, %struct.Node** %15, i32 29, i32 0, i32 1, i32 0, i8* getelementptr inbounds ([14 x i8]* @getelementptr_namestr, i32 0, i32 0)), !llfi_injectfault !9
  %16 = load %struct.Node** %fi11, align 8, !llfi_index !24
  %fi12 = call %struct.Node* @injectFault5(i64 23, %struct.Node* %16, i32 27, i32 0, i32 1, i32 0, i8* getelementptr inbounds ([5 x i8]* @load_namestr, i32 0, i32 0)), !llfi_injectfault !9
  %17 = load %"class.std::vector"** %2, align 8, !llfi_index !25
  %fi4 = call %"class.std::vector"* @injectFault8(i64 24, %"class.std::vector"* %17, i32 27, i32 0, i32 1, i32 0, i8* getelementptr inbounds ([5 x i8]* @load_namestr, i32 0, i32 0)), !llfi_injectfault !9
  call void @_Z6helperP4NodeRSt6vectorIiSaIiEE(%struct.Node* %fi12, %"class.std::vector"* %fi4), !llfi_index !26
  br label %18, !llfi_index !27

; <label>:18                                      ; preds = %6, %5
  ret void, !llfi_index !28
}

; Function Attrs: nounwind uwtable
define linkonce_odr void @_ZNSt6vectorIiSaIiEE9push_backERKi(%"class.std::vector"* %this, i32* %__x) #3 align 2 {
  %1 = alloca %"class.std::vector"*, align 8, !llfi_index !29
  %2 = alloca i32*, align 8, !llfi_index !30
  store %"class.std::vector"* %this, %"class.std::vector"** %1, align 8, !llfi_index !31
  store i32* %__x, i32** %2, align 8, !llfi_index !32
  %3 = load %"class.std::vector"** %1, !llfi_index !33
  %fi7 = call %"class.std::vector"* @injectFault8(i64 32, %"class.std::vector"* %3, i32 27, i32 0, i32 1, i32 0, i8* getelementptr inbounds ([5 x i8]* @load_namestr, i32 0, i32 0)), !llfi_injectfault !9
  %4 = bitcast %"class.std::vector"* %fi7 to %"struct.std::_Vector_base"*, !llfi_index !34
  %fi8 = call %"struct.std::_Vector_base"* @injectFault2(i64 33, %"struct.std::_Vector_base"* %4, i32 44, i32 0, i32 1, i32 0, i8* getelementptr inbounds ([8 x i8]* @bitcast_namestr, i32 0, i32 0)), !llfi_injectfault !9
  %5 = getelementptr %"struct.std::_Vector_base"* %fi8, i32 0, i32 0, !llfi_index !35
  %fi9 = call %"struct.std::_Vector_base<int, std::allocator<int> >::_Vector_impl"* @injectFault3(i64 34, %"struct.std::_Vector_base<int, std::allocator<int> >::_Vector_impl"* %5, i32 29, i32 0, i32 1, i32 0, i8* getelementptr inbounds ([14 x i8]* @getelementptr_namestr, i32 0, i32 0)), !llfi_injectfault !9
  %6 = getelementptr %"struct.std::_Vector_base<int, std::allocator<int> >::_Vector_impl"* %fi9, i32 0, i32 1, !llfi_index !36
  %fi10 = call i32** @injectFault0(i64 35, i32** %6, i32 29, i32 0, i32 1, i32 0, i8* getelementptr inbounds ([14 x i8]* @getelementptr_namestr, i32 0, i32 0)), !llfi_injectfault !9
  %7 = load i32** %fi10, align 8, !llfi_index !37
  %fi11 = call i32* @injectFault1(i64 36, i32* %7, i32 27, i32 0, i32 1, i32 0, i8* getelementptr inbounds ([5 x i8]* @load_namestr, i32 0, i32 0)), !llfi_injectfault !9
  %8 = bitcast %"class.std::vector"* %fi7 to %"struct.std::_Vector_base"*, !llfi_index !38
  %fi12 = call %"struct.std::_Vector_base"* @injectFault2(i64 37, %"struct.std::_Vector_base"* %8, i32 44, i32 0, i32 1, i32 0, i8* getelementptr inbounds ([8 x i8]* @bitcast_namestr, i32 0, i32 0)), !llfi_injectfault !9
  %9 = getelementptr %"struct.std::_Vector_base"* %fi12, i32 0, i32 0, !llfi_index !39
  %fi14 = call %"struct.std::_Vector_base<int, std::allocator<int> >::_Vector_impl"* @injectFault3(i64 38, %"struct.std::_Vector_base<int, std::allocator<int> >::_Vector_impl"* %9, i32 29, i32 0, i32 1, i32 0, i8* getelementptr inbounds ([14 x i8]* @getelementptr_namestr, i32 0, i32 0)), !llfi_injectfault !9
  %10 = getelementptr %"struct.std::_Vector_base<int, std::allocator<int> >::_Vector_impl"* %fi14, i32 0, i32 2, !llfi_index !40
  %fi15 = call i32** @injectFault0(i64 39, i32** %10, i32 29, i32 0, i32 1, i32 0, i8* getelementptr inbounds ([14 x i8]* @getelementptr_namestr, i32 0, i32 0)), !llfi_injectfault !9
  %11 = load i32** %fi15, align 8, !llfi_index !41
  %fi16 = call i32* @injectFault1(i64 40, i32* %11, i32 27, i32 0, i32 1, i32 0, i8* getelementptr inbounds ([5 x i8]* @load_namestr, i32 0, i32 0)), !llfi_injectfault !9
  %12 = icmp ne i32* %fi11, %fi16, !llfi_index !42
  %fi17 = call i1 @injectFault6(i64 41, i1 %12, i32 46, i32 0, i32 1, i32 0, i8* getelementptr inbounds ([5 x i8]* @icmp_namestr, i32 0, i32 0)), !llfi_injectfault !9
  br i1 %fi17, label %13, label %27, !llfi_index !43

; <label>:13                                      ; preds = %0
  %14 = bitcast %"class.std::vector"* %fi7 to %"struct.std::_Vector_base"*, !llfi_index !44
  %fi18 = call %"struct.std::_Vector_base"* @injectFault2(i64 43, %"struct.std::_Vector_base"* %14, i32 44, i32 0, i32 1, i32 0, i8* getelementptr inbounds ([8 x i8]* @bitcast_namestr, i32 0, i32 0)), !llfi_injectfault !9
  %15 = getelementptr %"struct.std::_Vector_base"* %fi18, i32 0, i32 0, !llfi_index !45
  %fi19 = call %"struct.std::_Vector_base<int, std::allocator<int> >::_Vector_impl"* @injectFault3(i64 44, %"struct.std::_Vector_base<int, std::allocator<int> >::_Vector_impl"* %15, i32 29, i32 0, i32 1, i32 0, i8* getelementptr inbounds ([14 x i8]* @getelementptr_namestr, i32 0, i32 0)), !llfi_injectfault !9
  %16 = bitcast %"struct.std::_Vector_base<int, std::allocator<int> >::_Vector_impl"* %fi19 to %"class.std::allocator"*, !llfi_index !46
  %fi20 = call %"class.std::allocator"* @injectFault9(i64 45, %"class.std::allocator"* %16, i32 44, i32 0, i32 1, i32 0, i8* getelementptr inbounds ([8 x i8]* @bitcast_namestr, i32 0, i32 0)), !llfi_injectfault !9
  %17 = bitcast %"class.std::vector"* %fi7 to %"struct.std::_Vector_base"*, !llfi_index !47
  %fi13 = call %"struct.std::_Vector_base"* @injectFault2(i64 46, %"struct.std::_Vector_base"* %17, i32 44, i32 0, i32 1, i32 0, i8* getelementptr inbounds ([8 x i8]* @bitcast_namestr, i32 0, i32 0)), !llfi_injectfault !9
  %18 = getelementptr %"struct.std::_Vector_base"* %fi13, i32 0, i32 0, !llfi_index !48
  %fi21 = call %"struct.std::_Vector_base<int, std::allocator<int> >::_Vector_impl"* @injectFault3(i64 47, %"struct.std::_Vector_base<int, std::allocator<int> >::_Vector_impl"* %18, i32 29, i32 0, i32 1, i32 0, i8* getelementptr inbounds ([14 x i8]* @getelementptr_namestr, i32 0, i32 0)), !llfi_injectfault !9
  %19 = getelementptr %"struct.std::_Vector_base<int, std::allocator<int> >::_Vector_impl"* %fi21, i32 0, i32 1, !llfi_index !49
  %fi22 = call i32** @injectFault0(i64 48, i32** %19, i32 29, i32 0, i32 1, i32 0, i8* getelementptr inbounds ([14 x i8]* @getelementptr_namestr, i32 0, i32 0)), !llfi_injectfault !9
  %20 = load i32** %fi22, align 8, !llfi_index !50
  %fi = call i32* @injectFault1(i64 49, i32* %20, i32 27, i32 0, i32 1, i32 0, i8* getelementptr inbounds ([5 x i8]* @load_namestr, i32 0, i32 0)), !llfi_injectfault !9
  %21 = load i32** %2, align 8, !llfi_index !51
  %fi1 = call i32* @injectFault1(i64 50, i32* %21, i32 27, i32 0, i32 1, i32 0, i8* getelementptr inbounds ([5 x i8]* @load_namestr, i32 0, i32 0)), !llfi_injectfault !9
  call void @_ZNSt16allocator_traitsISaIiEE9constructIiJRKiEEEvRS0_PT_DpOT0_(%"class.std::allocator"* %fi20, i32* %fi, i32* %fi1), !llfi_index !52
  %22 = bitcast %"class.std::vector"* %fi7 to %"struct.std::_Vector_base"*, !llfi_index !53
  %fi2 = call %"struct.std::_Vector_base"* @injectFault2(i64 52, %"struct.std::_Vector_base"* %22, i32 44, i32 0, i32 1, i32 0, i8* getelementptr inbounds ([8 x i8]* @bitcast_namestr, i32 0, i32 0)), !llfi_injectfault !9
  %23 = getelementptr %"struct.std::_Vector_base"* %fi2, i32 0, i32 0, !llfi_index !54
  %fi3 = call %"struct.std::_Vector_base<int, std::allocator<int> >::_Vector_impl"* @injectFault3(i64 53, %"struct.std::_Vector_base<int, std::allocator<int> >::_Vector_impl"* %23, i32 29, i32 0, i32 1, i32 0, i8* getelementptr inbounds ([14 x i8]* @getelementptr_namestr, i32 0, i32 0)), !llfi_injectfault !9
  %24 = getelementptr %"struct.std::_Vector_base<int, std::allocator<int> >::_Vector_impl"* %fi3, i32 0, i32 1, !llfi_index !55
  %fi4 = call i32** @injectFault0(i64 54, i32** %24, i32 29, i32 0, i32 1, i32 0, i8* getelementptr inbounds ([14 x i8]* @getelementptr_namestr, i32 0, i32 0)), !llfi_injectfault !9
  %25 = load i32** %fi4, align 8, !llfi_index !56
  %fi5 = call i32* @injectFault1(i64 55, i32* %25, i32 27, i32 0, i32 1, i32 0, i8* getelementptr inbounds ([5 x i8]* @load_namestr, i32 0, i32 0)), !llfi_injectfault !9
  %26 = getelementptr i32* %fi5, i32 1, !llfi_index !57
  %fi6 = call i32* @injectFault1(i64 56, i32* %26, i32 29, i32 0, i32 1, i32 0, i8* getelementptr inbounds ([14 x i8]* @getelementptr_namestr, i32 0, i32 0)), !llfi_injectfault !9
  store i32* %fi6, i32** %fi4, align 8, !llfi_index !58
  br label %29, !llfi_index !59

; <label>:27                                      ; preds = %0
  %28 = load i32** %2, align 8, !llfi_index !60
  %fi23 = call i32* @injectFault1(i64 59, i32* %28, i32 27, i32 0, i32 1, i32 0, i8* getelementptr inbounds ([5 x i8]* @load_namestr, i32 0, i32 0)), !llfi_injectfault !9
  call void @_ZNSt6vectorIiSaIiEE19_M_emplace_back_auxIJRKiEEEvDpOT_(%"class.std::vector"* %fi7, i32* %fi23), !llfi_index !61
  br label %29, !llfi_index !62

; <label>:29                                      ; preds = %27, %13
  ret void, !llfi_index !63
}

; Function Attrs: nounwind uwtable
define void @_Z18in_order_traversalP4NodeRSt6vectorIiSaIiEE(%struct.Node* %root, %"class.std::vector"* %result) #3 {
  %1 = alloca %struct.Node*, align 8, !llfi_index !64
  %2 = alloca %"class.std::vector"*, align 8, !llfi_index !65
  store %struct.Node* %root, %struct.Node** %1, align 8, !llfi_index !66
  store %"class.std::vector"* %result, %"class.std::vector"** %2, align 8, !llfi_index !67
  %3 = load %struct.Node** %1, align 8, !llfi_index !68
  %fi = call %struct.Node* @injectFault5(i64 67, %struct.Node* %3, i32 27, i32 0, i32 1, i32 0, i8* getelementptr inbounds ([5 x i8]* @load_namestr, i32 0, i32 0)), !llfi_injectfault !9
  %4 = load %"class.std::vector"** %2, align 8, !llfi_index !69
  %fi1 = call %"class.std::vector"* @injectFault8(i64 68, %"class.std::vector"* %4, i32 27, i32 0, i32 1, i32 0, i8* getelementptr inbounds ([5 x i8]* @load_namestr, i32 0, i32 0)), !llfi_injectfault !9
  call void @_Z6helperP4NodeRSt6vectorIiSaIiEE(%struct.Node* %fi, %"class.std::vector"* %fi1), !llfi_index !70
  ret void, !llfi_index !71
}

; Function Attrs: nounwind uwtable
define %struct.Node* @_Z6insertP4Nodei(%struct.Node* %root, i32 %val) #3 {
  %1 = alloca %struct.Node*, align 8, !llfi_index !72
  %2 = alloca %struct.Node*, align 8, !llfi_index !73
  %3 = alloca i32, align 4, !llfi_index !74
  store %struct.Node* %root, %struct.Node** %2, align 8, !llfi_index !75
  store i32 %val, i32* %3, align 4, !llfi_index !76
  %4 = load %struct.Node** %2, align 8, !llfi_index !77
  %fi13 = call %struct.Node* @injectFault5(i64 76, %struct.Node* %4, i32 27, i32 0, i32 1, i32 0, i8* getelementptr inbounds ([5 x i8]* @load_namestr, i32 0, i32 0)), !llfi_injectfault !9
  %5 = icmp ne %struct.Node* %fi13, null, !llfi_index !78
  %fi14 = call i1 @injectFault6(i64 77, i1 %5, i32 46, i32 0, i32 1, i32 0, i8* getelementptr inbounds ([5 x i8]* @icmp_namestr, i32 0, i32 0)), !llfi_injectfault !9
  br i1 %fi14, label %10, label %6, !llfi_index !79

; <label>:6                                       ; preds = %0
  %7 = call noalias i8* @_Znwm(i64 32) #8, !llfi_index !80
  %8 = bitcast i8* %7 to %struct.Node*, !llfi_index !81
  %fi15 = call %struct.Node* @injectFault5(i64 80, %struct.Node* %8, i32 44, i32 0, i32 1, i32 0, i8* getelementptr inbounds ([8 x i8]* @bitcast_namestr, i32 0, i32 0)), !llfi_injectfault !9
  %9 = load i32* %3, align 4, !llfi_index !82
  %fi17 = call i32 @injectFault4(i64 81, i32 %9, i32 27, i32 0, i32 1, i32 0, i8* getelementptr inbounds ([5 x i8]* @load_namestr, i32 0, i32 0)), !llfi_injectfault !9
  call void @_ZN4NodeC2Ei(%struct.Node* %fi15, i32 %fi17), !llfi_index !83
  store %struct.Node* %fi15, %struct.Node** %1, !llfi_index !84
  br label %44, !llfi_index !85

; <label>:10                                      ; preds = %0
  %11 = load i32* %3, align 4, !llfi_index !86
  %fi18 = call i32 @injectFault4(i64 85, i32 %11, i32 27, i32 0, i32 1, i32 0, i8* getelementptr inbounds ([5 x i8]* @load_namestr, i32 0, i32 0)), !llfi_injectfault !9
  %12 = load %struct.Node** %2, align 8, !llfi_index !87
  %fi19 = call %struct.Node* @injectFault5(i64 86, %struct.Node* %12, i32 27, i32 0, i32 1, i32 0, i8* getelementptr inbounds ([5 x i8]* @load_namestr, i32 0, i32 0)), !llfi_injectfault !9
  %13 = getelementptr %struct.Node* %fi19, i32 0, i32 0, !llfi_index !88
  %fi20 = call i32* @injectFault1(i64 87, i32* %13, i32 29, i32 0, i32 1, i32 0, i8* getelementptr inbounds ([14 x i8]* @getelementptr_namestr, i32 0, i32 0)), !llfi_injectfault !9
  %14 = load i32* %fi20, align 4, !llfi_index !89
  %fi21 = call i32 @injectFault4(i64 88, i32 %14, i32 27, i32 0, i32 1, i32 0, i8* getelementptr inbounds ([5 x i8]* @load_namestr, i32 0, i32 0)), !llfi_injectfault !9
  %15 = icmp slt i32 %fi18, %fi21, !llfi_index !90
  %fi22 = call i1 @injectFault6(i64 89, i1 %15, i32 46, i32 0, i32 1, i32 0, i8* getelementptr inbounds ([5 x i8]* @icmp_namestr, i32 0, i32 0)), !llfi_injectfault !9
  br i1 %fi22, label %16, label %29, !llfi_index !91

; <label>:16                                      ; preds = %10
  %17 = load %struct.Node** %2, align 8, !llfi_index !92
  %fi16 = call %struct.Node* @injectFault5(i64 91, %struct.Node* %17, i32 27, i32 0, i32 1, i32 0, i8* getelementptr inbounds ([5 x i8]* @load_namestr, i32 0, i32 0)), !llfi_injectfault !9
  %18 = getelementptr %struct.Node* %fi16, i32 0, i32 1, !llfi_index !93
  %fi24 = call %struct.Node** @injectFault7(i64 92, %struct.Node** %18, i32 29, i32 0, i32 1, i32 0, i8* getelementptr inbounds ([14 x i8]* @getelementptr_namestr, i32 0, i32 0)), !llfi_injectfault !9
  %19 = load %struct.Node** %fi24, align 8, !llfi_index !94
  %fi25 = call %struct.Node* @injectFault5(i64 93, %struct.Node* %19, i32 27, i32 0, i32 1, i32 0, i8* getelementptr inbounds ([5 x i8]* @load_namestr, i32 0, i32 0)), !llfi_injectfault !9
  %20 = load i32* %3, align 4, !llfi_index !95
  %fi26 = call i32 @injectFault4(i64 94, i32 %20, i32 27, i32 0, i32 1, i32 0, i8* getelementptr inbounds ([5 x i8]* @load_namestr, i32 0, i32 0)), !llfi_injectfault !9
  %21 = call %struct.Node* @_Z6insertP4Nodei(%struct.Node* %fi25, i32 %fi26), !llfi_index !96
  %22 = load %struct.Node** %2, align 8, !llfi_index !97
  %fi27 = call %struct.Node* @injectFault5(i64 96, %struct.Node* %22, i32 27, i32 0, i32 1, i32 0, i8* getelementptr inbounds ([5 x i8]* @load_namestr, i32 0, i32 0)), !llfi_injectfault !9
  %23 = getelementptr %struct.Node* %fi27, i32 0, i32 1, !llfi_index !98
  %fi = call %struct.Node** @injectFault7(i64 97, %struct.Node** %23, i32 29, i32 0, i32 1, i32 0, i8* getelementptr inbounds ([14 x i8]* @getelementptr_namestr, i32 0, i32 0)), !llfi_injectfault !9
  store %struct.Node* %21, %struct.Node** %fi, align 8, !llfi_index !99
  %24 = load %struct.Node** %2, align 8, !llfi_index !100
  %fi1 = call %struct.Node* @injectFault5(i64 99, %struct.Node* %24, i32 27, i32 0, i32 1, i32 0, i8* getelementptr inbounds ([5 x i8]* @load_namestr, i32 0, i32 0)), !llfi_injectfault !9
  %25 = load %struct.Node** %2, align 8, !llfi_index !101
  %fi2 = call %struct.Node* @injectFault5(i64 100, %struct.Node* %25, i32 27, i32 0, i32 1, i32 0, i8* getelementptr inbounds ([5 x i8]* @load_namestr, i32 0, i32 0)), !llfi_injectfault !9
  %26 = getelementptr %struct.Node* %fi2, i32 0, i32 1, !llfi_index !102
  %fi3 = call %struct.Node** @injectFault7(i64 101, %struct.Node** %26, i32 29, i32 0, i32 1, i32 0, i8* getelementptr inbounds ([14 x i8]* @getelementptr_namestr, i32 0, i32 0)), !llfi_injectfault !9
  %27 = load %struct.Node** %fi3, align 8, !llfi_index !103
  %fi4 = call %struct.Node* @injectFault5(i64 102, %struct.Node* %27, i32 27, i32 0, i32 1, i32 0, i8* getelementptr inbounds ([5 x i8]* @load_namestr, i32 0, i32 0)), !llfi_injectfault !9
  %28 = getelementptr %struct.Node* %fi4, i32 0, i32 3, !llfi_index !104
  %fi5 = call %struct.Node** @injectFault7(i64 103, %struct.Node** %28, i32 29, i32 0, i32 1, i32 0, i8* getelementptr inbounds ([14 x i8]* @getelementptr_namestr, i32 0, i32 0)), !llfi_injectfault !9
  store %struct.Node* %fi1, %struct.Node** %fi5, align 8, !llfi_index !105
  br label %42, !llfi_index !106

; <label>:29                                      ; preds = %10
  %30 = load %struct.Node** %2, align 8, !llfi_index !107
  %fi6 = call %struct.Node* @injectFault5(i64 106, %struct.Node* %30, i32 27, i32 0, i32 1, i32 0, i8* getelementptr inbounds ([5 x i8]* @load_namestr, i32 0, i32 0)), !llfi_injectfault !9
  %31 = getelementptr %struct.Node* %fi6, i32 0, i32 2, !llfi_index !108
  %fi7 = call %struct.Node** @injectFault7(i64 107, %struct.Node** %31, i32 29, i32 0, i32 1, i32 0, i8* getelementptr inbounds ([14 x i8]* @getelementptr_namestr, i32 0, i32 0)), !llfi_injectfault !9
  %32 = load %struct.Node** %fi7, align 8, !llfi_index !109
  %fi8 = call %struct.Node* @injectFault5(i64 108, %struct.Node* %32, i32 27, i32 0, i32 1, i32 0, i8* getelementptr inbounds ([5 x i8]* @load_namestr, i32 0, i32 0)), !llfi_injectfault !9
  %33 = load i32* %3, align 4, !llfi_index !110
  %fi23 = call i32 @injectFault4(i64 109, i32 %33, i32 27, i32 0, i32 1, i32 0, i8* getelementptr inbounds ([5 x i8]* @load_namestr, i32 0, i32 0)), !llfi_injectfault !9
  %34 = call %struct.Node* @_Z6insertP4Nodei(%struct.Node* %fi8, i32 %fi23), !llfi_index !111
  %35 = load %struct.Node** %2, align 8, !llfi_index !112
  %fi9 = call %struct.Node* @injectFault5(i64 111, %struct.Node* %35, i32 27, i32 0, i32 1, i32 0, i8* getelementptr inbounds ([5 x i8]* @load_namestr, i32 0, i32 0)), !llfi_injectfault !9
  %36 = getelementptr %struct.Node* %fi9, i32 0, i32 2, !llfi_index !113
  %fi10 = call %struct.Node** @injectFault7(i64 112, %struct.Node** %36, i32 29, i32 0, i32 1, i32 0, i8* getelementptr inbounds ([14 x i8]* @getelementptr_namestr, i32 0, i32 0)), !llfi_injectfault !9
  store %struct.Node* %34, %struct.Node** %fi10, align 8, !llfi_index !114
  %37 = load %struct.Node** %2, align 8, !llfi_index !115
  %fi11 = call %struct.Node* @injectFault5(i64 114, %struct.Node* %37, i32 27, i32 0, i32 1, i32 0, i8* getelementptr inbounds ([5 x i8]* @load_namestr, i32 0, i32 0)), !llfi_injectfault !9
  %38 = load %struct.Node** %2, align 8, !llfi_index !116
  %fi12 = call %struct.Node* @injectFault5(i64 115, %struct.Node* %38, i32 27, i32 0, i32 1, i32 0, i8* getelementptr inbounds ([5 x i8]* @load_namestr, i32 0, i32 0)), !llfi_injectfault !9
  %39 = getelementptr %struct.Node* %fi12, i32 0, i32 2, !llfi_index !117
  %fi28 = call %struct.Node** @injectFault7(i64 116, %struct.Node** %39, i32 29, i32 0, i32 1, i32 0, i8* getelementptr inbounds ([14 x i8]* @getelementptr_namestr, i32 0, i32 0)), !llfi_injectfault !9
  %40 = load %struct.Node** %fi28, align 8, !llfi_index !118
  %fi29 = call %struct.Node* @injectFault5(i64 117, %struct.Node* %40, i32 27, i32 0, i32 1, i32 0, i8* getelementptr inbounds ([5 x i8]* @load_namestr, i32 0, i32 0)), !llfi_injectfault !9
  %41 = getelementptr %struct.Node* %fi29, i32 0, i32 3, !llfi_index !119
  %fi30 = call %struct.Node** @injectFault7(i64 118, %struct.Node** %41, i32 29, i32 0, i32 1, i32 0, i8* getelementptr inbounds ([14 x i8]* @getelementptr_namestr, i32 0, i32 0)), !llfi_injectfault !9
  store %struct.Node* %fi11, %struct.Node** %fi30, align 8, !llfi_index !120
  br label %42, !llfi_index !121

; <label>:42                                      ; preds = %29, %16
  %43 = load %struct.Node** %2, align 8, !llfi_index !122
  %fi31 = call %struct.Node* @injectFault5(i64 121, %struct.Node* %43, i32 27, i32 0, i32 1, i32 0, i8* getelementptr inbounds ([5 x i8]* @load_namestr, i32 0, i32 0)), !llfi_injectfault !9
  store %struct.Node* %fi31, %struct.Node** %1, !llfi_index !123
  br label %44, !llfi_index !124

; <label>:44                                      ; preds = %42, %6
  %45 = load %struct.Node** %1, !llfi_index !125
  %fi32 = call %struct.Node* @injectFault5(i64 124, %struct.Node* %45, i32 27, i32 0, i32 1, i32 0, i8* getelementptr inbounds ([5 x i8]* @load_namestr, i32 0, i32 0)), !llfi_injectfault !9
  ret %struct.Node* %fi32, !llfi_index !126
}

; Function Attrs: nobuiltin
declare noalias i8* @_Znwm(i64) #4

; Function Attrs: nounwind uwtable
define linkonce_odr void @_ZN4NodeC2Ei(%struct.Node* %this, i32 %v) unnamed_addr #3 align 2 {
  %1 = alloca %struct.Node*, align 8, !llfi_index !127
  %2 = alloca i32, align 4, !llfi_index !128
  store %struct.Node* %this, %struct.Node** %1, align 8, !llfi_index !129
  store i32 %v, i32* %2, align 4, !llfi_index !130
  %3 = load %struct.Node** %1, !llfi_index !131
  %fi = call %struct.Node* @injectFault5(i64 130, %struct.Node* %3, i32 27, i32 0, i32 1, i32 0, i8* getelementptr inbounds ([5 x i8]* @load_namestr, i32 0, i32 0)), !llfi_injectfault !9
  %4 = getelementptr %struct.Node* %fi, i32 0, i32 0, !llfi_index !132
  %fi1 = call i32* @injectFault1(i64 131, i32* %4, i32 29, i32 0, i32 1, i32 0, i8* getelementptr inbounds ([14 x i8]* @getelementptr_namestr, i32 0, i32 0)), !llfi_injectfault !9
  %5 = load i32* %2, align 4, !llfi_index !133
  %fi2 = call i32 @injectFault4(i64 132, i32 %5, i32 27, i32 0, i32 1, i32 0, i8* getelementptr inbounds ([5 x i8]* @load_namestr, i32 0, i32 0)), !llfi_injectfault !9
  store i32 %fi2, i32* %fi1, align 4, !llfi_index !134
  %6 = getelementptr %struct.Node* %fi, i32 0, i32 1, !llfi_index !135
  %fi3 = call %struct.Node** @injectFault7(i64 134, %struct.Node** %6, i32 29, i32 0, i32 1, i32 0, i8* getelementptr inbounds ([14 x i8]* @getelementptr_namestr, i32 0, i32 0)), !llfi_injectfault !9
  store %struct.Node* null, %struct.Node** %fi3, align 8, !llfi_index !136
  %7 = getelementptr %struct.Node* %fi, i32 0, i32 2, !llfi_index !137
  %fi4 = call %struct.Node** @injectFault7(i64 136, %struct.Node** %7, i32 29, i32 0, i32 1, i32 0, i8* getelementptr inbounds ([14 x i8]* @getelementptr_namestr, i32 0, i32 0)), !llfi_injectfault !9
  store %struct.Node* null, %struct.Node** %fi4, align 8, !llfi_index !138
  %8 = getelementptr %struct.Node* %fi, i32 0, i32 3, !llfi_index !139
  %fi5 = call %struct.Node** @injectFault7(i64 138, %struct.Node** %8, i32 29, i32 0, i32 1, i32 0, i8* getelementptr inbounds ([14 x i8]* @getelementptr_namestr, i32 0, i32 0)), !llfi_injectfault !9
  store %struct.Node* null, %struct.Node** %fi5, align 8, !llfi_index !140
  ret void, !llfi_index !141
}

; Function Attrs: nounwind uwtable
define i32 @main(i32 %argc, i8** %argv) #3 {
  call void @initInjections()
  %1 = alloca i32, align 4, !llfi_index !142
  %2 = alloca i32, align 4, !llfi_index !143
  %3 = alloca i8**, align 8, !llfi_index !144
  %filename = alloca %"class.std::__cxx11::basic_string", align 8, !llfi_index !145
  %4 = alloca %"class.std::allocator.0", align 1, !llfi_index !146
  %file = alloca %"class.std::basic_ifstream", align 8, !llfi_index !147
  %num = alloca i32, align 4, !llfi_index !148
  %root = alloca %struct.Node*, align 8, !llfi_index !149
  %fb = alloca %"class.std::vector", align 8, !llfi_index !150
  %5 = alloca %"class.std::initializer_list", align 8, !llfi_index !151
  %6 = alloca [7 x i32], align 4, !llfi_index !152
  %7 = alloca %"class.std::allocator", align 1, !llfi_index !153
  %__range = alloca %"class.std::vector"*, align 8, !llfi_index !154
  %__begin = alloca %"class.__gnu_cxx::__normal_iterator", align 8, !llfi_index !155
  %__end = alloca %"class.__gnu_cxx::__normal_iterator", align 8, !llfi_index !156
  %x = alloca i32, align 4, !llfi_index !157
  %limit = alloca i32, align 4, !llfi_index !158
  %result = alloca %"class.std::vector", align 8, !llfi_index !159
  %passed = alloca i8, align 1, !llfi_index !160
  %i = alloca i64, align 8, !llfi_index !161
  %8 = alloca i32, !llfi_index !162
  store i32 0, i32* %1, !llfi_index !163
  store i32 %argc, i32* %2, align 4, !llfi_index !164
  store i8** %argv, i8*** %3, align 8, !llfi_index !165
  call void @_ZNSaIcEC1Ev(%"class.std::allocator.0"* %4) #0, !llfi_index !166
  call void @_ZNSt7__cxx1112basic_stringIcSt11char_traitsIcESaIcEEC1EPKcRKS3_(%"class.std::__cxx11::basic_string"* %filename, i8* getelementptr inbounds ([12 x i8]* @.str, i32 0, i32 0), %"class.std::allocator.0"* %4), !llfi_index !167
  call void @_ZNSaIcED1Ev(%"class.std::allocator.0"* %4) #0, !llfi_index !168
  %9 = load i32* %2, align 4, !llfi_index !169
  %fi = call i32 @injectFault4(i64 168, i32 %9, i32 27, i32 0, i32 1, i32 0, i8* getelementptr inbounds ([5 x i8]* @load_namestr, i32 0, i32 0)), !llfi_injectfault !9
  %10 = icmp sgt i32 %fi, 1, !llfi_index !170
  %fi14 = call i1 @injectFault6(i64 169, i1 %10, i32 46, i32 0, i32 1, i32 0, i8* getelementptr inbounds ([5 x i8]* @icmp_namestr, i32 0, i32 0)), !llfi_injectfault !9
  br i1 %fi14, label %11, label %16, !llfi_index !171

; <label>:11                                      ; preds = %0
  %12 = load i8*** %3, align 8, !llfi_index !172
  %fi15 = call i8** @injectFault13(i64 171, i8** %12, i32 27, i32 0, i32 1, i32 0, i8* getelementptr inbounds ([5 x i8]* @load_namestr, i32 0, i32 0)), !llfi_injectfault !9
  %13 = getelementptr i8** %fi15, i64 1, !llfi_index !173
  %fi16 = call i8** @injectFault13(i64 172, i8** %13, i32 29, i32 0, i32 1, i32 0, i8* getelementptr inbounds ([14 x i8]* @getelementptr_namestr, i32 0, i32 0)), !llfi_injectfault !9
  %14 = load i8** %fi16, align 8, !llfi_index !174
  %fi17 = call i8* @injectFault14(i64 173, i8* %14, i32 27, i32 0, i32 1, i32 0, i8* getelementptr inbounds ([5 x i8]* @load_namestr, i32 0, i32 0)), !llfi_injectfault !9
  %15 = call %"class.std::__cxx11::basic_string"* @_ZNSt7__cxx1112basic_stringIcSt11char_traitsIcESaIcEEaSEPKc(%"class.std::__cxx11::basic_string"* %filename, i8* %fi17), !llfi_index !175
  br label %16, !llfi_index !176

; <label>:16                                      ; preds = %11, %0
  %17 = call i8* @_ZNKSt7__cxx1112basic_stringIcSt11char_traitsIcESaIcEE5c_strEv(%"class.std::__cxx11::basic_string"* %filename) #0, !llfi_index !177
  call void @_ZNSt14basic_ifstreamIcSt11char_traitsIcEEC1EPKcSt13_Ios_Openmode(%"class.std::basic_ifstream"* %file, i8* %17, i32 8), !llfi_index !178
  store %struct.Node* null, %struct.Node** %root, align 8, !llfi_index !179
  %18 = call zeroext i1 @_ZNSt14basic_ifstreamIcSt11char_traitsIcEE7is_openEv(%"class.std::basic_ifstream"* %file), !llfi_index !180
  br i1 %18, label %52, label %19, !llfi_index !181

; <label>:19                                      ; preds = %16
  %20 = getelementptr [7 x i32]* %6, i64 0, i64 0, !llfi_index !182
  %fi19 = call i32* @injectFault1(i64 181, i32* %20, i32 29, i32 0, i32 1, i32 0, i8* getelementptr inbounds ([14 x i8]* @getelementptr_namestr, i32 0, i32 0)), !llfi_injectfault !9
  store i32 5, i32* %fi19, !llfi_index !183
  %21 = getelementptr i32* %fi19, i64 1, !llfi_index !184
  %fi20 = call i32* @injectFault1(i64 183, i32* %21, i32 29, i32 0, i32 1, i32 0, i8* getelementptr inbounds ([14 x i8]* @getelementptr_namestr, i32 0, i32 0)), !llfi_injectfault !9
  store i32 3, i32* %fi20, !llfi_index !185
  %22 = getelementptr i32* %fi20, i64 1, !llfi_index !186
  %fi21 = call i32* @injectFault1(i64 185, i32* %22, i32 29, i32 0, i32 1, i32 0, i8* getelementptr inbounds ([14 x i8]* @getelementptr_namestr, i32 0, i32 0)), !llfi_injectfault !9
  store i32 7, i32* %fi21, !llfi_index !187
  %23 = getelementptr i32* %fi21, i64 1, !llfi_index !188
  %fi22 = call i32* @injectFault1(i64 187, i32* %23, i32 29, i32 0, i32 1, i32 0, i8* getelementptr inbounds ([14 x i8]* @getelementptr_namestr, i32 0, i32 0)), !llfi_injectfault !9
  store i32 1, i32* %fi22, !llfi_index !189
  %24 = getelementptr i32* %fi22, i64 1, !llfi_index !190
  %fi23 = call i32* @injectFault1(i64 189, i32* %24, i32 29, i32 0, i32 1, i32 0, i8* getelementptr inbounds ([14 x i8]* @getelementptr_namestr, i32 0, i32 0)), !llfi_injectfault !9
  store i32 4, i32* %fi23, !llfi_index !191
  %25 = getelementptr i32* %fi23, i64 1, !llfi_index !192
  %fi24 = call i32* @injectFault1(i64 191, i32* %25, i32 29, i32 0, i32 1, i32 0, i8* getelementptr inbounds ([14 x i8]* @getelementptr_namestr, i32 0, i32 0)), !llfi_injectfault !9
  store i32 6, i32* %fi24, !llfi_index !193
  %26 = getelementptr i32* %fi24, i64 1, !llfi_index !194
  %fi1 = call i32* @injectFault1(i64 193, i32* %26, i32 29, i32 0, i32 1, i32 0, i8* getelementptr inbounds ([14 x i8]* @getelementptr_namestr, i32 0, i32 0)), !llfi_injectfault !9
  store i32 8, i32* %fi1, !llfi_index !195
  %27 = getelementptr %"class.std::initializer_list"* %5, i32 0, i32 0, !llfi_index !196
  %fi2 = call i32** @injectFault0(i64 195, i32** %27, i32 29, i32 0, i32 1, i32 0, i8* getelementptr inbounds ([14 x i8]* @getelementptr_namestr, i32 0, i32 0)), !llfi_injectfault !9
  %28 = getelementptr [7 x i32]* %6, i64 0, i64 0, !llfi_index !197
  %fi3 = call i32* @injectFault1(i64 196, i32* %28, i32 29, i32 0, i32 1, i32 0, i8* getelementptr inbounds ([14 x i8]* @getelementptr_namestr, i32 0, i32 0)), !llfi_injectfault !9
  store i32* %fi3, i32** %fi2, align 8, !llfi_index !198
  %29 = getelementptr %"class.std::initializer_list"* %5, i32 0, i32 1, !llfi_index !199
  %fi4 = call i64* @injectFault10(i64 198, i64* %29, i32 29, i32 0, i32 1, i32 0, i8* getelementptr inbounds ([14 x i8]* @getelementptr_namestr, i32 0, i32 0)), !llfi_injectfault !9
  store i64 7, i64* %fi4, align 8, !llfi_index !200
  call void @_ZNSaIiEC2Ev(%"class.std::allocator"* %7) #0, !llfi_index !201
  %30 = bitcast %"class.std::initializer_list"* %5 to { i32*, i64 }*, !llfi_index !202
  %fi5 = call { i32*, i64 }* @injectFault11(i64 201, { i32*, i64 }* %30, i32 44, i32 0, i32 1, i32 0, i8* getelementptr inbounds ([8 x i8]* @bitcast_namestr, i32 0, i32 0)), !llfi_injectfault !9
  %31 = getelementptr { i32*, i64 }* %fi5, i32 0, i32 0, !llfi_index !203
  %fi6 = call i32** @injectFault0(i64 202, i32** %31, i32 29, i32 0, i32 1, i32 0, i8* getelementptr inbounds ([14 x i8]* @getelementptr_namestr, i32 0, i32 0)), !llfi_injectfault !9
  %32 = load i32** %fi6, align 1, !llfi_index !204
  %fi7 = call i32* @injectFault1(i64 203, i32* %32, i32 27, i32 0, i32 1, i32 0, i8* getelementptr inbounds ([5 x i8]* @load_namestr, i32 0, i32 0)), !llfi_injectfault !9
  %33 = getelementptr { i32*, i64 }* %fi5, i32 0, i32 1, !llfi_index !205
  %fi18 = call i64* @injectFault10(i64 204, i64* %33, i32 29, i32 0, i32 1, i32 0, i8* getelementptr inbounds ([14 x i8]* @getelementptr_namestr, i32 0, i32 0)), !llfi_injectfault !9
  %34 = load i64* %fi18, align 1, !llfi_index !206
  %fi9 = call i64 @injectFault12(i64 205, i64 %34, i32 27, i32 0, i32 1, i32 0, i8* getelementptr inbounds ([5 x i8]* @load_namestr, i32 0, i32 0)), !llfi_injectfault !9
  call void @_ZNSt6vectorIiSaIiEEC2ESt16initializer_listIiERKS0_(%"class.std::vector"* %fb, i32* %fi7, i64 %fi9, %"class.std::allocator"* %7), !llfi_index !207
  call void @_ZNSaIiED2Ev(%"class.std::allocator"* %7) #0, !llfi_index !208
  store %"class.std::vector"* %fb, %"class.std::vector"** %__range, align 8, !llfi_index !209
  %35 = load %"class.std::vector"** %__range, align 8, !llfi_index !210
  %fi10 = call %"class.std::vector"* @injectFault8(i64 209, %"class.std::vector"* %35, i32 27, i32 0, i32 1, i32 0, i8* getelementptr inbounds ([5 x i8]* @load_namestr, i32 0, i32 0)), !llfi_injectfault !9
  %36 = call i32* @_ZNSt6vectorIiSaIiEE5beginEv(%"class.std::vector"* %fi10) #0, !llfi_index !211
  %37 = getelementptr %"class.__gnu_cxx::__normal_iterator"* %__begin, i32 0, i32 0, !llfi_index !212
  %fi11 = call i32** @injectFault0(i64 211, i32** %37, i32 29, i32 0, i32 1, i32 0, i8* getelementptr inbounds ([14 x i8]* @getelementptr_namestr, i32 0, i32 0)), !llfi_injectfault !9
  store i32* %36, i32** %fi11, !llfi_index !213
  %38 = load %"class.std::vector"** %__range, align 8, !llfi_index !214
  %fi12 = call %"class.std::vector"* @injectFault8(i64 213, %"class.std::vector"* %38, i32 27, i32 0, i32 1, i32 0, i8* getelementptr inbounds ([5 x i8]* @load_namestr, i32 0, i32 0)), !llfi_injectfault !9
  %39 = call i32* @_ZNSt6vectorIiSaIiEE3endEv(%"class.std::vector"* %fi12) #0, !llfi_index !215
  %40 = getelementptr %"class.__gnu_cxx::__normal_iterator"* %__end, i32 0, i32 0, !llfi_index !216
  %fi13 = call i32** @injectFault0(i64 215, i32** %40, i32 29, i32 0, i32 1, i32 0, i8* getelementptr inbounds ([14 x i8]* @getelementptr_namestr, i32 0, i32 0)), !llfi_injectfault !9
  store i32* %39, i32** %fi13, !llfi_index !217
  br label %41, !llfi_index !218

; <label>:41                                      ; preds = %49, %19
  %42 = call zeroext i1 @_ZN9__gnu_cxxneIPiSt6vectorIiSaIiEEEEbRKNS_17__normal_iteratorIT_T0_EESA_(%"class.__gnu_cxx::__normal_iterator"* %__begin, %"class.__gnu_cxx::__normal_iterator"* %__end) #0, !llfi_index !219
  br i1 %42, label %43, label %51, !llfi_index !220

; <label>:43                                      ; preds = %41
  %44 = call i32* @_ZNK9__gnu_cxx17__normal_iteratorIPiSt6vectorIiSaIiEEEdeEv(%"class.__gnu_cxx::__normal_iterator"* %__begin) #0, !llfi_index !221
  %45 = load i32* %44, !llfi_index !222
  %fi25 = call i32 @injectFault4(i64 221, i32 %45, i32 27, i32 0, i32 1, i32 0, i8* getelementptr inbounds ([5 x i8]* @load_namestr, i32 0, i32 0)), !llfi_injectfault !9
  store i32 %fi25, i32* %x, align 4, !llfi_index !223
  %46 = load %struct.Node** %root, align 8, !llfi_index !224
  %fi26 = call %struct.Node* @injectFault5(i64 223, %struct.Node* %46, i32 27, i32 0, i32 1, i32 0, i8* getelementptr inbounds ([5 x i8]* @load_namestr, i32 0, i32 0)), !llfi_injectfault !9
  %47 = load i32* %x, align 4, !llfi_index !225
  %fi27 = call i32 @injectFault4(i64 224, i32 %47, i32 27, i32 0, i32 1, i32 0, i8* getelementptr inbounds ([5 x i8]* @load_namestr, i32 0, i32 0)), !llfi_injectfault !9
  %48 = call %struct.Node* @_Z6insertP4Nodei(%struct.Node* %fi26, i32 %fi27), !llfi_index !226
  store %struct.Node* %48, %struct.Node** %root, align 8, !llfi_index !227
  br label %49, !llfi_index !228

; <label>:49                                      ; preds = %43
  %50 = call %"class.__gnu_cxx::__normal_iterator"* @_ZN9__gnu_cxx17__normal_iteratorIPiSt6vectorIiSaIiEEEppEv(%"class.__gnu_cxx::__normal_iterator"* %__begin) #0, !llfi_index !229
  br label %41, !llfi_index !230

; <label>:51                                      ; preds = %41
  call void @_ZNSt6vectorIiSaIiEED2Ev(%"class.std::vector"* %fb) #0, !llfi_index !231
  br label %76, !llfi_index !232

; <label>:52                                      ; preds = %16
  store i32 0, i32* %limit, align 4, !llfi_index !233
  br label %53, !llfi_index !234

; <label>:53                                      ; preds = %71, %52
  %54 = bitcast %"class.std::basic_ifstream"* %file to %"class.std::basic_istream"*, !llfi_index !235
  %fi28 = call %"class.std::basic_istream"* @injectFault15(i64 234, %"class.std::basic_istream"* %54, i32 44, i32 0, i32 1, i32 0, i8* getelementptr inbounds ([8 x i8]* @bitcast_namestr, i32 0, i32 0)), !llfi_injectfault !9
  %55 = call %"class.std::basic_istream"* @_ZNSirsERi(%"class.std::basic_istream"* %fi28, i32* %num), !llfi_index !236
  %56 = bitcast %"class.std::basic_istream"* %55 to i8**, !llfi_index !237
  %fi29 = call i8** @injectFault13(i64 236, i8** %56, i32 44, i32 0, i32 1, i32 0, i8* getelementptr inbounds ([8 x i8]* @bitcast_namestr, i32 0, i32 0)), !llfi_injectfault !9
  %57 = load i8** %fi29, !llfi_index !238
  %fi30 = call i8* @injectFault14(i64 237, i8* %57, i32 27, i32 0, i32 1, i32 0, i8* getelementptr inbounds ([5 x i8]* @load_namestr, i32 0, i32 0)), !llfi_injectfault !9
  %58 = getelementptr i8* %fi30, i64 -24, !llfi_index !239
  %fi31 = call i8* @injectFault14(i64 238, i8* %58, i32 29, i32 0, i32 1, i32 0, i8* getelementptr inbounds ([14 x i8]* @getelementptr_namestr, i32 0, i32 0)), !llfi_injectfault !9
  %59 = bitcast i8* %fi31 to i64*, !llfi_index !240
  %fi32 = call i64* @injectFault10(i64 239, i64* %59, i32 44, i32 0, i32 1, i32 0, i8* getelementptr inbounds ([8 x i8]* @bitcast_namestr, i32 0, i32 0)), !llfi_injectfault !9
  %60 = load i64* %fi32, !llfi_index !241
  %fi33 = call i64 @injectFault12(i64 240, i64 %60, i32 27, i32 0, i32 1, i32 0, i8* getelementptr inbounds ([5 x i8]* @load_namestr, i32 0, i32 0)), !llfi_injectfault !9
  %61 = bitcast %"class.std::basic_istream"* %55 to i8*, !llfi_index !242
  %fi34 = call i8* @injectFault14(i64 241, i8* %61, i32 44, i32 0, i32 1, i32 0, i8* getelementptr inbounds ([8 x i8]* @bitcast_namestr, i32 0, i32 0)), !llfi_injectfault !9
  %62 = getelementptr i8* %fi34, i64 %fi33, !llfi_index !243
  %fi35 = call i8* @injectFault14(i64 242, i8* %62, i32 29, i32 0, i32 1, i32 0, i8* getelementptr inbounds ([14 x i8]* @getelementptr_namestr, i32 0, i32 0)), !llfi_injectfault !9
  %63 = bitcast i8* %fi35 to %"class.std::basic_ios"*, !llfi_index !244
  %fi36 = call %"class.std::basic_ios"* @injectFault16(i64 243, %"class.std::basic_ios"* %63, i32 44, i32 0, i32 1, i32 0, i8* getelementptr inbounds ([8 x i8]* @bitcast_namestr, i32 0, i32 0)), !llfi_injectfault !9
  %64 = call zeroext i1 @_ZNKSt9basic_iosIcSt11char_traitsIcEEcvbEv(%"class.std::basic_ios"* %fi36), !llfi_index !245
  br i1 %64, label %65, label %69, !llfi_index !246

; <label>:65                                      ; preds = %53
  %66 = load i32* %limit, align 4, !llfi_index !247
  %fi8 = call i32 @injectFault4(i64 246, i32 %66, i32 27, i32 0, i32 1, i32 0, i8* getelementptr inbounds ([5 x i8]* @load_namestr, i32 0, i32 0)), !llfi_injectfault !9
  %67 = add nsw i32 %fi8, 1, !llfi_index !248
  %fi37 = call i32 @injectFault4(i64 247, i32 %67, i32 8, i32 0, i32 1, i32 0, i8* getelementptr inbounds ([4 x i8]* @add_namestr, i32 0, i32 0)), !llfi_injectfault !9
  store i32 %fi37, i32* %limit, align 4, !llfi_index !249
  %68 = icmp slt i32 %fi8, 2000, !llfi_index !250
  %fi38 = call i1 @injectFault6(i64 249, i1 %68, i32 46, i32 0, i32 1, i32 0, i8* getelementptr inbounds ([5 x i8]* @icmp_namestr, i32 0, i32 0)), !llfi_injectfault !9
  br label %69, !llfi_index !251

; <label>:69                                      ; preds = %65, %53
  %70 = phi i1 [ false, %53 ], [ %fi38, %65 ], !llfi_index !252
  br i1 %70, label %71, label %75, !llfi_index !253

; <label>:71                                      ; preds = %69
  %72 = load %struct.Node** %root, align 8, !llfi_index !254
  %fi39 = call %struct.Node* @injectFault5(i64 253, %struct.Node* %72, i32 27, i32 0, i32 1, i32 0, i8* getelementptr inbounds ([5 x i8]* @load_namestr, i32 0, i32 0)), !llfi_injectfault !9
  %73 = load i32* %num, align 4, !llfi_index !255
  %fi40 = call i32 @injectFault4(i64 254, i32 %73, i32 27, i32 0, i32 1, i32 0, i8* getelementptr inbounds ([5 x i8]* @load_namestr, i32 0, i32 0)), !llfi_injectfault !9
  %74 = call %struct.Node* @_Z6insertP4Nodei(%struct.Node* %fi39, i32 %fi40), !llfi_index !256
  store %struct.Node* %74, %struct.Node** %root, align 8, !llfi_index !257
  br label %53, !llfi_index !258

; <label>:75                                      ; preds = %69
  call void @_ZNSt14basic_ifstreamIcSt11char_traitsIcEE5closeEv(%"class.std::basic_ifstream"* %file), !llfi_index !259
  br label %76, !llfi_index !260

; <label>:76                                      ; preds = %75, %51
  call void @_ZNSt6vectorIiSaIiEEC2Ev(%"class.std::vector"* %result) #0, !llfi_index !261
  %77 = load %struct.Node** %root, align 8, !llfi_index !262
  %fi41 = call %struct.Node* @injectFault5(i64 261, %struct.Node* %77, i32 27, i32 0, i32 1, i32 0, i8* getelementptr inbounds ([5 x i8]* @load_namestr, i32 0, i32 0)), !llfi_injectfault !9
  %78 = icmp ne %struct.Node* %fi41, null, !llfi_index !263
  %fi42 = call i1 @injectFault6(i64 262, i1 %78, i32 46, i32 0, i32 1, i32 0, i8* getelementptr inbounds ([5 x i8]* @icmp_namestr, i32 0, i32 0)), !llfi_injectfault !9
  br i1 %fi42, label %79, label %81, !llfi_index !264

; <label>:79                                      ; preds = %76
  %80 = load %struct.Node** %root, align 8, !llfi_index !265
  %fi43 = call %struct.Node* @injectFault5(i64 264, %struct.Node* %80, i32 27, i32 0, i32 1, i32 0, i8* getelementptr inbounds ([5 x i8]* @load_namestr, i32 0, i32 0)), !llfi_injectfault !9
  call void @_Z18in_order_traversalP4NodeRSt6vectorIiSaIiEE(%struct.Node* %fi43, %"class.std::vector"* %result), !llfi_index !266
  br label %81, !llfi_index !267

; <label>:81                                      ; preds = %79, %76
  store i8 1, i8* %passed, align 1, !llfi_index !268
  store i64 0, i64* %i, align 8, !llfi_index !269
  br label %82, !llfi_index !270

; <label>:82                                      ; preds = %98, %81
  %83 = load i64* %i, align 8, !llfi_index !271
  %fi44 = call i64 @injectFault12(i64 270, i64 %83, i32 27, i32 0, i32 1, i32 0, i8* getelementptr inbounds ([5 x i8]* @load_namestr, i32 0, i32 0)), !llfi_injectfault !9
  %84 = call i64 @_ZNKSt6vectorIiSaIiEE4sizeEv(%"class.std::vector"* %result) #0, !llfi_index !272
  %85 = sub i64 %84, 1, !llfi_index !273
  %fi45 = call i64 @injectFault12(i64 272, i64 %85, i32 10, i32 0, i32 1, i32 0, i8* getelementptr inbounds ([4 x i8]* @sub_namestr, i32 0, i32 0)), !llfi_injectfault !9
  %86 = icmp ult i64 %fi44, %fi45, !llfi_index !274
  %fi46 = call i1 @injectFault6(i64 273, i1 %86, i32 46, i32 0, i32 1, i32 0, i8* getelementptr inbounds ([5 x i8]* @icmp_namestr, i32 0, i32 0)), !llfi_injectfault !9
  br i1 %fi46, label %87, label %101, !llfi_index !275

; <label>:87                                      ; preds = %82
  %88 = load i64* %i, align 8, !llfi_index !276
  %fi47 = call i64 @injectFault12(i64 275, i64 %88, i32 27, i32 0, i32 1, i32 0, i8* getelementptr inbounds ([5 x i8]* @load_namestr, i32 0, i32 0)), !llfi_injectfault !9
  %89 = call i32* @_ZNSt6vectorIiSaIiEEixEm(%"class.std::vector"* %result, i64 %fi47) #0, !llfi_index !277
  %90 = load i32* %89, !llfi_index !278
  %fi48 = call i32 @injectFault4(i64 277, i32 %90, i32 27, i32 0, i32 1, i32 0, i8* getelementptr inbounds ([5 x i8]* @load_namestr, i32 0, i32 0)), !llfi_injectfault !9
  %91 = load i64* %i, align 8, !llfi_index !279
  %fi49 = call i64 @injectFault12(i64 278, i64 %91, i32 27, i32 0, i32 1, i32 0, i8* getelementptr inbounds ([5 x i8]* @load_namestr, i32 0, i32 0)), !llfi_injectfault !9
  %92 = add i64 %fi49, 1, !llfi_index !280
  %fi50 = call i64 @injectFault12(i64 279, i64 %92, i32 8, i32 0, i32 1, i32 0, i8* getelementptr inbounds ([4 x i8]* @add_namestr, i32 0, i32 0)), !llfi_injectfault !9
  %93 = call i32* @_ZNSt6vectorIiSaIiEEixEm(%"class.std::vector"* %result, i64 %fi50) #0, !llfi_index !281
  %94 = load i32* %93, !llfi_index !282
  %fi51 = call i32 @injectFault4(i64 281, i32 %94, i32 27, i32 0, i32 1, i32 0, i8* getelementptr inbounds ([5 x i8]* @load_namestr, i32 0, i32 0)), !llfi_injectfault !9
  %95 = icmp sgt i32 %fi48, %fi51, !llfi_index !283
  %fi52 = call i1 @injectFault6(i64 282, i1 %95, i32 46, i32 0, i32 1, i32 0, i8* getelementptr inbounds ([5 x i8]* @icmp_namestr, i32 0, i32 0)), !llfi_injectfault !9
  br i1 %fi52, label %96, label %97, !llfi_index !284

; <label>:96                                      ; preds = %87
  store i8 0, i8* %passed, align 1, !llfi_index !285
  br label %101, !llfi_index !286

; <label>:97                                      ; preds = %87
  br label %98, !llfi_index !287

; <label>:98                                      ; preds = %97
  %99 = load i64* %i, align 8, !llfi_index !288
  %fi53 = call i64 @injectFault12(i64 287, i64 %99, i32 27, i32 0, i32 1, i32 0, i8* getelementptr inbounds ([5 x i8]* @load_namestr, i32 0, i32 0)), !llfi_injectfault !9
  %100 = add i64 %fi53, 1, !llfi_index !289
  %fi54 = call i64 @injectFault12(i64 288, i64 %100, i32 8, i32 0, i32 1, i32 0, i8* getelementptr inbounds ([4 x i8]* @add_namestr, i32 0, i32 0)), !llfi_injectfault !9
  store i64 %fi54, i64* %i, align 8, !llfi_index !290
  br label %82, !llfi_index !291

; <label>:101                                     ; preds = %96, %82
  %102 = load i8* %passed, align 1, !llfi_index !292
  %fi55 = call i8 @injectFault17(i64 291, i8 %102, i32 27, i32 0, i32 1, i32 0, i8* getelementptr inbounds ([5 x i8]* @load_namestr, i32 0, i32 0)), !llfi_injectfault !9
  %103 = trunc i8 %fi55 to i1, !llfi_index !293
  %fi56 = call i1 @injectFault6(i64 292, i1 %103, i32 33, i32 0, i32 1, i32 0, i8* getelementptr inbounds ([6 x i8]* @trunc_namestr, i32 0, i32 0)), !llfi_injectfault !9
  br i1 %fi56, label %104, label %109, !llfi_index !294

; <label>:104                                     ; preds = %101
  %105 = call zeroext i1 @_ZNKSt6vectorIiSaIiEE5emptyEv(%"class.std::vector"* %result) #0, !llfi_index !295
  br i1 %105, label %109, label %106, !llfi_index !296

; <label>:106                                     ; preds = %104
  %107 = call %"class.std::basic_ostream"* @_ZStlsISt11char_traitsIcEERSt13basic_ostreamIcT_ES5_PKc(%"class.std::basic_ostream"* @_ZSt4cout, i8* getelementptr inbounds ([20 x i8]* @.str1, i32 0, i32 0)), !llfi_index !297
  %108 = call %"class.std::basic_ostream"* @_ZNSolsEPFRSoS_E(%"class.std::basic_ostream"* %107, %"class.std::basic_ostream"* (%"class.std::basic_ostream"*)* @_ZSt4endlIcSt11char_traitsIcEERSt13basic_ostreamIT_T0_ES6_), !llfi_index !298
  br label %112, !llfi_index !299

; <label>:109                                     ; preds = %104, %101
  %110 = call %"class.std::basic_ostream"* @_ZStlsISt11char_traitsIcEERSt13basic_ostreamIcT_ES5_PKc(%"class.std::basic_ostream"* @_ZSt4cout, i8* getelementptr inbounds ([7 x i8]* @.str2, i32 0, i32 0)), !llfi_index !300
  %111 = call %"class.std::basic_ostream"* @_ZNSolsEPFRSoS_E(%"class.std::basic_ostream"* %110, %"class.std::basic_ostream"* (%"class.std::basic_ostream"*)* @_ZSt4endlIcSt11char_traitsIcEERSt13basic_ostreamIT_T0_ES6_), !llfi_index !301
  br label %112, !llfi_index !302

; <label>:112                                     ; preds = %109, %106
  store i32 0, i32* %1, !llfi_index !303
  store i32 1, i32* %8, !llfi_index !304
  call void @_ZNSt6vectorIiSaIiEED2Ev(%"class.std::vector"* %result) #0, !llfi_index !305
  call void @_ZNSt14basic_ifstreamIcSt11char_traitsIcEED1Ev(%"class.std::basic_ifstream"* %file) #0, !llfi_index !306
  call void @_ZNSt7__cxx1112basic_stringIcSt11char_traitsIcESaIcEED1Ev(%"class.std::__cxx11::basic_string"* %filename) #0, !llfi_index !307
  %113 = load i32* %1, !llfi_index !308
  %fi57 = call i32 @injectFault4(i64 307, i32 %113, i32 27, i32 0, i32 1, i32 0, i8* getelementptr inbounds ([5 x i8]* @load_namestr, i32 0, i32 0)), !llfi_injectfault !9
  call void @postInjections()
  ret i32 %fi57, !llfi_index !309
}

declare void @_ZNSt7__cxx1112basic_stringIcSt11char_traitsIcESaIcEEC1EPKcRKS3_(%"class.std::__cxx11::basic_string"*, i8*, %"class.std::allocator.0"*) #1

; Function Attrs: nounwind
declare void @_ZNSaIcEC1Ev(%"class.std::allocator.0"*) #2

; Function Attrs: nounwind
declare void @_ZNSaIcED1Ev(%"class.std::allocator.0"*) #2

declare %"class.std::__cxx11::basic_string"* @_ZNSt7__cxx1112basic_stringIcSt11char_traitsIcESaIcEEaSEPKc(%"class.std::__cxx11::basic_string"*, i8*) #1

declare void @_ZNSt14basic_ifstreamIcSt11char_traitsIcEEC1EPKcSt13_Ios_Openmode(%"class.std::basic_ifstream"*, i8*, i32) #1

; Function Attrs: nounwind
declare i8* @_ZNKSt7__cxx1112basic_stringIcSt11char_traitsIcESaIcEE5c_strEv(%"class.std::__cxx11::basic_string"*) #2

declare zeroext i1 @_ZNSt14basic_ifstreamIcSt11char_traitsIcEE7is_openEv(%"class.std::basic_ifstream"*) #1

; Function Attrs: nounwind uwtable
define linkonce_odr void @_ZNSt6vectorIiSaIiEEC2ESt16initializer_listIiERKS0_(%"class.std::vector"* %this, i32* %__l.coerce0, i64 %__l.coerce1, %"class.std::allocator"* %__a) unnamed_addr #3 align 2 {
  %1 = alloca %"class.std::vector"*, align 8, !llfi_index !310
  %__l = alloca %"class.std::initializer_list", align 8, !llfi_index !311
  %2 = alloca %"class.std::allocator"*, align 8, !llfi_index !312
  %3 = alloca %"struct.std::forward_iterator_tag", align 1, !llfi_index !313
  %4 = alloca %"struct.std::random_access_iterator_tag", align 1, !llfi_index !314
  store %"class.std::vector"* %this, %"class.std::vector"** %1, align 8, !llfi_index !315
  %5 = bitcast %"class.std::initializer_list"* %__l to { i32*, i64 }*, !llfi_index !316
  %fi = call { i32*, i64 }* @injectFault11(i64 315, { i32*, i64 }* %5, i32 44, i32 0, i32 1, i32 0, i8* getelementptr inbounds ([8 x i8]* @bitcast_namestr, i32 0, i32 0)), !llfi_injectfault !9
  %6 = getelementptr { i32*, i64 }* %fi, i32 0, i32 0, !llfi_index !317
  %fi1 = call i32** @injectFault0(i64 316, i32** %6, i32 29, i32 0, i32 1, i32 0, i8* getelementptr inbounds ([14 x i8]* @getelementptr_namestr, i32 0, i32 0)), !llfi_injectfault !9
  store i32* %__l.coerce0, i32** %fi1, !llfi_index !318
  %7 = getelementptr { i32*, i64 }* %fi, i32 0, i32 1, !llfi_index !319
  %fi2 = call i64* @injectFault10(i64 318, i64* %7, i32 29, i32 0, i32 1, i32 0, i8* getelementptr inbounds ([14 x i8]* @getelementptr_namestr, i32 0, i32 0)), !llfi_injectfault !9
  store i64 %__l.coerce1, i64* %fi2, !llfi_index !320
  store %"class.std::allocator"* %__a, %"class.std::allocator"** %2, align 8, !llfi_index !321
  %8 = load %"class.std::vector"** %1, !llfi_index !322
  %fi3 = call %"class.std::vector"* @injectFault8(i64 321, %"class.std::vector"* %8, i32 27, i32 0, i32 1, i32 0, i8* getelementptr inbounds ([5 x i8]* @load_namestr, i32 0, i32 0)), !llfi_injectfault !9
  %9 = bitcast %"class.std::vector"* %fi3 to %"struct.std::_Vector_base"*, !llfi_index !323
  %fi4 = call %"struct.std::_Vector_base"* @injectFault2(i64 322, %"struct.std::_Vector_base"* %9, i32 44, i32 0, i32 1, i32 0, i8* getelementptr inbounds ([8 x i8]* @bitcast_namestr, i32 0, i32 0)), !llfi_injectfault !9
  %10 = load %"class.std::allocator"** %2, align 8, !llfi_index !324
  %fi5 = call %"class.std::allocator"* @injectFault9(i64 323, %"class.std::allocator"* %10, i32 27, i32 0, i32 1, i32 0, i8* getelementptr inbounds ([5 x i8]* @load_namestr, i32 0, i32 0)), !llfi_injectfault !9
  call void @_ZNSt12_Vector_baseIiSaIiEEC2ERKS0_(%"struct.std::_Vector_base"* %fi4, %"class.std::allocator"* %fi5) #0, !llfi_index !325
  %11 = call i32* @_ZNKSt16initializer_listIiE5beginEv(%"class.std::initializer_list"* %__l) #0, !llfi_index !326
  %12 = call i32* @_ZNKSt16initializer_listIiE3endEv(%"class.std::initializer_list"* %__l) #0, !llfi_index !327
  %13 = bitcast %"struct.std::random_access_iterator_tag"* %4 to %"struct.std::forward_iterator_tag"*, !llfi_index !328
  %fi6 = call %"struct.std::forward_iterator_tag"* @injectFault18(i64 327, %"struct.std::forward_iterator_tag"* %13, i32 44, i32 0, i32 1, i32 0, i8* getelementptr inbounds ([8 x i8]* @bitcast_namestr, i32 0, i32 0)), !llfi_injectfault !9
  call void @_ZNSt6vectorIiSaIiEE19_M_range_initializeIPKiEEvT_S5_St20forward_iterator_tag(%"class.std::vector"* %fi3, i32* %11, i32* %12), !llfi_index !329
  ret void, !llfi_index !330
}

; Function Attrs: nounwind uwtable
define linkonce_odr void @_ZNSaIiEC2Ev(%"class.std::allocator"* %this) unnamed_addr #3 align 2 {
  %1 = alloca %"class.std::allocator"*, align 8, !llfi_index !331
  store %"class.std::allocator"* %this, %"class.std::allocator"** %1, align 8, !llfi_index !332
  %2 = load %"class.std::allocator"** %1, !llfi_index !333
  %fi = call %"class.std::allocator"* @injectFault9(i64 332, %"class.std::allocator"* %2, i32 27, i32 0, i32 1, i32 0, i8* getelementptr inbounds ([5 x i8]* @load_namestr, i32 0, i32 0)), !llfi_injectfault !9
  %3 = bitcast %"class.std::allocator"* %fi to %"class.__gnu_cxx::new_allocator"*, !llfi_index !334
  %fi1 = call %"class.__gnu_cxx::new_allocator"* @injectFault19(i64 333, %"class.__gnu_cxx::new_allocator"* %3, i32 44, i32 0, i32 1, i32 0, i8* getelementptr inbounds ([8 x i8]* @bitcast_namestr, i32 0, i32 0)), !llfi_injectfault !9
  call void @_ZN9__gnu_cxx13new_allocatorIiEC2Ev(%"class.__gnu_cxx::new_allocator"* %fi1) #0, !llfi_index !335
  ret void, !llfi_index !336
}

; Function Attrs: nounwind uwtable
define linkonce_odr void @_ZNSaIiED2Ev(%"class.std::allocator"* %this) unnamed_addr #3 align 2 {
  %1 = alloca %"class.std::allocator"*, align 8, !llfi_index !337
  store %"class.std::allocator"* %this, %"class.std::allocator"** %1, align 8, !llfi_index !338
  %2 = load %"class.std::allocator"** %1, !llfi_index !339
  %fi = call %"class.std::allocator"* @injectFault9(i64 338, %"class.std::allocator"* %2, i32 27, i32 0, i32 1, i32 0, i8* getelementptr inbounds ([5 x i8]* @load_namestr, i32 0, i32 0)), !llfi_injectfault !9
  %3 = bitcast %"class.std::allocator"* %fi to %"class.__gnu_cxx::new_allocator"*, !llfi_index !340
  %fi1 = call %"class.__gnu_cxx::new_allocator"* @injectFault19(i64 339, %"class.__gnu_cxx::new_allocator"* %3, i32 44, i32 0, i32 1, i32 0, i8* getelementptr inbounds ([8 x i8]* @bitcast_namestr, i32 0, i32 0)), !llfi_injectfault !9
  call void @_ZN9__gnu_cxx13new_allocatorIiED2Ev(%"class.__gnu_cxx::new_allocator"* %fi1) #0, !llfi_index !341
  ret void, !llfi_index !342
}

; Function Attrs: nounwind uwtable
define linkonce_odr i32* @_ZNSt6vectorIiSaIiEE5beginEv(%"class.std::vector"* %this) #3 align 2 {
  %1 = alloca %"class.__gnu_cxx::__normal_iterator", align 8, !llfi_index !343
  %2 = alloca %"class.std::vector"*, align 8, !llfi_index !344
  store %"class.std::vector"* %this, %"class.std::vector"** %2, align 8, !llfi_index !345
  %3 = load %"class.std::vector"** %2, !llfi_index !346
  %fi = call %"class.std::vector"* @injectFault8(i64 345, %"class.std::vector"* %3, i32 27, i32 0, i32 1, i32 0, i8* getelementptr inbounds ([5 x i8]* @load_namestr, i32 0, i32 0)), !llfi_injectfault !9
  %4 = bitcast %"class.std::vector"* %fi to %"struct.std::_Vector_base"*, !llfi_index !347
  %fi1 = call %"struct.std::_Vector_base"* @injectFault2(i64 346, %"struct.std::_Vector_base"* %4, i32 44, i32 0, i32 1, i32 0, i8* getelementptr inbounds ([8 x i8]* @bitcast_namestr, i32 0, i32 0)), !llfi_injectfault !9
  %5 = getelementptr %"struct.std::_Vector_base"* %fi1, i32 0, i32 0, !llfi_index !348
  %fi2 = call %"struct.std::_Vector_base<int, std::allocator<int> >::_Vector_impl"* @injectFault3(i64 347, %"struct.std::_Vector_base<int, std::allocator<int> >::_Vector_impl"* %5, i32 29, i32 0, i32 1, i32 0, i8* getelementptr inbounds ([14 x i8]* @getelementptr_namestr, i32 0, i32 0)), !llfi_injectfault !9
  %6 = getelementptr %"struct.std::_Vector_base<int, std::allocator<int> >::_Vector_impl"* %fi2, i32 0, i32 0, !llfi_index !349
  %fi3 = call i32** @injectFault0(i64 348, i32** %6, i32 29, i32 0, i32 1, i32 0, i8* getelementptr inbounds ([14 x i8]* @getelementptr_namestr, i32 0, i32 0)), !llfi_injectfault !9
  call void @_ZN9__gnu_cxx17__normal_iteratorIPiSt6vectorIiSaIiEEEC2ERKS1_(%"class.__gnu_cxx::__normal_iterator"* %1, i32** %fi3) #0, !llfi_index !350
  %7 = getelementptr %"class.__gnu_cxx::__normal_iterator"* %1, i32 0, i32 0, !llfi_index !351
  %fi4 = call i32** @injectFault0(i64 350, i32** %7, i32 29, i32 0, i32 1, i32 0, i8* getelementptr inbounds ([14 x i8]* @getelementptr_namestr, i32 0, i32 0)), !llfi_injectfault !9
  %8 = load i32** %fi4, !llfi_index !352
  %fi5 = call i32* @injectFault1(i64 351, i32* %8, i32 27, i32 0, i32 1, i32 0, i8* getelementptr inbounds ([5 x i8]* @load_namestr, i32 0, i32 0)), !llfi_injectfault !9
  ret i32* %fi5, !llfi_index !353
}

; Function Attrs: nounwind uwtable
define linkonce_odr i32* @_ZNSt6vectorIiSaIiEE3endEv(%"class.std::vector"* %this) #3 align 2 {
  %1 = alloca %"class.__gnu_cxx::__normal_iterator", align 8, !llfi_index !354
  %2 = alloca %"class.std::vector"*, align 8, !llfi_index !355
  store %"class.std::vector"* %this, %"class.std::vector"** %2, align 8, !llfi_index !356
  %3 = load %"class.std::vector"** %2, !llfi_index !357
  %fi = call %"class.std::vector"* @injectFault8(i64 356, %"class.std::vector"* %3, i32 27, i32 0, i32 1, i32 0, i8* getelementptr inbounds ([5 x i8]* @load_namestr, i32 0, i32 0)), !llfi_injectfault !9
  %4 = bitcast %"class.std::vector"* %fi to %"struct.std::_Vector_base"*, !llfi_index !358
  %fi1 = call %"struct.std::_Vector_base"* @injectFault2(i64 357, %"struct.std::_Vector_base"* %4, i32 44, i32 0, i32 1, i32 0, i8* getelementptr inbounds ([8 x i8]* @bitcast_namestr, i32 0, i32 0)), !llfi_injectfault !9
  %5 = getelementptr %"struct.std::_Vector_base"* %fi1, i32 0, i32 0, !llfi_index !359
  %fi2 = call %"struct.std::_Vector_base<int, std::allocator<int> >::_Vector_impl"* @injectFault3(i64 358, %"struct.std::_Vector_base<int, std::allocator<int> >::_Vector_impl"* %5, i32 29, i32 0, i32 1, i32 0, i8* getelementptr inbounds ([14 x i8]* @getelementptr_namestr, i32 0, i32 0)), !llfi_injectfault !9
  %6 = getelementptr %"struct.std::_Vector_base<int, std::allocator<int> >::_Vector_impl"* %fi2, i32 0, i32 1, !llfi_index !360
  %fi3 = call i32** @injectFault0(i64 359, i32** %6, i32 29, i32 0, i32 1, i32 0, i8* getelementptr inbounds ([14 x i8]* @getelementptr_namestr, i32 0, i32 0)), !llfi_injectfault !9
  call void @_ZN9__gnu_cxx17__normal_iteratorIPiSt6vectorIiSaIiEEEC2ERKS1_(%"class.__gnu_cxx::__normal_iterator"* %1, i32** %fi3) #0, !llfi_index !361
  %7 = getelementptr %"class.__gnu_cxx::__normal_iterator"* %1, i32 0, i32 0, !llfi_index !362
  %fi4 = call i32** @injectFault0(i64 361, i32** %7, i32 29, i32 0, i32 1, i32 0, i8* getelementptr inbounds ([14 x i8]* @getelementptr_namestr, i32 0, i32 0)), !llfi_injectfault !9
  %8 = load i32** %fi4, !llfi_index !363
  %fi5 = call i32* @injectFault1(i64 362, i32* %8, i32 27, i32 0, i32 1, i32 0, i8* getelementptr inbounds ([5 x i8]* @load_namestr, i32 0, i32 0)), !llfi_injectfault !9
  ret i32* %fi5, !llfi_index !364
}

; Function Attrs: inlinehint nounwind uwtable
define linkonce_odr zeroext i1 @_ZN9__gnu_cxxneIPiSt6vectorIiSaIiEEEEbRKNS_17__normal_iteratorIT_T0_EESA_(%"class.__gnu_cxx::__normal_iterator"* %__lhs, %"class.__gnu_cxx::__normal_iterator"* %__rhs) #5 {
  %1 = alloca %"class.__gnu_cxx::__normal_iterator"*, align 8, !llfi_index !365
  %2 = alloca %"class.__gnu_cxx::__normal_iterator"*, align 8, !llfi_index !366
  store %"class.__gnu_cxx::__normal_iterator"* %__lhs, %"class.__gnu_cxx::__normal_iterator"** %1, align 8, !llfi_index !367
  store %"class.__gnu_cxx::__normal_iterator"* %__rhs, %"class.__gnu_cxx::__normal_iterator"** %2, align 8, !llfi_index !368
  %3 = load %"class.__gnu_cxx::__normal_iterator"** %1, align 8, !llfi_index !369
  %fi = call %"class.__gnu_cxx::__normal_iterator"* @injectFault20(i64 368, %"class.__gnu_cxx::__normal_iterator"* %3, i32 27, i32 0, i32 1, i32 0, i8* getelementptr inbounds ([5 x i8]* @load_namestr, i32 0, i32 0)), !llfi_injectfault !9
  %4 = call i32** @_ZNK9__gnu_cxx17__normal_iteratorIPiSt6vectorIiSaIiEEE4baseEv(%"class.__gnu_cxx::__normal_iterator"* %fi) #0, !llfi_index !370
  %5 = load i32** %4, !llfi_index !371
  %fi1 = call i32* @injectFault1(i64 370, i32* %5, i32 27, i32 0, i32 1, i32 0, i8* getelementptr inbounds ([5 x i8]* @load_namestr, i32 0, i32 0)), !llfi_injectfault !9
  %6 = load %"class.__gnu_cxx::__normal_iterator"** %2, align 8, !llfi_index !372
  %fi2 = call %"class.__gnu_cxx::__normal_iterator"* @injectFault20(i64 371, %"class.__gnu_cxx::__normal_iterator"* %6, i32 27, i32 0, i32 1, i32 0, i8* getelementptr inbounds ([5 x i8]* @load_namestr, i32 0, i32 0)), !llfi_injectfault !9
  %7 = call i32** @_ZNK9__gnu_cxx17__normal_iteratorIPiSt6vectorIiSaIiEEE4baseEv(%"class.__gnu_cxx::__normal_iterator"* %fi2) #0, !llfi_index !373
  %8 = load i32** %7, !llfi_index !374
  %fi3 = call i32* @injectFault1(i64 373, i32* %8, i32 27, i32 0, i32 1, i32 0, i8* getelementptr inbounds ([5 x i8]* @load_namestr, i32 0, i32 0)), !llfi_injectfault !9
  %9 = icmp ne i32* %fi1, %fi3, !llfi_index !375
  %fi4 = call i1 @injectFault6(i64 374, i1 %9, i32 46, i32 0, i32 1, i32 0, i8* getelementptr inbounds ([5 x i8]* @icmp_namestr, i32 0, i32 0)), !llfi_injectfault !9
  ret i1 %fi4, !llfi_index !376
}

; Function Attrs: nounwind uwtable
define linkonce_odr i32* @_ZNK9__gnu_cxx17__normal_iteratorIPiSt6vectorIiSaIiEEEdeEv(%"class.__gnu_cxx::__normal_iterator"* %this) #3 align 2 {
  %1 = alloca %"class.__gnu_cxx::__normal_iterator"*, align 8, !llfi_index !377
  store %"class.__gnu_cxx::__normal_iterator"* %this, %"class.__gnu_cxx::__normal_iterator"** %1, align 8, !llfi_index !378
  %2 = load %"class.__gnu_cxx::__normal_iterator"** %1, !llfi_index !379
  %fi = call %"class.__gnu_cxx::__normal_iterator"* @injectFault20(i64 378, %"class.__gnu_cxx::__normal_iterator"* %2, i32 27, i32 0, i32 1, i32 0, i8* getelementptr inbounds ([5 x i8]* @load_namestr, i32 0, i32 0)), !llfi_injectfault !9
  %3 = getelementptr %"class.__gnu_cxx::__normal_iterator"* %fi, i32 0, i32 0, !llfi_index !380
  %fi1 = call i32** @injectFault0(i64 379, i32** %3, i32 29, i32 0, i32 1, i32 0, i8* getelementptr inbounds ([14 x i8]* @getelementptr_namestr, i32 0, i32 0)), !llfi_injectfault !9
  %4 = load i32** %fi1, align 8, !llfi_index !381
  %fi2 = call i32* @injectFault1(i64 380, i32* %4, i32 27, i32 0, i32 1, i32 0, i8* getelementptr inbounds ([5 x i8]* @load_namestr, i32 0, i32 0)), !llfi_injectfault !9
  ret i32* %fi2, !llfi_index !382
}

; Function Attrs: nounwind uwtable
define linkonce_odr %"class.__gnu_cxx::__normal_iterator"* @_ZN9__gnu_cxx17__normal_iteratorIPiSt6vectorIiSaIiEEEppEv(%"class.__gnu_cxx::__normal_iterator"* %this) #3 align 2 {
  %1 = alloca %"class.__gnu_cxx::__normal_iterator"*, align 8, !llfi_index !383
  store %"class.__gnu_cxx::__normal_iterator"* %this, %"class.__gnu_cxx::__normal_iterator"** %1, align 8, !llfi_index !384
  %2 = load %"class.__gnu_cxx::__normal_iterator"** %1, !llfi_index !385
  %fi3 = call %"class.__gnu_cxx::__normal_iterator"* @injectFault20(i64 384, %"class.__gnu_cxx::__normal_iterator"* %2, i32 27, i32 0, i32 1, i32 0, i8* getelementptr inbounds ([5 x i8]* @load_namestr, i32 0, i32 0)), !llfi_injectfault !9
  %3 = getelementptr %"class.__gnu_cxx::__normal_iterator"* %fi3, i32 0, i32 0, !llfi_index !386
  %fi = call i32** @injectFault0(i64 385, i32** %3, i32 29, i32 0, i32 1, i32 0, i8* getelementptr inbounds ([14 x i8]* @getelementptr_namestr, i32 0, i32 0)), !llfi_injectfault !9
  %4 = load i32** %fi, align 8, !llfi_index !387
  %fi1 = call i32* @injectFault1(i64 386, i32* %4, i32 27, i32 0, i32 1, i32 0, i8* getelementptr inbounds ([5 x i8]* @load_namestr, i32 0, i32 0)), !llfi_injectfault !9
  %5 = getelementptr i32* %fi1, i32 1, !llfi_index !388
  %fi2 = call i32* @injectFault1(i64 387, i32* %5, i32 29, i32 0, i32 1, i32 0, i8* getelementptr inbounds ([14 x i8]* @getelementptr_namestr, i32 0, i32 0)), !llfi_injectfault !9
  store i32* %fi2, i32** %fi, align 8, !llfi_index !389
  ret %"class.__gnu_cxx::__normal_iterator"* %fi3, !llfi_index !390
}

; Function Attrs: nounwind uwtable
define linkonce_odr void @_ZNSt6vectorIiSaIiEED2Ev(%"class.std::vector"* %this) unnamed_addr #3 align 2 {
  %1 = alloca %"class.std::vector"*, align 8, !llfi_index !391
  store %"class.std::vector"* %this, %"class.std::vector"** %1, align 8, !llfi_index !392
  %2 = load %"class.std::vector"** %1, !llfi_index !393
  %fi1 = call %"class.std::vector"* @injectFault8(i64 392, %"class.std::vector"* %2, i32 27, i32 0, i32 1, i32 0, i8* getelementptr inbounds ([5 x i8]* @load_namestr, i32 0, i32 0)), !llfi_injectfault !9
  %3 = bitcast %"class.std::vector"* %fi1 to %"struct.std::_Vector_base"*, !llfi_index !394
  %fi2 = call %"struct.std::_Vector_base"* @injectFault2(i64 393, %"struct.std::_Vector_base"* %3, i32 44, i32 0, i32 1, i32 0, i8* getelementptr inbounds ([8 x i8]* @bitcast_namestr, i32 0, i32 0)), !llfi_injectfault !9
  %4 = getelementptr %"struct.std::_Vector_base"* %fi2, i32 0, i32 0, !llfi_index !395
  %fi3 = call %"struct.std::_Vector_base<int, std::allocator<int> >::_Vector_impl"* @injectFault3(i64 394, %"struct.std::_Vector_base<int, std::allocator<int> >::_Vector_impl"* %4, i32 29, i32 0, i32 1, i32 0, i8* getelementptr inbounds ([14 x i8]* @getelementptr_namestr, i32 0, i32 0)), !llfi_injectfault !9
  %5 = getelementptr %"struct.std::_Vector_base<int, std::allocator<int> >::_Vector_impl"* %fi3, i32 0, i32 0, !llfi_index !396
  %fi4 = call i32** @injectFault0(i64 395, i32** %5, i32 29, i32 0, i32 1, i32 0, i8* getelementptr inbounds ([14 x i8]* @getelementptr_namestr, i32 0, i32 0)), !llfi_injectfault !9
  %6 = load i32** %fi4, align 8, !llfi_index !397
  %fi5 = call i32* @injectFault1(i64 396, i32* %6, i32 27, i32 0, i32 1, i32 0, i8* getelementptr inbounds ([5 x i8]* @load_namestr, i32 0, i32 0)), !llfi_injectfault !9
  %7 = bitcast %"class.std::vector"* %fi1 to %"struct.std::_Vector_base"*, !llfi_index !398
  %fi6 = call %"struct.std::_Vector_base"* @injectFault2(i64 397, %"struct.std::_Vector_base"* %7, i32 44, i32 0, i32 1, i32 0, i8* getelementptr inbounds ([8 x i8]* @bitcast_namestr, i32 0, i32 0)), !llfi_injectfault !9
  %8 = getelementptr %"struct.std::_Vector_base"* %fi6, i32 0, i32 0, !llfi_index !399
  %fi7 = call %"struct.std::_Vector_base<int, std::allocator<int> >::_Vector_impl"* @injectFault3(i64 398, %"struct.std::_Vector_base<int, std::allocator<int> >::_Vector_impl"* %8, i32 29, i32 0, i32 1, i32 0, i8* getelementptr inbounds ([14 x i8]* @getelementptr_namestr, i32 0, i32 0)), !llfi_injectfault !9
  %9 = getelementptr %"struct.std::_Vector_base<int, std::allocator<int> >::_Vector_impl"* %fi7, i32 0, i32 1, !llfi_index !400
  %fi8 = call i32** @injectFault0(i64 399, i32** %9, i32 29, i32 0, i32 1, i32 0, i8* getelementptr inbounds ([14 x i8]* @getelementptr_namestr, i32 0, i32 0)), !llfi_injectfault !9
  %10 = load i32** %fi8, align 8, !llfi_index !401
  %fi9 = call i32* @injectFault1(i64 400, i32* %10, i32 27, i32 0, i32 1, i32 0, i8* getelementptr inbounds ([5 x i8]* @load_namestr, i32 0, i32 0)), !llfi_injectfault !9
  %11 = bitcast %"class.std::vector"* %fi1 to %"struct.std::_Vector_base"*, !llfi_index !402
  %fi10 = call %"struct.std::_Vector_base"* @injectFault2(i64 401, %"struct.std::_Vector_base"* %11, i32 44, i32 0, i32 1, i32 0, i8* getelementptr inbounds ([8 x i8]* @bitcast_namestr, i32 0, i32 0)), !llfi_injectfault !9
  %12 = call %"class.std::allocator"* @_ZNSt12_Vector_baseIiSaIiEE19_M_get_Tp_allocatorEv(%"struct.std::_Vector_base"* %fi10) #0, !llfi_index !403
  call void @_ZSt8_DestroyIPiiEvT_S1_RSaIT0_E(i32* %fi5, i32* %fi9, %"class.std::allocator"* %12), !llfi_index !404
  %13 = bitcast %"class.std::vector"* %fi1 to %"struct.std::_Vector_base"*, !llfi_index !405
  %fi = call %"struct.std::_Vector_base"* @injectFault2(i64 404, %"struct.std::_Vector_base"* %13, i32 44, i32 0, i32 1, i32 0, i8* getelementptr inbounds ([8 x i8]* @bitcast_namestr, i32 0, i32 0)), !llfi_injectfault !9
  call void @_ZNSt12_Vector_baseIiSaIiEED2Ev(%"struct.std::_Vector_base"* %fi) #0, !llfi_index !406
  ret void, !llfi_index !407
}

declare %"class.std::basic_istream"* @_ZNSirsERi(%"class.std::basic_istream"*, i32*) #1

declare zeroext i1 @_ZNKSt9basic_iosIcSt11char_traitsIcEEcvbEv(%"class.std::basic_ios"*) #1

declare void @_ZNSt14basic_ifstreamIcSt11char_traitsIcEE5closeEv(%"class.std::basic_ifstream"*) #1

; Function Attrs: nounwind uwtable
define linkonce_odr void @_ZNSt6vectorIiSaIiEEC2Ev(%"class.std::vector"* %this) unnamed_addr #3 align 2 {
  %1 = alloca %"class.std::vector"*, align 8, !llfi_index !408
  store %"class.std::vector"* %this, %"class.std::vector"** %1, align 8, !llfi_index !409
  %2 = load %"class.std::vector"** %1, !llfi_index !410
  %fi = call %"class.std::vector"* @injectFault8(i64 409, %"class.std::vector"* %2, i32 27, i32 0, i32 1, i32 0, i8* getelementptr inbounds ([5 x i8]* @load_namestr, i32 0, i32 0)), !llfi_injectfault !9
  %3 = bitcast %"class.std::vector"* %fi to %"struct.std::_Vector_base"*, !llfi_index !411
  %fi1 = call %"struct.std::_Vector_base"* @injectFault2(i64 410, %"struct.std::_Vector_base"* %3, i32 44, i32 0, i32 1, i32 0, i8* getelementptr inbounds ([8 x i8]* @bitcast_namestr, i32 0, i32 0)), !llfi_injectfault !9
  call void @_ZNSt12_Vector_baseIiSaIiEEC2Ev(%"struct.std::_Vector_base"* %fi1), !llfi_index !412
  ret void, !llfi_index !413
}

; Function Attrs: nounwind uwtable
define linkonce_odr i64 @_ZNKSt6vectorIiSaIiEE4sizeEv(%"class.std::vector"* %this) #3 align 2 {
  %1 = alloca %"class.std::vector"*, align 8, !llfi_index !414
  store %"class.std::vector"* %this, %"class.std::vector"** %1, align 8, !llfi_index !415
  %2 = load %"class.std::vector"** %1, !llfi_index !416
  %fi = call %"class.std::vector"* @injectFault8(i64 415, %"class.std::vector"* %2, i32 27, i32 0, i32 1, i32 0, i8* getelementptr inbounds ([5 x i8]* @load_namestr, i32 0, i32 0)), !llfi_injectfault !9
  %3 = bitcast %"class.std::vector"* %fi to %"struct.std::_Vector_base"*, !llfi_index !417
  %fi1 = call %"struct.std::_Vector_base"* @injectFault2(i64 416, %"struct.std::_Vector_base"* %3, i32 44, i32 0, i32 1, i32 0, i8* getelementptr inbounds ([8 x i8]* @bitcast_namestr, i32 0, i32 0)), !llfi_injectfault !9
  %4 = getelementptr %"struct.std::_Vector_base"* %fi1, i32 0, i32 0, !llfi_index !418
  %fi2 = call %"struct.std::_Vector_base<int, std::allocator<int> >::_Vector_impl"* @injectFault3(i64 417, %"struct.std::_Vector_base<int, std::allocator<int> >::_Vector_impl"* %4, i32 29, i32 0, i32 1, i32 0, i8* getelementptr inbounds ([14 x i8]* @getelementptr_namestr, i32 0, i32 0)), !llfi_injectfault !9
  %5 = getelementptr %"struct.std::_Vector_base<int, std::allocator<int> >::_Vector_impl"* %fi2, i32 0, i32 1, !llfi_index !419
  %fi3 = call i32** @injectFault0(i64 418, i32** %5, i32 29, i32 0, i32 1, i32 0, i8* getelementptr inbounds ([14 x i8]* @getelementptr_namestr, i32 0, i32 0)), !llfi_injectfault !9
  %6 = load i32** %fi3, align 8, !llfi_index !420
  %fi4 = call i32* @injectFault1(i64 419, i32* %6, i32 27, i32 0, i32 1, i32 0, i8* getelementptr inbounds ([5 x i8]* @load_namestr, i32 0, i32 0)), !llfi_injectfault !9
  %7 = bitcast %"class.std::vector"* %fi to %"struct.std::_Vector_base"*, !llfi_index !421
  %fi5 = call %"struct.std::_Vector_base"* @injectFault2(i64 420, %"struct.std::_Vector_base"* %7, i32 44, i32 0, i32 1, i32 0, i8* getelementptr inbounds ([8 x i8]* @bitcast_namestr, i32 0, i32 0)), !llfi_injectfault !9
  %8 = getelementptr %"struct.std::_Vector_base"* %fi5, i32 0, i32 0, !llfi_index !422
  %fi6 = call %"struct.std::_Vector_base<int, std::allocator<int> >::_Vector_impl"* @injectFault3(i64 421, %"struct.std::_Vector_base<int, std::allocator<int> >::_Vector_impl"* %8, i32 29, i32 0, i32 1, i32 0, i8* getelementptr inbounds ([14 x i8]* @getelementptr_namestr, i32 0, i32 0)), !llfi_injectfault !9
  %9 = getelementptr %"struct.std::_Vector_base<int, std::allocator<int> >::_Vector_impl"* %fi6, i32 0, i32 0, !llfi_index !423
  %fi7 = call i32** @injectFault0(i64 422, i32** %9, i32 29, i32 0, i32 1, i32 0, i8* getelementptr inbounds ([14 x i8]* @getelementptr_namestr, i32 0, i32 0)), !llfi_injectfault !9
  %10 = load i32** %fi7, align 8, !llfi_index !424
  %fi8 = call i32* @injectFault1(i64 423, i32* %10, i32 27, i32 0, i32 1, i32 0, i8* getelementptr inbounds ([5 x i8]* @load_namestr, i32 0, i32 0)), !llfi_injectfault !9
  %11 = ptrtoint i32* %fi4 to i64, !llfi_index !425
  %fi9 = call i64 @injectFault12(i64 424, i64 %11, i32 42, i32 0, i32 1, i32 0, i8* getelementptr inbounds ([9 x i8]* @ptrtoint_namestr, i32 0, i32 0)), !llfi_injectfault !9
  %12 = ptrtoint i32* %fi8 to i64, !llfi_index !426
  %fi10 = call i64 @injectFault12(i64 425, i64 %12, i32 42, i32 0, i32 1, i32 0, i8* getelementptr inbounds ([9 x i8]* @ptrtoint_namestr, i32 0, i32 0)), !llfi_injectfault !9
  %13 = sub i64 %fi9, %fi10, !llfi_index !427
  %fi11 = call i64 @injectFault12(i64 426, i64 %13, i32 10, i32 0, i32 1, i32 0, i8* getelementptr inbounds ([4 x i8]* @sub_namestr, i32 0, i32 0)), !llfi_injectfault !9
  %14 = sdiv exact i64 %fi11, 4, !llfi_index !428
  %fi12 = call i64 @injectFault12(i64 427, i64 %14, i32 15, i32 0, i32 1, i32 0, i8* getelementptr inbounds ([5 x i8]* @sdiv_namestr, i32 0, i32 0)), !llfi_injectfault !9
  ret i64 %fi12, !llfi_index !429
}

; Function Attrs: nounwind uwtable
define linkonce_odr i32* @_ZNSt6vectorIiSaIiEEixEm(%"class.std::vector"* %this, i64 %__n) #3 align 2 {
  %1 = alloca %"class.std::vector"*, align 8, !llfi_index !430
  %2 = alloca i64, align 8, !llfi_index !431
  store %"class.std::vector"* %this, %"class.std::vector"** %1, align 8, !llfi_index !432
  store i64 %__n, i64* %2, align 8, !llfi_index !433
  %3 = load %"class.std::vector"** %1, !llfi_index !434
  %fi = call %"class.std::vector"* @injectFault8(i64 433, %"class.std::vector"* %3, i32 27, i32 0, i32 1, i32 0, i8* getelementptr inbounds ([5 x i8]* @load_namestr, i32 0, i32 0)), !llfi_injectfault !9
  %4 = bitcast %"class.std::vector"* %fi to %"struct.std::_Vector_base"*, !llfi_index !435
  %fi1 = call %"struct.std::_Vector_base"* @injectFault2(i64 434, %"struct.std::_Vector_base"* %4, i32 44, i32 0, i32 1, i32 0, i8* getelementptr inbounds ([8 x i8]* @bitcast_namestr, i32 0, i32 0)), !llfi_injectfault !9
  %5 = getelementptr %"struct.std::_Vector_base"* %fi1, i32 0, i32 0, !llfi_index !436
  %fi2 = call %"struct.std::_Vector_base<int, std::allocator<int> >::_Vector_impl"* @injectFault3(i64 435, %"struct.std::_Vector_base<int, std::allocator<int> >::_Vector_impl"* %5, i32 29, i32 0, i32 1, i32 0, i8* getelementptr inbounds ([14 x i8]* @getelementptr_namestr, i32 0, i32 0)), !llfi_injectfault !9
  %6 = getelementptr %"struct.std::_Vector_base<int, std::allocator<int> >::_Vector_impl"* %fi2, i32 0, i32 0, !llfi_index !437
  %fi3 = call i32** @injectFault0(i64 436, i32** %6, i32 29, i32 0, i32 1, i32 0, i8* getelementptr inbounds ([14 x i8]* @getelementptr_namestr, i32 0, i32 0)), !llfi_injectfault !9
  %7 = load i32** %fi3, align 8, !llfi_index !438
  %fi4 = call i32* @injectFault1(i64 437, i32* %7, i32 27, i32 0, i32 1, i32 0, i8* getelementptr inbounds ([5 x i8]* @load_namestr, i32 0, i32 0)), !llfi_injectfault !9
  %8 = load i64* %2, align 8, !llfi_index !439
  %fi5 = call i64 @injectFault12(i64 438, i64 %8, i32 27, i32 0, i32 1, i32 0, i8* getelementptr inbounds ([5 x i8]* @load_namestr, i32 0, i32 0)), !llfi_injectfault !9
  %9 = getelementptr i32* %fi4, i64 %fi5, !llfi_index !440
  %fi6 = call i32* @injectFault1(i64 439, i32* %9, i32 29, i32 0, i32 1, i32 0, i8* getelementptr inbounds ([14 x i8]* @getelementptr_namestr, i32 0, i32 0)), !llfi_injectfault !9
  ret i32* %fi6, !llfi_index !441
}

; Function Attrs: nounwind uwtable
define linkonce_odr zeroext i1 @_ZNKSt6vectorIiSaIiEE5emptyEv(%"class.std::vector"* %this) #3 align 2 {
  %1 = alloca %"class.std::vector"*, align 8, !llfi_index !442
  %2 = alloca %"class.__gnu_cxx::__normal_iterator.4", align 8, !llfi_index !443
  %3 = alloca %"class.__gnu_cxx::__normal_iterator.4", align 8, !llfi_index !444
  store %"class.std::vector"* %this, %"class.std::vector"** %1, align 8, !llfi_index !445
  %4 = load %"class.std::vector"** %1, !llfi_index !446
  %fi = call %"class.std::vector"* @injectFault8(i64 445, %"class.std::vector"* %4, i32 27, i32 0, i32 1, i32 0, i8* getelementptr inbounds ([5 x i8]* @load_namestr, i32 0, i32 0)), !llfi_injectfault !9
  %5 = call i32* @_ZNKSt6vectorIiSaIiEE5beginEv(%"class.std::vector"* %fi) #0, !llfi_index !447
  %6 = getelementptr %"class.__gnu_cxx::__normal_iterator.4"* %2, i32 0, i32 0, !llfi_index !448
  %fi1 = call i32** @injectFault0(i64 447, i32** %6, i32 29, i32 0, i32 1, i32 0, i8* getelementptr inbounds ([14 x i8]* @getelementptr_namestr, i32 0, i32 0)), !llfi_injectfault !9
  store i32* %5, i32** %fi1, !llfi_index !449
  %7 = call i32* @_ZNKSt6vectorIiSaIiEE3endEv(%"class.std::vector"* %fi) #0, !llfi_index !450
  %8 = getelementptr %"class.__gnu_cxx::__normal_iterator.4"* %3, i32 0, i32 0, !llfi_index !451
  %fi2 = call i32** @injectFault0(i64 450, i32** %8, i32 29, i32 0, i32 1, i32 0, i8* getelementptr inbounds ([14 x i8]* @getelementptr_namestr, i32 0, i32 0)), !llfi_injectfault !9
  store i32* %7, i32** %fi2, !llfi_index !452
  %9 = call zeroext i1 @_ZN9__gnu_cxxeqIPKiSt6vectorIiSaIiEEEEbRKNS_17__normal_iteratorIT_T0_EESB_(%"class.__gnu_cxx::__normal_iterator.4"* %2, %"class.__gnu_cxx::__normal_iterator.4"* %3) #0, !llfi_index !453
  ret i1 %9, !llfi_index !454
}

declare %"class.std::basic_ostream"* @_ZStlsISt11char_traitsIcEERSt13basic_ostreamIcT_ES5_PKc(%"class.std::basic_ostream"*, i8*) #1

declare %"class.std::basic_ostream"* @_ZNSolsEPFRSoS_E(%"class.std::basic_ostream"*, %"class.std::basic_ostream"* (%"class.std::basic_ostream"*)*) #1

declare %"class.std::basic_ostream"* @_ZSt4endlIcSt11char_traitsIcEERSt13basic_ostreamIT_T0_ES6_(%"class.std::basic_ostream"*) #1

; Function Attrs: nounwind
declare void @_ZNSt14basic_ifstreamIcSt11char_traitsIcEED1Ev(%"class.std::basic_ifstream"*) #2

; Function Attrs: nounwind
declare void @_ZNSt7__cxx1112basic_stringIcSt11char_traitsIcESaIcEED1Ev(%"class.std::__cxx11::basic_string"*) #2

; Function Attrs: inlinehint nounwind uwtable
define linkonce_odr zeroext i1 @_ZN9__gnu_cxxeqIPKiSt6vectorIiSaIiEEEEbRKNS_17__normal_iteratorIT_T0_EESB_(%"class.__gnu_cxx::__normal_iterator.4"* %__lhs, %"class.__gnu_cxx::__normal_iterator.4"* %__rhs) #5 {
  %1 = alloca %"class.__gnu_cxx::__normal_iterator.4"*, align 8, !llfi_index !455
  %2 = alloca %"class.__gnu_cxx::__normal_iterator.4"*, align 8, !llfi_index !456
  store %"class.__gnu_cxx::__normal_iterator.4"* %__lhs, %"class.__gnu_cxx::__normal_iterator.4"** %1, align 8, !llfi_index !457
  store %"class.__gnu_cxx::__normal_iterator.4"* %__rhs, %"class.__gnu_cxx::__normal_iterator.4"** %2, align 8, !llfi_index !458
  %3 = load %"class.__gnu_cxx::__normal_iterator.4"** %1, align 8, !llfi_index !459
  %fi = call %"class.__gnu_cxx::__normal_iterator.4"* @injectFault21(i64 458, %"class.__gnu_cxx::__normal_iterator.4"* %3, i32 27, i32 0, i32 1, i32 0, i8* getelementptr inbounds ([5 x i8]* @load_namestr, i32 0, i32 0)), !llfi_injectfault !9
  %4 = call i32** @_ZNK9__gnu_cxx17__normal_iteratorIPKiSt6vectorIiSaIiEEE4baseEv(%"class.__gnu_cxx::__normal_iterator.4"* %fi) #0, !llfi_index !460
  %5 = load i32** %4, !llfi_index !461
  %fi1 = call i32* @injectFault1(i64 460, i32* %5, i32 27, i32 0, i32 1, i32 0, i8* getelementptr inbounds ([5 x i8]* @load_namestr, i32 0, i32 0)), !llfi_injectfault !9
  %6 = load %"class.__gnu_cxx::__normal_iterator.4"** %2, align 8, !llfi_index !462
  %fi2 = call %"class.__gnu_cxx::__normal_iterator.4"* @injectFault21(i64 461, %"class.__gnu_cxx::__normal_iterator.4"* %6, i32 27, i32 0, i32 1, i32 0, i8* getelementptr inbounds ([5 x i8]* @load_namestr, i32 0, i32 0)), !llfi_injectfault !9
  %7 = call i32** @_ZNK9__gnu_cxx17__normal_iteratorIPKiSt6vectorIiSaIiEEE4baseEv(%"class.__gnu_cxx::__normal_iterator.4"* %fi2) #0, !llfi_index !463
  %8 = load i32** %7, !llfi_index !464
  %fi3 = call i32* @injectFault1(i64 463, i32* %8, i32 27, i32 0, i32 1, i32 0, i8* getelementptr inbounds ([5 x i8]* @load_namestr, i32 0, i32 0)), !llfi_injectfault !9
  %9 = icmp eq i32* %fi1, %fi3, !llfi_index !465
  %fi4 = call i1 @injectFault6(i64 464, i1 %9, i32 46, i32 0, i32 1, i32 0, i8* getelementptr inbounds ([5 x i8]* @icmp_namestr, i32 0, i32 0)), !llfi_injectfault !9
  ret i1 %fi4, !llfi_index !466
}

; Function Attrs: nounwind uwtable
define linkonce_odr i32* @_ZNKSt6vectorIiSaIiEE5beginEv(%"class.std::vector"* %this) #3 align 2 {
  %1 = alloca %"class.__gnu_cxx::__normal_iterator.4", align 8, !llfi_index !467
  %2 = alloca %"class.std::vector"*, align 8, !llfi_index !468
  %3 = alloca i32*, align 8, !llfi_index !469
  store %"class.std::vector"* %this, %"class.std::vector"** %2, align 8, !llfi_index !470
  %4 = load %"class.std::vector"** %2, !llfi_index !471
  %fi2 = call %"class.std::vector"* @injectFault8(i64 470, %"class.std::vector"* %4, i32 27, i32 0, i32 1, i32 0, i8* getelementptr inbounds ([5 x i8]* @load_namestr, i32 0, i32 0)), !llfi_injectfault !9
  %5 = bitcast %"class.std::vector"* %fi2 to %"struct.std::_Vector_base"*, !llfi_index !472
  %fi3 = call %"struct.std::_Vector_base"* @injectFault2(i64 471, %"struct.std::_Vector_base"* %5, i32 44, i32 0, i32 1, i32 0, i8* getelementptr inbounds ([8 x i8]* @bitcast_namestr, i32 0, i32 0)), !llfi_injectfault !9
  %6 = getelementptr %"struct.std::_Vector_base"* %fi3, i32 0, i32 0, !llfi_index !473
  %fi4 = call %"struct.std::_Vector_base<int, std::allocator<int> >::_Vector_impl"* @injectFault3(i64 472, %"struct.std::_Vector_base<int, std::allocator<int> >::_Vector_impl"* %6, i32 29, i32 0, i32 1, i32 0, i8* getelementptr inbounds ([14 x i8]* @getelementptr_namestr, i32 0, i32 0)), !llfi_injectfault !9
  %7 = getelementptr %"struct.std::_Vector_base<int, std::allocator<int> >::_Vector_impl"* %fi4, i32 0, i32 0, !llfi_index !474
  %fi5 = call i32** @injectFault0(i64 473, i32** %7, i32 29, i32 0, i32 1, i32 0, i8* getelementptr inbounds ([14 x i8]* @getelementptr_namestr, i32 0, i32 0)), !llfi_injectfault !9
  %8 = load i32** %fi5, align 8, !llfi_index !475
  %fi6 = call i32* @injectFault1(i64 474, i32* %8, i32 27, i32 0, i32 1, i32 0, i8* getelementptr inbounds ([5 x i8]* @load_namestr, i32 0, i32 0)), !llfi_injectfault !9
  store i32* %fi6, i32** %3, !llfi_index !476
  call void @_ZN9__gnu_cxx17__normal_iteratorIPKiSt6vectorIiSaIiEEEC2ERKS2_(%"class.__gnu_cxx::__normal_iterator.4"* %1, i32** %3) #0, !llfi_index !477
  %9 = getelementptr %"class.__gnu_cxx::__normal_iterator.4"* %1, i32 0, i32 0, !llfi_index !478
  %fi = call i32** @injectFault0(i64 477, i32** %9, i32 29, i32 0, i32 1, i32 0, i8* getelementptr inbounds ([14 x i8]* @getelementptr_namestr, i32 0, i32 0)), !llfi_injectfault !9
  %10 = load i32** %fi, !llfi_index !479
  %fi1 = call i32* @injectFault1(i64 478, i32* %10, i32 27, i32 0, i32 1, i32 0, i8* getelementptr inbounds ([5 x i8]* @load_namestr, i32 0, i32 0)), !llfi_injectfault !9
  ret i32* %fi1, !llfi_index !480
}

; Function Attrs: nounwind uwtable
define linkonce_odr i32* @_ZNKSt6vectorIiSaIiEE3endEv(%"class.std::vector"* %this) #3 align 2 {
  %1 = alloca %"class.__gnu_cxx::__normal_iterator.4", align 8, !llfi_index !481
  %2 = alloca %"class.std::vector"*, align 8, !llfi_index !482
  %3 = alloca i32*, align 8, !llfi_index !483
  store %"class.std::vector"* %this, %"class.std::vector"** %2, align 8, !llfi_index !484
  %4 = load %"class.std::vector"** %2, !llfi_index !485
  %fi = call %"class.std::vector"* @injectFault8(i64 484, %"class.std::vector"* %4, i32 27, i32 0, i32 1, i32 0, i8* getelementptr inbounds ([5 x i8]* @load_namestr, i32 0, i32 0)), !llfi_injectfault !9
  %5 = bitcast %"class.std::vector"* %fi to %"struct.std::_Vector_base"*, !llfi_index !486
  %fi1 = call %"struct.std::_Vector_base"* @injectFault2(i64 485, %"struct.std::_Vector_base"* %5, i32 44, i32 0, i32 1, i32 0, i8* getelementptr inbounds ([8 x i8]* @bitcast_namestr, i32 0, i32 0)), !llfi_injectfault !9
  %6 = getelementptr %"struct.std::_Vector_base"* %fi1, i32 0, i32 0, !llfi_index !487
  %fi2 = call %"struct.std::_Vector_base<int, std::allocator<int> >::_Vector_impl"* @injectFault3(i64 486, %"struct.std::_Vector_base<int, std::allocator<int> >::_Vector_impl"* %6, i32 29, i32 0, i32 1, i32 0, i8* getelementptr inbounds ([14 x i8]* @getelementptr_namestr, i32 0, i32 0)), !llfi_injectfault !9
  %7 = getelementptr %"struct.std::_Vector_base<int, std::allocator<int> >::_Vector_impl"* %fi2, i32 0, i32 1, !llfi_index !488
  %fi3 = call i32** @injectFault0(i64 487, i32** %7, i32 29, i32 0, i32 1, i32 0, i8* getelementptr inbounds ([14 x i8]* @getelementptr_namestr, i32 0, i32 0)), !llfi_injectfault !9
  %8 = load i32** %fi3, align 8, !llfi_index !489
  %fi4 = call i32* @injectFault1(i64 488, i32* %8, i32 27, i32 0, i32 1, i32 0, i8* getelementptr inbounds ([5 x i8]* @load_namestr, i32 0, i32 0)), !llfi_injectfault !9
  store i32* %fi4, i32** %3, !llfi_index !490
  call void @_ZN9__gnu_cxx17__normal_iteratorIPKiSt6vectorIiSaIiEEEC2ERKS2_(%"class.__gnu_cxx::__normal_iterator.4"* %1, i32** %3) #0, !llfi_index !491
  %9 = getelementptr %"class.__gnu_cxx::__normal_iterator.4"* %1, i32 0, i32 0, !llfi_index !492
  %fi5 = call i32** @injectFault0(i64 491, i32** %9, i32 29, i32 0, i32 1, i32 0, i8* getelementptr inbounds ([14 x i8]* @getelementptr_namestr, i32 0, i32 0)), !llfi_injectfault !9
  %10 = load i32** %fi5, !llfi_index !493
  %fi6 = call i32* @injectFault1(i64 492, i32* %10, i32 27, i32 0, i32 1, i32 0, i8* getelementptr inbounds ([5 x i8]* @load_namestr, i32 0, i32 0)), !llfi_injectfault !9
  ret i32* %fi6, !llfi_index !494
}

; Function Attrs: nounwind uwtable
define linkonce_odr void @_ZN9__gnu_cxx17__normal_iteratorIPKiSt6vectorIiSaIiEEEC2ERKS2_(%"class.__gnu_cxx::__normal_iterator.4"* %this, i32** %__i) unnamed_addr #3 align 2 {
  %1 = alloca %"class.__gnu_cxx::__normal_iterator.4"*, align 8, !llfi_index !495
  %2 = alloca i32**, align 8, !llfi_index !496
  store %"class.__gnu_cxx::__normal_iterator.4"* %this, %"class.__gnu_cxx::__normal_iterator.4"** %1, align 8, !llfi_index !497
  store i32** %__i, i32*** %2, align 8, !llfi_index !498
  %3 = load %"class.__gnu_cxx::__normal_iterator.4"** %1, !llfi_index !499
  %fi = call %"class.__gnu_cxx::__normal_iterator.4"* @injectFault21(i64 498, %"class.__gnu_cxx::__normal_iterator.4"* %3, i32 27, i32 0, i32 1, i32 0, i8* getelementptr inbounds ([5 x i8]* @load_namestr, i32 0, i32 0)), !llfi_injectfault !9
  %4 = getelementptr %"class.__gnu_cxx::__normal_iterator.4"* %fi, i32 0, i32 0, !llfi_index !500
  %fi1 = call i32** @injectFault0(i64 499, i32** %4, i32 29, i32 0, i32 1, i32 0, i8* getelementptr inbounds ([14 x i8]* @getelementptr_namestr, i32 0, i32 0)), !llfi_injectfault !9
  %5 = load i32*** %2, align 8, !llfi_index !501
  %fi2 = call i32** @injectFault0(i64 500, i32** %5, i32 27, i32 0, i32 1, i32 0, i8* getelementptr inbounds ([5 x i8]* @load_namestr, i32 0, i32 0)), !llfi_injectfault !9
  %6 = load i32** %fi2, align 8, !llfi_index !502
  %fi3 = call i32* @injectFault1(i64 501, i32* %6, i32 27, i32 0, i32 1, i32 0, i8* getelementptr inbounds ([5 x i8]* @load_namestr, i32 0, i32 0)), !llfi_injectfault !9
  store i32* %fi3, i32** %fi1, align 8, !llfi_index !503
  ret void, !llfi_index !504
}

; Function Attrs: nounwind uwtable
define linkonce_odr i32** @_ZNK9__gnu_cxx17__normal_iteratorIPKiSt6vectorIiSaIiEEE4baseEv(%"class.__gnu_cxx::__normal_iterator.4"* %this) #3 align 2 {
  %1 = alloca %"class.__gnu_cxx::__normal_iterator.4"*, align 8, !llfi_index !505
  store %"class.__gnu_cxx::__normal_iterator.4"* %this, %"class.__gnu_cxx::__normal_iterator.4"** %1, align 8, !llfi_index !506
  %2 = load %"class.__gnu_cxx::__normal_iterator.4"** %1, !llfi_index !507
  %fi = call %"class.__gnu_cxx::__normal_iterator.4"* @injectFault21(i64 506, %"class.__gnu_cxx::__normal_iterator.4"* %2, i32 27, i32 0, i32 1, i32 0, i8* getelementptr inbounds ([5 x i8]* @load_namestr, i32 0, i32 0)), !llfi_injectfault !9
  %3 = getelementptr %"class.__gnu_cxx::__normal_iterator.4"* %fi, i32 0, i32 0, !llfi_index !508
  %fi1 = call i32** @injectFault0(i64 507, i32** %3, i32 29, i32 0, i32 1, i32 0, i8* getelementptr inbounds ([14 x i8]* @getelementptr_namestr, i32 0, i32 0)), !llfi_injectfault !9
  ret i32** %fi1, !llfi_index !509
}

; Function Attrs: nounwind uwtable
define linkonce_odr void @_ZNSt12_Vector_baseIiSaIiEEC2Ev(%"struct.std::_Vector_base"* %this) unnamed_addr #3 align 2 {
  %1 = alloca %"struct.std::_Vector_base"*, align 8, !llfi_index !510
  store %"struct.std::_Vector_base"* %this, %"struct.std::_Vector_base"** %1, align 8, !llfi_index !511
  %2 = load %"struct.std::_Vector_base"** %1, !llfi_index !512
  %fi = call %"struct.std::_Vector_base"* @injectFault2(i64 511, %"struct.std::_Vector_base"* %2, i32 27, i32 0, i32 1, i32 0, i8* getelementptr inbounds ([5 x i8]* @load_namestr, i32 0, i32 0)), !llfi_injectfault !9
  %3 = getelementptr %"struct.std::_Vector_base"* %fi, i32 0, i32 0, !llfi_index !513
  %fi1 = call %"struct.std::_Vector_base<int, std::allocator<int> >::_Vector_impl"* @injectFault3(i64 512, %"struct.std::_Vector_base<int, std::allocator<int> >::_Vector_impl"* %3, i32 29, i32 0, i32 1, i32 0, i8* getelementptr inbounds ([14 x i8]* @getelementptr_namestr, i32 0, i32 0)), !llfi_injectfault !9
  call void @_ZNSt12_Vector_baseIiSaIiEE12_Vector_implC2Ev(%"struct.std::_Vector_base<int, std::allocator<int> >::_Vector_impl"* %fi1), !llfi_index !514
  ret void, !llfi_index !515
}

; Function Attrs: nounwind uwtable
define linkonce_odr void @_ZNSt12_Vector_baseIiSaIiEE12_Vector_implC2Ev(%"struct.std::_Vector_base<int, std::allocator<int> >::_Vector_impl"* %this) unnamed_addr #3 align 2 {
  %1 = alloca %"struct.std::_Vector_base<int, std::allocator<int> >::_Vector_impl"*, align 8, !llfi_index !516
  store %"struct.std::_Vector_base<int, std::allocator<int> >::_Vector_impl"* %this, %"struct.std::_Vector_base<int, std::allocator<int> >::_Vector_impl"** %1, align 8, !llfi_index !517
  %2 = load %"struct.std::_Vector_base<int, std::allocator<int> >::_Vector_impl"** %1, !llfi_index !518
  %fi = call %"struct.std::_Vector_base<int, std::allocator<int> >::_Vector_impl"* @injectFault3(i64 517, %"struct.std::_Vector_base<int, std::allocator<int> >::_Vector_impl"* %2, i32 27, i32 0, i32 1, i32 0, i8* getelementptr inbounds ([5 x i8]* @load_namestr, i32 0, i32 0)), !llfi_injectfault !9
  %3 = bitcast %"struct.std::_Vector_base<int, std::allocator<int> >::_Vector_impl"* %fi to %"class.std::allocator"*, !llfi_index !519
  %fi1 = call %"class.std::allocator"* @injectFault9(i64 518, %"class.std::allocator"* %3, i32 44, i32 0, i32 1, i32 0, i8* getelementptr inbounds ([8 x i8]* @bitcast_namestr, i32 0, i32 0)), !llfi_injectfault !9
  call void @_ZNSaIiEC2Ev(%"class.std::allocator"* %fi1) #0, !llfi_index !520
  %4 = getelementptr %"struct.std::_Vector_base<int, std::allocator<int> >::_Vector_impl"* %fi, i32 0, i32 0, !llfi_index !521
  %fi2 = call i32** @injectFault0(i64 520, i32** %4, i32 29, i32 0, i32 1, i32 0, i8* getelementptr inbounds ([14 x i8]* @getelementptr_namestr, i32 0, i32 0)), !llfi_injectfault !9
  store i32* null, i32** %fi2, align 8, !llfi_index !522
  %5 = getelementptr %"struct.std::_Vector_base<int, std::allocator<int> >::_Vector_impl"* %fi, i32 0, i32 1, !llfi_index !523
  %fi3 = call i32** @injectFault0(i64 522, i32** %5, i32 29, i32 0, i32 1, i32 0, i8* getelementptr inbounds ([14 x i8]* @getelementptr_namestr, i32 0, i32 0)), !llfi_injectfault !9
  store i32* null, i32** %fi3, align 8, !llfi_index !524
  %6 = getelementptr %"struct.std::_Vector_base<int, std::allocator<int> >::_Vector_impl"* %fi, i32 0, i32 2, !llfi_index !525
  %fi4 = call i32** @injectFault0(i64 524, i32** %6, i32 29, i32 0, i32 1, i32 0, i8* getelementptr inbounds ([14 x i8]* @getelementptr_namestr, i32 0, i32 0)), !llfi_injectfault !9
  store i32* null, i32** %fi4, align 8, !llfi_index !526
  ret void, !llfi_index !527
}

; Function Attrs: nounwind uwtable
define linkonce_odr void @_ZN9__gnu_cxx13new_allocatorIiEC2Ev(%"class.__gnu_cxx::new_allocator"* %this) unnamed_addr #3 align 2 {
  %1 = alloca %"class.__gnu_cxx::new_allocator"*, align 8, !llfi_index !528
  store %"class.__gnu_cxx::new_allocator"* %this, %"class.__gnu_cxx::new_allocator"** %1, align 8, !llfi_index !529
  %2 = load %"class.__gnu_cxx::new_allocator"** %1, !llfi_index !530
  %fi = call %"class.__gnu_cxx::new_allocator"* @injectFault19(i64 529, %"class.__gnu_cxx::new_allocator"* %2, i32 27, i32 0, i32 1, i32 0, i8* getelementptr inbounds ([5 x i8]* @load_namestr, i32 0, i32 0)), !llfi_injectfault !9
  ret void, !llfi_index !531
}

; Function Attrs: nounwind uwtable
define linkonce_odr i32** @_ZNK9__gnu_cxx17__normal_iteratorIPiSt6vectorIiSaIiEEE4baseEv(%"class.__gnu_cxx::__normal_iterator"* %this) #3 align 2 {
  %1 = alloca %"class.__gnu_cxx::__normal_iterator"*, align 8, !llfi_index !532
  store %"class.__gnu_cxx::__normal_iterator"* %this, %"class.__gnu_cxx::__normal_iterator"** %1, align 8, !llfi_index !533
  %2 = load %"class.__gnu_cxx::__normal_iterator"** %1, !llfi_index !534
  %fi = call %"class.__gnu_cxx::__normal_iterator"* @injectFault20(i64 533, %"class.__gnu_cxx::__normal_iterator"* %2, i32 27, i32 0, i32 1, i32 0, i8* getelementptr inbounds ([5 x i8]* @load_namestr, i32 0, i32 0)), !llfi_injectfault !9
  %3 = getelementptr %"class.__gnu_cxx::__normal_iterator"* %fi, i32 0, i32 0, !llfi_index !535
  %fi1 = call i32** @injectFault0(i64 534, i32** %3, i32 29, i32 0, i32 1, i32 0, i8* getelementptr inbounds ([14 x i8]* @getelementptr_namestr, i32 0, i32 0)), !llfi_injectfault !9
  ret i32** %fi1, !llfi_index !536
}

; Function Attrs: nounwind uwtable
define linkonce_odr void @_ZN9__gnu_cxx17__normal_iteratorIPiSt6vectorIiSaIiEEEC2ERKS1_(%"class.__gnu_cxx::__normal_iterator"* %this, i32** %__i) unnamed_addr #3 align 2 {
  %1 = alloca %"class.__gnu_cxx::__normal_iterator"*, align 8, !llfi_index !537
  %2 = alloca i32**, align 8, !llfi_index !538
  store %"class.__gnu_cxx::__normal_iterator"* %this, %"class.__gnu_cxx::__normal_iterator"** %1, align 8, !llfi_index !539
  store i32** %__i, i32*** %2, align 8, !llfi_index !540
  %3 = load %"class.__gnu_cxx::__normal_iterator"** %1, !llfi_index !541
  %fi = call %"class.__gnu_cxx::__normal_iterator"* @injectFault20(i64 540, %"class.__gnu_cxx::__normal_iterator"* %3, i32 27, i32 0, i32 1, i32 0, i8* getelementptr inbounds ([5 x i8]* @load_namestr, i32 0, i32 0)), !llfi_injectfault !9
  %4 = getelementptr %"class.__gnu_cxx::__normal_iterator"* %fi, i32 0, i32 0, !llfi_index !542
  %fi1 = call i32** @injectFault0(i64 541, i32** %4, i32 29, i32 0, i32 1, i32 0, i8* getelementptr inbounds ([14 x i8]* @getelementptr_namestr, i32 0, i32 0)), !llfi_injectfault !9
  %5 = load i32*** %2, align 8, !llfi_index !543
  %fi2 = call i32** @injectFault0(i64 542, i32** %5, i32 27, i32 0, i32 1, i32 0, i8* getelementptr inbounds ([5 x i8]* @load_namestr, i32 0, i32 0)), !llfi_injectfault !9
  %6 = load i32** %fi2, align 8, !llfi_index !544
  %fi3 = call i32* @injectFault1(i64 543, i32* %6, i32 27, i32 0, i32 1, i32 0, i8* getelementptr inbounds ([5 x i8]* @load_namestr, i32 0, i32 0)), !llfi_injectfault !9
  store i32* %fi3, i32** %fi1, align 8, !llfi_index !545
  ret void, !llfi_index !546
}

; Function Attrs: inlinehint nounwind uwtable
define linkonce_odr void @_ZSt8_DestroyIPiiEvT_S1_RSaIT0_E(i32* %__first, i32* %__last, %"class.std::allocator"*) #5 {
  %2 = alloca i32*, align 8, !llfi_index !547
  %3 = alloca i32*, align 8, !llfi_index !548
  %4 = alloca %"class.std::allocator"*, align 8, !llfi_index !549
  store i32* %__first, i32** %2, align 8, !llfi_index !550
  store i32* %__last, i32** %3, align 8, !llfi_index !551
  store %"class.std::allocator"* %0, %"class.std::allocator"** %4, align 8, !llfi_index !552
  %5 = load i32** %2, align 8, !llfi_index !553
  %fi = call i32* @injectFault1(i64 552, i32* %5, i32 27, i32 0, i32 1, i32 0, i8* getelementptr inbounds ([5 x i8]* @load_namestr, i32 0, i32 0)), !llfi_injectfault !9
  %6 = load i32** %3, align 8, !llfi_index !554
  %fi1 = call i32* @injectFault1(i64 553, i32* %6, i32 27, i32 0, i32 1, i32 0, i8* getelementptr inbounds ([5 x i8]* @load_namestr, i32 0, i32 0)), !llfi_injectfault !9
  call void @_ZSt8_DestroyIPiEvT_S1_(i32* %fi, i32* %fi1), !llfi_index !555
  ret void, !llfi_index !556
}

; Function Attrs: nounwind uwtable
define linkonce_odr %"class.std::allocator"* @_ZNSt12_Vector_baseIiSaIiEE19_M_get_Tp_allocatorEv(%"struct.std::_Vector_base"* %this) #3 align 2 {
  %1 = alloca %"struct.std::_Vector_base"*, align 8, !llfi_index !557
  store %"struct.std::_Vector_base"* %this, %"struct.std::_Vector_base"** %1, align 8, !llfi_index !558
  %2 = load %"struct.std::_Vector_base"** %1, !llfi_index !559
  %fi = call %"struct.std::_Vector_base"* @injectFault2(i64 558, %"struct.std::_Vector_base"* %2, i32 27, i32 0, i32 1, i32 0, i8* getelementptr inbounds ([5 x i8]* @load_namestr, i32 0, i32 0)), !llfi_injectfault !9
  %3 = getelementptr %"struct.std::_Vector_base"* %fi, i32 0, i32 0, !llfi_index !560
  %fi1 = call %"struct.std::_Vector_base<int, std::allocator<int> >::_Vector_impl"* @injectFault3(i64 559, %"struct.std::_Vector_base<int, std::allocator<int> >::_Vector_impl"* %3, i32 29, i32 0, i32 1, i32 0, i8* getelementptr inbounds ([14 x i8]* @getelementptr_namestr, i32 0, i32 0)), !llfi_injectfault !9
  %4 = bitcast %"struct.std::_Vector_base<int, std::allocator<int> >::_Vector_impl"* %fi1 to %"class.std::allocator"*, !llfi_index !561
  %fi2 = call %"class.std::allocator"* @injectFault9(i64 560, %"class.std::allocator"* %4, i32 44, i32 0, i32 1, i32 0, i8* getelementptr inbounds ([8 x i8]* @bitcast_namestr, i32 0, i32 0)), !llfi_injectfault !9
  ret %"class.std::allocator"* %fi2, !llfi_index !562
}

; Function Attrs: nounwind uwtable
define linkonce_odr void @_ZNSt12_Vector_baseIiSaIiEED2Ev(%"struct.std::_Vector_base"* %this) unnamed_addr #3 align 2 {
  %1 = alloca %"struct.std::_Vector_base"*, align 8, !llfi_index !563
  store %"struct.std::_Vector_base"* %this, %"struct.std::_Vector_base"** %1, align 8, !llfi_index !564
  %2 = load %"struct.std::_Vector_base"** %1, !llfi_index !565
  %fi = call %"struct.std::_Vector_base"* @injectFault2(i64 564, %"struct.std::_Vector_base"* %2, i32 27, i32 0, i32 1, i32 0, i8* getelementptr inbounds ([5 x i8]* @load_namestr, i32 0, i32 0)), !llfi_injectfault !9
  %3 = getelementptr %"struct.std::_Vector_base"* %fi, i32 0, i32 0, !llfi_index !566
  %fi1 = call %"struct.std::_Vector_base<int, std::allocator<int> >::_Vector_impl"* @injectFault3(i64 565, %"struct.std::_Vector_base<int, std::allocator<int> >::_Vector_impl"* %3, i32 29, i32 0, i32 1, i32 0, i8* getelementptr inbounds ([14 x i8]* @getelementptr_namestr, i32 0, i32 0)), !llfi_injectfault !9
  %4 = getelementptr %"struct.std::_Vector_base<int, std::allocator<int> >::_Vector_impl"* %fi1, i32 0, i32 0, !llfi_index !567
  %fi2 = call i32** @injectFault0(i64 566, i32** %4, i32 29, i32 0, i32 1, i32 0, i8* getelementptr inbounds ([14 x i8]* @getelementptr_namestr, i32 0, i32 0)), !llfi_injectfault !9
  %5 = load i32** %fi2, align 8, !llfi_index !568
  %fi3 = call i32* @injectFault1(i64 567, i32* %5, i32 27, i32 0, i32 1, i32 0, i8* getelementptr inbounds ([5 x i8]* @load_namestr, i32 0, i32 0)), !llfi_injectfault !9
  %6 = getelementptr %"struct.std::_Vector_base"* %fi, i32 0, i32 0, !llfi_index !569
  %fi4 = call %"struct.std::_Vector_base<int, std::allocator<int> >::_Vector_impl"* @injectFault3(i64 568, %"struct.std::_Vector_base<int, std::allocator<int> >::_Vector_impl"* %6, i32 29, i32 0, i32 1, i32 0, i8* getelementptr inbounds ([14 x i8]* @getelementptr_namestr, i32 0, i32 0)), !llfi_injectfault !9
  %7 = getelementptr %"struct.std::_Vector_base<int, std::allocator<int> >::_Vector_impl"* %fi4, i32 0, i32 2, !llfi_index !570
  %fi5 = call i32** @injectFault0(i64 569, i32** %7, i32 29, i32 0, i32 1, i32 0, i8* getelementptr inbounds ([14 x i8]* @getelementptr_namestr, i32 0, i32 0)), !llfi_injectfault !9
  %8 = load i32** %fi5, align 8, !llfi_index !571
  %fi6 = call i32* @injectFault1(i64 570, i32* %8, i32 27, i32 0, i32 1, i32 0, i8* getelementptr inbounds ([5 x i8]* @load_namestr, i32 0, i32 0)), !llfi_injectfault !9
  %9 = getelementptr %"struct.std::_Vector_base"* %fi, i32 0, i32 0, !llfi_index !572
  %fi7 = call %"struct.std::_Vector_base<int, std::allocator<int> >::_Vector_impl"* @injectFault3(i64 571, %"struct.std::_Vector_base<int, std::allocator<int> >::_Vector_impl"* %9, i32 29, i32 0, i32 1, i32 0, i8* getelementptr inbounds ([14 x i8]* @getelementptr_namestr, i32 0, i32 0)), !llfi_injectfault !9
  %10 = getelementptr %"struct.std::_Vector_base<int, std::allocator<int> >::_Vector_impl"* %fi7, i32 0, i32 0, !llfi_index !573
  %fi8 = call i32** @injectFault0(i64 572, i32** %10, i32 29, i32 0, i32 1, i32 0, i8* getelementptr inbounds ([14 x i8]* @getelementptr_namestr, i32 0, i32 0)), !llfi_injectfault !9
  %11 = load i32** %fi8, align 8, !llfi_index !574
  %fi9 = call i32* @injectFault1(i64 573, i32* %11, i32 27, i32 0, i32 1, i32 0, i8* getelementptr inbounds ([5 x i8]* @load_namestr, i32 0, i32 0)), !llfi_injectfault !9
  %12 = ptrtoint i32* %fi6 to i64, !llfi_index !575
  %fi10 = call i64 @injectFault12(i64 574, i64 %12, i32 42, i32 0, i32 1, i32 0, i8* getelementptr inbounds ([9 x i8]* @ptrtoint_namestr, i32 0, i32 0)), !llfi_injectfault !9
  %13 = ptrtoint i32* %fi9 to i64, !llfi_index !576
  %fi11 = call i64 @injectFault12(i64 575, i64 %13, i32 42, i32 0, i32 1, i32 0, i8* getelementptr inbounds ([9 x i8]* @ptrtoint_namestr, i32 0, i32 0)), !llfi_injectfault !9
  %14 = sub i64 %fi10, %fi11, !llfi_index !577
  %fi12 = call i64 @injectFault12(i64 576, i64 %14, i32 10, i32 0, i32 1, i32 0, i8* getelementptr inbounds ([4 x i8]* @sub_namestr, i32 0, i32 0)), !llfi_injectfault !9
  %15 = sdiv exact i64 %fi12, 4, !llfi_index !578
  %fi13 = call i64 @injectFault12(i64 577, i64 %15, i32 15, i32 0, i32 1, i32 0, i8* getelementptr inbounds ([5 x i8]* @sdiv_namestr, i32 0, i32 0)), !llfi_injectfault !9
  call void @_ZNSt12_Vector_baseIiSaIiEE13_M_deallocateEPim(%"struct.std::_Vector_base"* %fi, i32* %fi3, i64 %fi13), !llfi_index !579
  %16 = getelementptr %"struct.std::_Vector_base"* %fi, i32 0, i32 0, !llfi_index !580
  %fi14 = call %"struct.std::_Vector_base<int, std::allocator<int> >::_Vector_impl"* @injectFault3(i64 579, %"struct.std::_Vector_base<int, std::allocator<int> >::_Vector_impl"* %16, i32 29, i32 0, i32 1, i32 0, i8* getelementptr inbounds ([14 x i8]* @getelementptr_namestr, i32 0, i32 0)), !llfi_injectfault !9
  call void @_ZNSt12_Vector_baseIiSaIiEE12_Vector_implD2Ev(%"struct.std::_Vector_base<int, std::allocator<int> >::_Vector_impl"* %fi14) #0, !llfi_index !581
  ret void, !llfi_index !582
}

; Function Attrs: nounwind uwtable
define linkonce_odr void @_ZNSt12_Vector_baseIiSaIiEE13_M_deallocateEPim(%"struct.std::_Vector_base"* %this, i32* %__p, i64 %__n) #3 align 2 {
  %1 = alloca %"struct.std::_Vector_base"*, align 8, !llfi_index !583
  %2 = alloca i32*, align 8, !llfi_index !584
  %3 = alloca i64, align 8, !llfi_index !585
  store %"struct.std::_Vector_base"* %this, %"struct.std::_Vector_base"** %1, align 8, !llfi_index !586
  store i32* %__p, i32** %2, align 8, !llfi_index !587
  store i64 %__n, i64* %3, align 8, !llfi_index !588
  %4 = load %"struct.std::_Vector_base"** %1, !llfi_index !589
  %fi = call %"struct.std::_Vector_base"* @injectFault2(i64 588, %"struct.std::_Vector_base"* %4, i32 27, i32 0, i32 1, i32 0, i8* getelementptr inbounds ([5 x i8]* @load_namestr, i32 0, i32 0)), !llfi_injectfault !9
  %5 = load i32** %2, align 8, !llfi_index !590
  %fi1 = call i32* @injectFault1(i64 589, i32* %5, i32 27, i32 0, i32 1, i32 0, i8* getelementptr inbounds ([5 x i8]* @load_namestr, i32 0, i32 0)), !llfi_injectfault !9
  %6 = icmp ne i32* %fi1, null, !llfi_index !591
  %fi2 = call i1 @injectFault6(i64 590, i1 %6, i32 46, i32 0, i32 1, i32 0, i8* getelementptr inbounds ([5 x i8]* @icmp_namestr, i32 0, i32 0)), !llfi_injectfault !9
  br i1 %fi2, label %7, label %12, !llfi_index !592

; <label>:7                                       ; preds = %0
  %8 = getelementptr %"struct.std::_Vector_base"* %fi, i32 0, i32 0, !llfi_index !593
  %fi3 = call %"struct.std::_Vector_base<int, std::allocator<int> >::_Vector_impl"* @injectFault3(i64 592, %"struct.std::_Vector_base<int, std::allocator<int> >::_Vector_impl"* %8, i32 29, i32 0, i32 1, i32 0, i8* getelementptr inbounds ([14 x i8]* @getelementptr_namestr, i32 0, i32 0)), !llfi_injectfault !9
  %9 = bitcast %"struct.std::_Vector_base<int, std::allocator<int> >::_Vector_impl"* %fi3 to %"class.std::allocator"*, !llfi_index !594
  %fi4 = call %"class.std::allocator"* @injectFault9(i64 593, %"class.std::allocator"* %9, i32 44, i32 0, i32 1, i32 0, i8* getelementptr inbounds ([8 x i8]* @bitcast_namestr, i32 0, i32 0)), !llfi_injectfault !9
  %10 = load i32** %2, align 8, !llfi_index !595
  %fi5 = call i32* @injectFault1(i64 594, i32* %10, i32 27, i32 0, i32 1, i32 0, i8* getelementptr inbounds ([5 x i8]* @load_namestr, i32 0, i32 0)), !llfi_injectfault !9
  %11 = load i64* %3, align 8, !llfi_index !596
  %fi6 = call i64 @injectFault12(i64 595, i64 %11, i32 27, i32 0, i32 1, i32 0, i8* getelementptr inbounds ([5 x i8]* @load_namestr, i32 0, i32 0)), !llfi_injectfault !9
  call void @_ZNSt16allocator_traitsISaIiEE10deallocateERS0_Pim(%"class.std::allocator"* %fi4, i32* %fi5, i64 %fi6), !llfi_index !597
  br label %12, !llfi_index !598

; <label>:12                                      ; preds = %7, %0
  ret void, !llfi_index !599
}

; Function Attrs: inlinehint nounwind uwtable
define linkonce_odr void @_ZNSt12_Vector_baseIiSaIiEE12_Vector_implD2Ev(%"struct.std::_Vector_base<int, std::allocator<int> >::_Vector_impl"* %this) unnamed_addr #5 align 2 {
  %1 = alloca %"struct.std::_Vector_base<int, std::allocator<int> >::_Vector_impl"*, align 8, !llfi_index !600
  store %"struct.std::_Vector_base<int, std::allocator<int> >::_Vector_impl"* %this, %"struct.std::_Vector_base<int, std::allocator<int> >::_Vector_impl"** %1, align 8, !llfi_index !601
  %2 = load %"struct.std::_Vector_base<int, std::allocator<int> >::_Vector_impl"** %1, !llfi_index !602
  %fi = call %"struct.std::_Vector_base<int, std::allocator<int> >::_Vector_impl"* @injectFault3(i64 601, %"struct.std::_Vector_base<int, std::allocator<int> >::_Vector_impl"* %2, i32 27, i32 0, i32 1, i32 0, i8* getelementptr inbounds ([5 x i8]* @load_namestr, i32 0, i32 0)), !llfi_injectfault !9
  %3 = bitcast %"struct.std::_Vector_base<int, std::allocator<int> >::_Vector_impl"* %fi to %"class.std::allocator"*, !llfi_index !603
  %fi1 = call %"class.std::allocator"* @injectFault9(i64 602, %"class.std::allocator"* %3, i32 44, i32 0, i32 1, i32 0, i8* getelementptr inbounds ([8 x i8]* @bitcast_namestr, i32 0, i32 0)), !llfi_injectfault !9
  call void @_ZNSaIiED2Ev(%"class.std::allocator"* %fi1) #0, !llfi_index !604
  ret void, !llfi_index !605
}

; Function Attrs: nounwind uwtable
define linkonce_odr void @_ZN9__gnu_cxx13new_allocatorIiED2Ev(%"class.__gnu_cxx::new_allocator"* %this) unnamed_addr #3 align 2 {
  %1 = alloca %"class.__gnu_cxx::new_allocator"*, align 8, !llfi_index !606
  store %"class.__gnu_cxx::new_allocator"* %this, %"class.__gnu_cxx::new_allocator"** %1, align 8, !llfi_index !607
  %2 = load %"class.__gnu_cxx::new_allocator"** %1, !llfi_index !608
  %fi = call %"class.__gnu_cxx::new_allocator"* @injectFault19(i64 607, %"class.__gnu_cxx::new_allocator"* %2, i32 27, i32 0, i32 1, i32 0, i8* getelementptr inbounds ([5 x i8]* @load_namestr, i32 0, i32 0)), !llfi_injectfault !9
  ret void, !llfi_index !609
}

; Function Attrs: nounwind uwtable
define linkonce_odr void @_ZNSt16allocator_traitsISaIiEE10deallocateERS0_Pim(%"class.std::allocator"* %__a, i32* %__p, i64 %__n) #3 align 2 {
  %1 = alloca %"class.std::allocator"*, align 8, !llfi_index !610
  %2 = alloca i32*, align 8, !llfi_index !611
  %3 = alloca i64, align 8, !llfi_index !612
  store %"class.std::allocator"* %__a, %"class.std::allocator"** %1, align 8, !llfi_index !613
  store i32* %__p, i32** %2, align 8, !llfi_index !614
  store i64 %__n, i64* %3, align 8, !llfi_index !615
  %4 = load %"class.std::allocator"** %1, align 8, !llfi_index !616
  %fi = call %"class.std::allocator"* @injectFault9(i64 615, %"class.std::allocator"* %4, i32 27, i32 0, i32 1, i32 0, i8* getelementptr inbounds ([5 x i8]* @load_namestr, i32 0, i32 0)), !llfi_injectfault !9
  %5 = bitcast %"class.std::allocator"* %fi to %"class.__gnu_cxx::new_allocator"*, !llfi_index !617
  %fi1 = call %"class.__gnu_cxx::new_allocator"* @injectFault19(i64 616, %"class.__gnu_cxx::new_allocator"* %5, i32 44, i32 0, i32 1, i32 0, i8* getelementptr inbounds ([8 x i8]* @bitcast_namestr, i32 0, i32 0)), !llfi_injectfault !9
  %6 = load i32** %2, align 8, !llfi_index !618
  %fi2 = call i32* @injectFault1(i64 617, i32* %6, i32 27, i32 0, i32 1, i32 0, i8* getelementptr inbounds ([5 x i8]* @load_namestr, i32 0, i32 0)), !llfi_injectfault !9
  %7 = load i64* %3, align 8, !llfi_index !619
  %fi3 = call i64 @injectFault12(i64 618, i64 %7, i32 27, i32 0, i32 1, i32 0, i8* getelementptr inbounds ([5 x i8]* @load_namestr, i32 0, i32 0)), !llfi_injectfault !9
  call void @_ZN9__gnu_cxx13new_allocatorIiE10deallocateEPim(%"class.__gnu_cxx::new_allocator"* %fi1, i32* %fi2, i64 %fi3), !llfi_index !620
  ret void, !llfi_index !621
}

; Function Attrs: nounwind uwtable
define linkonce_odr void @_ZN9__gnu_cxx13new_allocatorIiE10deallocateEPim(%"class.__gnu_cxx::new_allocator"* %this, i32* %__p, i64) #3 align 2 {
  %2 = alloca %"class.__gnu_cxx::new_allocator"*, align 8, !llfi_index !622
  %3 = alloca i32*, align 8, !llfi_index !623
  %4 = alloca i64, align 8, !llfi_index !624
  store %"class.__gnu_cxx::new_allocator"* %this, %"class.__gnu_cxx::new_allocator"** %2, align 8, !llfi_index !625
  store i32* %__p, i32** %3, align 8, !llfi_index !626
  store i64 %0, i64* %4, align 8, !llfi_index !627
  %5 = load %"class.__gnu_cxx::new_allocator"** %2, !llfi_index !628
  %fi = call %"class.__gnu_cxx::new_allocator"* @injectFault19(i64 627, %"class.__gnu_cxx::new_allocator"* %5, i32 27, i32 0, i32 1, i32 0, i8* getelementptr inbounds ([5 x i8]* @load_namestr, i32 0, i32 0)), !llfi_injectfault !9
  %6 = load i32** %3, align 8, !llfi_index !629
  %fi1 = call i32* @injectFault1(i64 628, i32* %6, i32 27, i32 0, i32 1, i32 0, i8* getelementptr inbounds ([5 x i8]* @load_namestr, i32 0, i32 0)), !llfi_injectfault !9
  %7 = bitcast i32* %fi1 to i8*, !llfi_index !630
  %fi2 = call i8* @injectFault14(i64 629, i8* %7, i32 44, i32 0, i32 1, i32 0, i8* getelementptr inbounds ([8 x i8]* @bitcast_namestr, i32 0, i32 0)), !llfi_injectfault !9
  call void @_ZdlPv(i8* %fi2) #0, !llfi_index !631
  ret void, !llfi_index !632
}

; Function Attrs: nobuiltin nounwind
declare void @_ZdlPv(i8*) #6

; Function Attrs: inlinehint nounwind uwtable
define linkonce_odr void @_ZSt8_DestroyIPiEvT_S1_(i32* %__first, i32* %__last) #5 {
  %1 = alloca i32*, align 8, !llfi_index !633
  %2 = alloca i32*, align 8, !llfi_index !634
  store i32* %__first, i32** %1, align 8, !llfi_index !635
  store i32* %__last, i32** %2, align 8, !llfi_index !636
  %3 = load i32** %1, align 8, !llfi_index !637
  %fi = call i32* @injectFault1(i64 636, i32* %3, i32 27, i32 0, i32 1, i32 0, i8* getelementptr inbounds ([5 x i8]* @load_namestr, i32 0, i32 0)), !llfi_injectfault !9
  %4 = load i32** %2, align 8, !llfi_index !638
  %fi1 = call i32* @injectFault1(i64 637, i32* %4, i32 27, i32 0, i32 1, i32 0, i8* getelementptr inbounds ([5 x i8]* @load_namestr, i32 0, i32 0)), !llfi_injectfault !9
  call void @_ZNSt12_Destroy_auxILb1EE9__destroyIPiEEvT_S3_(i32* %fi, i32* %fi1), !llfi_index !639
  ret void, !llfi_index !640
}

; Function Attrs: nounwind uwtable
define linkonce_odr void @_ZNSt12_Destroy_auxILb1EE9__destroyIPiEEvT_S3_(i32*, i32*) #3 align 2 {
  %3 = alloca i32*, align 8, !llfi_index !641
  %4 = alloca i32*, align 8, !llfi_index !642
  store i32* %0, i32** %3, align 8, !llfi_index !643
  store i32* %1, i32** %4, align 8, !llfi_index !644
  ret void, !llfi_index !645
}

; Function Attrs: nounwind uwtable
define linkonce_odr void @_ZNSt12_Vector_baseIiSaIiEEC2ERKS0_(%"struct.std::_Vector_base"* %this, %"class.std::allocator"* %__a) unnamed_addr #3 align 2 {
  %1 = alloca %"struct.std::_Vector_base"*, align 8, !llfi_index !646
  %2 = alloca %"class.std::allocator"*, align 8, !llfi_index !647
  store %"struct.std::_Vector_base"* %this, %"struct.std::_Vector_base"** %1, align 8, !llfi_index !648
  store %"class.std::allocator"* %__a, %"class.std::allocator"** %2, align 8, !llfi_index !649
  %3 = load %"struct.std::_Vector_base"** %1, !llfi_index !650
  %fi = call %"struct.std::_Vector_base"* @injectFault2(i64 649, %"struct.std::_Vector_base"* %3, i32 27, i32 0, i32 1, i32 0, i8* getelementptr inbounds ([5 x i8]* @load_namestr, i32 0, i32 0)), !llfi_injectfault !9
  %4 = getelementptr %"struct.std::_Vector_base"* %fi, i32 0, i32 0, !llfi_index !651
  %fi1 = call %"struct.std::_Vector_base<int, std::allocator<int> >::_Vector_impl"* @injectFault3(i64 650, %"struct.std::_Vector_base<int, std::allocator<int> >::_Vector_impl"* %4, i32 29, i32 0, i32 1, i32 0, i8* getelementptr inbounds ([14 x i8]* @getelementptr_namestr, i32 0, i32 0)), !llfi_injectfault !9
  %5 = load %"class.std::allocator"** %2, align 8, !llfi_index !652
  %fi2 = call %"class.std::allocator"* @injectFault9(i64 651, %"class.std::allocator"* %5, i32 27, i32 0, i32 1, i32 0, i8* getelementptr inbounds ([5 x i8]* @load_namestr, i32 0, i32 0)), !llfi_injectfault !9
  call void @_ZNSt12_Vector_baseIiSaIiEE12_Vector_implC2ERKS0_(%"struct.std::_Vector_base<int, std::allocator<int> >::_Vector_impl"* %fi1, %"class.std::allocator"* %fi2) #0, !llfi_index !653
  ret void, !llfi_index !654
}

; Function Attrs: nounwind uwtable
define linkonce_odr void @_ZNSt6vectorIiSaIiEE19_M_range_initializeIPKiEEvT_S5_St20forward_iterator_tag(%"class.std::vector"* %this, i32* %__first, i32* %__last) #3 align 2 {
  %1 = alloca %"class.std::vector"*, align 8, !llfi_index !655
  %2 = alloca i32*, align 8, !llfi_index !656
  %3 = alloca i32*, align 8, !llfi_index !657
  %4 = alloca %"struct.std::forward_iterator_tag", align 1, !llfi_index !658
  %__n = alloca i64, align 8, !llfi_index !659
  store %"class.std::vector"* %this, %"class.std::vector"** %1, align 8, !llfi_index !660
  store i32* %__first, i32** %2, align 8, !llfi_index !661
  store i32* %__last, i32** %3, align 8, !llfi_index !662
  %5 = load %"class.std::vector"** %1, !llfi_index !663
  %fi = call %"class.std::vector"* @injectFault8(i64 662, %"class.std::vector"* %5, i32 27, i32 0, i32 1, i32 0, i8* getelementptr inbounds ([5 x i8]* @load_namestr, i32 0, i32 0)), !llfi_injectfault !9
  %6 = load i32** %2, align 8, !llfi_index !664
  %fi1 = call i32* @injectFault1(i64 663, i32* %6, i32 27, i32 0, i32 1, i32 0, i8* getelementptr inbounds ([5 x i8]* @load_namestr, i32 0, i32 0)), !llfi_injectfault !9
  %7 = load i32** %3, align 8, !llfi_index !665
  %fi2 = call i32* @injectFault1(i64 664, i32* %7, i32 27, i32 0, i32 1, i32 0, i8* getelementptr inbounds ([5 x i8]* @load_namestr, i32 0, i32 0)), !llfi_injectfault !9
  %8 = call i64 @_ZSt8distanceIPKiENSt15iterator_traitsIT_E15difference_typeES3_S3_(i32* %fi1, i32* %fi2), !llfi_index !666
  store i64 %8, i64* %__n, align 8, !llfi_index !667
  %9 = bitcast %"class.std::vector"* %fi to %"struct.std::_Vector_base"*, !llfi_index !668
  %fi3 = call %"struct.std::_Vector_base"* @injectFault2(i64 667, %"struct.std::_Vector_base"* %9, i32 44, i32 0, i32 1, i32 0, i8* getelementptr inbounds ([8 x i8]* @bitcast_namestr, i32 0, i32 0)), !llfi_injectfault !9
  %10 = load i64* %__n, align 8, !llfi_index !669
  %fi4 = call i64 @injectFault12(i64 668, i64 %10, i32 27, i32 0, i32 1, i32 0, i8* getelementptr inbounds ([5 x i8]* @load_namestr, i32 0, i32 0)), !llfi_injectfault !9
  %11 = call i32* @_ZNSt12_Vector_baseIiSaIiEE11_M_allocateEm(%"struct.std::_Vector_base"* %fi3, i64 %fi4), !llfi_index !670
  %12 = bitcast %"class.std::vector"* %fi to %"struct.std::_Vector_base"*, !llfi_index !671
  %fi5 = call %"struct.std::_Vector_base"* @injectFault2(i64 670, %"struct.std::_Vector_base"* %12, i32 44, i32 0, i32 1, i32 0, i8* getelementptr inbounds ([8 x i8]* @bitcast_namestr, i32 0, i32 0)), !llfi_injectfault !9
  %13 = getelementptr %"struct.std::_Vector_base"* %fi5, i32 0, i32 0, !llfi_index !672
  %fi6 = call %"struct.std::_Vector_base<int, std::allocator<int> >::_Vector_impl"* @injectFault3(i64 671, %"struct.std::_Vector_base<int, std::allocator<int> >::_Vector_impl"* %13, i32 29, i32 0, i32 1, i32 0, i8* getelementptr inbounds ([14 x i8]* @getelementptr_namestr, i32 0, i32 0)), !llfi_injectfault !9
  %14 = getelementptr %"struct.std::_Vector_base<int, std::allocator<int> >::_Vector_impl"* %fi6, i32 0, i32 0, !llfi_index !673
  %fi7 = call i32** @injectFault0(i64 672, i32** %14, i32 29, i32 0, i32 1, i32 0, i8* getelementptr inbounds ([14 x i8]* @getelementptr_namestr, i32 0, i32 0)), !llfi_injectfault !9
  store i32* %11, i32** %fi7, align 8, !llfi_index !674
  %15 = bitcast %"class.std::vector"* %fi to %"struct.std::_Vector_base"*, !llfi_index !675
  %fi8 = call %"struct.std::_Vector_base"* @injectFault2(i64 674, %"struct.std::_Vector_base"* %15, i32 44, i32 0, i32 1, i32 0, i8* getelementptr inbounds ([8 x i8]* @bitcast_namestr, i32 0, i32 0)), !llfi_injectfault !9
  %16 = getelementptr %"struct.std::_Vector_base"* %fi8, i32 0, i32 0, !llfi_index !676
  %fi9 = call %"struct.std::_Vector_base<int, std::allocator<int> >::_Vector_impl"* @injectFault3(i64 675, %"struct.std::_Vector_base<int, std::allocator<int> >::_Vector_impl"* %16, i32 29, i32 0, i32 1, i32 0, i8* getelementptr inbounds ([14 x i8]* @getelementptr_namestr, i32 0, i32 0)), !llfi_injectfault !9
  %17 = getelementptr %"struct.std::_Vector_base<int, std::allocator<int> >::_Vector_impl"* %fi9, i32 0, i32 0, !llfi_index !677
  %fi11 = call i32** @injectFault0(i64 676, i32** %17, i32 29, i32 0, i32 1, i32 0, i8* getelementptr inbounds ([14 x i8]* @getelementptr_namestr, i32 0, i32 0)), !llfi_injectfault !9
  %18 = load i32** %fi11, align 8, !llfi_index !678
  %fi12 = call i32* @injectFault1(i64 677, i32* %18, i32 27, i32 0, i32 1, i32 0, i8* getelementptr inbounds ([5 x i8]* @load_namestr, i32 0, i32 0)), !llfi_injectfault !9
  %19 = load i64* %__n, align 8, !llfi_index !679
  %fi13 = call i64 @injectFault12(i64 678, i64 %19, i32 27, i32 0, i32 1, i32 0, i8* getelementptr inbounds ([5 x i8]* @load_namestr, i32 0, i32 0)), !llfi_injectfault !9
  %20 = getelementptr i32* %fi12, i64 %fi13, !llfi_index !680
  %fi14 = call i32* @injectFault1(i64 679, i32* %20, i32 29, i32 0, i32 1, i32 0, i8* getelementptr inbounds ([14 x i8]* @getelementptr_namestr, i32 0, i32 0)), !llfi_injectfault !9
  %21 = bitcast %"class.std::vector"* %fi to %"struct.std::_Vector_base"*, !llfi_index !681
  %fi15 = call %"struct.std::_Vector_base"* @injectFault2(i64 680, %"struct.std::_Vector_base"* %21, i32 44, i32 0, i32 1, i32 0, i8* getelementptr inbounds ([8 x i8]* @bitcast_namestr, i32 0, i32 0)), !llfi_injectfault !9
  %22 = getelementptr %"struct.std::_Vector_base"* %fi15, i32 0, i32 0, !llfi_index !682
  %fi16 = call %"struct.std::_Vector_base<int, std::allocator<int> >::_Vector_impl"* @injectFault3(i64 681, %"struct.std::_Vector_base<int, std::allocator<int> >::_Vector_impl"* %22, i32 29, i32 0, i32 1, i32 0, i8* getelementptr inbounds ([14 x i8]* @getelementptr_namestr, i32 0, i32 0)), !llfi_injectfault !9
  %23 = getelementptr %"struct.std::_Vector_base<int, std::allocator<int> >::_Vector_impl"* %fi16, i32 0, i32 2, !llfi_index !683
  %fi17 = call i32** @injectFault0(i64 682, i32** %23, i32 29, i32 0, i32 1, i32 0, i8* getelementptr inbounds ([14 x i8]* @getelementptr_namestr, i32 0, i32 0)), !llfi_injectfault !9
  store i32* %fi14, i32** %fi17, align 8, !llfi_index !684
  %24 = load i32** %2, align 8, !llfi_index !685
  %fi18 = call i32* @injectFault1(i64 684, i32* %24, i32 27, i32 0, i32 1, i32 0, i8* getelementptr inbounds ([5 x i8]* @load_namestr, i32 0, i32 0)), !llfi_injectfault !9
  %25 = load i32** %3, align 8, !llfi_index !686
  %fi19 = call i32* @injectFault1(i64 685, i32* %25, i32 27, i32 0, i32 1, i32 0, i8* getelementptr inbounds ([5 x i8]* @load_namestr, i32 0, i32 0)), !llfi_injectfault !9
  %26 = bitcast %"class.std::vector"* %fi to %"struct.std::_Vector_base"*, !llfi_index !687
  %fi20 = call %"struct.std::_Vector_base"* @injectFault2(i64 686, %"struct.std::_Vector_base"* %26, i32 44, i32 0, i32 1, i32 0, i8* getelementptr inbounds ([8 x i8]* @bitcast_namestr, i32 0, i32 0)), !llfi_injectfault !9
  %27 = getelementptr %"struct.std::_Vector_base"* %fi20, i32 0, i32 0, !llfi_index !688
  %fi21 = call %"struct.std::_Vector_base<int, std::allocator<int> >::_Vector_impl"* @injectFault3(i64 687, %"struct.std::_Vector_base<int, std::allocator<int> >::_Vector_impl"* %27, i32 29, i32 0, i32 1, i32 0, i8* getelementptr inbounds ([14 x i8]* @getelementptr_namestr, i32 0, i32 0)), !llfi_injectfault !9
  %28 = getelementptr %"struct.std::_Vector_base<int, std::allocator<int> >::_Vector_impl"* %fi21, i32 0, i32 0, !llfi_index !689
  %fi22 = call i32** @injectFault0(i64 688, i32** %28, i32 29, i32 0, i32 1, i32 0, i8* getelementptr inbounds ([14 x i8]* @getelementptr_namestr, i32 0, i32 0)), !llfi_injectfault !9
  %29 = load i32** %fi22, align 8, !llfi_index !690
  %fi23 = call i32* @injectFault1(i64 689, i32* %29, i32 27, i32 0, i32 1, i32 0, i8* getelementptr inbounds ([5 x i8]* @load_namestr, i32 0, i32 0)), !llfi_injectfault !9
  %30 = bitcast %"class.std::vector"* %fi to %"struct.std::_Vector_base"*, !llfi_index !691
  %fi24 = call %"struct.std::_Vector_base"* @injectFault2(i64 690, %"struct.std::_Vector_base"* %30, i32 44, i32 0, i32 1, i32 0, i8* getelementptr inbounds ([8 x i8]* @bitcast_namestr, i32 0, i32 0)), !llfi_injectfault !9
  %31 = call %"class.std::allocator"* @_ZNSt12_Vector_baseIiSaIiEE19_M_get_Tp_allocatorEv(%"struct.std::_Vector_base"* %fi24) #0, !llfi_index !692
  %32 = call i32* @_ZSt22__uninitialized_copy_aIPKiPiiET0_T_S4_S3_RSaIT1_E(i32* %fi18, i32* %fi19, i32* %fi23, %"class.std::allocator"* %31), !llfi_index !693
  %33 = bitcast %"class.std::vector"* %fi to %"struct.std::_Vector_base"*, !llfi_index !694
  %fi10 = call %"struct.std::_Vector_base"* @injectFault2(i64 693, %"struct.std::_Vector_base"* %33, i32 44, i32 0, i32 1, i32 0, i8* getelementptr inbounds ([8 x i8]* @bitcast_namestr, i32 0, i32 0)), !llfi_injectfault !9
  %34 = getelementptr %"struct.std::_Vector_base"* %fi10, i32 0, i32 0, !llfi_index !695
  %fi25 = call %"struct.std::_Vector_base<int, std::allocator<int> >::_Vector_impl"* @injectFault3(i64 694, %"struct.std::_Vector_base<int, std::allocator<int> >::_Vector_impl"* %34, i32 29, i32 0, i32 1, i32 0, i8* getelementptr inbounds ([14 x i8]* @getelementptr_namestr, i32 0, i32 0)), !llfi_injectfault !9
  %35 = getelementptr %"struct.std::_Vector_base<int, std::allocator<int> >::_Vector_impl"* %fi25, i32 0, i32 1, !llfi_index !696
  %fi26 = call i32** @injectFault0(i64 695, i32** %35, i32 29, i32 0, i32 1, i32 0, i8* getelementptr inbounds ([14 x i8]* @getelementptr_namestr, i32 0, i32 0)), !llfi_injectfault !9
  store i32* %32, i32** %fi26, align 8, !llfi_index !697
  ret void, !llfi_index !698
}

; Function Attrs: nounwind uwtable
define linkonce_odr i32* @_ZNKSt16initializer_listIiE5beginEv(%"class.std::initializer_list"* %this) #3 align 2 {
  %1 = alloca %"class.std::initializer_list"*, align 8, !llfi_index !699
  store %"class.std::initializer_list"* %this, %"class.std::initializer_list"** %1, align 8, !llfi_index !700
  %2 = load %"class.std::initializer_list"** %1, !llfi_index !701
  %fi = call %"class.std::initializer_list"* @injectFault22(i64 700, %"class.std::initializer_list"* %2, i32 27, i32 0, i32 1, i32 0, i8* getelementptr inbounds ([5 x i8]* @load_namestr, i32 0, i32 0)), !llfi_injectfault !9
  %3 = getelementptr %"class.std::initializer_list"* %fi, i32 0, i32 0, !llfi_index !702
  %fi1 = call i32** @injectFault0(i64 701, i32** %3, i32 29, i32 0, i32 1, i32 0, i8* getelementptr inbounds ([14 x i8]* @getelementptr_namestr, i32 0, i32 0)), !llfi_injectfault !9
  %4 = load i32** %fi1, align 8, !llfi_index !703
  %fi2 = call i32* @injectFault1(i64 702, i32* %4, i32 27, i32 0, i32 1, i32 0, i8* getelementptr inbounds ([5 x i8]* @load_namestr, i32 0, i32 0)), !llfi_injectfault !9
  ret i32* %fi2, !llfi_index !704
}

; Function Attrs: nounwind uwtable
define linkonce_odr i32* @_ZNKSt16initializer_listIiE3endEv(%"class.std::initializer_list"* %this) #3 align 2 {
  %1 = alloca %"class.std::initializer_list"*, align 8, !llfi_index !705
  store %"class.std::initializer_list"* %this, %"class.std::initializer_list"** %1, align 8, !llfi_index !706
  %2 = load %"class.std::initializer_list"** %1, !llfi_index !707
  %fi = call %"class.std::initializer_list"* @injectFault22(i64 706, %"class.std::initializer_list"* %2, i32 27, i32 0, i32 1, i32 0, i8* getelementptr inbounds ([5 x i8]* @load_namestr, i32 0, i32 0)), !llfi_injectfault !9
  %3 = call i32* @_ZNKSt16initializer_listIiE5beginEv(%"class.std::initializer_list"* %fi) #0, !llfi_index !708
  %4 = call i64 @_ZNKSt16initializer_listIiE4sizeEv(%"class.std::initializer_list"* %fi) #0, !llfi_index !709
  %5 = getelementptr i32* %3, i64 %4, !llfi_index !710
  %fi1 = call i32* @injectFault1(i64 709, i32* %5, i32 29, i32 0, i32 1, i32 0, i8* getelementptr inbounds ([14 x i8]* @getelementptr_namestr, i32 0, i32 0)), !llfi_injectfault !9
  ret i32* %fi1, !llfi_index !711
}

; Function Attrs: nounwind uwtable
define linkonce_odr i64 @_ZNKSt16initializer_listIiE4sizeEv(%"class.std::initializer_list"* %this) #3 align 2 {
  %1 = alloca %"class.std::initializer_list"*, align 8, !llfi_index !712
  store %"class.std::initializer_list"* %this, %"class.std::initializer_list"** %1, align 8, !llfi_index !713
  %2 = load %"class.std::initializer_list"** %1, !llfi_index !714
  %fi = call %"class.std::initializer_list"* @injectFault22(i64 713, %"class.std::initializer_list"* %2, i32 27, i32 0, i32 1, i32 0, i8* getelementptr inbounds ([5 x i8]* @load_namestr, i32 0, i32 0)), !llfi_injectfault !9
  %3 = getelementptr %"class.std::initializer_list"* %fi, i32 0, i32 1, !llfi_index !715
  %fi1 = call i64* @injectFault10(i64 714, i64* %3, i32 29, i32 0, i32 1, i32 0, i8* getelementptr inbounds ([14 x i8]* @getelementptr_namestr, i32 0, i32 0)), !llfi_injectfault !9
  %4 = load i64* %fi1, align 8, !llfi_index !716
  %fi2 = call i64 @injectFault12(i64 715, i64 %4, i32 27, i32 0, i32 1, i32 0, i8* getelementptr inbounds ([5 x i8]* @load_namestr, i32 0, i32 0)), !llfi_injectfault !9
  ret i64 %fi2, !llfi_index !717
}

; Function Attrs: inlinehint nounwind uwtable
define linkonce_odr i64 @_ZSt8distanceIPKiENSt15iterator_traitsIT_E15difference_typeES3_S3_(i32* %__first, i32* %__last) #5 {
  %1 = alloca i32*, align 8, !llfi_index !718
  %2 = alloca i32*, align 8, !llfi_index !719
  %3 = alloca %"struct.std::random_access_iterator_tag", align 1, !llfi_index !720
  %4 = alloca %"struct.std::random_access_iterator_tag", align 1, !llfi_index !721
  store i32* %__first, i32** %1, align 8, !llfi_index !722
  store i32* %__last, i32** %2, align 8, !llfi_index !723
  %5 = load i32** %1, align 8, !llfi_index !724
  %fi = call i32* @injectFault1(i64 723, i32* %5, i32 27, i32 0, i32 1, i32 0, i8* getelementptr inbounds ([5 x i8]* @load_namestr, i32 0, i32 0)), !llfi_injectfault !9
  %6 = load i32** %2, align 8, !llfi_index !725
  %fi1 = call i32* @injectFault1(i64 724, i32* %6, i32 27, i32 0, i32 1, i32 0, i8* getelementptr inbounds ([5 x i8]* @load_namestr, i32 0, i32 0)), !llfi_injectfault !9
  call void @_ZSt19__iterator_categoryIPKiENSt15iterator_traitsIT_E17iterator_categoryERKS3_(i32** %1), !llfi_index !726
  %7 = call i64 @_ZSt10__distanceIPKiENSt15iterator_traitsIT_E15difference_typeES3_S3_St26random_access_iterator_tag(i32* %fi, i32* %fi1), !llfi_index !727
  ret i64 %7, !llfi_index !728
}

; Function Attrs: nounwind uwtable
define linkonce_odr i32* @_ZNSt12_Vector_baseIiSaIiEE11_M_allocateEm(%"struct.std::_Vector_base"* %this, i64 %__n) #3 align 2 {
  %1 = alloca %"struct.std::_Vector_base"*, align 8, !llfi_index !729
  %2 = alloca i64, align 8, !llfi_index !730
  store %"struct.std::_Vector_base"* %this, %"struct.std::_Vector_base"** %1, align 8, !llfi_index !731
  store i64 %__n, i64* %2, align 8, !llfi_index !732
  %3 = load %"struct.std::_Vector_base"** %1, !llfi_index !733
  %fi = call %"struct.std::_Vector_base"* @injectFault2(i64 732, %"struct.std::_Vector_base"* %3, i32 27, i32 0, i32 1, i32 0, i8* getelementptr inbounds ([5 x i8]* @load_namestr, i32 0, i32 0)), !llfi_injectfault !9
  %4 = load i64* %2, align 8, !llfi_index !734
  %fi1 = call i64 @injectFault12(i64 733, i64 %4, i32 27, i32 0, i32 1, i32 0, i8* getelementptr inbounds ([5 x i8]* @load_namestr, i32 0, i32 0)), !llfi_injectfault !9
  %5 = icmp ne i64 %fi1, 0, !llfi_index !735
  %fi2 = call i1 @injectFault6(i64 734, i1 %5, i32 46, i32 0, i32 1, i32 0, i8* getelementptr inbounds ([5 x i8]* @icmp_namestr, i32 0, i32 0)), !llfi_injectfault !9
  br i1 %fi2, label %6, label %11, !llfi_index !736

; <label>:6                                       ; preds = %0
  %7 = getelementptr %"struct.std::_Vector_base"* %fi, i32 0, i32 0, !llfi_index !737
  %fi3 = call %"struct.std::_Vector_base<int, std::allocator<int> >::_Vector_impl"* @injectFault3(i64 736, %"struct.std::_Vector_base<int, std::allocator<int> >::_Vector_impl"* %7, i32 29, i32 0, i32 1, i32 0, i8* getelementptr inbounds ([14 x i8]* @getelementptr_namestr, i32 0, i32 0)), !llfi_injectfault !9
  %8 = bitcast %"struct.std::_Vector_base<int, std::allocator<int> >::_Vector_impl"* %fi3 to %"class.std::allocator"*, !llfi_index !738
  %fi4 = call %"class.std::allocator"* @injectFault9(i64 737, %"class.std::allocator"* %8, i32 44, i32 0, i32 1, i32 0, i8* getelementptr inbounds ([8 x i8]* @bitcast_namestr, i32 0, i32 0)), !llfi_injectfault !9
  %9 = load i64* %2, align 8, !llfi_index !739
  %fi5 = call i64 @injectFault12(i64 738, i64 %9, i32 27, i32 0, i32 1, i32 0, i8* getelementptr inbounds ([5 x i8]* @load_namestr, i32 0, i32 0)), !llfi_injectfault !9
  %10 = call i32* @_ZNSt16allocator_traitsISaIiEE8allocateERS0_m(%"class.std::allocator"* %fi4, i64 %fi5), !llfi_index !740
  br label %12, !llfi_index !741

; <label>:11                                      ; preds = %0
  br label %12, !llfi_index !742

; <label>:12                                      ; preds = %11, %6
  %13 = phi i32* [ %10, %6 ], [ null, %11 ], !llfi_index !743
  ret i32* %13, !llfi_index !744
}

; Function Attrs: inlinehint nounwind uwtable
define linkonce_odr i32* @_ZSt22__uninitialized_copy_aIPKiPiiET0_T_S4_S3_RSaIT1_E(i32* %__first, i32* %__last, i32* %__result, %"class.std::allocator"*) #5 {
  %2 = alloca i32*, align 8, !llfi_index !745
  %3 = alloca i32*, align 8, !llfi_index !746
  %4 = alloca i32*, align 8, !llfi_index !747
  %5 = alloca %"class.std::allocator"*, align 8, !llfi_index !748
  store i32* %__first, i32** %2, align 8, !llfi_index !749
  store i32* %__last, i32** %3, align 8, !llfi_index !750
  store i32* %__result, i32** %4, align 8, !llfi_index !751
  store %"class.std::allocator"* %0, %"class.std::allocator"** %5, align 8, !llfi_index !752
  %6 = load i32** %2, align 8, !llfi_index !753
  %fi = call i32* @injectFault1(i64 752, i32* %6, i32 27, i32 0, i32 1, i32 0, i8* getelementptr inbounds ([5 x i8]* @load_namestr, i32 0, i32 0)), !llfi_injectfault !9
  %7 = load i32** %3, align 8, !llfi_index !754
  %fi1 = call i32* @injectFault1(i64 753, i32* %7, i32 27, i32 0, i32 1, i32 0, i8* getelementptr inbounds ([5 x i8]* @load_namestr, i32 0, i32 0)), !llfi_injectfault !9
  %8 = load i32** %4, align 8, !llfi_index !755
  %fi2 = call i32* @injectFault1(i64 754, i32* %8, i32 27, i32 0, i32 1, i32 0, i8* getelementptr inbounds ([5 x i8]* @load_namestr, i32 0, i32 0)), !llfi_injectfault !9
  %9 = call i32* @_ZSt18uninitialized_copyIPKiPiET0_T_S4_S3_(i32* %fi, i32* %fi1, i32* %fi2), !llfi_index !756
  ret i32* %9, !llfi_index !757
}

; Function Attrs: inlinehint nounwind uwtable
define linkonce_odr i32* @_ZSt18uninitialized_copyIPKiPiET0_T_S4_S3_(i32* %__first, i32* %__last, i32* %__result) #5 {
  %1 = alloca i32*, align 8, !llfi_index !758
  %2 = alloca i32*, align 8, !llfi_index !759
  %3 = alloca i32*, align 8, !llfi_index !760
  %__assignable = alloca i8, align 1, !llfi_index !761
  store i32* %__first, i32** %1, align 8, !llfi_index !762
  store i32* %__last, i32** %2, align 8, !llfi_index !763
  store i32* %__result, i32** %3, align 8, !llfi_index !764
  store i8 1, i8* %__assignable, align 1, !llfi_index !765
  %4 = load i32** %1, align 8, !llfi_index !766
  %fi = call i32* @injectFault1(i64 765, i32* %4, i32 27, i32 0, i32 1, i32 0, i8* getelementptr inbounds ([5 x i8]* @load_namestr, i32 0, i32 0)), !llfi_injectfault !9
  %5 = load i32** %2, align 8, !llfi_index !767
  %fi1 = call i32* @injectFault1(i64 766, i32* %5, i32 27, i32 0, i32 1, i32 0, i8* getelementptr inbounds ([5 x i8]* @load_namestr, i32 0, i32 0)), !llfi_injectfault !9
  %6 = load i32** %3, align 8, !llfi_index !768
  %fi2 = call i32* @injectFault1(i64 767, i32* %6, i32 27, i32 0, i32 1, i32 0, i8* getelementptr inbounds ([5 x i8]* @load_namestr, i32 0, i32 0)), !llfi_injectfault !9
  %7 = call i32* @_ZNSt20__uninitialized_copyILb1EE13__uninit_copyIPKiPiEET0_T_S6_S5_(i32* %fi, i32* %fi1, i32* %fi2), !llfi_index !769
  ret i32* %7, !llfi_index !770
}

; Function Attrs: nounwind uwtable
define linkonce_odr i32* @_ZNSt20__uninitialized_copyILb1EE13__uninit_copyIPKiPiEET0_T_S6_S5_(i32* %__first, i32* %__last, i32* %__result) #3 align 2 {
  %1 = alloca i32*, align 8, !llfi_index !771
  %2 = alloca i32*, align 8, !llfi_index !772
  %3 = alloca i32*, align 8, !llfi_index !773
  store i32* %__first, i32** %1, align 8, !llfi_index !774
  store i32* %__last, i32** %2, align 8, !llfi_index !775
  store i32* %__result, i32** %3, align 8, !llfi_index !776
  %4 = load i32** %1, align 8, !llfi_index !777
  %fi = call i32* @injectFault1(i64 776, i32* %4, i32 27, i32 0, i32 1, i32 0, i8* getelementptr inbounds ([5 x i8]* @load_namestr, i32 0, i32 0)), !llfi_injectfault !9
  %5 = load i32** %2, align 8, !llfi_index !778
  %fi1 = call i32* @injectFault1(i64 777, i32* %5, i32 27, i32 0, i32 1, i32 0, i8* getelementptr inbounds ([5 x i8]* @load_namestr, i32 0, i32 0)), !llfi_injectfault !9
  %6 = load i32** %3, align 8, !llfi_index !779
  %fi2 = call i32* @injectFault1(i64 778, i32* %6, i32 27, i32 0, i32 1, i32 0, i8* getelementptr inbounds ([5 x i8]* @load_namestr, i32 0, i32 0)), !llfi_injectfault !9
  %7 = call i32* @_ZSt4copyIPKiPiET0_T_S4_S3_(i32* %fi, i32* %fi1, i32* %fi2), !llfi_index !780
  ret i32* %7, !llfi_index !781
}

; Function Attrs: inlinehint nounwind uwtable
define linkonce_odr i32* @_ZSt4copyIPKiPiET0_T_S4_S3_(i32* %__first, i32* %__last, i32* %__result) #5 {
  %1 = alloca i32*, align 8, !llfi_index !782
  %2 = alloca i32*, align 8, !llfi_index !783
  %3 = alloca i32*, align 8, !llfi_index !784
  store i32* %__first, i32** %1, align 8, !llfi_index !785
  store i32* %__last, i32** %2, align 8, !llfi_index !786
  store i32* %__result, i32** %3, align 8, !llfi_index !787
  %4 = load i32** %1, align 8, !llfi_index !788
  %fi = call i32* @injectFault1(i64 787, i32* %4, i32 27, i32 0, i32 1, i32 0, i8* getelementptr inbounds ([5 x i8]* @load_namestr, i32 0, i32 0)), !llfi_injectfault !9
  %5 = call i32* @_ZSt12__miter_baseIPKiENSt11_Miter_baseIT_E13iterator_typeES3_(i32* %fi), !llfi_index !789
  %6 = load i32** %2, align 8, !llfi_index !790
  %fi1 = call i32* @injectFault1(i64 789, i32* %6, i32 27, i32 0, i32 1, i32 0, i8* getelementptr inbounds ([5 x i8]* @load_namestr, i32 0, i32 0)), !llfi_injectfault !9
  %7 = call i32* @_ZSt12__miter_baseIPKiENSt11_Miter_baseIT_E13iterator_typeES3_(i32* %fi1), !llfi_index !791
  %8 = load i32** %3, align 8, !llfi_index !792
  %fi2 = call i32* @injectFault1(i64 791, i32* %8, i32 27, i32 0, i32 1, i32 0, i8* getelementptr inbounds ([5 x i8]* @load_namestr, i32 0, i32 0)), !llfi_injectfault !9
  %9 = call i32* @_ZSt14__copy_move_a2ILb0EPKiPiET1_T0_S4_S3_(i32* %5, i32* %7, i32* %fi2), !llfi_index !793
  ret i32* %9, !llfi_index !794
}

; Function Attrs: inlinehint nounwind uwtable
define linkonce_odr i32* @_ZSt14__copy_move_a2ILb0EPKiPiET1_T0_S4_S3_(i32* %__first, i32* %__last, i32* %__result) #5 {
  %1 = alloca i32*, align 8, !llfi_index !795
  %2 = alloca i32*, align 8, !llfi_index !796
  %3 = alloca i32*, align 8, !llfi_index !797
  store i32* %__first, i32** %1, align 8, !llfi_index !798
  store i32* %__last, i32** %2, align 8, !llfi_index !799
  store i32* %__result, i32** %3, align 8, !llfi_index !800
  %4 = load i32** %1, align 8, !llfi_index !801
  %fi = call i32* @injectFault1(i64 800, i32* %4, i32 27, i32 0, i32 1, i32 0, i8* getelementptr inbounds ([5 x i8]* @load_namestr, i32 0, i32 0)), !llfi_injectfault !9
  %5 = call i32* @_ZSt12__niter_baseIPKiENSt11_Niter_baseIT_E13iterator_typeES3_(i32* %fi), !llfi_index !802
  %6 = load i32** %2, align 8, !llfi_index !803
  %fi1 = call i32* @injectFault1(i64 802, i32* %6, i32 27, i32 0, i32 1, i32 0, i8* getelementptr inbounds ([5 x i8]* @load_namestr, i32 0, i32 0)), !llfi_injectfault !9
  %7 = call i32* @_ZSt12__niter_baseIPKiENSt11_Niter_baseIT_E13iterator_typeES3_(i32* %fi1), !llfi_index !804
  %8 = load i32** %3, align 8, !llfi_index !805
  %fi2 = call i32* @injectFault1(i64 804, i32* %8, i32 27, i32 0, i32 1, i32 0, i8* getelementptr inbounds ([5 x i8]* @load_namestr, i32 0, i32 0)), !llfi_injectfault !9
  %9 = call i32* @_ZSt12__niter_baseIPiENSt11_Niter_baseIT_E13iterator_typeES2_(i32* %fi2), !llfi_index !806
  %10 = call i32* @_ZSt13__copy_move_aILb0EPKiPiET1_T0_S4_S3_(i32* %5, i32* %7, i32* %9), !llfi_index !807
  ret i32* %10, !llfi_index !808
}

; Function Attrs: inlinehint nounwind uwtable
define linkonce_odr i32* @_ZSt12__miter_baseIPKiENSt11_Miter_baseIT_E13iterator_typeES3_(i32* %__it) #5 {
  %1 = alloca i32*, align 8, !llfi_index !809
  store i32* %__it, i32** %1, align 8, !llfi_index !810
  %2 = load i32** %1, align 8, !llfi_index !811
  %fi = call i32* @injectFault1(i64 810, i32* %2, i32 27, i32 0, i32 1, i32 0, i8* getelementptr inbounds ([5 x i8]* @load_namestr, i32 0, i32 0)), !llfi_injectfault !9
  %3 = call i32* @_ZNSt10_Iter_baseIPKiLb0EE7_S_baseES1_(i32* %fi), !llfi_index !812
  ret i32* %3, !llfi_index !813
}

; Function Attrs: nounwind uwtable
define linkonce_odr i32* @_ZNSt10_Iter_baseIPKiLb0EE7_S_baseES1_(i32* %__it) #3 align 2 {
  %1 = alloca i32*, align 8, !llfi_index !814
  store i32* %__it, i32** %1, align 8, !llfi_index !815
  %2 = load i32** %1, align 8, !llfi_index !816
  %fi = call i32* @injectFault1(i64 815, i32* %2, i32 27, i32 0, i32 1, i32 0, i8* getelementptr inbounds ([5 x i8]* @load_namestr, i32 0, i32 0)), !llfi_injectfault !9
  ret i32* %fi, !llfi_index !817
}

; Function Attrs: inlinehint nounwind uwtable
define linkonce_odr i32* @_ZSt13__copy_move_aILb0EPKiPiET1_T0_S4_S3_(i32* %__first, i32* %__last, i32* %__result) #5 {
  %1 = alloca i32*, align 8, !llfi_index !818
  %2 = alloca i32*, align 8, !llfi_index !819
  %3 = alloca i32*, align 8, !llfi_index !820
  %__simple = alloca i8, align 1, !llfi_index !821
  store i32* %__first, i32** %1, align 8, !llfi_index !822
  store i32* %__last, i32** %2, align 8, !llfi_index !823
  store i32* %__result, i32** %3, align 8, !llfi_index !824
  store i8 1, i8* %__simple, align 1, !llfi_index !825
  %4 = load i32** %1, align 8, !llfi_index !826
  %fi = call i32* @injectFault1(i64 825, i32* %4, i32 27, i32 0, i32 1, i32 0, i8* getelementptr inbounds ([5 x i8]* @load_namestr, i32 0, i32 0)), !llfi_injectfault !9
  %5 = load i32** %2, align 8, !llfi_index !827
  %fi1 = call i32* @injectFault1(i64 826, i32* %5, i32 27, i32 0, i32 1, i32 0, i8* getelementptr inbounds ([5 x i8]* @load_namestr, i32 0, i32 0)), !llfi_injectfault !9
  %6 = load i32** %3, align 8, !llfi_index !828
  %fi2 = call i32* @injectFault1(i64 827, i32* %6, i32 27, i32 0, i32 1, i32 0, i8* getelementptr inbounds ([5 x i8]* @load_namestr, i32 0, i32 0)), !llfi_injectfault !9
  %7 = call i32* @_ZNSt11__copy_moveILb0ELb1ESt26random_access_iterator_tagE8__copy_mIiEEPT_PKS3_S6_S4_(i32* %fi, i32* %fi1, i32* %fi2), !llfi_index !829
  ret i32* %7, !llfi_index !830
}

; Function Attrs: inlinehint nounwind uwtable
define linkonce_odr i32* @_ZSt12__niter_baseIPKiENSt11_Niter_baseIT_E13iterator_typeES3_(i32* %__it) #5 {
  %1 = alloca i32*, align 8, !llfi_index !831
  store i32* %__it, i32** %1, align 8, !llfi_index !832
  %2 = load i32** %1, align 8, !llfi_index !833
  %fi = call i32* @injectFault1(i64 832, i32* %2, i32 27, i32 0, i32 1, i32 0, i8* getelementptr inbounds ([5 x i8]* @load_namestr, i32 0, i32 0)), !llfi_injectfault !9
  %3 = call i32* @_ZNSt10_Iter_baseIPKiLb0EE7_S_baseES1_(i32* %fi), !llfi_index !834
  ret i32* %3, !llfi_index !835
}

; Function Attrs: inlinehint nounwind uwtable
define linkonce_odr i32* @_ZSt12__niter_baseIPiENSt11_Niter_baseIT_E13iterator_typeES2_(i32* %__it) #5 {
  %1 = alloca i32*, align 8, !llfi_index !836
  store i32* %__it, i32** %1, align 8, !llfi_index !837
  %2 = load i32** %1, align 8, !llfi_index !838
  %fi = call i32* @injectFault1(i64 837, i32* %2, i32 27, i32 0, i32 1, i32 0, i8* getelementptr inbounds ([5 x i8]* @load_namestr, i32 0, i32 0)), !llfi_injectfault !9
  %3 = call i32* @_ZNSt10_Iter_baseIPiLb0EE7_S_baseES0_(i32* %fi), !llfi_index !839
  ret i32* %3, !llfi_index !840
}

; Function Attrs: nounwind uwtable
define linkonce_odr i32* @_ZNSt10_Iter_baseIPiLb0EE7_S_baseES0_(i32* %__it) #3 align 2 {
  %1 = alloca i32*, align 8, !llfi_index !841
  store i32* %__it, i32** %1, align 8, !llfi_index !842
  %2 = load i32** %1, align 8, !llfi_index !843
  %fi = call i32* @injectFault1(i64 842, i32* %2, i32 27, i32 0, i32 1, i32 0, i8* getelementptr inbounds ([5 x i8]* @load_namestr, i32 0, i32 0)), !llfi_injectfault !9
  ret i32* %fi, !llfi_index !844
}

; Function Attrs: nounwind uwtable
define linkonce_odr i32* @_ZNSt11__copy_moveILb0ELb1ESt26random_access_iterator_tagE8__copy_mIiEEPT_PKS3_S6_S4_(i32* %__first, i32* %__last, i32* %__result) #3 align 2 {
  %1 = alloca i32*, align 8, !llfi_index !845
  %2 = alloca i32*, align 8, !llfi_index !846
  %3 = alloca i32*, align 8, !llfi_index !847
  %_Num = alloca i64, align 8, !llfi_index !848
  store i32* %__first, i32** %1, align 8, !llfi_index !849
  store i32* %__last, i32** %2, align 8, !llfi_index !850
  store i32* %__result, i32** %3, align 8, !llfi_index !851
  %4 = load i32** %2, align 8, !llfi_index !852
  %fi = call i32* @injectFault1(i64 851, i32* %4, i32 27, i32 0, i32 1, i32 0, i8* getelementptr inbounds ([5 x i8]* @load_namestr, i32 0, i32 0)), !llfi_injectfault !9
  %5 = load i32** %1, align 8, !llfi_index !853
  %fi1 = call i32* @injectFault1(i64 852, i32* %5, i32 27, i32 0, i32 1, i32 0, i8* getelementptr inbounds ([5 x i8]* @load_namestr, i32 0, i32 0)), !llfi_injectfault !9
  %6 = ptrtoint i32* %fi to i64, !llfi_index !854
  %fi2 = call i64 @injectFault12(i64 853, i64 %6, i32 42, i32 0, i32 1, i32 0, i8* getelementptr inbounds ([9 x i8]* @ptrtoint_namestr, i32 0, i32 0)), !llfi_injectfault !9
  %7 = ptrtoint i32* %fi1 to i64, !llfi_index !855
  %fi3 = call i64 @injectFault12(i64 854, i64 %7, i32 42, i32 0, i32 1, i32 0, i8* getelementptr inbounds ([9 x i8]* @ptrtoint_namestr, i32 0, i32 0)), !llfi_injectfault !9
  %8 = sub i64 %fi2, %fi3, !llfi_index !856
  %fi4 = call i64 @injectFault12(i64 855, i64 %8, i32 10, i32 0, i32 1, i32 0, i8* getelementptr inbounds ([4 x i8]* @sub_namestr, i32 0, i32 0)), !llfi_injectfault !9
  %9 = sdiv exact i64 %fi4, 4, !llfi_index !857
  %fi6 = call i64 @injectFault12(i64 856, i64 %9, i32 15, i32 0, i32 1, i32 0, i8* getelementptr inbounds ([5 x i8]* @sdiv_namestr, i32 0, i32 0)), !llfi_injectfault !9
  store i64 %fi6, i64* %_Num, align 8, !llfi_index !858
  %10 = load i64* %_Num, align 8, !llfi_index !859
  %fi7 = call i64 @injectFault12(i64 858, i64 %10, i32 27, i32 0, i32 1, i32 0, i8* getelementptr inbounds ([5 x i8]* @load_namestr, i32 0, i32 0)), !llfi_injectfault !9
  %11 = icmp ne i64 %fi7, 0, !llfi_index !860
  %fi8 = call i1 @injectFault6(i64 859, i1 %11, i32 46, i32 0, i32 1, i32 0, i8* getelementptr inbounds ([5 x i8]* @icmp_namestr, i32 0, i32 0)), !llfi_injectfault !9
  br i1 %fi8, label %12, label %19, !llfi_index !861

; <label>:12                                      ; preds = %0
  %13 = load i32** %3, align 8, !llfi_index !862
  %fi9 = call i32* @injectFault1(i64 861, i32* %13, i32 27, i32 0, i32 1, i32 0, i8* getelementptr inbounds ([5 x i8]* @load_namestr, i32 0, i32 0)), !llfi_injectfault !9
  %14 = bitcast i32* %fi9 to i8*, !llfi_index !863
  %fi10 = call i8* @injectFault14(i64 862, i8* %14, i32 44, i32 0, i32 1, i32 0, i8* getelementptr inbounds ([8 x i8]* @bitcast_namestr, i32 0, i32 0)), !llfi_injectfault !9
  %15 = load i32** %1, align 8, !llfi_index !864
  %fi11 = call i32* @injectFault1(i64 863, i32* %15, i32 27, i32 0, i32 1, i32 0, i8* getelementptr inbounds ([5 x i8]* @load_namestr, i32 0, i32 0)), !llfi_injectfault !9
  %16 = bitcast i32* %fi11 to i8*, !llfi_index !865
  %fi12 = call i8* @injectFault14(i64 864, i8* %16, i32 44, i32 0, i32 1, i32 0, i8* getelementptr inbounds ([8 x i8]* @bitcast_namestr, i32 0, i32 0)), !llfi_injectfault !9
  %17 = load i64* %_Num, align 8, !llfi_index !866
  %fi5 = call i64 @injectFault12(i64 865, i64 %17, i32 27, i32 0, i32 1, i32 0, i8* getelementptr inbounds ([5 x i8]* @load_namestr, i32 0, i32 0)), !llfi_injectfault !9
  %18 = mul i64 4, %fi5, !llfi_index !867
  %fi13 = call i64 @injectFault12(i64 866, i64 %18, i32 12, i32 0, i32 1, i32 0, i8* getelementptr inbounds ([4 x i8]* @mul_namestr, i32 0, i32 0)), !llfi_injectfault !9
  call void @llvm.memmove.p0i8.p0i8.i64(i8* %fi10, i8* %fi12, i64 %fi13, i32 4, i1 false), !llfi_index !868
  br label %19, !llfi_index !869

; <label>:19                                      ; preds = %12, %0
  %20 = load i32** %3, align 8, !llfi_index !870
  %fi14 = call i32* @injectFault1(i64 869, i32* %20, i32 27, i32 0, i32 1, i32 0, i8* getelementptr inbounds ([5 x i8]* @load_namestr, i32 0, i32 0)), !llfi_injectfault !9
  %21 = load i64* %_Num, align 8, !llfi_index !871
  %fi15 = call i64 @injectFault12(i64 870, i64 %21, i32 27, i32 0, i32 1, i32 0, i8* getelementptr inbounds ([5 x i8]* @load_namestr, i32 0, i32 0)), !llfi_injectfault !9
  %22 = getelementptr i32* %fi14, i64 %fi15, !llfi_index !872
  %fi16 = call i32* @injectFault1(i64 871, i32* %22, i32 29, i32 0, i32 1, i32 0, i8* getelementptr inbounds ([14 x i8]* @getelementptr_namestr, i32 0, i32 0)), !llfi_injectfault !9
  ret i32* %fi16, !llfi_index !873
}

; Function Attrs: nounwind
declare void @llvm.memmove.p0i8.p0i8.i64(i8* nocapture, i8* nocapture readonly, i64, i32, i1) #0

; Function Attrs: nounwind uwtable
define linkonce_odr i32* @_ZNSt16allocator_traitsISaIiEE8allocateERS0_m(%"class.std::allocator"* %__a, i64 %__n) #3 align 2 {
  %1 = alloca %"class.std::allocator"*, align 8, !llfi_index !874
  %2 = alloca i64, align 8, !llfi_index !875
  store %"class.std::allocator"* %__a, %"class.std::allocator"** %1, align 8, !llfi_index !876
  store i64 %__n, i64* %2, align 8, !llfi_index !877
  %3 = load %"class.std::allocator"** %1, align 8, !llfi_index !878
  %fi = call %"class.std::allocator"* @injectFault9(i64 877, %"class.std::allocator"* %3, i32 27, i32 0, i32 1, i32 0, i8* getelementptr inbounds ([5 x i8]* @load_namestr, i32 0, i32 0)), !llfi_injectfault !9
  %4 = bitcast %"class.std::allocator"* %fi to %"class.__gnu_cxx::new_allocator"*, !llfi_index !879
  %fi1 = call %"class.__gnu_cxx::new_allocator"* @injectFault19(i64 878, %"class.__gnu_cxx::new_allocator"* %4, i32 44, i32 0, i32 1, i32 0, i8* getelementptr inbounds ([8 x i8]* @bitcast_namestr, i32 0, i32 0)), !llfi_injectfault !9
  %5 = load i64* %2, align 8, !llfi_index !880
  %fi2 = call i64 @injectFault12(i64 879, i64 %5, i32 27, i32 0, i32 1, i32 0, i8* getelementptr inbounds ([5 x i8]* @load_namestr, i32 0, i32 0)), !llfi_injectfault !9
  %6 = call i32* @_ZN9__gnu_cxx13new_allocatorIiE8allocateEmPKv(%"class.__gnu_cxx::new_allocator"* %fi1, i64 %fi2, i8* null), !llfi_index !881
  ret i32* %6, !llfi_index !882
}

; Function Attrs: nounwind uwtable
define linkonce_odr i32* @_ZN9__gnu_cxx13new_allocatorIiE8allocateEmPKv(%"class.__gnu_cxx::new_allocator"* %this, i64 %__n, i8*) #3 align 2 {
  %2 = alloca %"class.__gnu_cxx::new_allocator"*, align 8, !llfi_index !883
  %3 = alloca i64, align 8, !llfi_index !884
  %4 = alloca i8*, align 8, !llfi_index !885
  store %"class.__gnu_cxx::new_allocator"* %this, %"class.__gnu_cxx::new_allocator"** %2, align 8, !llfi_index !886
  store i64 %__n, i64* %3, align 8, !llfi_index !887
  store i8* %0, i8** %4, align 8, !llfi_index !888
  %5 = load %"class.__gnu_cxx::new_allocator"** %2, !llfi_index !889
  %fi1 = call %"class.__gnu_cxx::new_allocator"* @injectFault19(i64 888, %"class.__gnu_cxx::new_allocator"* %5, i32 27, i32 0, i32 1, i32 0, i8* getelementptr inbounds ([5 x i8]* @load_namestr, i32 0, i32 0)), !llfi_injectfault !9
  %6 = load i64* %3, align 8, !llfi_index !890
  %fi2 = call i64 @injectFault12(i64 889, i64 %6, i32 27, i32 0, i32 1, i32 0, i8* getelementptr inbounds ([5 x i8]* @load_namestr, i32 0, i32 0)), !llfi_injectfault !9
  %7 = call i64 @_ZNK9__gnu_cxx13new_allocatorIiE8max_sizeEv(%"class.__gnu_cxx::new_allocator"* %fi1) #0, !llfi_index !891
  %8 = icmp ugt i64 %fi2, %7, !llfi_index !892
  %fi = call i1 @injectFault6(i64 891, i1 %8, i32 46, i32 0, i32 1, i32 0, i8* getelementptr inbounds ([5 x i8]* @icmp_namestr, i32 0, i32 0)), !llfi_injectfault !9
  br i1 %fi, label %9, label %10, !llfi_index !893

; <label>:9                                       ; preds = %1
  call void @_ZSt17__throw_bad_allocv() #9, !llfi_index !894
  unreachable, !llfi_index !895

; <label>:10                                      ; preds = %1
  %11 = load i64* %3, align 8, !llfi_index !896
  %fi3 = call i64 @injectFault12(i64 895, i64 %11, i32 27, i32 0, i32 1, i32 0, i8* getelementptr inbounds ([5 x i8]* @load_namestr, i32 0, i32 0)), !llfi_injectfault !9
  %12 = mul i64 %fi3, 4, !llfi_index !897
  %fi4 = call i64 @injectFault12(i64 896, i64 %12, i32 12, i32 0, i32 1, i32 0, i8* getelementptr inbounds ([4 x i8]* @mul_namestr, i32 0, i32 0)), !llfi_injectfault !9
  %13 = call noalias i8* @_Znwm(i64 %fi4), !llfi_index !898
  %14 = bitcast i8* %13 to i32*, !llfi_index !899
  %fi5 = call i32* @injectFault1(i64 898, i32* %14, i32 44, i32 0, i32 1, i32 0, i8* getelementptr inbounds ([8 x i8]* @bitcast_namestr, i32 0, i32 0)), !llfi_injectfault !9
  ret i32* %fi5, !llfi_index !900
}

; Function Attrs: nounwind uwtable
define linkonce_odr i64 @_ZNK9__gnu_cxx13new_allocatorIiE8max_sizeEv(%"class.__gnu_cxx::new_allocator"* %this) #3 align 2 {
  %1 = alloca %"class.__gnu_cxx::new_allocator"*, align 8, !llfi_index !901
  store %"class.__gnu_cxx::new_allocator"* %this, %"class.__gnu_cxx::new_allocator"** %1, align 8, !llfi_index !902
  %2 = load %"class.__gnu_cxx::new_allocator"** %1, !llfi_index !903
  %fi = call %"class.__gnu_cxx::new_allocator"* @injectFault19(i64 902, %"class.__gnu_cxx::new_allocator"* %2, i32 27, i32 0, i32 1, i32 0, i8* getelementptr inbounds ([5 x i8]* @load_namestr, i32 0, i32 0)), !llfi_injectfault !9
  ret i64 4611686018427387903, !llfi_index !904
}

; Function Attrs: noreturn
declare void @_ZSt17__throw_bad_allocv() #7

; Function Attrs: inlinehint nounwind uwtable
define linkonce_odr i64 @_ZSt10__distanceIPKiENSt15iterator_traitsIT_E15difference_typeES3_S3_St26random_access_iterator_tag(i32* %__first, i32* %__last) #5 {
  %1 = alloca i32*, align 8, !llfi_index !905
  %2 = alloca i32*, align 8, !llfi_index !906
  %3 = alloca %"struct.std::random_access_iterator_tag", align 1, !llfi_index !907
  store i32* %__first, i32** %1, align 8, !llfi_index !908
  store i32* %__last, i32** %2, align 8, !llfi_index !909
  %4 = load i32** %2, align 8, !llfi_index !910
  %fi = call i32* @injectFault1(i64 909, i32* %4, i32 27, i32 0, i32 1, i32 0, i8* getelementptr inbounds ([5 x i8]* @load_namestr, i32 0, i32 0)), !llfi_injectfault !9
  %5 = load i32** %1, align 8, !llfi_index !911
  %fi1 = call i32* @injectFault1(i64 910, i32* %5, i32 27, i32 0, i32 1, i32 0, i8* getelementptr inbounds ([5 x i8]* @load_namestr, i32 0, i32 0)), !llfi_injectfault !9
  %6 = ptrtoint i32* %fi to i64, !llfi_index !912
  %fi2 = call i64 @injectFault12(i64 911, i64 %6, i32 42, i32 0, i32 1, i32 0, i8* getelementptr inbounds ([9 x i8]* @ptrtoint_namestr, i32 0, i32 0)), !llfi_injectfault !9
  %7 = ptrtoint i32* %fi1 to i64, !llfi_index !913
  %fi3 = call i64 @injectFault12(i64 912, i64 %7, i32 42, i32 0, i32 1, i32 0, i8* getelementptr inbounds ([9 x i8]* @ptrtoint_namestr, i32 0, i32 0)), !llfi_injectfault !9
  %8 = sub i64 %fi2, %fi3, !llfi_index !914
  %fi4 = call i64 @injectFault12(i64 913, i64 %8, i32 10, i32 0, i32 1, i32 0, i8* getelementptr inbounds ([4 x i8]* @sub_namestr, i32 0, i32 0)), !llfi_injectfault !9
  %9 = sdiv exact i64 %fi4, 4, !llfi_index !915
  %fi5 = call i64 @injectFault12(i64 914, i64 %9, i32 15, i32 0, i32 1, i32 0, i8* getelementptr inbounds ([5 x i8]* @sdiv_namestr, i32 0, i32 0)), !llfi_injectfault !9
  ret i64 %fi5, !llfi_index !916
}

; Function Attrs: inlinehint nounwind uwtable
define linkonce_odr void @_ZSt19__iterator_categoryIPKiENSt15iterator_traitsIT_E17iterator_categoryERKS3_(i32**) #5 {
  %2 = alloca %"struct.std::random_access_iterator_tag", align 1, !llfi_index !917
  %3 = alloca i32**, align 8, !llfi_index !918
  store i32** %0, i32*** %3, align 8, !llfi_index !919
  ret void, !llfi_index !920
}

; Function Attrs: nounwind uwtable
define linkonce_odr void @_ZNSt12_Vector_baseIiSaIiEE12_Vector_implC2ERKS0_(%"struct.std::_Vector_base<int, std::allocator<int> >::_Vector_impl"* %this, %"class.std::allocator"* %__a) unnamed_addr #3 align 2 {
  %1 = alloca %"struct.std::_Vector_base<int, std::allocator<int> >::_Vector_impl"*, align 8, !llfi_index !921
  %2 = alloca %"class.std::allocator"*, align 8, !llfi_index !922
  store %"struct.std::_Vector_base<int, std::allocator<int> >::_Vector_impl"* %this, %"struct.std::_Vector_base<int, std::allocator<int> >::_Vector_impl"** %1, align 8, !llfi_index !923
  store %"class.std::allocator"* %__a, %"class.std::allocator"** %2, align 8, !llfi_index !924
  %3 = load %"struct.std::_Vector_base<int, std::allocator<int> >::_Vector_impl"** %1, !llfi_index !925
  %fi = call %"struct.std::_Vector_base<int, std::allocator<int> >::_Vector_impl"* @injectFault3(i64 924, %"struct.std::_Vector_base<int, std::allocator<int> >::_Vector_impl"* %3, i32 27, i32 0, i32 1, i32 0, i8* getelementptr inbounds ([5 x i8]* @load_namestr, i32 0, i32 0)), !llfi_injectfault !9
  %4 = bitcast %"struct.std::_Vector_base<int, std::allocator<int> >::_Vector_impl"* %fi to %"class.std::allocator"*, !llfi_index !926
  %fi1 = call %"class.std::allocator"* @injectFault9(i64 925, %"class.std::allocator"* %4, i32 44, i32 0, i32 1, i32 0, i8* getelementptr inbounds ([8 x i8]* @bitcast_namestr, i32 0, i32 0)), !llfi_injectfault !9
  %5 = load %"class.std::allocator"** %2, align 8, !llfi_index !927
  %fi2 = call %"class.std::allocator"* @injectFault9(i64 926, %"class.std::allocator"* %5, i32 27, i32 0, i32 1, i32 0, i8* getelementptr inbounds ([5 x i8]* @load_namestr, i32 0, i32 0)), !llfi_injectfault !9
  call void @_ZNSaIiEC2ERKS_(%"class.std::allocator"* %fi1, %"class.std::allocator"* %fi2) #0, !llfi_index !928
  %6 = getelementptr %"struct.std::_Vector_base<int, std::allocator<int> >::_Vector_impl"* %fi, i32 0, i32 0, !llfi_index !929
  %fi3 = call i32** @injectFault0(i64 928, i32** %6, i32 29, i32 0, i32 1, i32 0, i8* getelementptr inbounds ([14 x i8]* @getelementptr_namestr, i32 0, i32 0)), !llfi_injectfault !9
  store i32* null, i32** %fi3, align 8, !llfi_index !930
  %7 = getelementptr %"struct.std::_Vector_base<int, std::allocator<int> >::_Vector_impl"* %fi, i32 0, i32 1, !llfi_index !931
  %fi4 = call i32** @injectFault0(i64 930, i32** %7, i32 29, i32 0, i32 1, i32 0, i8* getelementptr inbounds ([14 x i8]* @getelementptr_namestr, i32 0, i32 0)), !llfi_injectfault !9
  store i32* null, i32** %fi4, align 8, !llfi_index !932
  %8 = getelementptr %"struct.std::_Vector_base<int, std::allocator<int> >::_Vector_impl"* %fi, i32 0, i32 2, !llfi_index !933
  %fi5 = call i32** @injectFault0(i64 932, i32** %8, i32 29, i32 0, i32 1, i32 0, i8* getelementptr inbounds ([14 x i8]* @getelementptr_namestr, i32 0, i32 0)), !llfi_injectfault !9
  store i32* null, i32** %fi5, align 8, !llfi_index !934
  ret void, !llfi_index !935
}

; Function Attrs: nounwind uwtable
define linkonce_odr void @_ZNSaIiEC2ERKS_(%"class.std::allocator"* %this, %"class.std::allocator"* %__a) unnamed_addr #3 align 2 {
  %1 = alloca %"class.std::allocator"*, align 8, !llfi_index !936
  %2 = alloca %"class.std::allocator"*, align 8, !llfi_index !937
  store %"class.std::allocator"* %this, %"class.std::allocator"** %1, align 8, !llfi_index !938
  store %"class.std::allocator"* %__a, %"class.std::allocator"** %2, align 8, !llfi_index !939
  %3 = load %"class.std::allocator"** %1, !llfi_index !940
  %fi = call %"class.std::allocator"* @injectFault9(i64 939, %"class.std::allocator"* %3, i32 27, i32 0, i32 1, i32 0, i8* getelementptr inbounds ([5 x i8]* @load_namestr, i32 0, i32 0)), !llfi_injectfault !9
  %4 = bitcast %"class.std::allocator"* %fi to %"class.__gnu_cxx::new_allocator"*, !llfi_index !941
  %fi1 = call %"class.__gnu_cxx::new_allocator"* @injectFault19(i64 940, %"class.__gnu_cxx::new_allocator"* %4, i32 44, i32 0, i32 1, i32 0, i8* getelementptr inbounds ([8 x i8]* @bitcast_namestr, i32 0, i32 0)), !llfi_injectfault !9
  %5 = load %"class.std::allocator"** %2, align 8, !llfi_index !942
  %fi2 = call %"class.std::allocator"* @injectFault9(i64 941, %"class.std::allocator"* %5, i32 27, i32 0, i32 1, i32 0, i8* getelementptr inbounds ([5 x i8]* @load_namestr, i32 0, i32 0)), !llfi_injectfault !9
  %6 = bitcast %"class.std::allocator"* %fi2 to %"class.__gnu_cxx::new_allocator"*, !llfi_index !943
  %fi3 = call %"class.__gnu_cxx::new_allocator"* @injectFault19(i64 942, %"class.__gnu_cxx::new_allocator"* %6, i32 44, i32 0, i32 1, i32 0, i8* getelementptr inbounds ([8 x i8]* @bitcast_namestr, i32 0, i32 0)), !llfi_injectfault !9
  call void @_ZN9__gnu_cxx13new_allocatorIiEC2ERKS1_(%"class.__gnu_cxx::new_allocator"* %fi1, %"class.__gnu_cxx::new_allocator"* %fi3) #0, !llfi_index !944
  ret void, !llfi_index !945
}

; Function Attrs: nounwind uwtable
define linkonce_odr void @_ZN9__gnu_cxx13new_allocatorIiEC2ERKS1_(%"class.__gnu_cxx::new_allocator"* %this, %"class.__gnu_cxx::new_allocator"*) unnamed_addr #3 align 2 {
  %2 = alloca %"class.__gnu_cxx::new_allocator"*, align 8, !llfi_index !946
  %3 = alloca %"class.__gnu_cxx::new_allocator"*, align 8, !llfi_index !947
  store %"class.__gnu_cxx::new_allocator"* %this, %"class.__gnu_cxx::new_allocator"** %2, align 8, !llfi_index !948
  store %"class.__gnu_cxx::new_allocator"* %0, %"class.__gnu_cxx::new_allocator"** %3, align 8, !llfi_index !949
  %4 = load %"class.__gnu_cxx::new_allocator"** %2, !llfi_index !950
  %fi = call %"class.__gnu_cxx::new_allocator"* @injectFault19(i64 949, %"class.__gnu_cxx::new_allocator"* %4, i32 27, i32 0, i32 1, i32 0, i8* getelementptr inbounds ([5 x i8]* @load_namestr, i32 0, i32 0)), !llfi_injectfault !9
  ret void, !llfi_index !951
}

; Function Attrs: nounwind uwtable
define linkonce_odr void @_ZNSt16allocator_traitsISaIiEE9constructIiJRKiEEEvRS0_PT_DpOT0_(%"class.std::allocator"* %__a, i32* %__p, i32* %__args) #3 align 2 {
  %1 = alloca %"class.std::allocator"*, align 8, !llfi_index !952
  %2 = alloca i32*, align 8, !llfi_index !953
  %3 = alloca i32*, align 8, !llfi_index !954
  store %"class.std::allocator"* %__a, %"class.std::allocator"** %1, align 8, !llfi_index !955
  store i32* %__p, i32** %2, align 8, !llfi_index !956
  store i32* %__args, i32** %3, align 8, !llfi_index !957
  %4 = load %"class.std::allocator"** %1, align 8, !llfi_index !958
  %fi = call %"class.std::allocator"* @injectFault9(i64 957, %"class.std::allocator"* %4, i32 27, i32 0, i32 1, i32 0, i8* getelementptr inbounds ([5 x i8]* @load_namestr, i32 0, i32 0)), !llfi_injectfault !9
  %5 = bitcast %"class.std::allocator"* %fi to %"class.__gnu_cxx::new_allocator"*, !llfi_index !959
  %fi1 = call %"class.__gnu_cxx::new_allocator"* @injectFault19(i64 958, %"class.__gnu_cxx::new_allocator"* %5, i32 44, i32 0, i32 1, i32 0, i8* getelementptr inbounds ([8 x i8]* @bitcast_namestr, i32 0, i32 0)), !llfi_injectfault !9
  %6 = load i32** %2, align 8, !llfi_index !960
  %fi2 = call i32* @injectFault1(i64 959, i32* %6, i32 27, i32 0, i32 1, i32 0, i8* getelementptr inbounds ([5 x i8]* @load_namestr, i32 0, i32 0)), !llfi_injectfault !9
  %7 = load i32** %3, align 8, !llfi_index !961
  %fi3 = call i32* @injectFault1(i64 960, i32* %7, i32 27, i32 0, i32 1, i32 0, i8* getelementptr inbounds ([5 x i8]* @load_namestr, i32 0, i32 0)), !llfi_injectfault !9
  %8 = call i32* @_ZSt7forwardIRKiEOT_RNSt16remove_referenceIS2_E4typeE(i32* %fi3) #0, !llfi_index !962
  call void @_ZN9__gnu_cxx13new_allocatorIiE9constructIiJRKiEEEvPT_DpOT0_(%"class.__gnu_cxx::new_allocator"* %fi1, i32* %fi2, i32* %8), !llfi_index !963
  ret void, !llfi_index !964
}

; Function Attrs: nounwind uwtable
define linkonce_odr void @_ZNSt6vectorIiSaIiEE19_M_emplace_back_auxIJRKiEEEvDpOT_(%"class.std::vector"* %this, i32* %__args) #3 align 2 {
  %1 = alloca %"class.std::vector"*, align 8, !llfi_index !965
  %2 = alloca i32*, align 8, !llfi_index !966
  %__len = alloca i64, align 8, !llfi_index !967
  %__new_start = alloca i32*, align 8, !llfi_index !968
  %__new_finish = alloca i32*, align 8, !llfi_index !969
  store %"class.std::vector"* %this, %"class.std::vector"** %1, align 8, !llfi_index !970
  store i32* %__args, i32** %2, align 8, !llfi_index !971
  %3 = load %"class.std::vector"** %1, !llfi_index !972
  %fi = call %"class.std::vector"* @injectFault8(i64 971, %"class.std::vector"* %3, i32 27, i32 0, i32 1, i32 0, i8* getelementptr inbounds ([5 x i8]* @load_namestr, i32 0, i32 0)), !llfi_injectfault !9
  %4 = call i64 @_ZNKSt6vectorIiSaIiEE12_M_check_lenEmPKc(%"class.std::vector"* %fi, i64 1, i8* getelementptr inbounds ([28 x i8]* @.str3, i32 0, i32 0)), !llfi_index !973
  store i64 %4, i64* %__len, align 8, !llfi_index !974
  %5 = bitcast %"class.std::vector"* %fi to %"struct.std::_Vector_base"*, !llfi_index !975
  %fi1 = call %"struct.std::_Vector_base"* @injectFault2(i64 974, %"struct.std::_Vector_base"* %5, i32 44, i32 0, i32 1, i32 0, i8* getelementptr inbounds ([8 x i8]* @bitcast_namestr, i32 0, i32 0)), !llfi_injectfault !9
  %6 = load i64* %__len, align 8, !llfi_index !976
  %fi2 = call i64 @injectFault12(i64 975, i64 %6, i32 27, i32 0, i32 1, i32 0, i8* getelementptr inbounds ([5 x i8]* @load_namestr, i32 0, i32 0)), !llfi_injectfault !9
  %7 = call i32* @_ZNSt12_Vector_baseIiSaIiEE11_M_allocateEm(%"struct.std::_Vector_base"* %fi1, i64 %fi2), !llfi_index !977
  store i32* %7, i32** %__new_start, align 8, !llfi_index !978
  %8 = load i32** %__new_start, align 8, !llfi_index !979
  %fi3 = call i32* @injectFault1(i64 978, i32* %8, i32 27, i32 0, i32 1, i32 0, i8* getelementptr inbounds ([5 x i8]* @load_namestr, i32 0, i32 0)), !llfi_injectfault !9
  store i32* %fi3, i32** %__new_finish, align 8, !llfi_index !980
  %9 = bitcast %"class.std::vector"* %fi to %"struct.std::_Vector_base"*, !llfi_index !981
  %fi4 = call %"struct.std::_Vector_base"* @injectFault2(i64 980, %"struct.std::_Vector_base"* %9, i32 44, i32 0, i32 1, i32 0, i8* getelementptr inbounds ([8 x i8]* @bitcast_namestr, i32 0, i32 0)), !llfi_injectfault !9
  %10 = getelementptr %"struct.std::_Vector_base"* %fi4, i32 0, i32 0, !llfi_index !982
  %fi5 = call %"struct.std::_Vector_base<int, std::allocator<int> >::_Vector_impl"* @injectFault3(i64 981, %"struct.std::_Vector_base<int, std::allocator<int> >::_Vector_impl"* %10, i32 29, i32 0, i32 1, i32 0, i8* getelementptr inbounds ([14 x i8]* @getelementptr_namestr, i32 0, i32 0)), !llfi_injectfault !9
  %11 = bitcast %"struct.std::_Vector_base<int, std::allocator<int> >::_Vector_impl"* %fi5 to %"class.std::allocator"*, !llfi_index !983
  %fi6 = call %"class.std::allocator"* @injectFault9(i64 982, %"class.std::allocator"* %11, i32 44, i32 0, i32 1, i32 0, i8* getelementptr inbounds ([8 x i8]* @bitcast_namestr, i32 0, i32 0)), !llfi_injectfault !9
  %12 = load i32** %__new_start, align 8, !llfi_index !984
  %fi7 = call i32* @injectFault1(i64 983, i32* %12, i32 27, i32 0, i32 1, i32 0, i8* getelementptr inbounds ([5 x i8]* @load_namestr, i32 0, i32 0)), !llfi_injectfault !9
  %13 = call i64 @_ZNKSt6vectorIiSaIiEE4sizeEv(%"class.std::vector"* %fi) #0, !llfi_index !985
  %14 = getelementptr i32* %fi7, i64 %13, !llfi_index !986
  %fi8 = call i32* @injectFault1(i64 985, i32* %14, i32 29, i32 0, i32 1, i32 0, i8* getelementptr inbounds ([14 x i8]* @getelementptr_namestr, i32 0, i32 0)), !llfi_injectfault !9
  %15 = load i32** %2, align 8, !llfi_index !987
  %fi9 = call i32* @injectFault1(i64 986, i32* %15, i32 27, i32 0, i32 1, i32 0, i8* getelementptr inbounds ([5 x i8]* @load_namestr, i32 0, i32 0)), !llfi_injectfault !9
  %16 = call i32* @_ZSt7forwardIRKiEOT_RNSt16remove_referenceIS2_E4typeE(i32* %fi9) #0, !llfi_index !988
  call void @_ZNSt16allocator_traitsISaIiEE9constructIiJRKiEEEvRS0_PT_DpOT0_(%"class.std::allocator"* %fi6, i32* %fi8, i32* %16), !llfi_index !989
  store i32* null, i32** %__new_finish, align 8, !llfi_index !990
  %17 = bitcast %"class.std::vector"* %fi to %"struct.std::_Vector_base"*, !llfi_index !991
  %fi11 = call %"struct.std::_Vector_base"* @injectFault2(i64 990, %"struct.std::_Vector_base"* %17, i32 44, i32 0, i32 1, i32 0, i8* getelementptr inbounds ([8 x i8]* @bitcast_namestr, i32 0, i32 0)), !llfi_injectfault !9
  %18 = getelementptr %"struct.std::_Vector_base"* %fi11, i32 0, i32 0, !llfi_index !992
  %fi12 = call %"struct.std::_Vector_base<int, std::allocator<int> >::_Vector_impl"* @injectFault3(i64 991, %"struct.std::_Vector_base<int, std::allocator<int> >::_Vector_impl"* %18, i32 29, i32 0, i32 1, i32 0, i8* getelementptr inbounds ([14 x i8]* @getelementptr_namestr, i32 0, i32 0)), !llfi_injectfault !9
  %19 = getelementptr %"struct.std::_Vector_base<int, std::allocator<int> >::_Vector_impl"* %fi12, i32 0, i32 0, !llfi_index !993
  %fi13 = call i32** @injectFault0(i64 992, i32** %19, i32 29, i32 0, i32 1, i32 0, i8* getelementptr inbounds ([14 x i8]* @getelementptr_namestr, i32 0, i32 0)), !llfi_injectfault !9
  %20 = load i32** %fi13, align 8, !llfi_index !994
  %fi14 = call i32* @injectFault1(i64 993, i32* %20, i32 27, i32 0, i32 1, i32 0, i8* getelementptr inbounds ([5 x i8]* @load_namestr, i32 0, i32 0)), !llfi_injectfault !9
  %21 = bitcast %"class.std::vector"* %fi to %"struct.std::_Vector_base"*, !llfi_index !995
  %fi15 = call %"struct.std::_Vector_base"* @injectFault2(i64 994, %"struct.std::_Vector_base"* %21, i32 44, i32 0, i32 1, i32 0, i8* getelementptr inbounds ([8 x i8]* @bitcast_namestr, i32 0, i32 0)), !llfi_injectfault !9
  %22 = getelementptr %"struct.std::_Vector_base"* %fi15, i32 0, i32 0, !llfi_index !996
  %fi16 = call %"struct.std::_Vector_base<int, std::allocator<int> >::_Vector_impl"* @injectFault3(i64 995, %"struct.std::_Vector_base<int, std::allocator<int> >::_Vector_impl"* %22, i32 29, i32 0, i32 1, i32 0, i8* getelementptr inbounds ([14 x i8]* @getelementptr_namestr, i32 0, i32 0)), !llfi_injectfault !9
  %23 = getelementptr %"struct.std::_Vector_base<int, std::allocator<int> >::_Vector_impl"* %fi16, i32 0, i32 1, !llfi_index !997
  %fi17 = call i32** @injectFault0(i64 996, i32** %23, i32 29, i32 0, i32 1, i32 0, i8* getelementptr inbounds ([14 x i8]* @getelementptr_namestr, i32 0, i32 0)), !llfi_injectfault !9
  %24 = load i32** %fi17, align 8, !llfi_index !998
  %fi18 = call i32* @injectFault1(i64 997, i32* %24, i32 27, i32 0, i32 1, i32 0, i8* getelementptr inbounds ([5 x i8]* @load_namestr, i32 0, i32 0)), !llfi_injectfault !9
  %25 = load i32** %__new_start, align 8, !llfi_index !999
  %fi19 = call i32* @injectFault1(i64 998, i32* %25, i32 27, i32 0, i32 1, i32 0, i8* getelementptr inbounds ([5 x i8]* @load_namestr, i32 0, i32 0)), !llfi_injectfault !9
  %26 = bitcast %"class.std::vector"* %fi to %"struct.std::_Vector_base"*, !llfi_index !1000
  %fi20 = call %"struct.std::_Vector_base"* @injectFault2(i64 999, %"struct.std::_Vector_base"* %26, i32 44, i32 0, i32 1, i32 0, i8* getelementptr inbounds ([8 x i8]* @bitcast_namestr, i32 0, i32 0)), !llfi_injectfault !9
  %27 = call %"class.std::allocator"* @_ZNSt12_Vector_baseIiSaIiEE19_M_get_Tp_allocatorEv(%"struct.std::_Vector_base"* %fi20) #0, !llfi_index !1001
  %28 = call i32* @_ZSt34__uninitialized_move_if_noexcept_aIPiS0_SaIiEET0_T_S3_S2_RT1_(i32* %fi14, i32* %fi18, i32* %fi19, %"class.std::allocator"* %27), !llfi_index !1002
  store i32* %28, i32** %__new_finish, align 8, !llfi_index !1003
  %29 = load i32** %__new_finish, align 8, !llfi_index !1004
  %fi21 = call i32* @injectFault1(i64 1003, i32* %29, i32 27, i32 0, i32 1, i32 0, i8* getelementptr inbounds ([5 x i8]* @load_namestr, i32 0, i32 0)), !llfi_injectfault !9
  %30 = getelementptr i32* %fi21, i32 1, !llfi_index !1005
  %fi22 = call i32* @injectFault1(i64 1004, i32* %30, i32 29, i32 0, i32 1, i32 0, i8* getelementptr inbounds ([14 x i8]* @getelementptr_namestr, i32 0, i32 0)), !llfi_injectfault !9
  store i32* %fi22, i32** %__new_finish, align 8, !llfi_index !1006
  %31 = bitcast %"class.std::vector"* %fi to %"struct.std::_Vector_base"*, !llfi_index !1007
  %fi23 = call %"struct.std::_Vector_base"* @injectFault2(i64 1006, %"struct.std::_Vector_base"* %31, i32 44, i32 0, i32 1, i32 0, i8* getelementptr inbounds ([8 x i8]* @bitcast_namestr, i32 0, i32 0)), !llfi_injectfault !9
  %32 = getelementptr %"struct.std::_Vector_base"* %fi23, i32 0, i32 0, !llfi_index !1008
  %fi24 = call %"struct.std::_Vector_base<int, std::allocator<int> >::_Vector_impl"* @injectFault3(i64 1007, %"struct.std::_Vector_base<int, std::allocator<int> >::_Vector_impl"* %32, i32 29, i32 0, i32 1, i32 0, i8* getelementptr inbounds ([14 x i8]* @getelementptr_namestr, i32 0, i32 0)), !llfi_injectfault !9
  %33 = getelementptr %"struct.std::_Vector_base<int, std::allocator<int> >::_Vector_impl"* %fi24, i32 0, i32 0, !llfi_index !1009
  %fi10 = call i32** @injectFault0(i64 1008, i32** %33, i32 29, i32 0, i32 1, i32 0, i8* getelementptr inbounds ([14 x i8]* @getelementptr_namestr, i32 0, i32 0)), !llfi_injectfault !9
  %34 = load i32** %fi10, align 8, !llfi_index !1010
  %fi27 = call i32* @injectFault1(i64 1009, i32* %34, i32 27, i32 0, i32 1, i32 0, i8* getelementptr inbounds ([5 x i8]* @load_namestr, i32 0, i32 0)), !llfi_injectfault !9
  %35 = bitcast %"class.std::vector"* %fi to %"struct.std::_Vector_base"*, !llfi_index !1011
  %fi28 = call %"struct.std::_Vector_base"* @injectFault2(i64 1010, %"struct.std::_Vector_base"* %35, i32 44, i32 0, i32 1, i32 0, i8* getelementptr inbounds ([8 x i8]* @bitcast_namestr, i32 0, i32 0)), !llfi_injectfault !9
  %36 = getelementptr %"struct.std::_Vector_base"* %fi28, i32 0, i32 0, !llfi_index !1012
  %fi29 = call %"struct.std::_Vector_base<int, std::allocator<int> >::_Vector_impl"* @injectFault3(i64 1011, %"struct.std::_Vector_base<int, std::allocator<int> >::_Vector_impl"* %36, i32 29, i32 0, i32 1, i32 0, i8* getelementptr inbounds ([14 x i8]* @getelementptr_namestr, i32 0, i32 0)), !llfi_injectfault !9
  %37 = getelementptr %"struct.std::_Vector_base<int, std::allocator<int> >::_Vector_impl"* %fi29, i32 0, i32 1, !llfi_index !1013
  %fi30 = call i32** @injectFault0(i64 1012, i32** %37, i32 29, i32 0, i32 1, i32 0, i8* getelementptr inbounds ([14 x i8]* @getelementptr_namestr, i32 0, i32 0)), !llfi_injectfault !9
  %38 = load i32** %fi30, align 8, !llfi_index !1014
  %fi31 = call i32* @injectFault1(i64 1013, i32* %38, i32 27, i32 0, i32 1, i32 0, i8* getelementptr inbounds ([5 x i8]* @load_namestr, i32 0, i32 0)), !llfi_injectfault !9
  %39 = bitcast %"class.std::vector"* %fi to %"struct.std::_Vector_base"*, !llfi_index !1015
  %fi32 = call %"struct.std::_Vector_base"* @injectFault2(i64 1014, %"struct.std::_Vector_base"* %39, i32 44, i32 0, i32 1, i32 0, i8* getelementptr inbounds ([8 x i8]* @bitcast_namestr, i32 0, i32 0)), !llfi_injectfault !9
  %40 = call %"class.std::allocator"* @_ZNSt12_Vector_baseIiSaIiEE19_M_get_Tp_allocatorEv(%"struct.std::_Vector_base"* %fi32) #0, !llfi_index !1016
  call void @_ZSt8_DestroyIPiiEvT_S1_RSaIT0_E(i32* %fi27, i32* %fi31, %"class.std::allocator"* %40), !llfi_index !1017
  %41 = bitcast %"class.std::vector"* %fi to %"struct.std::_Vector_base"*, !llfi_index !1018
  %fi33 = call %"struct.std::_Vector_base"* @injectFault2(i64 1017, %"struct.std::_Vector_base"* %41, i32 44, i32 0, i32 1, i32 0, i8* getelementptr inbounds ([8 x i8]* @bitcast_namestr, i32 0, i32 0)), !llfi_injectfault !9
  %42 = bitcast %"class.std::vector"* %fi to %"struct.std::_Vector_base"*, !llfi_index !1019
  %fi34 = call %"struct.std::_Vector_base"* @injectFault2(i64 1018, %"struct.std::_Vector_base"* %42, i32 44, i32 0, i32 1, i32 0, i8* getelementptr inbounds ([8 x i8]* @bitcast_namestr, i32 0, i32 0)), !llfi_injectfault !9
  %43 = getelementptr %"struct.std::_Vector_base"* %fi34, i32 0, i32 0, !llfi_index !1020
  %fi35 = call %"struct.std::_Vector_base<int, std::allocator<int> >::_Vector_impl"* @injectFault3(i64 1019, %"struct.std::_Vector_base<int, std::allocator<int> >::_Vector_impl"* %43, i32 29, i32 0, i32 1, i32 0, i8* getelementptr inbounds ([14 x i8]* @getelementptr_namestr, i32 0, i32 0)), !llfi_injectfault !9
  %44 = getelementptr %"struct.std::_Vector_base<int, std::allocator<int> >::_Vector_impl"* %fi35, i32 0, i32 0, !llfi_index !1021
  %fi36 = call i32** @injectFault0(i64 1020, i32** %44, i32 29, i32 0, i32 1, i32 0, i8* getelementptr inbounds ([14 x i8]* @getelementptr_namestr, i32 0, i32 0)), !llfi_injectfault !9
  %45 = load i32** %fi36, align 8, !llfi_index !1022
  %fi37 = call i32* @injectFault1(i64 1021, i32* %45, i32 27, i32 0, i32 1, i32 0, i8* getelementptr inbounds ([5 x i8]* @load_namestr, i32 0, i32 0)), !llfi_injectfault !9
  %46 = bitcast %"class.std::vector"* %fi to %"struct.std::_Vector_base"*, !llfi_index !1023
  %fi38 = call %"struct.std::_Vector_base"* @injectFault2(i64 1022, %"struct.std::_Vector_base"* %46, i32 44, i32 0, i32 1, i32 0, i8* getelementptr inbounds ([8 x i8]* @bitcast_namestr, i32 0, i32 0)), !llfi_injectfault !9
  %47 = getelementptr %"struct.std::_Vector_base"* %fi38, i32 0, i32 0, !llfi_index !1024
  %fi39 = call %"struct.std::_Vector_base<int, std::allocator<int> >::_Vector_impl"* @injectFault3(i64 1023, %"struct.std::_Vector_base<int, std::allocator<int> >::_Vector_impl"* %47, i32 29, i32 0, i32 1, i32 0, i8* getelementptr inbounds ([14 x i8]* @getelementptr_namestr, i32 0, i32 0)), !llfi_injectfault !9
  %48 = getelementptr %"struct.std::_Vector_base<int, std::allocator<int> >::_Vector_impl"* %fi39, i32 0, i32 2, !llfi_index !1025
  %fi40 = call i32** @injectFault0(i64 1024, i32** %48, i32 29, i32 0, i32 1, i32 0, i8* getelementptr inbounds ([14 x i8]* @getelementptr_namestr, i32 0, i32 0)), !llfi_injectfault !9
  %49 = load i32** %fi40, align 8, !llfi_index !1026
  %fi41 = call i32* @injectFault1(i64 1025, i32* %49, i32 27, i32 0, i32 1, i32 0, i8* getelementptr inbounds ([5 x i8]* @load_namestr, i32 0, i32 0)), !llfi_injectfault !9
  %50 = bitcast %"class.std::vector"* %fi to %"struct.std::_Vector_base"*, !llfi_index !1027
  %fi42 = call %"struct.std::_Vector_base"* @injectFault2(i64 1026, %"struct.std::_Vector_base"* %50, i32 44, i32 0, i32 1, i32 0, i8* getelementptr inbounds ([8 x i8]* @bitcast_namestr, i32 0, i32 0)), !llfi_injectfault !9
  %51 = getelementptr %"struct.std::_Vector_base"* %fi42, i32 0, i32 0, !llfi_index !1028
  %fi43 = call %"struct.std::_Vector_base<int, std::allocator<int> >::_Vector_impl"* @injectFault3(i64 1027, %"struct.std::_Vector_base<int, std::allocator<int> >::_Vector_impl"* %51, i32 29, i32 0, i32 1, i32 0, i8* getelementptr inbounds ([14 x i8]* @getelementptr_namestr, i32 0, i32 0)), !llfi_injectfault !9
  %52 = getelementptr %"struct.std::_Vector_base<int, std::allocator<int> >::_Vector_impl"* %fi43, i32 0, i32 0, !llfi_index !1029
  %fi44 = call i32** @injectFault0(i64 1028, i32** %52, i32 29, i32 0, i32 1, i32 0, i8* getelementptr inbounds ([14 x i8]* @getelementptr_namestr, i32 0, i32 0)), !llfi_injectfault !9
  %53 = load i32** %fi44, align 8, !llfi_index !1030
  %fi45 = call i32* @injectFault1(i64 1029, i32* %53, i32 27, i32 0, i32 1, i32 0, i8* getelementptr inbounds ([5 x i8]* @load_namestr, i32 0, i32 0)), !llfi_injectfault !9
  %54 = ptrtoint i32* %fi41 to i64, !llfi_index !1031
  %fi46 = call i64 @injectFault12(i64 1030, i64 %54, i32 42, i32 0, i32 1, i32 0, i8* getelementptr inbounds ([9 x i8]* @ptrtoint_namestr, i32 0, i32 0)), !llfi_injectfault !9
  %55 = ptrtoint i32* %fi45 to i64, !llfi_index !1032
  %fi47 = call i64 @injectFault12(i64 1031, i64 %55, i32 42, i32 0, i32 1, i32 0, i8* getelementptr inbounds ([9 x i8]* @ptrtoint_namestr, i32 0, i32 0)), !llfi_injectfault !9
  %56 = sub i64 %fi46, %fi47, !llfi_index !1033
  %fi48 = call i64 @injectFault12(i64 1032, i64 %56, i32 10, i32 0, i32 1, i32 0, i8* getelementptr inbounds ([4 x i8]* @sub_namestr, i32 0, i32 0)), !llfi_injectfault !9
  %57 = sdiv exact i64 %fi48, 4, !llfi_index !1034
  %fi49 = call i64 @injectFault12(i64 1033, i64 %57, i32 15, i32 0, i32 1, i32 0, i8* getelementptr inbounds ([5 x i8]* @sdiv_namestr, i32 0, i32 0)), !llfi_injectfault !9
  call void @_ZNSt12_Vector_baseIiSaIiEE13_M_deallocateEPim(%"struct.std::_Vector_base"* %fi33, i32* %fi37, i64 %fi49), !llfi_index !1035
  %58 = load i32** %__new_start, align 8, !llfi_index !1036
  %fi50 = call i32* @injectFault1(i64 1035, i32* %58, i32 27, i32 0, i32 1, i32 0, i8* getelementptr inbounds ([5 x i8]* @load_namestr, i32 0, i32 0)), !llfi_injectfault !9
  %59 = bitcast %"class.std::vector"* %fi to %"struct.std::_Vector_base"*, !llfi_index !1037
  %fi51 = call %"struct.std::_Vector_base"* @injectFault2(i64 1036, %"struct.std::_Vector_base"* %59, i32 44, i32 0, i32 1, i32 0, i8* getelementptr inbounds ([8 x i8]* @bitcast_namestr, i32 0, i32 0)), !llfi_injectfault !9
  %60 = getelementptr %"struct.std::_Vector_base"* %fi51, i32 0, i32 0, !llfi_index !1038
  %fi52 = call %"struct.std::_Vector_base<int, std::allocator<int> >::_Vector_impl"* @injectFault3(i64 1037, %"struct.std::_Vector_base<int, std::allocator<int> >::_Vector_impl"* %60, i32 29, i32 0, i32 1, i32 0, i8* getelementptr inbounds ([14 x i8]* @getelementptr_namestr, i32 0, i32 0)), !llfi_injectfault !9
  %61 = getelementptr %"struct.std::_Vector_base<int, std::allocator<int> >::_Vector_impl"* %fi52, i32 0, i32 0, !llfi_index !1039
  %fi53 = call i32** @injectFault0(i64 1038, i32** %61, i32 29, i32 0, i32 1, i32 0, i8* getelementptr inbounds ([14 x i8]* @getelementptr_namestr, i32 0, i32 0)), !llfi_injectfault !9
  store i32* %fi50, i32** %fi53, align 8, !llfi_index !1040
  %62 = load i32** %__new_finish, align 8, !llfi_index !1041
  %fi54 = call i32* @injectFault1(i64 1040, i32* %62, i32 27, i32 0, i32 1, i32 0, i8* getelementptr inbounds ([5 x i8]* @load_namestr, i32 0, i32 0)), !llfi_injectfault !9
  %63 = bitcast %"class.std::vector"* %fi to %"struct.std::_Vector_base"*, !llfi_index !1042
  %fi55 = call %"struct.std::_Vector_base"* @injectFault2(i64 1041, %"struct.std::_Vector_base"* %63, i32 44, i32 0, i32 1, i32 0, i8* getelementptr inbounds ([8 x i8]* @bitcast_namestr, i32 0, i32 0)), !llfi_injectfault !9
  %64 = getelementptr %"struct.std::_Vector_base"* %fi55, i32 0, i32 0, !llfi_index !1043
  %fi56 = call %"struct.std::_Vector_base<int, std::allocator<int> >::_Vector_impl"* @injectFault3(i64 1042, %"struct.std::_Vector_base<int, std::allocator<int> >::_Vector_impl"* %64, i32 29, i32 0, i32 1, i32 0, i8* getelementptr inbounds ([14 x i8]* @getelementptr_namestr, i32 0, i32 0)), !llfi_injectfault !9
  %65 = getelementptr %"struct.std::_Vector_base<int, std::allocator<int> >::_Vector_impl"* %fi56, i32 0, i32 1, !llfi_index !1044
  %fi25 = call i32** @injectFault0(i64 1043, i32** %65, i32 29, i32 0, i32 1, i32 0, i8* getelementptr inbounds ([14 x i8]* @getelementptr_namestr, i32 0, i32 0)), !llfi_injectfault !9
  store i32* %fi54, i32** %fi25, align 8, !llfi_index !1045
  %66 = load i32** %__new_start, align 8, !llfi_index !1046
  %fi26 = call i32* @injectFault1(i64 1045, i32* %66, i32 27, i32 0, i32 1, i32 0, i8* getelementptr inbounds ([5 x i8]* @load_namestr, i32 0, i32 0)), !llfi_injectfault !9
  %67 = load i64* %__len, align 8, !llfi_index !1047
  %fi57 = call i64 @injectFault12(i64 1046, i64 %67, i32 27, i32 0, i32 1, i32 0, i8* getelementptr inbounds ([5 x i8]* @load_namestr, i32 0, i32 0)), !llfi_injectfault !9
  %68 = getelementptr i32* %fi26, i64 %fi57, !llfi_index !1048
  %fi58 = call i32* @injectFault1(i64 1047, i32* %68, i32 29, i32 0, i32 1, i32 0, i8* getelementptr inbounds ([14 x i8]* @getelementptr_namestr, i32 0, i32 0)), !llfi_injectfault !9
  %69 = bitcast %"class.std::vector"* %fi to %"struct.std::_Vector_base"*, !llfi_index !1049
  %fi59 = call %"struct.std::_Vector_base"* @injectFault2(i64 1048, %"struct.std::_Vector_base"* %69, i32 44, i32 0, i32 1, i32 0, i8* getelementptr inbounds ([8 x i8]* @bitcast_namestr, i32 0, i32 0)), !llfi_injectfault !9
  %70 = getelementptr %"struct.std::_Vector_base"* %fi59, i32 0, i32 0, !llfi_index !1050
  %fi60 = call %"struct.std::_Vector_base<int, std::allocator<int> >::_Vector_impl"* @injectFault3(i64 1049, %"struct.std::_Vector_base<int, std::allocator<int> >::_Vector_impl"* %70, i32 29, i32 0, i32 1, i32 0, i8* getelementptr inbounds ([14 x i8]* @getelementptr_namestr, i32 0, i32 0)), !llfi_injectfault !9
  %71 = getelementptr %"struct.std::_Vector_base<int, std::allocator<int> >::_Vector_impl"* %fi60, i32 0, i32 2, !llfi_index !1051
  %fi61 = call i32** @injectFault0(i64 1050, i32** %71, i32 29, i32 0, i32 1, i32 0, i8* getelementptr inbounds ([14 x i8]* @getelementptr_namestr, i32 0, i32 0)), !llfi_injectfault !9
  store i32* %fi58, i32** %fi61, align 8, !llfi_index !1052
  ret void, !llfi_index !1053
}

; Function Attrs: nounwind uwtable
define linkonce_odr i64 @_ZNKSt6vectorIiSaIiEE12_M_check_lenEmPKc(%"class.std::vector"* %this, i64 %__n, i8* %__s) #3 align 2 {
  %1 = alloca %"class.std::vector"*, align 8, !llfi_index !1054
  %2 = alloca i64, align 8, !llfi_index !1055
  %3 = alloca i8*, align 8, !llfi_index !1056
  %__len = alloca i64, align 8, !llfi_index !1057
  %4 = alloca i64, align 8, !llfi_index !1058
  store %"class.std::vector"* %this, %"class.std::vector"** %1, align 8, !llfi_index !1059
  store i64 %__n, i64* %2, align 8, !llfi_index !1060
  store i8* %__s, i8** %3, align 8, !llfi_index !1061
  %5 = load %"class.std::vector"** %1, !llfi_index !1062
  %fi = call %"class.std::vector"* @injectFault8(i64 1061, %"class.std::vector"* %5, i32 27, i32 0, i32 1, i32 0, i8* getelementptr inbounds ([5 x i8]* @load_namestr, i32 0, i32 0)), !llfi_injectfault !9
  %6 = call i64 @_ZNKSt6vectorIiSaIiEE8max_sizeEv(%"class.std::vector"* %fi) #0, !llfi_index !1063
  %7 = call i64 @_ZNKSt6vectorIiSaIiEE4sizeEv(%"class.std::vector"* %fi) #0, !llfi_index !1064
  %8 = sub i64 %6, %7, !llfi_index !1065
  %fi1 = call i64 @injectFault12(i64 1064, i64 %8, i32 10, i32 0, i32 1, i32 0, i8* getelementptr inbounds ([4 x i8]* @sub_namestr, i32 0, i32 0)), !llfi_injectfault !9
  %9 = load i64* %2, align 8, !llfi_index !1066
  %fi3 = call i64 @injectFault12(i64 1065, i64 %9, i32 27, i32 0, i32 1, i32 0, i8* getelementptr inbounds ([5 x i8]* @load_namestr, i32 0, i32 0)), !llfi_injectfault !9
  %10 = icmp ult i64 %fi1, %fi3, !llfi_index !1067
  %fi4 = call i1 @injectFault6(i64 1066, i1 %10, i32 46, i32 0, i32 1, i32 0, i8* getelementptr inbounds ([5 x i8]* @icmp_namestr, i32 0, i32 0)), !llfi_injectfault !9
  br i1 %fi4, label %11, label %13, !llfi_index !1068

; <label>:11                                      ; preds = %0
  %12 = load i8** %3, align 8, !llfi_index !1069
  %fi5 = call i8* @injectFault14(i64 1068, i8* %12, i32 27, i32 0, i32 1, i32 0, i8* getelementptr inbounds ([5 x i8]* @load_namestr, i32 0, i32 0)), !llfi_injectfault !9
  call void @_ZSt20__throw_length_errorPKc(i8* %fi5) #9, !llfi_index !1070
  unreachable, !llfi_index !1071

; <label>:13                                      ; preds = %0
  %14 = call i64 @_ZNKSt6vectorIiSaIiEE4sizeEv(%"class.std::vector"* %fi) #0, !llfi_index !1072
  %15 = call i64 @_ZNKSt6vectorIiSaIiEE4sizeEv(%"class.std::vector"* %fi) #0, !llfi_index !1073
  store i64 %15, i64* %4, !llfi_index !1074
  %16 = call i64* @_ZSt3maxImERKT_S2_S2_(i64* %4, i64* %2), !llfi_index !1075
  %17 = load i64* %16, !llfi_index !1076
  %fi2 = call i64 @injectFault12(i64 1075, i64 %17, i32 27, i32 0, i32 1, i32 0, i8* getelementptr inbounds ([5 x i8]* @load_namestr, i32 0, i32 0)), !llfi_injectfault !9
  %18 = add i64 %14, %fi2, !llfi_index !1077
  %fi6 = call i64 @injectFault12(i64 1076, i64 %18, i32 8, i32 0, i32 1, i32 0, i8* getelementptr inbounds ([4 x i8]* @add_namestr, i32 0, i32 0)), !llfi_injectfault !9
  store i64 %fi6, i64* %__len, align 8, !llfi_index !1078
  %19 = load i64* %__len, align 8, !llfi_index !1079
  %fi7 = call i64 @injectFault12(i64 1078, i64 %19, i32 27, i32 0, i32 1, i32 0, i8* getelementptr inbounds ([5 x i8]* @load_namestr, i32 0, i32 0)), !llfi_injectfault !9
  %20 = call i64 @_ZNKSt6vectorIiSaIiEE4sizeEv(%"class.std::vector"* %fi) #0, !llfi_index !1080
  %21 = icmp ult i64 %fi7, %20, !llfi_index !1081
  %fi8 = call i1 @injectFault6(i64 1080, i1 %21, i32 46, i32 0, i32 1, i32 0, i8* getelementptr inbounds ([5 x i8]* @icmp_namestr, i32 0, i32 0)), !llfi_injectfault !9
  br i1 %fi8, label %26, label %22, !llfi_index !1082

; <label>:22                                      ; preds = %13
  %23 = load i64* %__len, align 8, !llfi_index !1083
  %fi9 = call i64 @injectFault12(i64 1082, i64 %23, i32 27, i32 0, i32 1, i32 0, i8* getelementptr inbounds ([5 x i8]* @load_namestr, i32 0, i32 0)), !llfi_injectfault !9
  %24 = call i64 @_ZNKSt6vectorIiSaIiEE8max_sizeEv(%"class.std::vector"* %fi) #0, !llfi_index !1084
  %25 = icmp ugt i64 %fi9, %24, !llfi_index !1085
  %fi10 = call i1 @injectFault6(i64 1084, i1 %25, i32 46, i32 0, i32 1, i32 0, i8* getelementptr inbounds ([5 x i8]* @icmp_namestr, i32 0, i32 0)), !llfi_injectfault !9
  br i1 %fi10, label %26, label %28, !llfi_index !1086

; <label>:26                                      ; preds = %22, %13
  %27 = call i64 @_ZNKSt6vectorIiSaIiEE8max_sizeEv(%"class.std::vector"* %fi) #0, !llfi_index !1087
  br label %30, !llfi_index !1088

; <label>:28                                      ; preds = %22
  %29 = load i64* %__len, align 8, !llfi_index !1089
  %fi11 = call i64 @injectFault12(i64 1088, i64 %29, i32 27, i32 0, i32 1, i32 0, i8* getelementptr inbounds ([5 x i8]* @load_namestr, i32 0, i32 0)), !llfi_injectfault !9
  br label %30, !llfi_index !1090

; <label>:30                                      ; preds = %28, %26
  %31 = phi i64 [ %27, %26 ], [ %fi11, %28 ], !llfi_index !1091
  ret i64 %31, !llfi_index !1092
}

; Function Attrs: nounwind uwtable
define linkonce_odr i32* @_ZSt7forwardIRKiEOT_RNSt16remove_referenceIS2_E4typeE(i32* %__t) #3 {
  %1 = alloca i32*, align 8, !llfi_index !1093
  store i32* %__t, i32** %1, align 8, !llfi_index !1094
  %2 = load i32** %1, align 8, !llfi_index !1095
  %fi = call i32* @injectFault1(i64 1094, i32* %2, i32 27, i32 0, i32 1, i32 0, i8* getelementptr inbounds ([5 x i8]* @load_namestr, i32 0, i32 0)), !llfi_injectfault !9
  ret i32* %fi, !llfi_index !1096
}

; Function Attrs: inlinehint nounwind uwtable
define linkonce_odr i32* @_ZSt34__uninitialized_move_if_noexcept_aIPiS0_SaIiEET0_T_S3_S2_RT1_(i32* %__first, i32* %__last, i32* %__result, %"class.std::allocator"* %__alloc) #5 {
  %1 = alloca i32*, align 8, !llfi_index !1097
  %2 = alloca i32*, align 8, !llfi_index !1098
  %3 = alloca i32*, align 8, !llfi_index !1099
  %4 = alloca %"class.std::allocator"*, align 8, !llfi_index !1100
  %5 = alloca %"class.std::move_iterator", align 8, !llfi_index !1101
  %6 = alloca %"class.std::move_iterator", align 8, !llfi_index !1102
  store i32* %__first, i32** %1, align 8, !llfi_index !1103
  store i32* %__last, i32** %2, align 8, !llfi_index !1104
  store i32* %__result, i32** %3, align 8, !llfi_index !1105
  store %"class.std::allocator"* %__alloc, %"class.std::allocator"** %4, align 8, !llfi_index !1106
  %7 = load i32** %1, align 8, !llfi_index !1107
  %fi = call i32* @injectFault1(i64 1106, i32* %7, i32 27, i32 0, i32 1, i32 0, i8* getelementptr inbounds ([5 x i8]* @load_namestr, i32 0, i32 0)), !llfi_injectfault !9
  %8 = call i32* @_ZSt32__make_move_if_noexcept_iteratorIPiSt13move_iteratorIS0_EET0_T_(i32* %fi), !llfi_index !1108
  %9 = getelementptr %"class.std::move_iterator"* %5, i32 0, i32 0, !llfi_index !1109
  %fi1 = call i32** @injectFault0(i64 1108, i32** %9, i32 29, i32 0, i32 1, i32 0, i8* getelementptr inbounds ([14 x i8]* @getelementptr_namestr, i32 0, i32 0)), !llfi_injectfault !9
  store i32* %8, i32** %fi1, !llfi_index !1110
  %10 = load i32** %2, align 8, !llfi_index !1111
  %fi2 = call i32* @injectFault1(i64 1110, i32* %10, i32 27, i32 0, i32 1, i32 0, i8* getelementptr inbounds ([5 x i8]* @load_namestr, i32 0, i32 0)), !llfi_injectfault !9
  %11 = call i32* @_ZSt32__make_move_if_noexcept_iteratorIPiSt13move_iteratorIS0_EET0_T_(i32* %fi2), !llfi_index !1112
  %12 = getelementptr %"class.std::move_iterator"* %6, i32 0, i32 0, !llfi_index !1113
  %fi3 = call i32** @injectFault0(i64 1112, i32** %12, i32 29, i32 0, i32 1, i32 0, i8* getelementptr inbounds ([14 x i8]* @getelementptr_namestr, i32 0, i32 0)), !llfi_injectfault !9
  store i32* %11, i32** %fi3, !llfi_index !1114
  %13 = load i32** %3, align 8, !llfi_index !1115
  %fi4 = call i32* @injectFault1(i64 1114, i32* %13, i32 27, i32 0, i32 1, i32 0, i8* getelementptr inbounds ([5 x i8]* @load_namestr, i32 0, i32 0)), !llfi_injectfault !9
  %14 = load %"class.std::allocator"** %4, align 8, !llfi_index !1116
  %fi5 = call %"class.std::allocator"* @injectFault9(i64 1115, %"class.std::allocator"* %14, i32 27, i32 0, i32 1, i32 0, i8* getelementptr inbounds ([5 x i8]* @load_namestr, i32 0, i32 0)), !llfi_injectfault !9
  %15 = getelementptr %"class.std::move_iterator"* %5, i32 0, i32 0, !llfi_index !1117
  %fi6 = call i32** @injectFault0(i64 1116, i32** %15, i32 29, i32 0, i32 1, i32 0, i8* getelementptr inbounds ([14 x i8]* @getelementptr_namestr, i32 0, i32 0)), !llfi_injectfault !9
  %16 = load i32** %fi6, !llfi_index !1118
  %fi7 = call i32* @injectFault1(i64 1117, i32* %16, i32 27, i32 0, i32 1, i32 0, i8* getelementptr inbounds ([5 x i8]* @load_namestr, i32 0, i32 0)), !llfi_injectfault !9
  %17 = getelementptr %"class.std::move_iterator"* %6, i32 0, i32 0, !llfi_index !1119
  %fi8 = call i32** @injectFault0(i64 1118, i32** %17, i32 29, i32 0, i32 1, i32 0, i8* getelementptr inbounds ([14 x i8]* @getelementptr_namestr, i32 0, i32 0)), !llfi_injectfault !9
  %18 = load i32** %fi8, !llfi_index !1120
  %fi9 = call i32* @injectFault1(i64 1119, i32* %18, i32 27, i32 0, i32 1, i32 0, i8* getelementptr inbounds ([5 x i8]* @load_namestr, i32 0, i32 0)), !llfi_injectfault !9
  %19 = call i32* @_ZSt22__uninitialized_copy_aISt13move_iteratorIPiES1_iET0_T_S4_S3_RSaIT1_E(i32* %fi7, i32* %fi9, i32* %fi4, %"class.std::allocator"* %fi5), !llfi_index !1121
  ret i32* %19, !llfi_index !1122
}

; Function Attrs: inlinehint nounwind uwtable
define linkonce_odr i32* @_ZSt22__uninitialized_copy_aISt13move_iteratorIPiES1_iET0_T_S4_S3_RSaIT1_E(i32* %__first.coerce, i32* %__last.coerce, i32* %__result, %"class.std::allocator"*) #5 {
  %__first = alloca %"class.std::move_iterator", align 8, !llfi_index !1123
  %__last = alloca %"class.std::move_iterator", align 8, !llfi_index !1124
  %2 = alloca i32*, align 8, !llfi_index !1125
  %3 = alloca %"class.std::allocator"*, align 8, !llfi_index !1126
  %4 = alloca %"class.std::move_iterator", align 8, !llfi_index !1127
  %5 = alloca %"class.std::move_iterator", align 8, !llfi_index !1128
  %6 = getelementptr %"class.std::move_iterator"* %__first, i32 0, i32 0, !llfi_index !1129
  %fi = call i32** @injectFault0(i64 1128, i32** %6, i32 29, i32 0, i32 1, i32 0, i8* getelementptr inbounds ([14 x i8]* @getelementptr_namestr, i32 0, i32 0)), !llfi_injectfault !9
  store i32* %__first.coerce, i32** %fi, !llfi_index !1130
  %7 = getelementptr %"class.std::move_iterator"* %__last, i32 0, i32 0, !llfi_index !1131
  %fi1 = call i32** @injectFault0(i64 1130, i32** %7, i32 29, i32 0, i32 1, i32 0, i8* getelementptr inbounds ([14 x i8]* @getelementptr_namestr, i32 0, i32 0)), !llfi_injectfault !9
  store i32* %__last.coerce, i32** %fi1, !llfi_index !1132
  store i32* %__result, i32** %2, align 8, !llfi_index !1133
  store %"class.std::allocator"* %0, %"class.std::allocator"** %3, align 8, !llfi_index !1134
  %8 = bitcast %"class.std::move_iterator"* %4 to i8*, !llfi_index !1135
  %fi2 = call i8* @injectFault14(i64 1134, i8* %8, i32 44, i32 0, i32 1, i32 0, i8* getelementptr inbounds ([8 x i8]* @bitcast_namestr, i32 0, i32 0)), !llfi_injectfault !9
  %9 = bitcast %"class.std::move_iterator"* %__first to i8*, !llfi_index !1136
  %fi3 = call i8* @injectFault14(i64 1135, i8* %9, i32 44, i32 0, i32 1, i32 0, i8* getelementptr inbounds ([8 x i8]* @bitcast_namestr, i32 0, i32 0)), !llfi_injectfault !9
  call void @llvm.memcpy.p0i8.p0i8.i64(i8* %fi2, i8* %fi3, i64 8, i32 8, i1 false), !llfi_index !1137
  %10 = bitcast %"class.std::move_iterator"* %5 to i8*, !llfi_index !1138
  %fi4 = call i8* @injectFault14(i64 1137, i8* %10, i32 44, i32 0, i32 1, i32 0, i8* getelementptr inbounds ([8 x i8]* @bitcast_namestr, i32 0, i32 0)), !llfi_injectfault !9
  %11 = bitcast %"class.std::move_iterator"* %__last to i8*, !llfi_index !1139
  %fi5 = call i8* @injectFault14(i64 1138, i8* %11, i32 44, i32 0, i32 1, i32 0, i8* getelementptr inbounds ([8 x i8]* @bitcast_namestr, i32 0, i32 0)), !llfi_injectfault !9
  call void @llvm.memcpy.p0i8.p0i8.i64(i8* %fi4, i8* %fi5, i64 8, i32 8, i1 false), !llfi_index !1140
  %12 = load i32** %2, align 8, !llfi_index !1141
  %fi6 = call i32* @injectFault1(i64 1140, i32* %12, i32 27, i32 0, i32 1, i32 0, i8* getelementptr inbounds ([5 x i8]* @load_namestr, i32 0, i32 0)), !llfi_injectfault !9
  %13 = getelementptr %"class.std::move_iterator"* %4, i32 0, i32 0, !llfi_index !1142
  %fi7 = call i32** @injectFault0(i64 1141, i32** %13, i32 29, i32 0, i32 1, i32 0, i8* getelementptr inbounds ([14 x i8]* @getelementptr_namestr, i32 0, i32 0)), !llfi_injectfault !9
  %14 = load i32** %fi7, !llfi_index !1143
  %fi8 = call i32* @injectFault1(i64 1142, i32* %14, i32 27, i32 0, i32 1, i32 0, i8* getelementptr inbounds ([5 x i8]* @load_namestr, i32 0, i32 0)), !llfi_injectfault !9
  %15 = getelementptr %"class.std::move_iterator"* %5, i32 0, i32 0, !llfi_index !1144
  %fi9 = call i32** @injectFault0(i64 1143, i32** %15, i32 29, i32 0, i32 1, i32 0, i8* getelementptr inbounds ([14 x i8]* @getelementptr_namestr, i32 0, i32 0)), !llfi_injectfault !9
  %16 = load i32** %fi9, !llfi_index !1145
  %fi10 = call i32* @injectFault1(i64 1144, i32* %16, i32 27, i32 0, i32 1, i32 0, i8* getelementptr inbounds ([5 x i8]* @load_namestr, i32 0, i32 0)), !llfi_injectfault !9
  %17 = call i32* @_ZSt18uninitialized_copyISt13move_iteratorIPiES1_ET0_T_S4_S3_(i32* %fi8, i32* %fi10, i32* %fi6), !llfi_index !1146
  ret i32* %17, !llfi_index !1147
}

; Function Attrs: inlinehint nounwind uwtable
define linkonce_odr i32* @_ZSt32__make_move_if_noexcept_iteratorIPiSt13move_iteratorIS0_EET0_T_(i32* %__i) #5 {
  %1 = alloca %"class.std::move_iterator", align 8, !llfi_index !1148
  %2 = alloca i32*, align 8, !llfi_index !1149
  store i32* %__i, i32** %2, align 8, !llfi_index !1150
  %3 = load i32** %2, align 8, !llfi_index !1151
  %fi = call i32* @injectFault1(i64 1150, i32* %3, i32 27, i32 0, i32 1, i32 0, i8* getelementptr inbounds ([5 x i8]* @load_namestr, i32 0, i32 0)), !llfi_injectfault !9
  call void @_ZNSt13move_iteratorIPiEC2ES0_(%"class.std::move_iterator"* %1, i32* %fi), !llfi_index !1152
  %4 = getelementptr %"class.std::move_iterator"* %1, i32 0, i32 0, !llfi_index !1153
  %fi1 = call i32** @injectFault0(i64 1152, i32** %4, i32 29, i32 0, i32 1, i32 0, i8* getelementptr inbounds ([14 x i8]* @getelementptr_namestr, i32 0, i32 0)), !llfi_injectfault !9
  %5 = load i32** %fi1, !llfi_index !1154
  %fi2 = call i32* @injectFault1(i64 1153, i32* %5, i32 27, i32 0, i32 1, i32 0, i8* getelementptr inbounds ([5 x i8]* @load_namestr, i32 0, i32 0)), !llfi_injectfault !9
  ret i32* %fi2, !llfi_index !1155
}

; Function Attrs: nounwind uwtable
define linkonce_odr void @_ZNSt13move_iteratorIPiEC2ES0_(%"class.std::move_iterator"* %this, i32* %__i) unnamed_addr #3 align 2 {
  %1 = alloca %"class.std::move_iterator"*, align 8, !llfi_index !1156
  %2 = alloca i32*, align 8, !llfi_index !1157
  store %"class.std::move_iterator"* %this, %"class.std::move_iterator"** %1, align 8, !llfi_index !1158
  store i32* %__i, i32** %2, align 8, !llfi_index !1159
  %3 = load %"class.std::move_iterator"** %1, !llfi_index !1160
  %fi = call %"class.std::move_iterator"* @injectFault23(i64 1159, %"class.std::move_iterator"* %3, i32 27, i32 0, i32 1, i32 0, i8* getelementptr inbounds ([5 x i8]* @load_namestr, i32 0, i32 0)), !llfi_injectfault !9
  %4 = getelementptr %"class.std::move_iterator"* %fi, i32 0, i32 0, !llfi_index !1161
  %fi1 = call i32** @injectFault0(i64 1160, i32** %4, i32 29, i32 0, i32 1, i32 0, i8* getelementptr inbounds ([14 x i8]* @getelementptr_namestr, i32 0, i32 0)), !llfi_injectfault !9
  %5 = load i32** %2, align 8, !llfi_index !1162
  %fi2 = call i32* @injectFault1(i64 1161, i32* %5, i32 27, i32 0, i32 1, i32 0, i8* getelementptr inbounds ([5 x i8]* @load_namestr, i32 0, i32 0)), !llfi_injectfault !9
  store i32* %fi2, i32** %fi1, align 8, !llfi_index !1163
  ret void, !llfi_index !1164
}

; Function Attrs: inlinehint nounwind uwtable
define linkonce_odr i32* @_ZSt18uninitialized_copyISt13move_iteratorIPiES1_ET0_T_S4_S3_(i32* %__first.coerce, i32* %__last.coerce, i32* %__result) #5 {
  %__first = alloca %"class.std::move_iterator", align 8, !llfi_index !1165
  %__last = alloca %"class.std::move_iterator", align 8, !llfi_index !1166
  %1 = alloca i32*, align 8, !llfi_index !1167
  %__assignable = alloca i8, align 1, !llfi_index !1168
  %2 = alloca %"class.std::move_iterator", align 8, !llfi_index !1169
  %3 = alloca %"class.std::move_iterator", align 8, !llfi_index !1170
  %4 = getelementptr %"class.std::move_iterator"* %__first, i32 0, i32 0, !llfi_index !1171
  %fi = call i32** @injectFault0(i64 1170, i32** %4, i32 29, i32 0, i32 1, i32 0, i8* getelementptr inbounds ([14 x i8]* @getelementptr_namestr, i32 0, i32 0)), !llfi_injectfault !9
  store i32* %__first.coerce, i32** %fi, !llfi_index !1172
  %5 = getelementptr %"class.std::move_iterator"* %__last, i32 0, i32 0, !llfi_index !1173
  %fi1 = call i32** @injectFault0(i64 1172, i32** %5, i32 29, i32 0, i32 1, i32 0, i8* getelementptr inbounds ([14 x i8]* @getelementptr_namestr, i32 0, i32 0)), !llfi_injectfault !9
  store i32* %__last.coerce, i32** %fi1, !llfi_index !1174
  store i32* %__result, i32** %1, align 8, !llfi_index !1175
  store i8 1, i8* %__assignable, align 1, !llfi_index !1176
  %6 = bitcast %"class.std::move_iterator"* %2 to i8*, !llfi_index !1177
  %fi2 = call i8* @injectFault14(i64 1176, i8* %6, i32 44, i32 0, i32 1, i32 0, i8* getelementptr inbounds ([8 x i8]* @bitcast_namestr, i32 0, i32 0)), !llfi_injectfault !9
  %7 = bitcast %"class.std::move_iterator"* %__first to i8*, !llfi_index !1178
  %fi3 = call i8* @injectFault14(i64 1177, i8* %7, i32 44, i32 0, i32 1, i32 0, i8* getelementptr inbounds ([8 x i8]* @bitcast_namestr, i32 0, i32 0)), !llfi_injectfault !9
  call void @llvm.memcpy.p0i8.p0i8.i64(i8* %fi2, i8* %fi3, i64 8, i32 8, i1 false), !llfi_index !1179
  %8 = bitcast %"class.std::move_iterator"* %3 to i8*, !llfi_index !1180
  %fi4 = call i8* @injectFault14(i64 1179, i8* %8, i32 44, i32 0, i32 1, i32 0, i8* getelementptr inbounds ([8 x i8]* @bitcast_namestr, i32 0, i32 0)), !llfi_injectfault !9
  %9 = bitcast %"class.std::move_iterator"* %__last to i8*, !llfi_index !1181
  %fi5 = call i8* @injectFault14(i64 1180, i8* %9, i32 44, i32 0, i32 1, i32 0, i8* getelementptr inbounds ([8 x i8]* @bitcast_namestr, i32 0, i32 0)), !llfi_injectfault !9
  call void @llvm.memcpy.p0i8.p0i8.i64(i8* %fi4, i8* %fi5, i64 8, i32 8, i1 false), !llfi_index !1182
  %10 = load i32** %1, align 8, !llfi_index !1183
  %fi6 = call i32* @injectFault1(i64 1182, i32* %10, i32 27, i32 0, i32 1, i32 0, i8* getelementptr inbounds ([5 x i8]* @load_namestr, i32 0, i32 0)), !llfi_injectfault !9
  %11 = getelementptr %"class.std::move_iterator"* %2, i32 0, i32 0, !llfi_index !1184
  %fi7 = call i32** @injectFault0(i64 1183, i32** %11, i32 29, i32 0, i32 1, i32 0, i8* getelementptr inbounds ([14 x i8]* @getelementptr_namestr, i32 0, i32 0)), !llfi_injectfault !9
  %12 = load i32** %fi7, !llfi_index !1185
  %fi8 = call i32* @injectFault1(i64 1184, i32* %12, i32 27, i32 0, i32 1, i32 0, i8* getelementptr inbounds ([5 x i8]* @load_namestr, i32 0, i32 0)), !llfi_injectfault !9
  %13 = getelementptr %"class.std::move_iterator"* %3, i32 0, i32 0, !llfi_index !1186
  %fi9 = call i32** @injectFault0(i64 1185, i32** %13, i32 29, i32 0, i32 1, i32 0, i8* getelementptr inbounds ([14 x i8]* @getelementptr_namestr, i32 0, i32 0)), !llfi_injectfault !9
  %14 = load i32** %fi9, !llfi_index !1187
  %fi10 = call i32* @injectFault1(i64 1186, i32* %14, i32 27, i32 0, i32 1, i32 0, i8* getelementptr inbounds ([5 x i8]* @load_namestr, i32 0, i32 0)), !llfi_injectfault !9
  %15 = call i32* @_ZNSt20__uninitialized_copyILb1EE13__uninit_copyISt13move_iteratorIPiES3_EET0_T_S6_S5_(i32* %fi8, i32* %fi10, i32* %fi6), !llfi_index !1188
  ret i32* %15, !llfi_index !1189
}

; Function Attrs: nounwind
declare void @llvm.memcpy.p0i8.p0i8.i64(i8* nocapture, i8* nocapture readonly, i64, i32, i1) #0

; Function Attrs: nounwind uwtable
define linkonce_odr i32* @_ZNSt20__uninitialized_copyILb1EE13__uninit_copyISt13move_iteratorIPiES3_EET0_T_S6_S5_(i32* %__first.coerce, i32* %__last.coerce, i32* %__result) #3 align 2 {
  %__first = alloca %"class.std::move_iterator", align 8, !llfi_index !1190
  %__last = alloca %"class.std::move_iterator", align 8, !llfi_index !1191
  %1 = alloca i32*, align 8, !llfi_index !1192
  %2 = alloca %"class.std::move_iterator", align 8, !llfi_index !1193
  %3 = alloca %"class.std::move_iterator", align 8, !llfi_index !1194
  %4 = getelementptr %"class.std::move_iterator"* %__first, i32 0, i32 0, !llfi_index !1195
  %fi = call i32** @injectFault0(i64 1194, i32** %4, i32 29, i32 0, i32 1, i32 0, i8* getelementptr inbounds ([14 x i8]* @getelementptr_namestr, i32 0, i32 0)), !llfi_injectfault !9
  store i32* %__first.coerce, i32** %fi, !llfi_index !1196
  %5 = getelementptr %"class.std::move_iterator"* %__last, i32 0, i32 0, !llfi_index !1197
  %fi1 = call i32** @injectFault0(i64 1196, i32** %5, i32 29, i32 0, i32 1, i32 0, i8* getelementptr inbounds ([14 x i8]* @getelementptr_namestr, i32 0, i32 0)), !llfi_injectfault !9
  store i32* %__last.coerce, i32** %fi1, !llfi_index !1198
  store i32* %__result, i32** %1, align 8, !llfi_index !1199
  %6 = bitcast %"class.std::move_iterator"* %2 to i8*, !llfi_index !1200
  %fi2 = call i8* @injectFault14(i64 1199, i8* %6, i32 44, i32 0, i32 1, i32 0, i8* getelementptr inbounds ([8 x i8]* @bitcast_namestr, i32 0, i32 0)), !llfi_injectfault !9
  %7 = bitcast %"class.std::move_iterator"* %__first to i8*, !llfi_index !1201
  %fi3 = call i8* @injectFault14(i64 1200, i8* %7, i32 44, i32 0, i32 1, i32 0, i8* getelementptr inbounds ([8 x i8]* @bitcast_namestr, i32 0, i32 0)), !llfi_injectfault !9
  call void @llvm.memcpy.p0i8.p0i8.i64(i8* %fi2, i8* %fi3, i64 8, i32 8, i1 false), !llfi_index !1202
  %8 = bitcast %"class.std::move_iterator"* %3 to i8*, !llfi_index !1203
  %fi4 = call i8* @injectFault14(i64 1202, i8* %8, i32 44, i32 0, i32 1, i32 0, i8* getelementptr inbounds ([8 x i8]* @bitcast_namestr, i32 0, i32 0)), !llfi_injectfault !9
  %9 = bitcast %"class.std::move_iterator"* %__last to i8*, !llfi_index !1204
  %fi5 = call i8* @injectFault14(i64 1203, i8* %9, i32 44, i32 0, i32 1, i32 0, i8* getelementptr inbounds ([8 x i8]* @bitcast_namestr, i32 0, i32 0)), !llfi_injectfault !9
  call void @llvm.memcpy.p0i8.p0i8.i64(i8* %fi4, i8* %fi5, i64 8, i32 8, i1 false), !llfi_index !1205
  %10 = load i32** %1, align 8, !llfi_index !1206
  %fi6 = call i32* @injectFault1(i64 1205, i32* %10, i32 27, i32 0, i32 1, i32 0, i8* getelementptr inbounds ([5 x i8]* @load_namestr, i32 0, i32 0)), !llfi_injectfault !9
  %11 = getelementptr %"class.std::move_iterator"* %2, i32 0, i32 0, !llfi_index !1207
  %fi7 = call i32** @injectFault0(i64 1206, i32** %11, i32 29, i32 0, i32 1, i32 0, i8* getelementptr inbounds ([14 x i8]* @getelementptr_namestr, i32 0, i32 0)), !llfi_injectfault !9
  %12 = load i32** %fi7, !llfi_index !1208
  %fi8 = call i32* @injectFault1(i64 1207, i32* %12, i32 27, i32 0, i32 1, i32 0, i8* getelementptr inbounds ([5 x i8]* @load_namestr, i32 0, i32 0)), !llfi_injectfault !9
  %13 = getelementptr %"class.std::move_iterator"* %3, i32 0, i32 0, !llfi_index !1209
  %fi9 = call i32** @injectFault0(i64 1208, i32** %13, i32 29, i32 0, i32 1, i32 0, i8* getelementptr inbounds ([14 x i8]* @getelementptr_namestr, i32 0, i32 0)), !llfi_injectfault !9
  %14 = load i32** %fi9, !llfi_index !1210
  %fi10 = call i32* @injectFault1(i64 1209, i32* %14, i32 27, i32 0, i32 1, i32 0, i8* getelementptr inbounds ([5 x i8]* @load_namestr, i32 0, i32 0)), !llfi_injectfault !9
  %15 = call i32* @_ZSt4copyISt13move_iteratorIPiES1_ET0_T_S4_S3_(i32* %fi8, i32* %fi10, i32* %fi6), !llfi_index !1211
  ret i32* %15, !llfi_index !1212
}

; Function Attrs: inlinehint nounwind uwtable
define linkonce_odr i32* @_ZSt4copyISt13move_iteratorIPiES1_ET0_T_S4_S3_(i32* %__first.coerce, i32* %__last.coerce, i32* %__result) #5 {
  %__first = alloca %"class.std::move_iterator", align 8, !llfi_index !1213
  %__last = alloca %"class.std::move_iterator", align 8, !llfi_index !1214
  %1 = alloca i32*, align 8, !llfi_index !1215
  %2 = alloca %"class.std::move_iterator", align 8, !llfi_index !1216
  %3 = alloca %"class.std::move_iterator", align 8, !llfi_index !1217
  %4 = getelementptr %"class.std::move_iterator"* %__first, i32 0, i32 0, !llfi_index !1218
  %fi = call i32** @injectFault0(i64 1217, i32** %4, i32 29, i32 0, i32 1, i32 0, i8* getelementptr inbounds ([14 x i8]* @getelementptr_namestr, i32 0, i32 0)), !llfi_injectfault !9
  store i32* %__first.coerce, i32** %fi, !llfi_index !1219
  %5 = getelementptr %"class.std::move_iterator"* %__last, i32 0, i32 0, !llfi_index !1220
  %fi1 = call i32** @injectFault0(i64 1219, i32** %5, i32 29, i32 0, i32 1, i32 0, i8* getelementptr inbounds ([14 x i8]* @getelementptr_namestr, i32 0, i32 0)), !llfi_injectfault !9
  store i32* %__last.coerce, i32** %fi1, !llfi_index !1221
  store i32* %__result, i32** %1, align 8, !llfi_index !1222
  %6 = bitcast %"class.std::move_iterator"* %2 to i8*, !llfi_index !1223
  %fi2 = call i8* @injectFault14(i64 1222, i8* %6, i32 44, i32 0, i32 1, i32 0, i8* getelementptr inbounds ([8 x i8]* @bitcast_namestr, i32 0, i32 0)), !llfi_injectfault !9
  %7 = bitcast %"class.std::move_iterator"* %__first to i8*, !llfi_index !1224
  %fi3 = call i8* @injectFault14(i64 1223, i8* %7, i32 44, i32 0, i32 1, i32 0, i8* getelementptr inbounds ([8 x i8]* @bitcast_namestr, i32 0, i32 0)), !llfi_injectfault !9
  call void @llvm.memcpy.p0i8.p0i8.i64(i8* %fi2, i8* %fi3, i64 8, i32 8, i1 false), !llfi_index !1225
  %8 = getelementptr %"class.std::move_iterator"* %2, i32 0, i32 0, !llfi_index !1226
  %fi4 = call i32** @injectFault0(i64 1225, i32** %8, i32 29, i32 0, i32 1, i32 0, i8* getelementptr inbounds ([14 x i8]* @getelementptr_namestr, i32 0, i32 0)), !llfi_injectfault !9
  %9 = load i32** %fi4, !llfi_index !1227
  %fi5 = call i32* @injectFault1(i64 1226, i32* %9, i32 27, i32 0, i32 1, i32 0, i8* getelementptr inbounds ([5 x i8]* @load_namestr, i32 0, i32 0)), !llfi_injectfault !9
  %10 = call i32* @_ZSt12__miter_baseISt13move_iteratorIPiEENSt11_Miter_baseIT_E13iterator_typeES4_(i32* %fi5), !llfi_index !1228
  %11 = bitcast %"class.std::move_iterator"* %3 to i8*, !llfi_index !1229
  %fi6 = call i8* @injectFault14(i64 1228, i8* %11, i32 44, i32 0, i32 1, i32 0, i8* getelementptr inbounds ([8 x i8]* @bitcast_namestr, i32 0, i32 0)), !llfi_injectfault !9
  %12 = bitcast %"class.std::move_iterator"* %__last to i8*, !llfi_index !1230
  %fi7 = call i8* @injectFault14(i64 1229, i8* %12, i32 44, i32 0, i32 1, i32 0, i8* getelementptr inbounds ([8 x i8]* @bitcast_namestr, i32 0, i32 0)), !llfi_injectfault !9
  call void @llvm.memcpy.p0i8.p0i8.i64(i8* %fi6, i8* %fi7, i64 8, i32 8, i1 false), !llfi_index !1231
  %13 = getelementptr %"class.std::move_iterator"* %3, i32 0, i32 0, !llfi_index !1232
  %fi8 = call i32** @injectFault0(i64 1231, i32** %13, i32 29, i32 0, i32 1, i32 0, i8* getelementptr inbounds ([14 x i8]* @getelementptr_namestr, i32 0, i32 0)), !llfi_injectfault !9
  %14 = load i32** %fi8, !llfi_index !1233
  %fi9 = call i32* @injectFault1(i64 1232, i32* %14, i32 27, i32 0, i32 1, i32 0, i8* getelementptr inbounds ([5 x i8]* @load_namestr, i32 0, i32 0)), !llfi_injectfault !9
  %15 = call i32* @_ZSt12__miter_baseISt13move_iteratorIPiEENSt11_Miter_baseIT_E13iterator_typeES4_(i32* %fi9), !llfi_index !1234
  %16 = load i32** %1, align 8, !llfi_index !1235
  %fi10 = call i32* @injectFault1(i64 1234, i32* %16, i32 27, i32 0, i32 1, i32 0, i8* getelementptr inbounds ([5 x i8]* @load_namestr, i32 0, i32 0)), !llfi_injectfault !9
  %17 = call i32* @_ZSt14__copy_move_a2ILb1EPiS0_ET1_T0_S2_S1_(i32* %10, i32* %15, i32* %fi10), !llfi_index !1236
  ret i32* %17, !llfi_index !1237
}

; Function Attrs: inlinehint nounwind uwtable
define linkonce_odr i32* @_ZSt14__copy_move_a2ILb1EPiS0_ET1_T0_S2_S1_(i32* %__first, i32* %__last, i32* %__result) #5 {
  %1 = alloca i32*, align 8, !llfi_index !1238
  %2 = alloca i32*, align 8, !llfi_index !1239
  %3 = alloca i32*, align 8, !llfi_index !1240
  store i32* %__first, i32** %1, align 8, !llfi_index !1241
  store i32* %__last, i32** %2, align 8, !llfi_index !1242
  store i32* %__result, i32** %3, align 8, !llfi_index !1243
  %4 = load i32** %1, align 8, !llfi_index !1244
  %fi = call i32* @injectFault1(i64 1243, i32* %4, i32 27, i32 0, i32 1, i32 0, i8* getelementptr inbounds ([5 x i8]* @load_namestr, i32 0, i32 0)), !llfi_injectfault !9
  %5 = call i32* @_ZSt12__niter_baseIPiENSt11_Niter_baseIT_E13iterator_typeES2_(i32* %fi), !llfi_index !1245
  %6 = load i32** %2, align 8, !llfi_index !1246
  %fi1 = call i32* @injectFault1(i64 1245, i32* %6, i32 27, i32 0, i32 1, i32 0, i8* getelementptr inbounds ([5 x i8]* @load_namestr, i32 0, i32 0)), !llfi_injectfault !9
  %7 = call i32* @_ZSt12__niter_baseIPiENSt11_Niter_baseIT_E13iterator_typeES2_(i32* %fi1), !llfi_index !1247
  %8 = load i32** %3, align 8, !llfi_index !1248
  %fi2 = call i32* @injectFault1(i64 1247, i32* %8, i32 27, i32 0, i32 1, i32 0, i8* getelementptr inbounds ([5 x i8]* @load_namestr, i32 0, i32 0)), !llfi_injectfault !9
  %9 = call i32* @_ZSt12__niter_baseIPiENSt11_Niter_baseIT_E13iterator_typeES2_(i32* %fi2), !llfi_index !1249
  %10 = call i32* @_ZSt13__copy_move_aILb1EPiS0_ET1_T0_S2_S1_(i32* %5, i32* %7, i32* %9), !llfi_index !1250
  ret i32* %10, !llfi_index !1251
}

; Function Attrs: inlinehint nounwind uwtable
define linkonce_odr i32* @_ZSt12__miter_baseISt13move_iteratorIPiEENSt11_Miter_baseIT_E13iterator_typeES4_(i32* %__it.coerce) #5 {
  %__it = alloca %"class.std::move_iterator", align 8, !llfi_index !1252
  %1 = alloca %"class.std::move_iterator", align 8, !llfi_index !1253
  %2 = getelementptr %"class.std::move_iterator"* %__it, i32 0, i32 0, !llfi_index !1254
  %fi = call i32** @injectFault0(i64 1253, i32** %2, i32 29, i32 0, i32 1, i32 0, i8* getelementptr inbounds ([14 x i8]* @getelementptr_namestr, i32 0, i32 0)), !llfi_injectfault !9
  store i32* %__it.coerce, i32** %fi, !llfi_index !1255
  %3 = bitcast %"class.std::move_iterator"* %1 to i8*, !llfi_index !1256
  %fi1 = call i8* @injectFault14(i64 1255, i8* %3, i32 44, i32 0, i32 1, i32 0, i8* getelementptr inbounds ([8 x i8]* @bitcast_namestr, i32 0, i32 0)), !llfi_injectfault !9
  %4 = bitcast %"class.std::move_iterator"* %__it to i8*, !llfi_index !1257
  %fi2 = call i8* @injectFault14(i64 1256, i8* %4, i32 44, i32 0, i32 1, i32 0, i8* getelementptr inbounds ([8 x i8]* @bitcast_namestr, i32 0, i32 0)), !llfi_injectfault !9
  call void @llvm.memcpy.p0i8.p0i8.i64(i8* %fi1, i8* %fi2, i64 8, i32 8, i1 false), !llfi_index !1258
  %5 = getelementptr %"class.std::move_iterator"* %1, i32 0, i32 0, !llfi_index !1259
  %fi3 = call i32** @injectFault0(i64 1258, i32** %5, i32 29, i32 0, i32 1, i32 0, i8* getelementptr inbounds ([14 x i8]* @getelementptr_namestr, i32 0, i32 0)), !llfi_injectfault !9
  %6 = load i32** %fi3, !llfi_index !1260
  %fi4 = call i32* @injectFault1(i64 1259, i32* %6, i32 27, i32 0, i32 1, i32 0, i8* getelementptr inbounds ([5 x i8]* @load_namestr, i32 0, i32 0)), !llfi_injectfault !9
  %7 = call i32* @_ZNSt10_Iter_baseISt13move_iteratorIPiELb1EE7_S_baseES2_(i32* %fi4), !llfi_index !1261
  ret i32* %7, !llfi_index !1262
}

; Function Attrs: nounwind uwtable
define linkonce_odr i32* @_ZNSt10_Iter_baseISt13move_iteratorIPiELb1EE7_S_baseES2_(i32* %__it.coerce) #3 align 2 {
  %__it = alloca %"class.std::move_iterator", align 8, !llfi_index !1263
  %1 = getelementptr %"class.std::move_iterator"* %__it, i32 0, i32 0, !llfi_index !1264
  %fi = call i32** @injectFault0(i64 1263, i32** %1, i32 29, i32 0, i32 1, i32 0, i8* getelementptr inbounds ([14 x i8]* @getelementptr_namestr, i32 0, i32 0)), !llfi_injectfault !9
  store i32* %__it.coerce, i32** %fi, !llfi_index !1265
  %2 = call i32* @_ZNKSt13move_iteratorIPiE4baseEv(%"class.std::move_iterator"* %__it), !llfi_index !1266
  ret i32* %2, !llfi_index !1267
}

; Function Attrs: nounwind uwtable
define linkonce_odr i32* @_ZNKSt13move_iteratorIPiE4baseEv(%"class.std::move_iterator"* %this) #3 align 2 {
  %1 = alloca %"class.std::move_iterator"*, align 8, !llfi_index !1268
  store %"class.std::move_iterator"* %this, %"class.std::move_iterator"** %1, align 8, !llfi_index !1269
  %2 = load %"class.std::move_iterator"** %1, !llfi_index !1270
  %fi = call %"class.std::move_iterator"* @injectFault23(i64 1269, %"class.std::move_iterator"* %2, i32 27, i32 0, i32 1, i32 0, i8* getelementptr inbounds ([5 x i8]* @load_namestr, i32 0, i32 0)), !llfi_injectfault !9
  %3 = getelementptr %"class.std::move_iterator"* %fi, i32 0, i32 0, !llfi_index !1271
  %fi1 = call i32** @injectFault0(i64 1270, i32** %3, i32 29, i32 0, i32 1, i32 0, i8* getelementptr inbounds ([14 x i8]* @getelementptr_namestr, i32 0, i32 0)), !llfi_injectfault !9
  %4 = load i32** %fi1, align 8, !llfi_index !1272
  %fi2 = call i32* @injectFault1(i64 1271, i32* %4, i32 27, i32 0, i32 1, i32 0, i8* getelementptr inbounds ([5 x i8]* @load_namestr, i32 0, i32 0)), !llfi_injectfault !9
  ret i32* %fi2, !llfi_index !1273
}

; Function Attrs: inlinehint nounwind uwtable
define linkonce_odr i32* @_ZSt13__copy_move_aILb1EPiS0_ET1_T0_S2_S1_(i32* %__first, i32* %__last, i32* %__result) #5 {
  %1 = alloca i32*, align 8, !llfi_index !1274
  %2 = alloca i32*, align 8, !llfi_index !1275
  %3 = alloca i32*, align 8, !llfi_index !1276
  %__simple = alloca i8, align 1, !llfi_index !1277
  store i32* %__first, i32** %1, align 8, !llfi_index !1278
  store i32* %__last, i32** %2, align 8, !llfi_index !1279
  store i32* %__result, i32** %3, align 8, !llfi_index !1280
  store i8 1, i8* %__simple, align 1, !llfi_index !1281
  %4 = load i32** %1, align 8, !llfi_index !1282
  %fi = call i32* @injectFault1(i64 1281, i32* %4, i32 27, i32 0, i32 1, i32 0, i8* getelementptr inbounds ([5 x i8]* @load_namestr, i32 0, i32 0)), !llfi_injectfault !9
  %5 = load i32** %2, align 8, !llfi_index !1283
  %fi1 = call i32* @injectFault1(i64 1282, i32* %5, i32 27, i32 0, i32 1, i32 0, i8* getelementptr inbounds ([5 x i8]* @load_namestr, i32 0, i32 0)), !llfi_injectfault !9
  %6 = load i32** %3, align 8, !llfi_index !1284
  %fi2 = call i32* @injectFault1(i64 1283, i32* %6, i32 27, i32 0, i32 1, i32 0, i8* getelementptr inbounds ([5 x i8]* @load_namestr, i32 0, i32 0)), !llfi_injectfault !9
  %7 = call i32* @_ZNSt11__copy_moveILb1ELb1ESt26random_access_iterator_tagE8__copy_mIiEEPT_PKS3_S6_S4_(i32* %fi, i32* %fi1, i32* %fi2), !llfi_index !1285
  ret i32* %7, !llfi_index !1286
}

; Function Attrs: nounwind uwtable
define linkonce_odr i32* @_ZNSt11__copy_moveILb1ELb1ESt26random_access_iterator_tagE8__copy_mIiEEPT_PKS3_S6_S4_(i32* %__first, i32* %__last, i32* %__result) #3 align 2 {
  %1 = alloca i32*, align 8, !llfi_index !1287
  %2 = alloca i32*, align 8, !llfi_index !1288
  %3 = alloca i32*, align 8, !llfi_index !1289
  %_Num = alloca i64, align 8, !llfi_index !1290
  store i32* %__first, i32** %1, align 8, !llfi_index !1291
  store i32* %__last, i32** %2, align 8, !llfi_index !1292
  store i32* %__result, i32** %3, align 8, !llfi_index !1293
  %4 = load i32** %2, align 8, !llfi_index !1294
  %fi = call i32* @injectFault1(i64 1293, i32* %4, i32 27, i32 0, i32 1, i32 0, i8* getelementptr inbounds ([5 x i8]* @load_namestr, i32 0, i32 0)), !llfi_injectfault !9
  %5 = load i32** %1, align 8, !llfi_index !1295
  %fi1 = call i32* @injectFault1(i64 1294, i32* %5, i32 27, i32 0, i32 1, i32 0, i8* getelementptr inbounds ([5 x i8]* @load_namestr, i32 0, i32 0)), !llfi_injectfault !9
  %6 = ptrtoint i32* %fi to i64, !llfi_index !1296
  %fi2 = call i64 @injectFault12(i64 1295, i64 %6, i32 42, i32 0, i32 1, i32 0, i8* getelementptr inbounds ([9 x i8]* @ptrtoint_namestr, i32 0, i32 0)), !llfi_injectfault !9
  %7 = ptrtoint i32* %fi1 to i64, !llfi_index !1297
  %fi3 = call i64 @injectFault12(i64 1296, i64 %7, i32 42, i32 0, i32 1, i32 0, i8* getelementptr inbounds ([9 x i8]* @ptrtoint_namestr, i32 0, i32 0)), !llfi_injectfault !9
  %8 = sub i64 %fi2, %fi3, !llfi_index !1298
  %fi4 = call i64 @injectFault12(i64 1297, i64 %8, i32 10, i32 0, i32 1, i32 0, i8* getelementptr inbounds ([4 x i8]* @sub_namestr, i32 0, i32 0)), !llfi_injectfault !9
  %9 = sdiv exact i64 %fi4, 4, !llfi_index !1299
  %fi6 = call i64 @injectFault12(i64 1298, i64 %9, i32 15, i32 0, i32 1, i32 0, i8* getelementptr inbounds ([5 x i8]* @sdiv_namestr, i32 0, i32 0)), !llfi_injectfault !9
  store i64 %fi6, i64* %_Num, align 8, !llfi_index !1300
  %10 = load i64* %_Num, align 8, !llfi_index !1301
  %fi7 = call i64 @injectFault12(i64 1300, i64 %10, i32 27, i32 0, i32 1, i32 0, i8* getelementptr inbounds ([5 x i8]* @load_namestr, i32 0, i32 0)), !llfi_injectfault !9
  %11 = icmp ne i64 %fi7, 0, !llfi_index !1302
  %fi8 = call i1 @injectFault6(i64 1301, i1 %11, i32 46, i32 0, i32 1, i32 0, i8* getelementptr inbounds ([5 x i8]* @icmp_namestr, i32 0, i32 0)), !llfi_injectfault !9
  br i1 %fi8, label %12, label %19, !llfi_index !1303

; <label>:12                                      ; preds = %0
  %13 = load i32** %3, align 8, !llfi_index !1304
  %fi9 = call i32* @injectFault1(i64 1303, i32* %13, i32 27, i32 0, i32 1, i32 0, i8* getelementptr inbounds ([5 x i8]* @load_namestr, i32 0, i32 0)), !llfi_injectfault !9
  %14 = bitcast i32* %fi9 to i8*, !llfi_index !1305
  %fi10 = call i8* @injectFault14(i64 1304, i8* %14, i32 44, i32 0, i32 1, i32 0, i8* getelementptr inbounds ([8 x i8]* @bitcast_namestr, i32 0, i32 0)), !llfi_injectfault !9
  %15 = load i32** %1, align 8, !llfi_index !1306
  %fi11 = call i32* @injectFault1(i64 1305, i32* %15, i32 27, i32 0, i32 1, i32 0, i8* getelementptr inbounds ([5 x i8]* @load_namestr, i32 0, i32 0)), !llfi_injectfault !9
  %16 = bitcast i32* %fi11 to i8*, !llfi_index !1307
  %fi12 = call i8* @injectFault14(i64 1306, i8* %16, i32 44, i32 0, i32 1, i32 0, i8* getelementptr inbounds ([8 x i8]* @bitcast_namestr, i32 0, i32 0)), !llfi_injectfault !9
  %17 = load i64* %_Num, align 8, !llfi_index !1308
  %fi5 = call i64 @injectFault12(i64 1307, i64 %17, i32 27, i32 0, i32 1, i32 0, i8* getelementptr inbounds ([5 x i8]* @load_namestr, i32 0, i32 0)), !llfi_injectfault !9
  %18 = mul i64 4, %fi5, !llfi_index !1309
  %fi13 = call i64 @injectFault12(i64 1308, i64 %18, i32 12, i32 0, i32 1, i32 0, i8* getelementptr inbounds ([4 x i8]* @mul_namestr, i32 0, i32 0)), !llfi_injectfault !9
  call void @llvm.memmove.p0i8.p0i8.i64(i8* %fi10, i8* %fi12, i64 %fi13, i32 4, i1 false), !llfi_index !1310
  br label %19, !llfi_index !1311

; <label>:19                                      ; preds = %12, %0
  %20 = load i32** %3, align 8, !llfi_index !1312
  %fi14 = call i32* @injectFault1(i64 1311, i32* %20, i32 27, i32 0, i32 1, i32 0, i8* getelementptr inbounds ([5 x i8]* @load_namestr, i32 0, i32 0)), !llfi_injectfault !9
  %21 = load i64* %_Num, align 8, !llfi_index !1313
  %fi15 = call i64 @injectFault12(i64 1312, i64 %21, i32 27, i32 0, i32 1, i32 0, i8* getelementptr inbounds ([5 x i8]* @load_namestr, i32 0, i32 0)), !llfi_injectfault !9
  %22 = getelementptr i32* %fi14, i64 %fi15, !llfi_index !1314
  %fi16 = call i32* @injectFault1(i64 1313, i32* %22, i32 29, i32 0, i32 1, i32 0, i8* getelementptr inbounds ([14 x i8]* @getelementptr_namestr, i32 0, i32 0)), !llfi_injectfault !9
  ret i32* %fi16, !llfi_index !1315
}

; Function Attrs: nounwind uwtable
define linkonce_odr i64 @_ZNKSt6vectorIiSaIiEE8max_sizeEv(%"class.std::vector"* %this) #3 align 2 {
  %1 = alloca %"class.std::vector"*, align 8, !llfi_index !1316
  store %"class.std::vector"* %this, %"class.std::vector"** %1, align 8, !llfi_index !1317
  %2 = load %"class.std::vector"** %1, !llfi_index !1318
  %fi = call %"class.std::vector"* @injectFault8(i64 1317, %"class.std::vector"* %2, i32 27, i32 0, i32 1, i32 0, i8* getelementptr inbounds ([5 x i8]* @load_namestr, i32 0, i32 0)), !llfi_injectfault !9
  %3 = bitcast %"class.std::vector"* %fi to %"struct.std::_Vector_base"*, !llfi_index !1319
  %fi1 = call %"struct.std::_Vector_base"* @injectFault2(i64 1318, %"struct.std::_Vector_base"* %3, i32 44, i32 0, i32 1, i32 0, i8* getelementptr inbounds ([8 x i8]* @bitcast_namestr, i32 0, i32 0)), !llfi_injectfault !9
  %4 = call %"class.std::allocator"* @_ZNKSt12_Vector_baseIiSaIiEE19_M_get_Tp_allocatorEv(%"struct.std::_Vector_base"* %fi1) #0, !llfi_index !1320
  %5 = call i64 @_ZNSt16allocator_traitsISaIiEE8max_sizeERKS0_(%"class.std::allocator"* %4) #0, !llfi_index !1321
  ret i64 %5, !llfi_index !1322
}

; Function Attrs: noreturn
declare void @_ZSt20__throw_length_errorPKc(i8*) #7

; Function Attrs: inlinehint nounwind uwtable
define linkonce_odr i64* @_ZSt3maxImERKT_S2_S2_(i64* %__a, i64* %__b) #5 {
  %1 = alloca i64*, align 8, !llfi_index !1323
  %2 = alloca i64*, align 8, !llfi_index !1324
  %3 = alloca i64*, align 8, !llfi_index !1325
  store i64* %__a, i64** %2, align 8, !llfi_index !1326
  store i64* %__b, i64** %3, align 8, !llfi_index !1327
  %4 = load i64** %2, align 8, !llfi_index !1328
  %fi = call i64* @injectFault10(i64 1327, i64* %4, i32 27, i32 0, i32 1, i32 0, i8* getelementptr inbounds ([5 x i8]* @load_namestr, i32 0, i32 0)), !llfi_injectfault !9
  %5 = load i64* %fi, align 8, !llfi_index !1329
  %fi1 = call i64 @injectFault12(i64 1328, i64 %5, i32 27, i32 0, i32 1, i32 0, i8* getelementptr inbounds ([5 x i8]* @load_namestr, i32 0, i32 0)), !llfi_injectfault !9
  %6 = load i64** %3, align 8, !llfi_index !1330
  %fi2 = call i64* @injectFault10(i64 1329, i64* %6, i32 27, i32 0, i32 1, i32 0, i8* getelementptr inbounds ([5 x i8]* @load_namestr, i32 0, i32 0)), !llfi_injectfault !9
  %7 = load i64* %fi2, align 8, !llfi_index !1331
  %fi3 = call i64 @injectFault12(i64 1330, i64 %7, i32 27, i32 0, i32 1, i32 0, i8* getelementptr inbounds ([5 x i8]* @load_namestr, i32 0, i32 0)), !llfi_injectfault !9
  %8 = icmp ult i64 %fi1, %fi3, !llfi_index !1332
  %fi4 = call i1 @injectFault6(i64 1331, i1 %8, i32 46, i32 0, i32 1, i32 0, i8* getelementptr inbounds ([5 x i8]* @icmp_namestr, i32 0, i32 0)), !llfi_injectfault !9
  br i1 %fi4, label %9, label %11, !llfi_index !1333

; <label>:9                                       ; preds = %0
  %10 = load i64** %3, align 8, !llfi_index !1334
  %fi5 = call i64* @injectFault10(i64 1333, i64* %10, i32 27, i32 0, i32 1, i32 0, i8* getelementptr inbounds ([5 x i8]* @load_namestr, i32 0, i32 0)), !llfi_injectfault !9
  store i64* %fi5, i64** %1, !llfi_index !1335
  br label %13, !llfi_index !1336

; <label>:11                                      ; preds = %0
  %12 = load i64** %2, align 8, !llfi_index !1337
  %fi6 = call i64* @injectFault10(i64 1336, i64* %12, i32 27, i32 0, i32 1, i32 0, i8* getelementptr inbounds ([5 x i8]* @load_namestr, i32 0, i32 0)), !llfi_injectfault !9
  store i64* %fi6, i64** %1, !llfi_index !1338
  br label %13, !llfi_index !1339

; <label>:13                                      ; preds = %11, %9
  %14 = load i64** %1, !llfi_index !1340
  %fi7 = call i64* @injectFault10(i64 1339, i64* %14, i32 27, i32 0, i32 1, i32 0, i8* getelementptr inbounds ([5 x i8]* @load_namestr, i32 0, i32 0)), !llfi_injectfault !9
  ret i64* %fi7, !llfi_index !1341
}

; Function Attrs: nounwind uwtable
define linkonce_odr i64 @_ZNSt16allocator_traitsISaIiEE8max_sizeERKS0_(%"class.std::allocator"* %__a) #3 align 2 {
  %1 = alloca %"class.std::allocator"*, align 8, !llfi_index !1342
  store %"class.std::allocator"* %__a, %"class.std::allocator"** %1, align 8, !llfi_index !1343
  %2 = load %"class.std::allocator"** %1, align 8, !llfi_index !1344
  %fi = call %"class.std::allocator"* @injectFault9(i64 1343, %"class.std::allocator"* %2, i32 27, i32 0, i32 1, i32 0, i8* getelementptr inbounds ([5 x i8]* @load_namestr, i32 0, i32 0)), !llfi_injectfault !9
  %3 = bitcast %"class.std::allocator"* %fi to %"class.__gnu_cxx::new_allocator"*, !llfi_index !1345
  %fi1 = call %"class.__gnu_cxx::new_allocator"* @injectFault19(i64 1344, %"class.__gnu_cxx::new_allocator"* %3, i32 44, i32 0, i32 1, i32 0, i8* getelementptr inbounds ([8 x i8]* @bitcast_namestr, i32 0, i32 0)), !llfi_injectfault !9
  %4 = call i64 @_ZNK9__gnu_cxx13new_allocatorIiE8max_sizeEv(%"class.__gnu_cxx::new_allocator"* %fi1) #0, !llfi_index !1346
  ret i64 %4, !llfi_index !1347
}

; Function Attrs: nounwind uwtable
define linkonce_odr %"class.std::allocator"* @_ZNKSt12_Vector_baseIiSaIiEE19_M_get_Tp_allocatorEv(%"struct.std::_Vector_base"* %this) #3 align 2 {
  %1 = alloca %"struct.std::_Vector_base"*, align 8, !llfi_index !1348
  store %"struct.std::_Vector_base"* %this, %"struct.std::_Vector_base"** %1, align 8, !llfi_index !1349
  %2 = load %"struct.std::_Vector_base"** %1, !llfi_index !1350
  %fi = call %"struct.std::_Vector_base"* @injectFault2(i64 1349, %"struct.std::_Vector_base"* %2, i32 27, i32 0, i32 1, i32 0, i8* getelementptr inbounds ([5 x i8]* @load_namestr, i32 0, i32 0)), !llfi_injectfault !9
  %3 = getelementptr %"struct.std::_Vector_base"* %fi, i32 0, i32 0, !llfi_index !1351
  %fi1 = call %"struct.std::_Vector_base<int, std::allocator<int> >::_Vector_impl"* @injectFault3(i64 1350, %"struct.std::_Vector_base<int, std::allocator<int> >::_Vector_impl"* %3, i32 29, i32 0, i32 1, i32 0, i8* getelementptr inbounds ([14 x i8]* @getelementptr_namestr, i32 0, i32 0)), !llfi_injectfault !9
  %4 = bitcast %"struct.std::_Vector_base<int, std::allocator<int> >::_Vector_impl"* %fi1 to %"class.std::allocator"*, !llfi_index !1352
  %fi2 = call %"class.std::allocator"* @injectFault9(i64 1351, %"class.std::allocator"* %4, i32 44, i32 0, i32 1, i32 0, i8* getelementptr inbounds ([8 x i8]* @bitcast_namestr, i32 0, i32 0)), !llfi_injectfault !9
  ret %"class.std::allocator"* %fi2, !llfi_index !1353
}

; Function Attrs: nounwind uwtable
define linkonce_odr void @_ZN9__gnu_cxx13new_allocatorIiE9constructIiJRKiEEEvPT_DpOT0_(%"class.__gnu_cxx::new_allocator"* %this, i32* %__p, i32* %__args) #3 align 2 {
  %1 = alloca %"class.__gnu_cxx::new_allocator"*, align 8, !llfi_index !1354
  %2 = alloca i32*, align 8, !llfi_index !1355
  %3 = alloca i32*, align 8, !llfi_index !1356
  store %"class.__gnu_cxx::new_allocator"* %this, %"class.__gnu_cxx::new_allocator"** %1, align 8, !llfi_index !1357
  store i32* %__p, i32** %2, align 8, !llfi_index !1358
  store i32* %__args, i32** %3, align 8, !llfi_index !1359
  %4 = load %"class.__gnu_cxx::new_allocator"** %1, !llfi_index !1360
  %fi = call %"class.__gnu_cxx::new_allocator"* @injectFault19(i64 1359, %"class.__gnu_cxx::new_allocator"* %4, i32 27, i32 0, i32 1, i32 0, i8* getelementptr inbounds ([5 x i8]* @load_namestr, i32 0, i32 0)), !llfi_injectfault !9
  %5 = load i32** %2, align 8, !llfi_index !1361
  %fi1 = call i32* @injectFault1(i64 1360, i32* %5, i32 27, i32 0, i32 1, i32 0, i8* getelementptr inbounds ([5 x i8]* @load_namestr, i32 0, i32 0)), !llfi_injectfault !9
  %6 = bitcast i32* %fi1 to i8*, !llfi_index !1362
  %fi2 = call i8* @injectFault14(i64 1361, i8* %6, i32 44, i32 0, i32 1, i32 0, i8* getelementptr inbounds ([8 x i8]* @bitcast_namestr, i32 0, i32 0)), !llfi_injectfault !9
  %7 = icmp eq i8* %fi2, null, !llfi_index !1363
  %fi3 = call i1 @injectFault6(i64 1362, i1 %7, i32 46, i32 0, i32 1, i32 0, i8* getelementptr inbounds ([5 x i8]* @icmp_namestr, i32 0, i32 0)), !llfi_injectfault !9
  br i1 %fi3, label %13, label %8, !llfi_index !1364

; <label>:8                                       ; preds = %0
  %9 = bitcast i8* %fi2 to i32*, !llfi_index !1365
  %fi4 = call i32* @injectFault1(i64 1364, i32* %9, i32 44, i32 0, i32 1, i32 0, i8* getelementptr inbounds ([8 x i8]* @bitcast_namestr, i32 0, i32 0)), !llfi_injectfault !9
  %10 = load i32** %3, align 8, !llfi_index !1366
  %fi5 = call i32* @injectFault1(i64 1365, i32* %10, i32 27, i32 0, i32 1, i32 0, i8* getelementptr inbounds ([5 x i8]* @load_namestr, i32 0, i32 0)), !llfi_injectfault !9
  %11 = call i32* @_ZSt7forwardIRKiEOT_RNSt16remove_referenceIS2_E4typeE(i32* %fi5) #0, !llfi_index !1367
  %12 = load i32* %11, !llfi_index !1368
  %fi6 = call i32 @injectFault4(i64 1367, i32 %12, i32 27, i32 0, i32 1, i32 0, i8* getelementptr inbounds ([5 x i8]* @load_namestr, i32 0, i32 0)), !llfi_injectfault !9
  store i32 %fi6, i32* %fi4, align 4, !llfi_index !1369
  br label %13, !llfi_index !1370

; <label>:13                                      ; preds = %8, %0
  %14 = phi i32* [ %fi4, %8 ], [ null, %0 ], !llfi_index !1371
  ret void, !llfi_index !1372
}

; Function Attrs: nounwind
define internal void @_GLOBAL__I_a() #0 section ".text.startup" {
  call void @__cxx_global_var_init(), !llfi_index !1373
  ret void, !llfi_index !1374
}

define i32** @injectFault0(i64, i32**, i32, i32, i32, i32, i8*) {
entry:
  %tmploc = alloca i32**
  store i32** %1, i32*** %tmploc
  %pre_cond = call i1 @preFunc(i64 %0, i32 %2, i32 %3, i32 %4)
  br i1 %pre_cond, label %inject, label %exit

inject:                                           ; preds = %entry
  %tmploc_cast = bitcast i32*** %tmploc to i8*
  call void @injectFunc(i64 %0, i32 64, i8* %tmploc_cast, i32 %3, i32 %5, i8* %6)
  br label %exit

exit:                                             ; preds = %inject, %entry
  %updateval = load i32*** %tmploc
  ret i32** %updateval
}

define i32* @injectFault1(i64, i32*, i32, i32, i32, i32, i8*) {
entry:
  %tmploc = alloca i32*
  store i32* %1, i32** %tmploc
  %pre_cond = call i1 @preFunc(i64 %0, i32 %2, i32 %3, i32 %4)
  br i1 %pre_cond, label %inject, label %exit

inject:                                           ; preds = %entry
  %tmploc_cast = bitcast i32** %tmploc to i8*
  call void @injectFunc(i64 %0, i32 64, i8* %tmploc_cast, i32 %3, i32 %5, i8* %6)
  br label %exit

exit:                                             ; preds = %inject, %entry
  %updateval = load i32** %tmploc
  ret i32* %updateval
}

define %"struct.std::_Vector_base"* @injectFault2(i64, %"struct.std::_Vector_base"*, i32, i32, i32, i32, i8*) {
entry:
  %tmploc = alloca %"struct.std::_Vector_base"*
  store %"struct.std::_Vector_base"* %1, %"struct.std::_Vector_base"** %tmploc
  %pre_cond = call i1 @preFunc(i64 %0, i32 %2, i32 %3, i32 %4)
  br i1 %pre_cond, label %inject, label %exit

inject:                                           ; preds = %entry
  %tmploc_cast = bitcast %"struct.std::_Vector_base"** %tmploc to i8*
  call void @injectFunc(i64 %0, i32 64, i8* %tmploc_cast, i32 %3, i32 %5, i8* %6)
  br label %exit

exit:                                             ; preds = %inject, %entry
  %updateval = load %"struct.std::_Vector_base"** %tmploc
  ret %"struct.std::_Vector_base"* %updateval
}

define %"struct.std::_Vector_base<int, std::allocator<int> >::_Vector_impl"* @injectFault3(i64, %"struct.std::_Vector_base<int, std::allocator<int> >::_Vector_impl"*, i32, i32, i32, i32, i8*) {
entry:
  %tmploc = alloca %"struct.std::_Vector_base<int, std::allocator<int> >::_Vector_impl"*
  store %"struct.std::_Vector_base<int, std::allocator<int> >::_Vector_impl"* %1, %"struct.std::_Vector_base<int, std::allocator<int> >::_Vector_impl"** %tmploc
  %pre_cond = call i1 @preFunc(i64 %0, i32 %2, i32 %3, i32 %4)
  br i1 %pre_cond, label %inject, label %exit

inject:                                           ; preds = %entry
  %tmploc_cast = bitcast %"struct.std::_Vector_base<int, std::allocator<int> >::_Vector_impl"** %tmploc to i8*
  call void @injectFunc(i64 %0, i32 64, i8* %tmploc_cast, i32 %3, i32 %5, i8* %6)
  br label %exit

exit:                                             ; preds = %inject, %entry
  %updateval = load %"struct.std::_Vector_base<int, std::allocator<int> >::_Vector_impl"** %tmploc
  ret %"struct.std::_Vector_base<int, std::allocator<int> >::_Vector_impl"* %updateval
}

define i32 @injectFault4(i64, i32, i32, i32, i32, i32, i8*) {
entry:
  %tmploc = alloca i32
  store i32 %1, i32* %tmploc
  %pre_cond = call i1 @preFunc(i64 %0, i32 %2, i32 %3, i32 %4)
  br i1 %pre_cond, label %inject, label %exit

inject:                                           ; preds = %entry
  %tmploc_cast = bitcast i32* %tmploc to i8*
  call void @injectFunc(i64 %0, i32 32, i8* %tmploc_cast, i32 %3, i32 %5, i8* %6)
  br label %exit

exit:                                             ; preds = %inject, %entry
  %updateval = load i32* %tmploc
  ret i32 %updateval
}

define %struct.Node* @injectFault5(i64, %struct.Node*, i32, i32, i32, i32, i8*) {
entry:
  %tmploc = alloca %struct.Node*
  store %struct.Node* %1, %struct.Node** %tmploc
  %pre_cond = call i1 @preFunc(i64 %0, i32 %2, i32 %3, i32 %4)
  br i1 %pre_cond, label %inject, label %exit

inject:                                           ; preds = %entry
  %tmploc_cast = bitcast %struct.Node** %tmploc to i8*
  call void @injectFunc(i64 %0, i32 64, i8* %tmploc_cast, i32 %3, i32 %5, i8* %6)
  br label %exit

exit:                                             ; preds = %inject, %entry
  %updateval = load %struct.Node** %tmploc
  ret %struct.Node* %updateval
}

define i1 @injectFault6(i64, i1, i32, i32, i32, i32, i8*) {
entry:
  %tmploc = alloca i1
  store i1 %1, i1* %tmploc
  %pre_cond = call i1 @preFunc(i64 %0, i32 %2, i32 %3, i32 %4)
  br i1 %pre_cond, label %inject, label %exit

inject:                                           ; preds = %entry
  %tmploc_cast = bitcast i1* %tmploc to i8*
  call void @injectFunc(i64 %0, i32 1, i8* %tmploc_cast, i32 %3, i32 %5, i8* %6)
  br label %exit

exit:                                             ; preds = %inject, %entry
  %updateval = load i1* %tmploc
  ret i1 %updateval
}

define %struct.Node** @injectFault7(i64, %struct.Node**, i32, i32, i32, i32, i8*) {
entry:
  %tmploc = alloca %struct.Node**
  store %struct.Node** %1, %struct.Node*** %tmploc
  %pre_cond = call i1 @preFunc(i64 %0, i32 %2, i32 %3, i32 %4)
  br i1 %pre_cond, label %inject, label %exit

inject:                                           ; preds = %entry
  %tmploc_cast = bitcast %struct.Node*** %tmploc to i8*
  call void @injectFunc(i64 %0, i32 64, i8* %tmploc_cast, i32 %3, i32 %5, i8* %6)
  br label %exit

exit:                                             ; preds = %inject, %entry
  %updateval = load %struct.Node*** %tmploc
  ret %struct.Node** %updateval
}

define %"class.std::vector"* @injectFault8(i64, %"class.std::vector"*, i32, i32, i32, i32, i8*) {
entry:
  %tmploc = alloca %"class.std::vector"*
  store %"class.std::vector"* %1, %"class.std::vector"** %tmploc
  %pre_cond = call i1 @preFunc(i64 %0, i32 %2, i32 %3, i32 %4)
  br i1 %pre_cond, label %inject, label %exit

inject:                                           ; preds = %entry
  %tmploc_cast = bitcast %"class.std::vector"** %tmploc to i8*
  call void @injectFunc(i64 %0, i32 64, i8* %tmploc_cast, i32 %3, i32 %5, i8* %6)
  br label %exit

exit:                                             ; preds = %inject, %entry
  %updateval = load %"class.std::vector"** %tmploc
  ret %"class.std::vector"* %updateval
}

define %"class.std::allocator"* @injectFault9(i64, %"class.std::allocator"*, i32, i32, i32, i32, i8*) {
entry:
  %tmploc = alloca %"class.std::allocator"*
  store %"class.std::allocator"* %1, %"class.std::allocator"** %tmploc
  %pre_cond = call i1 @preFunc(i64 %0, i32 %2, i32 %3, i32 %4)
  br i1 %pre_cond, label %inject, label %exit

inject:                                           ; preds = %entry
  %tmploc_cast = bitcast %"class.std::allocator"** %tmploc to i8*
  call void @injectFunc(i64 %0, i32 64, i8* %tmploc_cast, i32 %3, i32 %5, i8* %6)
  br label %exit

exit:                                             ; preds = %inject, %entry
  %updateval = load %"class.std::allocator"** %tmploc
  ret %"class.std::allocator"* %updateval
}

define i64* @injectFault10(i64, i64*, i32, i32, i32, i32, i8*) {
entry:
  %tmploc = alloca i64*
  store i64* %1, i64** %tmploc
  %pre_cond = call i1 @preFunc(i64 %0, i32 %2, i32 %3, i32 %4)
  br i1 %pre_cond, label %inject, label %exit

inject:                                           ; preds = %entry
  %tmploc_cast = bitcast i64** %tmploc to i8*
  call void @injectFunc(i64 %0, i32 64, i8* %tmploc_cast, i32 %3, i32 %5, i8* %6)
  br label %exit

exit:                                             ; preds = %inject, %entry
  %updateval = load i64** %tmploc
  ret i64* %updateval
}

define { i32*, i64 }* @injectFault11(i64, { i32*, i64 }*, i32, i32, i32, i32, i8*) {
entry:
  %tmploc = alloca { i32*, i64 }*
  store { i32*, i64 }* %1, { i32*, i64 }** %tmploc
  %pre_cond = call i1 @preFunc(i64 %0, i32 %2, i32 %3, i32 %4)
  br i1 %pre_cond, label %inject, label %exit

inject:                                           ; preds = %entry
  %tmploc_cast = bitcast { i32*, i64 }** %tmploc to i8*
  call void @injectFunc(i64 %0, i32 64, i8* %tmploc_cast, i32 %3, i32 %5, i8* %6)
  br label %exit

exit:                                             ; preds = %inject, %entry
  %updateval = load { i32*, i64 }** %tmploc
  ret { i32*, i64 }* %updateval
}

define i64 @injectFault12(i64, i64, i32, i32, i32, i32, i8*) {
entry:
  %tmploc = alloca i64
  store i64 %1, i64* %tmploc
  %pre_cond = call i1 @preFunc(i64 %0, i32 %2, i32 %3, i32 %4)
  br i1 %pre_cond, label %inject, label %exit

inject:                                           ; preds = %entry
  %tmploc_cast = bitcast i64* %tmploc to i8*
  call void @injectFunc(i64 %0, i32 64, i8* %tmploc_cast, i32 %3, i32 %5, i8* %6)
  br label %exit

exit:                                             ; preds = %inject, %entry
  %updateval = load i64* %tmploc
  ret i64 %updateval
}

define i8** @injectFault13(i64, i8**, i32, i32, i32, i32, i8*) {
entry:
  %tmploc = alloca i8**
  store i8** %1, i8*** %tmploc
  %pre_cond = call i1 @preFunc(i64 %0, i32 %2, i32 %3, i32 %4)
  br i1 %pre_cond, label %inject, label %exit

inject:                                           ; preds = %entry
  %tmploc_cast = bitcast i8*** %tmploc to i8*
  call void @injectFunc(i64 %0, i32 64, i8* %tmploc_cast, i32 %3, i32 %5, i8* %6)
  br label %exit

exit:                                             ; preds = %inject, %entry
  %updateval = load i8*** %tmploc
  ret i8** %updateval
}

define i8* @injectFault14(i64, i8*, i32, i32, i32, i32, i8*) {
entry:
  %tmploc = alloca i8*
  store i8* %1, i8** %tmploc
  %pre_cond = call i1 @preFunc(i64 %0, i32 %2, i32 %3, i32 %4)
  br i1 %pre_cond, label %inject, label %exit

inject:                                           ; preds = %entry
  %tmploc_cast = bitcast i8** %tmploc to i8*
  call void @injectFunc(i64 %0, i32 64, i8* %tmploc_cast, i32 %3, i32 %5, i8* %6)
  br label %exit

exit:                                             ; preds = %inject, %entry
  %updateval = load i8** %tmploc
  ret i8* %updateval
}

define %"class.std::basic_istream"* @injectFault15(i64, %"class.std::basic_istream"*, i32, i32, i32, i32, i8*) {
entry:
  %tmploc = alloca %"class.std::basic_istream"*
  store %"class.std::basic_istream"* %1, %"class.std::basic_istream"** %tmploc
  %pre_cond = call i1 @preFunc(i64 %0, i32 %2, i32 %3, i32 %4)
