; ModuleID = '/home/foo/ResearchAlgorithms/llfi/in_05_array_implicit-llfi_index.ll'
target datalayout = "e-p:64:64:64-i1:8:8-i8:8:8-i16:16:16-i32:32:32-i64:64:64-f32:32:32-f64:64:64-v64:64:64-v128:128:128-a0:0:64-s0:64:64-f80:128:128-n8:16:32:64-S128"
target triple = "x86_64-unknown-linux-gnu"

%"class.std::ios_base::Init" = type { i8 }
%struct.Node = type { i32, %struct.Node*, %struct.Node* }
%"class.std::__cxx11::basic_string" = type { %"struct.std::__cxx11::basic_string<char, std::char_traits<char>, std::allocator<char> >::_Alloc_hider", i64, %union.anon }
%"struct.std::__cxx11::basic_string<char, std::char_traits<char>, std::allocator<char> >::_Alloc_hider" = type { i8* }
%union.anon = type { i64, [8 x i8] }
%"class.std::allocator" = type { i8 }
%"class.std::basic_ifstream" = type { %"class.std::basic_istream.base", %"class.std::basic_filebuf", %"class.std::basic_ios" }
%"class.std::basic_istream.base" = type { i32 (...)**, i64 }
%"class.std::basic_filebuf" = type { %"class.std::basic_streambuf", %union.pthread_mutex_t, %"class.std::__basic_file", i32, %struct.__mbstate_t, %struct.__mbstate_t, %struct.__mbstate_t, i8*, i64, i8, i8, i8, i8, i8*, i8*, i8, %"class.std::codecvt"*, i8*, i64, i8*, i8* }
%"class.std::basic_streambuf" = type { i32 (...)**, i8*, i8*, i8*, i8*, i8*, i8*, %"class.std::locale" }
%"class.std::locale" = type { %"class.std::locale::_Impl"* }
%"class.std::locale::_Impl" = type { i32, %"class.std::locale::facet"**, i64, %"class.std::locale::facet"**, i8** }
%"class.std::locale::facet" = type { i32 (...)**, i32 }
%union.pthread_mutex_t = type { %"struct.<anonymous union>::__pthread_mutex_s" }
%"struct.<anonymous union>::__pthread_mutex_s" = type { i32, i32, i32, i32, i32, i16, i16, %struct.__pthread_internal_list }
%struct.__pthread_internal_list = type { %struct.__pthread_internal_list*, %struct.__pthread_internal_list* }
%"class.std::__basic_file" = type { %struct._IO_FILE*, i8 }
%struct._IO_FILE = type { i32, i8*, i8*, i8*, i8*, i8*, i8*, i8*, i8*, i8*, i8*, i8*, %struct._IO_marker*, %struct._IO_FILE*, i32, i32, i64, i16, i8, [1 x i8], i8*, i64, i8*, i8*, i8*, i8*, i64, i32, [20 x i8] }
%struct._IO_marker = type { %struct._IO_marker*, %struct._IO_FILE*, i32 }
%struct.__mbstate_t = type { i32, %union.anon.0 }
%union.anon.0 = type { i32 }
%"class.std::codecvt" = type { %"class.std::__codecvt_abstract_base", %struct.__locale_struct* }
%"class.std::__codecvt_abstract_base" = type { %"class.std::locale::facet" }
%struct.__locale_struct = type { [13 x %struct.__locale_data*], i16*, i32*, i32*, [13 x i8*] }
%struct.__locale_data = type opaque
%"class.std::basic_ios" = type { %"class.std::ios_base", %"class.std::basic_ostream"*, i8, i8, %"class.std::basic_streambuf"*, %"class.std::ctype"*, %"class.std::num_put"*, %"class.std::num_get"* }
%"class.std::ios_base" = type { i32 (...)**, i64, i64, i32, i32, i32, %"struct.std::ios_base::_Callback_list"*, %"struct.std::ios_base::_Words", [8 x %"struct.std::ios_base::_Words"], i32, %"struct.std::ios_base::_Words"*, %"class.std::locale" }
%"struct.std::ios_base::_Callback_list" = type { %"struct.std::ios_base::_Callback_list"*, void (i32, %"class.std::ios_base"*, i32)*, i32, i32 }
%"struct.std::ios_base::_Words" = type { i8*, i64 }
%"class.std::basic_ostream" = type { i32 (...)**, %"class.std::basic_ios" }
%"class.std::ctype" = type { %"class.std::locale::facet", %struct.__locale_struct*, i8, i32*, i32*, i16*, i8, [256 x i8], [256 x i8], i8 }
%"class.std::num_put" = type { %"class.std::locale::facet" }
%"class.std::num_get" = type { %"class.std::locale::facet" }
%"class.std::basic_istream" = type { i32 (...)**, i64, %"class.std::basic_ios" }

@_ZStL8__ioinit = internal global %"class.std::ios_base::Init" zeroinitializer, align 1
@__dso_handle = external global i8
@.str = private unnamed_addr constant [4 x i8] c"%d \00", align 1
@.str1 = private unnamed_addr constant [18 x i8] c"../../numbers.txt\00", align 1
@.str2 = private unnamed_addr constant [2 x i8] c"\0A\00", align 1
@llvm.global_ctors = appending global [1 x { i32, void ()* }] [{ i32, void ()* } { i32 65535, void ()* @_GLOBAL__I_a }]
@load_namestr = internal constant [5 x i8] c"load\00"
@getelementptr_namestr = internal constant [14 x i8] c"getelementptr\00"
@icmp_namestr = internal constant [5 x i8] c"icmp\00"
@bitcast_namestr = internal constant [8 x i8] c"bitcast\00"

; Function Attrs: nounwind
define internal void @__cxx_global_var_init() #0 section ".text.startup" {
  call void @_ZNSt8ios_base4InitC1Ev(%"class.std::ios_base::Init"* @_ZStL8__ioinit), !llfi_index !1
  %1 = call i32 @__cxa_atexit(void (i8*)* bitcast (void (%"class.std::ios_base::Init"*)* @_ZNSt8ios_base4InitD1Ev to void (i8*)*), i8* getelementptr inbounds (%"class.std::ios_base::Init"* @_ZStL8__ioinit, i32 0, i32 0), i8* @__dso_handle) #0, !llfi_index !2
  ret void, !llfi_index !3
}

declare void @_ZNSt8ios_base4InitC1Ev(%"class.std::ios_base::Init"*) #1

; Function Attrs: nounwind
declare void @_ZNSt8ios_base4InitD1Ev(%"class.std::ios_base::Init"*) #2

; Function Attrs: nounwind
declare i32 @__cxa_atexit(void (i8*)*, i8*, i8*) #0

; Function Attrs: nounwind uwtable
define %struct.Node* @_Z6insertP4Nodei(%struct.Node* %root, i32 %key) #3 {
  %1 = alloca %struct.Node*, align 8, !llfi_index !4
  %2 = alloca %struct.Node*, align 8, !llfi_index !5
  %3 = alloca i32, align 4, !llfi_index !6
  store %struct.Node* %root, %struct.Node** %2, align 8, !llfi_index !7
  store i32 %key, i32* %3, align 4, !llfi_index !8
  %4 = load %struct.Node** %2, align 8, !llfi_index !9
  %fi = call %struct.Node* @injectFault0(i64 9, %struct.Node* %4, i32 27, i32 0, i32 1, i32 0, i8* getelementptr inbounds ([5 x i8]* @load_namestr, i32 0, i32 0)), !llfi_injectfault !10
  %5 = icmp eq %struct.Node* %fi, null, !llfi_index !11
  %fi1 = call i1 @injectFault4(i64 10, i1 %5, i32 46, i32 0, i32 1, i32 0, i8* getelementptr inbounds ([5 x i8]* @icmp_namestr, i32 0, i32 0)), !llfi_injectfault !10
  br i1 %fi1, label %6, label %10, !llfi_index !12

; <label>:6                                       ; preds = %0
  %7 = call noalias i8* @_Znwm(i64 24) #5, !llfi_index !13
  %8 = bitcast i8* %7 to %struct.Node*, !llfi_index !14
  %fi2 = call %struct.Node* @injectFault0(i64 13, %struct.Node* %8, i32 44, i32 0, i32 1, i32 0, i8* getelementptr inbounds ([8 x i8]* @bitcast_namestr, i32 0, i32 0)), !llfi_injectfault !10
  %9 = load i32* %3, align 4, !llfi_index !15
  %fi4 = call i32 @injectFault2(i64 14, i32 %9, i32 27, i32 0, i32 1, i32 0, i8* getelementptr inbounds ([5 x i8]* @load_namestr, i32 0, i32 0)), !llfi_injectfault !10
  call void @_ZN4NodeC2Ei(%struct.Node* %fi2, i32 %fi4), !llfi_index !16
  store %struct.Node* %fi2, %struct.Node** %1, !llfi_index !17
  br label %34, !llfi_index !18

; <label>:10                                      ; preds = %0
  %11 = load i32* %3, align 4, !llfi_index !19
  %fi5 = call i32 @injectFault2(i64 18, i32 %11, i32 27, i32 0, i32 1, i32 0, i8* getelementptr inbounds ([5 x i8]* @load_namestr, i32 0, i32 0)), !llfi_injectfault !10
  %12 = load %struct.Node** %2, align 8, !llfi_index !20
  %fi6 = call %struct.Node* @injectFault0(i64 19, %struct.Node* %12, i32 27, i32 0, i32 1, i32 0, i8* getelementptr inbounds ([5 x i8]* @load_namestr, i32 0, i32 0)), !llfi_injectfault !10
  %13 = getelementptr %struct.Node* %fi6, i32 0, i32 0, !llfi_index !21
  %fi7 = call i32* @injectFault1(i64 20, i32* %13, i32 29, i32 0, i32 1, i32 0, i8* getelementptr inbounds ([14 x i8]* @getelementptr_namestr, i32 0, i32 0)), !llfi_injectfault !10
  %14 = load i32* %fi7, align 4, !llfi_index !22
  %fi8 = call i32 @injectFault2(i64 21, i32 %14, i32 27, i32 0, i32 1, i32 0, i8* getelementptr inbounds ([5 x i8]* @load_namestr, i32 0, i32 0)), !llfi_injectfault !10
  %15 = icmp slt i32 %fi5, %fi8, !llfi_index !23
  %fi9 = call i1 @injectFault4(i64 22, i1 %15, i32 46, i32 0, i32 1, i32 0, i8* getelementptr inbounds ([5 x i8]* @icmp_namestr, i32 0, i32 0)), !llfi_injectfault !10
  br i1 %fi9, label %16, label %24, !llfi_index !24

; <label>:16                                      ; preds = %10
  %17 = load %struct.Node** %2, align 8, !llfi_index !25
  %fi3 = call %struct.Node* @injectFault0(i64 24, %struct.Node* %17, i32 27, i32 0, i32 1, i32 0, i8* getelementptr inbounds ([5 x i8]* @load_namestr, i32 0, i32 0)), !llfi_injectfault !10
  %18 = getelementptr %struct.Node* %fi3, i32 0, i32 1, !llfi_index !26
  %fi11 = call %struct.Node** @injectFault3(i64 25, %struct.Node** %18, i32 29, i32 0, i32 1, i32 0, i8* getelementptr inbounds ([14 x i8]* @getelementptr_namestr, i32 0, i32 0)), !llfi_injectfault !10
  %19 = load %struct.Node** %fi11, align 8, !llfi_index !27
  %fi12 = call %struct.Node* @injectFault0(i64 26, %struct.Node* %19, i32 27, i32 0, i32 1, i32 0, i8* getelementptr inbounds ([5 x i8]* @load_namestr, i32 0, i32 0)), !llfi_injectfault !10
  %20 = load i32* %3, align 4, !llfi_index !28
  %fi13 = call i32 @injectFault2(i64 27, i32 %20, i32 27, i32 0, i32 1, i32 0, i8* getelementptr inbounds ([5 x i8]* @load_namestr, i32 0, i32 0)), !llfi_injectfault !10
  %21 = call %struct.Node* @_Z6insertP4Nodei(%struct.Node* %fi12, i32 %fi13), !llfi_index !29
  %22 = load %struct.Node** %2, align 8, !llfi_index !30
  %fi14 = call %struct.Node* @injectFault0(i64 29, %struct.Node* %22, i32 27, i32 0, i32 1, i32 0, i8* getelementptr inbounds ([5 x i8]* @load_namestr, i32 0, i32 0)), !llfi_injectfault !10
  %23 = getelementptr %struct.Node* %fi14, i32 0, i32 1, !llfi_index !31
  %fi15 = call %struct.Node** @injectFault3(i64 30, %struct.Node** %23, i32 29, i32 0, i32 1, i32 0, i8* getelementptr inbounds ([14 x i8]* @getelementptr_namestr, i32 0, i32 0)), !llfi_injectfault !10
  store %struct.Node* %21, %struct.Node** %fi15, align 8, !llfi_index !32
  br label %32, !llfi_index !33

; <label>:24                                      ; preds = %10
  %25 = load %struct.Node** %2, align 8, !llfi_index !34
  %fi16 = call %struct.Node* @injectFault0(i64 33, %struct.Node* %25, i32 27, i32 0, i32 1, i32 0, i8* getelementptr inbounds ([5 x i8]* @load_namestr, i32 0, i32 0)), !llfi_injectfault !10
  %26 = getelementptr %struct.Node* %fi16, i32 0, i32 2, !llfi_index !35
  %fi17 = call %struct.Node** @injectFault3(i64 34, %struct.Node** %26, i32 29, i32 0, i32 1, i32 0, i8* getelementptr inbounds ([14 x i8]* @getelementptr_namestr, i32 0, i32 0)), !llfi_injectfault !10
  %27 = load %struct.Node** %fi17, align 8, !llfi_index !36
  %fi18 = call %struct.Node* @injectFault0(i64 35, %struct.Node* %27, i32 27, i32 0, i32 1, i32 0, i8* getelementptr inbounds ([5 x i8]* @load_namestr, i32 0, i32 0)), !llfi_injectfault !10
  %28 = load i32* %3, align 4, !llfi_index !37
  %fi19 = call i32 @injectFault2(i64 36, i32 %28, i32 27, i32 0, i32 1, i32 0, i8* getelementptr inbounds ([5 x i8]* @load_namestr, i32 0, i32 0)), !llfi_injectfault !10
  %29 = call %struct.Node* @_Z6insertP4Nodei(%struct.Node* %fi18, i32 %fi19), !llfi_index !38
  %30 = load %struct.Node** %2, align 8, !llfi_index !39
  %fi20 = call %struct.Node* @injectFault0(i64 38, %struct.Node* %30, i32 27, i32 0, i32 1, i32 0, i8* getelementptr inbounds ([5 x i8]* @load_namestr, i32 0, i32 0)), !llfi_injectfault !10
  %31 = getelementptr %struct.Node* %fi20, i32 0, i32 2, !llfi_index !40
  %fi21 = call %struct.Node** @injectFault3(i64 39, %struct.Node** %31, i32 29, i32 0, i32 1, i32 0, i8* getelementptr inbounds ([14 x i8]* @getelementptr_namestr, i32 0, i32 0)), !llfi_injectfault !10
  store %struct.Node* %29, %struct.Node** %fi21, align 8, !llfi_index !41
  br label %32, !llfi_index !42

; <label>:32                                      ; preds = %24, %16
  %33 = load %struct.Node** %2, align 8, !llfi_index !43
  %fi10 = call %struct.Node* @injectFault0(i64 42, %struct.Node* %33, i32 27, i32 0, i32 1, i32 0, i8* getelementptr inbounds ([5 x i8]* @load_namestr, i32 0, i32 0)), !llfi_injectfault !10
  store %struct.Node* %fi10, %struct.Node** %1, !llfi_index !44
  br label %34, !llfi_index !45

; <label>:34                                      ; preds = %32, %6
  %35 = load %struct.Node** %1, !llfi_index !46
  %fi22 = call %struct.Node* @injectFault0(i64 45, %struct.Node* %35, i32 27, i32 0, i32 1, i32 0, i8* getelementptr inbounds ([5 x i8]* @load_namestr, i32 0, i32 0)), !llfi_injectfault !10
  ret %struct.Node* %fi22, !llfi_index !47
}

; Function Attrs: nobuiltin
declare noalias i8* @_Znwm(i64) #4

; Function Attrs: nounwind uwtable
define linkonce_odr void @_ZN4NodeC2Ei(%struct.Node* %this, i32 %v) unnamed_addr #3 align 2 {
  %1 = alloca %struct.Node*, align 8, !llfi_index !48
  %2 = alloca i32, align 4, !llfi_index !49
  store %struct.Node* %this, %struct.Node** %1, align 8, !llfi_index !50
  store i32 %v, i32* %2, align 4, !llfi_index !51
  %3 = load %struct.Node** %1, !llfi_index !52
  %fi = call %struct.Node* @injectFault0(i64 51, %struct.Node* %3, i32 27, i32 0, i32 1, i32 0, i8* getelementptr inbounds ([5 x i8]* @load_namestr, i32 0, i32 0)), !llfi_injectfault !10
  %4 = getelementptr %struct.Node* %fi, i32 0, i32 0, !llfi_index !53
  %fi1 = call i32* @injectFault1(i64 52, i32* %4, i32 29, i32 0, i32 1, i32 0, i8* getelementptr inbounds ([14 x i8]* @getelementptr_namestr, i32 0, i32 0)), !llfi_injectfault !10
  %5 = load i32* %2, align 4, !llfi_index !54
  %fi2 = call i32 @injectFault2(i64 53, i32 %5, i32 27, i32 0, i32 1, i32 0, i8* getelementptr inbounds ([5 x i8]* @load_namestr, i32 0, i32 0)), !llfi_injectfault !10
  store i32 %fi2, i32* %fi1, align 4, !llfi_index !55
  %6 = getelementptr %struct.Node* %fi, i32 0, i32 1, !llfi_index !56
  %fi3 = call %struct.Node** @injectFault3(i64 55, %struct.Node** %6, i32 29, i32 0, i32 1, i32 0, i8* getelementptr inbounds ([14 x i8]* @getelementptr_namestr, i32 0, i32 0)), !llfi_injectfault !10
  store %struct.Node* null, %struct.Node** %fi3, align 8, !llfi_index !57
  %7 = getelementptr %struct.Node* %fi, i32 0, i32 2, !llfi_index !58
  %fi4 = call %struct.Node** @injectFault3(i64 57, %struct.Node** %7, i32 29, i32 0, i32 1, i32 0, i8* getelementptr inbounds ([14 x i8]* @getelementptr_namestr, i32 0, i32 0)), !llfi_injectfault !10
  store %struct.Node* null, %struct.Node** %fi4, align 8, !llfi_index !59
  ret void, !llfi_index !60
}

; Function Attrs: nounwind uwtable
define void @_Z7inorderP4Node(%struct.Node* %root) #3 {
  %1 = alloca %struct.Node*, align 8, !llfi_index !61
  store %struct.Node* %root, %struct.Node** %1, align 8, !llfi_index !62
  %2 = load %struct.Node** %1, align 8, !llfi_index !63
  %fi = call %struct.Node* @injectFault0(i64 62, %struct.Node* %2, i32 27, i32 0, i32 1, i32 0, i8* getelementptr inbounds ([5 x i8]* @load_namestr, i32 0, i32 0)), !llfi_injectfault !10
  %3 = icmp eq %struct.Node* %fi, null, !llfi_index !64
  %fi1 = call i1 @injectFault4(i64 63, i1 %3, i32 46, i32 0, i32 1, i32 0, i8* getelementptr inbounds ([5 x i8]* @icmp_namestr, i32 0, i32 0)), !llfi_injectfault !10
  br i1 %fi1, label %4, label %5, !llfi_index !65

; <label>:4                                       ; preds = %0
  br label %16, !llfi_index !66

; <label>:5                                       ; preds = %0
  %6 = load %struct.Node** %1, align 8, !llfi_index !67
  %fi2 = call %struct.Node* @injectFault0(i64 66, %struct.Node* %6, i32 27, i32 0, i32 1, i32 0, i8* getelementptr inbounds ([5 x i8]* @load_namestr, i32 0, i32 0)), !llfi_injectfault !10
  %7 = getelementptr %struct.Node* %fi2, i32 0, i32 1, !llfi_index !68
  %fi3 = call %struct.Node** @injectFault3(i64 67, %struct.Node** %7, i32 29, i32 0, i32 1, i32 0, i8* getelementptr inbounds ([14 x i8]* @getelementptr_namestr, i32 0, i32 0)), !llfi_injectfault !10
  %8 = load %struct.Node** %fi3, align 8, !llfi_index !69
  %fi4 = call %struct.Node* @injectFault0(i64 68, %struct.Node* %8, i32 27, i32 0, i32 1, i32 0, i8* getelementptr inbounds ([5 x i8]* @load_namestr, i32 0, i32 0)), !llfi_injectfault !10
  call void @_Z7inorderP4Node(%struct.Node* %fi4), !llfi_index !70
  %9 = load %struct.Node** %1, align 8, !llfi_index !71
  %fi5 = call %struct.Node* @injectFault0(i64 70, %struct.Node* %9, i32 27, i32 0, i32 1, i32 0, i8* getelementptr inbounds ([5 x i8]* @load_namestr, i32 0, i32 0)), !llfi_injectfault !10
  %10 = getelementptr %struct.Node* %fi5, i32 0, i32 0, !llfi_index !72
  %fi6 = call i32* @injectFault1(i64 71, i32* %10, i32 29, i32 0, i32 1, i32 0, i8* getelementptr inbounds ([14 x i8]* @getelementptr_namestr, i32 0, i32 0)), !llfi_injectfault !10
  %11 = load i32* %fi6, align 4, !llfi_index !73
  %fi7 = call i32 @injectFault2(i64 72, i32 %11, i32 27, i32 0, i32 1, i32 0, i8* getelementptr inbounds ([5 x i8]* @load_namestr, i32 0, i32 0)), !llfi_injectfault !10
  %12 = call i32 (i8*, ...)* @printf(i8* getelementptr inbounds ([4 x i8]* @.str, i32 0, i32 0), i32 %fi7), !llfi_index !74
  %13 = load %struct.Node** %1, align 8, !llfi_index !75
  %fi8 = call %struct.Node* @injectFault0(i64 74, %struct.Node* %13, i32 27, i32 0, i32 1, i32 0, i8* getelementptr inbounds ([5 x i8]* @load_namestr, i32 0, i32 0)), !llfi_injectfault !10
  %14 = getelementptr %struct.Node* %fi8, i32 0, i32 2, !llfi_index !76
  %fi9 = call %struct.Node** @injectFault3(i64 75, %struct.Node** %14, i32 29, i32 0, i32 1, i32 0, i8* getelementptr inbounds ([14 x i8]* @getelementptr_namestr, i32 0, i32 0)), !llfi_injectfault !10
  %15 = load %struct.Node** %fi9, align 8, !llfi_index !77
  %fi10 = call %struct.Node* @injectFault0(i64 76, %struct.Node* %15, i32 27, i32 0, i32 1, i32 0, i8* getelementptr inbounds ([5 x i8]* @load_namestr, i32 0, i32 0)), !llfi_injectfault !10
  call void @_Z7inorderP4Node(%struct.Node* %fi10), !llfi_index !78
  br label %16, !llfi_index !79

; <label>:16                                      ; preds = %5, %4
  ret void, !llfi_index !80
}

declare i32 @printf(i8*, ...) #1

; Function Attrs: nounwind uwtable
define i32 @main(i32 %argc, i8** %argv) #3 {
  call void @initInjections()
  %1 = alloca i32, align 4, !llfi_index !81
  %2 = alloca i32, align 4, !llfi_index !82
  %3 = alloca i8**, align 8, !llfi_index !83
  %filename = alloca %"class.std::__cxx11::basic_string", align 8, !llfi_index !84
  %4 = alloca %"class.std::allocator", align 1, !llfi_index !85
  %file = alloca %"class.std::basic_ifstream", align 8, !llfi_index !86
  %num = alloca i32, align 4, !llfi_index !87
  %root = alloca %struct.Node*, align 8, !llfi_index !88
  %5 = alloca i32, !llfi_index !89
  store i32 0, i32* %1, !llfi_index !90
  store i32 %argc, i32* %2, align 4, !llfi_index !91
  store i8** %argv, i8*** %3, align 8, !llfi_index !92
  call void @_ZNSaIcEC1Ev(%"class.std::allocator"* %4) #0, !llfi_index !93
  call void @_ZNSt7__cxx1112basic_stringIcSt11char_traitsIcESaIcEEC1EPKcRKS3_(%"class.std::__cxx11::basic_string"* %filename, i8* getelementptr inbounds ([18 x i8]* @.str1, i32 0, i32 0), %"class.std::allocator"* %4), !llfi_index !94
  call void @_ZNSaIcED1Ev(%"class.std::allocator"* %4) #0, !llfi_index !95
  %6 = load i32* %2, align 4, !llfi_index !96
  %fi3 = call i32 @injectFault2(i64 95, i32 %6, i32 27, i32 0, i32 1, i32 0, i8* getelementptr inbounds ([5 x i8]* @load_namestr, i32 0, i32 0)), !llfi_injectfault !10
  %7 = icmp sgt i32 %fi3, 1, !llfi_index !97
  %fi4 = call i1 @injectFault4(i64 96, i1 %7, i32 46, i32 0, i32 1, i32 0, i8* getelementptr inbounds ([5 x i8]* @icmp_namestr, i32 0, i32 0)), !llfi_injectfault !10
  br i1 %fi4, label %8, label %13, !llfi_index !98

; <label>:8                                       ; preds = %0
  %9 = load i8*** %3, align 8, !llfi_index !99
  %fi = call i8** @injectFault5(i64 98, i8** %9, i32 27, i32 0, i32 1, i32 0, i8* getelementptr inbounds ([5 x i8]* @load_namestr, i32 0, i32 0)), !llfi_injectfault !10
  %10 = getelementptr i8** %fi, i64 1, !llfi_index !100
  %fi1 = call i8** @injectFault5(i64 99, i8** %10, i32 29, i32 0, i32 1, i32 0, i8* getelementptr inbounds ([14 x i8]* @getelementptr_namestr, i32 0, i32 0)), !llfi_injectfault !10
  %11 = load i8** %fi1, align 8, !llfi_index !101
  %fi2 = call i8* @injectFault6(i64 100, i8* %11, i32 27, i32 0, i32 1, i32 0, i8* getelementptr inbounds ([5 x i8]* @load_namestr, i32 0, i32 0)), !llfi_injectfault !10
  %12 = call %"class.std::__cxx11::basic_string"* @_ZNSt7__cxx1112basic_stringIcSt11char_traitsIcESaIcEEaSEPKc(%"class.std::__cxx11::basic_string"* %filename, i8* %fi2), !llfi_index !102
  br label %13, !llfi_index !103

; <label>:13                                      ; preds = %8, %0
  %14 = call i8* @_ZNKSt7__cxx1112basic_stringIcSt11char_traitsIcESaIcEE5c_strEv(%"class.std::__cxx11::basic_string"* %filename) #0, !llfi_index !104
  call void @_ZNSt14basic_ifstreamIcSt11char_traitsIcEEC1EPKcSt13_Ios_Openmode(%"class.std::basic_ifstream"* %file, i8* %14, i32 8), !llfi_index !105
  store %struct.Node* null, %struct.Node** %root, align 8, !llfi_index !106
  br label %15, !llfi_index !107

; <label>:15                                      ; preds = %27, %13
  %16 = bitcast %"class.std::basic_ifstream"* %file to %"class.std::basic_istream"*, !llfi_index !108
  %fi5 = call %"class.std::basic_istream"* @injectFault7(i64 107, %"class.std::basic_istream"* %16, i32 44, i32 0, i32 1, i32 0, i8* getelementptr inbounds ([8 x i8]* @bitcast_namestr, i32 0, i32 0)), !llfi_injectfault !10
  %17 = call %"class.std::basic_istream"* @_ZNSirsERi(%"class.std::basic_istream"* %fi5, i32* %num), !llfi_index !109
  %18 = bitcast %"class.std::basic_istream"* %17 to i8**, !llfi_index !110
  %fi6 = call i8** @injectFault5(i64 109, i8** %18, i32 44, i32 0, i32 1, i32 0, i8* getelementptr inbounds ([8 x i8]* @bitcast_namestr, i32 0, i32 0)), !llfi_injectfault !10
  %19 = load i8** %fi6, !llfi_index !111
  %fi7 = call i8* @injectFault6(i64 110, i8* %19, i32 27, i32 0, i32 1, i32 0, i8* getelementptr inbounds ([5 x i8]* @load_namestr, i32 0, i32 0)), !llfi_injectfault !10
  %20 = getelementptr i8* %fi7, i64 -24, !llfi_index !112
  %fi8 = call i8* @injectFault6(i64 111, i8* %20, i32 29, i32 0, i32 1, i32 0, i8* getelementptr inbounds ([14 x i8]* @getelementptr_namestr, i32 0, i32 0)), !llfi_injectfault !10
  %21 = bitcast i8* %fi8 to i64*, !llfi_index !113
  %fi9 = call i64* @injectFault8(i64 112, i64* %21, i32 44, i32 0, i32 1, i32 0, i8* getelementptr inbounds ([8 x i8]* @bitcast_namestr, i32 0, i32 0)), !llfi_injectfault !10
  %22 = load i64* %fi9, !llfi_index !114
  %fi10 = call i64 @injectFault9(i64 113, i64 %22, i32 27, i32 0, i32 1, i32 0, i8* getelementptr inbounds ([5 x i8]* @load_namestr, i32 0, i32 0)), !llfi_injectfault !10
  %23 = bitcast %"class.std::basic_istream"* %17 to i8*, !llfi_index !115
  %fi11 = call i8* @injectFault6(i64 114, i8* %23, i32 44, i32 0, i32 1, i32 0, i8* getelementptr inbounds ([8 x i8]* @bitcast_namestr, i32 0, i32 0)), !llfi_injectfault !10
  %24 = getelementptr i8* %fi11, i64 %fi10, !llfi_index !116
  %fi12 = call i8* @injectFault6(i64 115, i8* %24, i32 29, i32 0, i32 1, i32 0, i8* getelementptr inbounds ([14 x i8]* @getelementptr_namestr, i32 0, i32 0)), !llfi_injectfault !10
  %25 = bitcast i8* %fi12 to %"class.std::basic_ios"*, !llfi_index !117
  %fi13 = call %"class.std::basic_ios"* @injectFault10(i64 116, %"class.std::basic_ios"* %25, i32 44, i32 0, i32 1, i32 0, i8* getelementptr inbounds ([8 x i8]* @bitcast_namestr, i32 0, i32 0)), !llfi_injectfault !10
  %26 = call zeroext i1 @_ZNKSt9basic_iosIcSt11char_traitsIcEEcvbEv(%"class.std::basic_ios"* %fi13), !llfi_index !118
  br i1 %26, label %27, label %31, !llfi_index !119

; <label>:27                                      ; preds = %15
  %28 = load %struct.Node** %root, align 8, !llfi_index !120
  %fi14 = call %struct.Node* @injectFault0(i64 119, %struct.Node* %28, i32 27, i32 0, i32 1, i32 0, i8* getelementptr inbounds ([5 x i8]* @load_namestr, i32 0, i32 0)), !llfi_injectfault !10
  %29 = load i32* %num, align 4, !llfi_index !121
  %fi15 = call i32 @injectFault2(i64 120, i32 %29, i32 27, i32 0, i32 1, i32 0, i8* getelementptr inbounds ([5 x i8]* @load_namestr, i32 0, i32 0)), !llfi_injectfault !10
  %30 = call %struct.Node* @_Z6insertP4Nodei(%struct.Node* %fi14, i32 %fi15), !llfi_index !122
  store %struct.Node* %30, %struct.Node** %root, align 8, !llfi_index !123
  br label %15, !llfi_index !124

; <label>:31                                      ; preds = %15
  call void @_ZNSt14basic_ifstreamIcSt11char_traitsIcEE5closeEv(%"class.std::basic_ifstream"* %file), !llfi_index !125
  %32 = load %struct.Node** %root, align 8, !llfi_index !126
  %fi16 = call %struct.Node* @injectFault0(i64 125, %struct.Node* %32, i32 27, i32 0, i32 1, i32 0, i8* getelementptr inbounds ([5 x i8]* @load_namestr, i32 0, i32 0)), !llfi_injectfault !10
  call void @_Z7inorderP4Node(%struct.Node* %fi16), !llfi_index !127
  %33 = call i32 (i8*, ...)* @printf(i8* getelementptr inbounds ([2 x i8]* @.str2, i32 0, i32 0)), !llfi_index !128
  store i32 0, i32* %1, !llfi_index !129
  store i32 1, i32* %5, !llfi_index !130
  call void @_ZNSt14basic_ifstreamIcSt11char_traitsIcEED1Ev(%"class.std::basic_ifstream"* %file) #0, !llfi_index !131
  call void @_ZNSt7__cxx1112basic_stringIcSt11char_traitsIcESaIcEED1Ev(%"class.std::__cxx11::basic_string"* %filename) #0, !llfi_index !132
  %34 = load i32* %1, !llfi_index !133
  %fi17 = call i32 @injectFault2(i64 132, i32 %34, i32 27, i32 0, i32 1, i32 0, i8* getelementptr inbounds ([5 x i8]* @load_namestr, i32 0, i32 0)), !llfi_injectfault !10
  call void @postInjections()
  ret i32 %fi17, !llfi_index !134
}

declare void @_ZNSt7__cxx1112basic_stringIcSt11char_traitsIcESaIcEEC1EPKcRKS3_(%"class.std::__cxx11::basic_string"*, i8*, %"class.std::allocator"*) #1

; Function Attrs: nounwind
declare void @_ZNSaIcEC1Ev(%"class.std::allocator"*) #2

; Function Attrs: nounwind
declare void @_ZNSaIcED1Ev(%"class.std::allocator"*) #2

declare %"class.std::__cxx11::basic_string"* @_ZNSt7__cxx1112basic_stringIcSt11char_traitsIcESaIcEEaSEPKc(%"class.std::__cxx11::basic_string"*, i8*) #1

declare void @_ZNSt14basic_ifstreamIcSt11char_traitsIcEEC1EPKcSt13_Ios_Openmode(%"class.std::basic_ifstream"*, i8*, i32) #1

; Function Attrs: nounwind
declare i8* @_ZNKSt7__cxx1112basic_stringIcSt11char_traitsIcESaIcEE5c_strEv(%"class.std::__cxx11::basic_string"*) #2

declare %"class.std::basic_istream"* @_ZNSirsERi(%"class.std::basic_istream"*, i32*) #1

declare zeroext i1 @_ZNKSt9basic_iosIcSt11char_traitsIcEEcvbEv(%"class.std::basic_ios"*) #1

declare void @_ZNSt14basic_ifstreamIcSt11char_traitsIcEE5closeEv(%"class.std::basic_ifstream"*) #1

; Function Attrs: nounwind
declare void @_ZNSt14basic_ifstreamIcSt11char_traitsIcEED1Ev(%"class.std::basic_ifstream"*) #2

; Function Attrs: nounwind
declare void @_ZNSt7__cxx1112basic_stringIcSt11char_traitsIcESaIcEED1Ev(%"class.std::__cxx11::basic_string"*) #2

; Function Attrs: nounwind
define internal void @_GLOBAL__I_a() #0 section ".text.startup" {
  call void @__cxx_global_var_init(), !llfi_index !135
  ret void, !llfi_index !136
}

define %struct.Node* @injectFault0(i64, %struct.Node*, i32, i32, i32, i32, i8*) {
entry:
  %tmploc = alloca %struct.Node*
  store %struct.Node* %1, %struct.Node** %tmploc
  %pre_cond = call i1 @preFunc(i64 %0, i32 %2, i32 %3, i32 %4)
  br i1 %pre_cond, label %inject, label %exit

inject:                                           ; preds = %entry
  %tmploc_cast = bitcast %struct.Node** %tmploc to i8*
  call void @injectFunc(i64 %0, i32 64, i8* %tmploc_cast, i32 %3, i32 %5, i8* %6)
  br label %exit

exit:                                             ; preds = %inject, %entry
  %updateval = load %struct.Node** %tmploc
  ret %struct.Node* %updateval
}

define i32* @injectFault1(i64, i32*, i32, i32, i32, i32, i8*) {
entry:
  %tmploc = alloca i32*
  store i32* %1, i32** %tmploc
  %pre_cond = call i1 @preFunc(i64 %0, i32 %2, i32 %3, i32 %4)
  br i1 %pre_cond, label %inject, label %exit

inject:                                           ; preds = %entry
  %tmploc_cast = bitcast i32** %tmploc to i8*
  call void @injectFunc(i64 %0, i32 64, i8* %tmploc_cast, i32 %3, i32 %5, i8* %6)
  br label %exit

exit:                                             ; preds = %inject, %entry
  %updateval = load i32** %tmploc
  ret i32* %updateval
}

define i32 @injectFault2(i64, i32, i32, i32, i32, i32, i8*) {
entry:
  %tmploc = alloca i32
  store i32 %1, i32* %tmploc
  %pre_cond = call i1 @preFunc(i64 %0, i32 %2, i32 %3, i32 %4)
  br i1 %pre_cond, label %inject, label %exit

inject:                                           ; preds = %entry
  %tmploc_cast = bitcast i32* %tmploc to i8*
  call void @injectFunc(i64 %0, i32 32, i8* %tmploc_cast, i32 %3, i32 %5, i8* %6)
  br label %exit

exit:                                             ; preds = %inject, %entry
  %updateval = load i32* %tmploc
  ret i32 %updateval
}

define %struct.Node** @injectFault3(i64, %struct.Node**, i32, i32, i32, i32, i8*) {
entry:
  %tmploc = alloca %struct.Node**
  store %struct.Node** %1, %struct.Node*** %tmploc
  %pre_cond = call i1 @preFunc(i64 %0, i32 %2, i32 %3, i32 %4)
  br i1 %pre_cond, label %inject, label %exit

inject:                                           ; preds = %entry
  %tmploc_cast = bitcast %struct.Node*** %tmploc to i8*
  call void @injectFunc(i64 %0, i32 64, i8* %tmploc_cast, i32 %3, i32 %5, i8* %6)
  br label %exit

exit:                                             ; preds = %inject, %entry
  %updateval = load %struct.Node*** %tmploc
  ret %struct.Node** %updateval
}

define i1 @injectFault4(i64, i1, i32, i32, i32, i32, i8*) {
entry:
  %tmploc = alloca i1
  store i1 %1, i1* %tmploc
  %pre_cond = call i1 @preFunc(i64 %0, i32 %2, i32 %3, i32 %4)
  br i1 %pre_cond, label %inject, label %exit

inject:                                           ; preds = %entry
  %tmploc_cast = bitcast i1* %tmploc to i8*
  call void @injectFunc(i64 %0, i32 1, i8* %tmploc_cast, i32 %3, i32 %5, i8* %6)
  br label %exit

exit:                                             ; preds = %inject, %entry
  %updateval = load i1* %tmploc
  ret i1 %updateval
}

define i8** @injectFault5(i64, i8**, i32, i32, i32, i32, i8*) {
entry:
  %tmploc = alloca i8**
  store i8** %1, i8*** %tmploc
  %pre_cond = call i1 @preFunc(i64 %0, i32 %2, i32 %3, i32 %4)
  br i1 %pre_cond, label %inject, label %exit

inject:                                           ; preds = %entry
  %tmploc_cast = bitcast i8*** %tmploc to i8*
  call void @injectFunc(i64 %0, i32 64, i8* %tmploc_cast, i32 %3, i32 %5, i8* %6)
  br label %exit

exit:                                             ; preds = %inject, %entry
  %updateval = load i8*** %tmploc
  ret i8** %updateval
}

define i8* @injectFault6(i64, i8*, i32, i32, i32, i32, i8*) {
entry:
  %tmploc = alloca i8*
  store i8* %1, i8** %tmploc
  %pre_cond = call i1 @preFunc(i64 %0, i32 %2, i32 %3, i32 %4)
  br i1 %pre_cond, label %inject, label %exit

inject:                                           ; preds = %entry
  %tmploc_cast = bitcast i8** %tmploc to i8*
  call void @injectFunc(i64 %0, i32 64, i8* %tmploc_cast, i32 %3, i32 %5, i8* %6)
  br label %exit

exit:                                             ; preds = %inject, %entry
  %updateval = load i8** %tmploc
  ret i8* %updateval
}

define %"class.std::basic_istream"* @injectFault7(i64, %"class.std::basic_istream"*, i32, i32, i32, i32, i8*) {
entry:
  %tmploc = alloca %"class.std::basic_istream"*
  store %"class.std::basic_istream"* %1, %"class.std::basic_istream"** %tmploc
  %pre_cond = call i1 @preFunc(i64 %0, i32 %2, i32 %3, i32 %4)
  br i1 %pre_cond, label %inject, label %exit

inject:                                           ; preds = %entry
  %tmploc_cast = bitcast %"class.std::basic_istream"** %tmploc to i8*
  call void @injectFunc(i64 %0, i32 64, i8* %tmploc_cast, i32 %3, i32 %5, i8* %6)
  br label %exit

exit:                                             ; preds = %inject, %entry
  %updateval = load %"class.std::basic_istream"** %tmploc
  ret %"class.std::basic_istream"* %updateval
}

define i64* @injectFault8(i64, i64*, i32, i32, i32, i32, i8*) {
entry:
  %tmploc = alloca i64*
  store i64* %1, i64** %tmploc
  %pre_cond = call i1 @preFunc(i64 %0, i32 %2, i32 %3, i32 %4)
  br i1 %pre_cond, label %inject, label %exit

inject:                                           ; preds = %entry
  %tmploc_cast = bitcast i64** %tmploc to i8*
  call void @injectFunc(i64 %0, i32 64, i8* %tmploc_cast, i32 %3, i32 %5, i8* %6)
  br label %exit

exit:                                             ; preds = %inject, %entry
  %updateval = load i64** %tmploc
  ret i64* %updateval
}

define i64 @injectFault9(i64, i64, i32, i32, i32, i32, i8*) {
entry:
  %tmploc = alloca i64
  store i64 %1, i64* %tmploc
  %pre_cond = call i1 @preFunc(i64 %0, i32 %2, i32 %3, i32 %4)
  br i1 %pre_cond, label %inject, label %exit

inject:                                           ; preds = %entry
  %tmploc_cast = bitcast i64* %tmploc to i8*
  call void @injectFunc(i64 %0, i32 64, i8* %tmploc_cast, i32 %3, i32 %5, i8* %6)
  br label %exit

exit:                                             ; preds = %inject, %entry
  %updateval = load i64* %tmploc
  ret i64 %updateval
}

define %"class.std::basic_ios"* @injectFault10(i64, %"class.std::basic_ios"*, i32, i32, i32, i32, i8*) {
entry:
  %tmploc = alloca %"class.std::basic_ios"*
  store %"class.std::basic_ios"* %1, %"class.std::basic_ios"** %tmploc
  %pre_cond = call i1 @preFunc(i64 %0, i32 %2, i32 %3, i32 %4)
  br i1 %pre_cond, label %inject, label %exit

inject:                                           ; preds = %entry
  %tmploc_cast = bitcast %"class.std::basic_ios"** %tmploc to i8*
  call void @injectFunc(i64 %0, i32 64, i8* %tmploc_cast, i32 %3, i32 %5, i8* %6)
  br label %exit

exit:                                             ; preds = %inject, %entry
  %updateval = load %"class.std::basic_ios"** %tmploc
  ret %"class.std::basic_ios"* %updateval
}

declare void @initInjections()

declare void @postInjections()

declare i1 @preFunc(i64, i32, i32, i32)

declare void @injectFunc(i64, i32, i8*, i32, i32, i8*)

attributes #0 = { nounwind }
attributes #1 = { "less-precise-fpmad"="false" "no-frame-pointer-elim"="true" "no-frame-pointer-elim-non-leaf" "no-infs-fp-math"="false" "no-nans-fp-math"="false" "stack-protector-buffer-size"="8" "unsafe-fp-math"="false" "use-soft-float"="false" }
attributes #2 = { nounwind "less-precise-fpmad"="false" "no-frame-pointer-elim"="true" "no-frame-pointer-elim-non-leaf" "no-infs-fp-math"="false" "no-nans-fp-math"="false" "stack-protector-buffer-size"="8" "unsafe-fp-math"="false" "use-soft-float"="false" }
attributes #3 = { nounwind uwtable "less-precise-fpmad"="false" "no-frame-pointer-elim"="true" "no-frame-pointer-elim-non-leaf" "no-infs-fp-math"="false" "no-nans-fp-math"="false" "stack-protector-buffer-size"="8" "unsafe-fp-math"="false" "use-soft-float"="false" }
attributes #4 = { nobuiltin "less-precise-fpmad"="false" "no-frame-pointer-elim"="true" "no-frame-pointer-elim-non-leaf" "no-infs-fp-math"="false" "no-nans-fp-math"="false" "stack-protector-buffer-size"="8" "unsafe-fp-math"="false" "use-soft-float"="false" }
attributes #5 = { builtin }

!llvm.ident = !{!0}

!0 = metadata !{metadata !"clang version 3.4 (tags/RELEASE_34/final)"}
!1 = metadata !{i64 1}
!2 = metadata !{i64 2}
!3 = metadata !{i64 3}
!4 = metadata !{i64 4}
!5 = metadata !{i64 5}
!6 = metadata !{i64 6}
!7 = metadata !{i64 7}
!8 = metadata !{i64 8}
!9 = metadata !{i64 9}
!10 = metadata !{metadata !"after"}
!11 = metadata !{i64 10}
!12 = metadata !{i64 11}
!13 = metadata !{i64 12}
!14 = metadata !{i64 13}
!15 = metadata !{i64 14}
!16 = metadata !{i64 15}
!17 = metadata !{i64 16}
!18 = metadata !{i64 17}
!19 = metadata !{i64 18}
!20 = metadata !{i64 19}
!21 = metadata !{i64 20}
!22 = metadata !{i64 21}
!23 = metadata !{i64 22}
!24 = metadata !{i64 23}
!25 = metadata !{i64 24}
!26 = metadata !{i64 25}
!27 = metadata !{i64 26}
!28 = metadata !{i64 27}
!29 = metadata !{i64 28}
!30 = metadata !{i64 29}
!31 = metadata !{i64 30}
!32 = metadata !{i64 31}
!33 = metadata !{i64 32}
!34 = metadata !{i64 33}
!35 = metadata !{i64 34}
!36 = metadata !{i64 35}
!37 = metadata !{i64 36}
!38 = metadata !{i64 37}
!39 = metadata !{i64 38}
!40 = metadata !{i64 39}
!41 = metadata !{i64 40}
!42 = metadata !{i64 41}
!43 = metadata !{i64 42}
!44 = metadata !{i64 43}
!45 = metadata !{i64 44}
!46 = metadata !{i64 45}
!47 = metadata !{i64 46}
!48 = metadata !{i64 47}
!49 = metadata !{i64 48}
!50 = metadata !{i64 49}
!51 = metadata !{i64 50}
!52 = metadata !{i64 51}
!53 = metadata !{i64 52}
!54 = metadata !{i64 53}
!55 = metadata !{i64 54}
!56 = metadata !{i64 55}
!57 = metadata !{i64 56}
!58 = metadata !{i64 57}
!59 = metadata !{i64 58}
!60 = metadata !{i64 59}
!61 = metadata !{i64 60}
!62 = metadata !{i64 61}
!63 = metadata !{i64 62}
!64 = metadata !{i64 63}
!65 = metadata !{i64 64}
!66 = metadata !{i64 65}
!67 = metadata !{i64 66}
!68 = metadata !{i64 67}
!69 = metadata !{i64 68}
!70 = metadata !{i64 69}
!71 = metadata !{i64 70}
!72 = metadata !{i64 71}
!73 = metadata !{i64 72}
!74 = metadata !{i64 73}
!75 = metadata !{i64 74}
!76 = metadata !{i64 75}
!77 = metadata !{i64 76}
!78 = metadata !{i64 77}
!79 = metadata !{i64 78}
!80 = metadata !{i64 79}
!81 = metadata !{i64 80}
!82 = metadata !{i64 81}
!83 = metadata !{i64 82}
!84 = metadata !{i64 83}
!85 = metadata !{i64 84}
!86 = metadata !{i64 85}
!87 = metadata !{i64 86}
!88 = metadata !{i64 87}
!89 = metadata !{i64 88}
!90 = metadata !{i64 89}
!91 = metadata !{i64 90}
!92 = metadata !{i64 91}
!93 = metadata !{i64 92}
!94 = metadata !{i64 93}
!95 = metadata !{i64 94}
!96 = metadata !{i64 95}
!97 = metadata !{i64 96}
!98 = metadata !{i64 97}
!99 = metadata !{i64 98}
!100 = metadata !{i64 99}
!101 = metadata !{i64 100}
!102 = metadata !{i64 101}
!103 = metadata !{i64 102}
!104 = metadata !{i64 103}
!105 = metadata !{i64 104}
!106 = metadata !{i64 105}
!107 = metadata !{i64 106}
!108 = metadata !{i64 107}
!109 = metadata !{i64 108}
!110 = metadata !{i64 109}
!111 = metadata !{i64 110}
!112 = metadata !{i64 111}
!113 = metadata !{i64 112}
!114 = metadata !{i64 113}
!115 = metadata !{i64 114}
!116 = metadata !{i64 115}
!117 = metadata !{i64 116}
!118 = metadata !{i64 117}
!119 = metadata !{i64 118}
!120 = metadata !{i64 119}
!121 = metadata !{i64 120}
!122 = metadata !{i64 121}
!123 = metadata !{i64 122}
!124 = metadata !{i64 123}
!125 = metadata !{i64 124}
!126 = metadata !{i64 125}
!127 = metadata !{i64 126}
!128 = metadata !{i64 127}
!129 = metadata !{i64 128}
!130 = metadata !{i64 129}
!131 = metadata !{i64 130}
!132 = metadata !{i64 131}
!133 = metadata !{i64 132}
!134 = metadata !{i64 133}
!135 = metadata !{i64 134}
!136 = metadata !{i64 135}
