; ModuleID = '/home/foo/ResearchAlgorithms/llfi/in_03_morris-llfi_index.ll'
target datalayout = "e-p:64:64:64-i1:8:8-i8:8:8-i16:16:16-i32:32:32-i64:64:64-f32:32:32-f64:64:64-v64:64:64-v128:128:128-a0:0:64-s0:64:64-f80:128:128-n8:16:32:64-S128"
target triple = "x86_64-unknown-linux-gnu"

%"class.std::ios_base::Init" = type { i8 }
%"class.std::basic_ostream" = type { i32 (...)**, %"class.std::basic_ios" }
%"class.std::basic_ios" = type { %"class.std::ios_base", %"class.std::basic_ostream"*, i8, i8, %"class.std::basic_streambuf"*, %"class.std::ctype"*, %"class.std::num_put"*, %"class.std::num_get"* }
%"class.std::ios_base" = type { i32 (...)**, i64, i64, i32, i32, i32, %"struct.std::ios_base::_Callback_list"*, %"struct.std::ios_base::_Words", [8 x %"struct.std::ios_base::_Words"], i32, %"struct.std::ios_base::_Words"*, %"class.std::locale" }
%"struct.std::ios_base::_Callback_list" = type { %"struct.std::ios_base::_Callback_list"*, void (i32, %"class.std::ios_base"*, i32)*, i32, i32 }
%"struct.std::ios_base::_Words" = type { i8*, i64 }
%"class.std::locale" = type { %"class.std::locale::_Impl"* }
%"class.std::locale::_Impl" = type { i32, %"class.std::locale::facet"**, i64, %"class.std::locale::facet"**, i8** }
%"class.std::locale::facet" = type { i32 (...)**, i32 }
%"class.std::basic_streambuf" = type { i32 (...)**, i8*, i8*, i8*, i8*, i8*, i8*, %"class.std::locale" }
%"class.std::ctype" = type { %"class.std::locale::facet", %struct.__locale_struct*, i8, i32*, i32*, i16*, i8, [256 x i8], [256 x i8], i8 }
%struct.__locale_struct = type { [13 x %struct.__locale_data*], i16*, i32*, i32*, [13 x i8*] }
%struct.__locale_data = type opaque
%"class.std::num_put" = type { %"class.std::locale::facet" }
%"class.std::num_get" = type { %"class.std::locale::facet" }
%struct.Node = type { i32, %struct.Node*, %struct.Node*, %struct.Node* }
%"class.std::vector" = type { %"struct.std::_Vector_base" }
%"struct.std::_Vector_base" = type { %"struct.std::_Vector_base<int, std::allocator<int> >::_Vector_impl" }
%"struct.std::_Vector_base<int, std::allocator<int> >::_Vector_impl" = type { i32*, i32*, i32* }
%"class.std::allocator" = type { i8 }
%"class.std::__cxx11::basic_string" = type { %"struct.std::__cxx11::basic_string<char, std::char_traits<char>, std::allocator<char> >::_Alloc_hider", i64, %union.anon }
%"struct.std::__cxx11::basic_string<char, std::char_traits<char>, std::allocator<char> >::_Alloc_hider" = type { i8* }
%union.anon = type { i64, [8 x i8] }
%"class.std::allocator.0" = type { i8 }
%"class.std::basic_ifstream" = type { %"class.std::basic_istream.base", %"class.std::basic_filebuf", %"class.std::basic_ios" }
%"class.std::basic_istream.base" = type { i32 (...)**, i64 }
%"class.std::basic_filebuf" = type { %"class.std::basic_streambuf", %union.pthread_mutex_t, %"class.std::__basic_file", i32, %struct.__mbstate_t, %struct.__mbstate_t, %struct.__mbstate_t, i8*, i64, i8, i8, i8, i8, i8*, i8*, i8, %"class.std::codecvt"*, i8*, i64, i8*, i8* }
%union.pthread_mutex_t = type { %"struct.<anonymous union>::__pthread_mutex_s" }
%"struct.<anonymous union>::__pthread_mutex_s" = type { i32, i32, i32, i32, i32, i16, i16, %struct.__pthread_internal_list }
%struct.__pthread_internal_list = type { %struct.__pthread_internal_list*, %struct.__pthread_internal_list* }
%"class.std::__basic_file" = type { %struct._IO_FILE*, i8 }
%struct._IO_FILE = type { i32, i8*, i8*, i8*, i8*, i8*, i8*, i8*, i8*, i8*, i8*, i8*, %struct._IO_marker*, %struct._IO_FILE*, i32, i32, i64, i16, i8, [1 x i8], i8*, i64, i8*, i8*, i8*, i8*, i64, i32, [20 x i8] }
%struct._IO_marker = type { %struct._IO_marker*, %struct._IO_FILE*, i32 }
%struct.__mbstate_t = type { i32, %union.anon.3 }
%union.anon.3 = type { i32 }
%"class.std::codecvt" = type { %"class.std::__codecvt_abstract_base", %struct.__locale_struct* }
%"class.std::__codecvt_abstract_base" = type { %"class.std::locale::facet" }
%"class.std::initializer_list" = type { i32*, i64 }
%"class.__gnu_cxx::__normal_iterator" = type { i32* }
%"class.std::basic_istream" = type { i32 (...)**, i64, %"class.std::basic_ios" }
%"struct.std::forward_iterator_tag" = type { i8 }
%"struct.std::random_access_iterator_tag" = type { i8 }
%"class.__gnu_cxx::new_allocator" = type { i8 }
%"class.__gnu_cxx::__normal_iterator.4" = type { i32* }
%"class.std::move_iterator" = type { i32* }

@_ZStL8__ioinit = internal global %"class.std::ios_base::Init" zeroinitializer, align 1
@__dso_handle = external global i8
@.str = private unnamed_addr constant [12 x i8] c"numbers.txt\00", align 1
@_ZSt4cout = external global %"class.std::basic_ostream"
@.str1 = private unnamed_addr constant [20 x i8] c"VERIFICATION PASSED\00", align 1
@.str2 = private unnamed_addr constant [7 x i8] c"FAILED\00", align 1
@.str3 = private unnamed_addr constant [28 x i8] c"vector::_M_emplace_back_aux\00", align 1
@llvm.global_ctors = appending global [1 x { i32, void ()* }] [{ i32, void ()* } { i32 65535, void ()* @_GLOBAL__I_a }]
@getelementptr_namestr = internal constant [14 x i8] c"getelementptr\00"
@load_namestr = internal constant [5 x i8] c"load\00"
@icmp_namestr = internal constant [5 x i8] c"icmp\00"
@bitcast_namestr = internal constant [8 x i8] c"bitcast\00"
@add_namestr = internal constant [4 x i8] c"add\00"
@sub_namestr = internal constant [4 x i8] c"sub\00"
@trunc_namestr = internal constant [6 x i8] c"trunc\00"
@mul_namestr = internal constant [4 x i8] c"mul\00"
@ptrtoint_namestr = internal constant [9 x i8] c"ptrtoint\00"
@sdiv_namestr = internal constant [5 x i8] c"sdiv\00"

; Function Attrs: nounwind
define internal void @__cxx_global_var_init() #0 section ".text.startup" {
  call void @_ZNSt8ios_base4InitC1Ev(%"class.std::ios_base::Init"* @_ZStL8__ioinit), !llfi_index !1
  %1 = call i32 @__cxa_atexit(void (i8*)* bitcast (void (%"class.std::ios_base::Init"*)* @_ZNSt8ios_base4InitD1Ev to void (i8*)*), i8* getelementptr inbounds (%"class.std::ios_base::Init"* @_ZStL8__ioinit, i32 0, i32 0), i8* @__dso_handle) #0, !llfi_index !2
  ret void, !llfi_index !3
}

declare void @_ZNSt8ios_base4InitC1Ev(%"class.std::ios_base::Init"*) #1

; Function Attrs: nounwind
declare void @_ZNSt8ios_base4InitD1Ev(%"class.std::ios_base::Init"*) #2

; Function Attrs: nounwind
declare i32 @__cxa_atexit(void (i8*)*, i8*, i8*) #0

; Function Attrs: nounwind uwtable
define void @_Z18in_order_traversalP4NodeRSt6vectorIiSaIiEE(%struct.Node* %root, %"class.std::vector"* %result) #3 {
  %1 = alloca %struct.Node*, align 8, !llfi_index !4
  %2 = alloca %"class.std::vector"*, align 8, !llfi_index !5
  %curr = alloca %struct.Node*, align 8, !llfi_index !6
  %pre = alloca %struct.Node*, align 8, !llfi_index !7
  store %struct.Node* %root, %struct.Node** %1, align 8, !llfi_index !8
  store %"class.std::vector"* %result, %"class.std::vector"** %2, align 8, !llfi_index !9
  %3 = load %struct.Node** %1, align 8, !llfi_index !10
  %fi7 = call %struct.Node* @injectFault3(i64 10, %struct.Node* %3, i32 27, i32 0, i32 1, i32 0, i8* getelementptr inbounds ([5 x i8]* @load_namestr, i32 0, i32 0)), !llfi_injectfault !11
  store %struct.Node* %fi7, %struct.Node** %curr, align 8, !llfi_index !12
  br label %4, !llfi_index !13

; <label>:4                                       ; preds = %62, %0
  %5 = load %struct.Node** %curr, align 8, !llfi_index !14
  %fi8 = call %struct.Node* @injectFault3(i64 13, %struct.Node* %5, i32 27, i32 0, i32 1, i32 0, i8* getelementptr inbounds ([5 x i8]* @load_namestr, i32 0, i32 0)), !llfi_injectfault !11
  %6 = icmp ne %struct.Node* %fi8, null, !llfi_index !15
  %fi9 = call i1 @injectFault4(i64 14, i1 %6, i32 46, i32 0, i32 1, i32 0, i8* getelementptr inbounds ([5 x i8]* @icmp_namestr, i32 0, i32 0)), !llfi_injectfault !11
  br i1 %fi9, label %7, label %63, !llfi_index !16

; <label>:7                                       ; preds = %4
  %8 = load %struct.Node** %curr, align 8, !llfi_index !17
  %fi10 = call %struct.Node* @injectFault3(i64 16, %struct.Node* %8, i32 27, i32 0, i32 1, i32 0, i8* getelementptr inbounds ([5 x i8]* @load_namestr, i32 0, i32 0)), !llfi_injectfault !11
  %9 = getelementptr %struct.Node* %fi10, i32 0, i32 1, !llfi_index !18
  %fi11 = call %struct.Node** @injectFault2(i64 17, %struct.Node** %9, i32 29, i32 0, i32 1, i32 0, i8* getelementptr inbounds ([14 x i8]* @getelementptr_namestr, i32 0, i32 0)), !llfi_injectfault !11
  %10 = load %struct.Node** %fi11, align 8, !llfi_index !19
  %fi12 = call %struct.Node* @injectFault3(i64 18, %struct.Node* %10, i32 27, i32 0, i32 1, i32 0, i8* getelementptr inbounds ([5 x i8]* @load_namestr, i32 0, i32 0)), !llfi_injectfault !11
  %11 = icmp eq %struct.Node* %fi12, null, !llfi_index !20
  %fi13 = call i1 @injectFault4(i64 19, i1 %11, i32 46, i32 0, i32 1, i32 0, i8* getelementptr inbounds ([5 x i8]* @icmp_namestr, i32 0, i32 0)), !llfi_injectfault !11
  br i1 %fi13, label %12, label %19, !llfi_index !21

; <label>:12                                      ; preds = %7
  %13 = load %"class.std::vector"** %2, align 8, !llfi_index !22
  %fi14 = call %"class.std::vector"* @injectFault5(i64 21, %"class.std::vector"* %13, i32 27, i32 0, i32 1, i32 0, i8* getelementptr inbounds ([5 x i8]* @load_namestr, i32 0, i32 0)), !llfi_injectfault !11
  %14 = load %struct.Node** %curr, align 8, !llfi_index !23
  %fi15 = call %struct.Node* @injectFault3(i64 22, %struct.Node* %14, i32 27, i32 0, i32 1, i32 0, i8* getelementptr inbounds ([5 x i8]* @load_namestr, i32 0, i32 0)), !llfi_injectfault !11
  %15 = getelementptr %struct.Node* %fi15, i32 0, i32 0, !llfi_index !24
  %fi16 = call i32* @injectFault1(i64 23, i32* %15, i32 29, i32 0, i32 1, i32 0, i8* getelementptr inbounds ([14 x i8]* @getelementptr_namestr, i32 0, i32 0)), !llfi_injectfault !11
  call void @_ZNSt6vectorIiSaIiEE9push_backERKi(%"class.std::vector"* %fi14, i32* %fi16), !llfi_index !25
  %16 = load %struct.Node** %curr, align 8, !llfi_index !26
  %fi17 = call %struct.Node* @injectFault3(i64 25, %struct.Node* %16, i32 27, i32 0, i32 1, i32 0, i8* getelementptr inbounds ([5 x i8]* @load_namestr, i32 0, i32 0)), !llfi_injectfault !11
  %17 = getelementptr %struct.Node* %fi17, i32 0, i32 2, !llfi_index !27
  %fi19 = call %struct.Node** @injectFault2(i64 26, %struct.Node** %17, i32 29, i32 0, i32 1, i32 0, i8* getelementptr inbounds ([14 x i8]* @getelementptr_namestr, i32 0, i32 0)), !llfi_injectfault !11
  %18 = load %struct.Node** %fi19, align 8, !llfi_index !28
  %fi20 = call %struct.Node* @injectFault3(i64 27, %struct.Node* %18, i32 27, i32 0, i32 1, i32 0, i8* getelementptr inbounds ([5 x i8]* @load_namestr, i32 0, i32 0)), !llfi_injectfault !11
  store %struct.Node* %fi20, %struct.Node** %curr, align 8, !llfi_index !29
  br label %62, !llfi_index !30

; <label>:19                                      ; preds = %7
  %20 = load %struct.Node** %curr, align 8, !llfi_index !31
  %fi21 = call %struct.Node* @injectFault3(i64 30, %struct.Node* %20, i32 27, i32 0, i32 1, i32 0, i8* getelementptr inbounds ([5 x i8]* @load_namestr, i32 0, i32 0)), !llfi_injectfault !11
  %21 = getelementptr %struct.Node* %fi21, i32 0, i32 1, !llfi_index !32
  %fi22 = call %struct.Node** @injectFault2(i64 31, %struct.Node** %21, i32 29, i32 0, i32 1, i32 0, i8* getelementptr inbounds ([14 x i8]* @getelementptr_namestr, i32 0, i32 0)), !llfi_injectfault !11
  %22 = load %struct.Node** %fi22, align 8, !llfi_index !33
  %fi23 = call %struct.Node* @injectFault3(i64 32, %struct.Node* %22, i32 27, i32 0, i32 1, i32 0, i8* getelementptr inbounds ([5 x i8]* @load_namestr, i32 0, i32 0)), !llfi_injectfault !11
  store %struct.Node* %fi23, %struct.Node** %pre, align 8, !llfi_index !34
  br label %23, !llfi_index !35

; <label>:23                                      ; preds = %36, %19
  %24 = load %struct.Node** %pre, align 8, !llfi_index !36
  %fi24 = call %struct.Node* @injectFault3(i64 35, %struct.Node* %24, i32 27, i32 0, i32 1, i32 0, i8* getelementptr inbounds ([5 x i8]* @load_namestr, i32 0, i32 0)), !llfi_injectfault !11
  %25 = getelementptr %struct.Node* %fi24, i32 0, i32 2, !llfi_index !37
  %fi25 = call %struct.Node** @injectFault2(i64 36, %struct.Node** %25, i32 29, i32 0, i32 1, i32 0, i8* getelementptr inbounds ([14 x i8]* @getelementptr_namestr, i32 0, i32 0)), !llfi_injectfault !11
  %26 = load %struct.Node** %fi25, align 8, !llfi_index !38
  %fi26 = call %struct.Node* @injectFault3(i64 37, %struct.Node* %26, i32 27, i32 0, i32 1, i32 0, i8* getelementptr inbounds ([5 x i8]* @load_namestr, i32 0, i32 0)), !llfi_injectfault !11
  %27 = icmp ne %struct.Node* %fi26, null, !llfi_index !39
  %fi27 = call i1 @injectFault4(i64 38, i1 %27, i32 46, i32 0, i32 1, i32 0, i8* getelementptr inbounds ([5 x i8]* @icmp_namestr, i32 0, i32 0)), !llfi_injectfault !11
  br i1 %fi27, label %28, label %34, !llfi_index !40

; <label>:28                                      ; preds = %23
  %29 = load %struct.Node** %pre, align 8, !llfi_index !41
  %fi28 = call %struct.Node* @injectFault3(i64 40, %struct.Node* %29, i32 27, i32 0, i32 1, i32 0, i8* getelementptr inbounds ([5 x i8]* @load_namestr, i32 0, i32 0)), !llfi_injectfault !11
  %30 = getelementptr %struct.Node* %fi28, i32 0, i32 2, !llfi_index !42
  %fi29 = call %struct.Node** @injectFault2(i64 41, %struct.Node** %30, i32 29, i32 0, i32 1, i32 0, i8* getelementptr inbounds ([14 x i8]* @getelementptr_namestr, i32 0, i32 0)), !llfi_injectfault !11
  %31 = load %struct.Node** %fi29, align 8, !llfi_index !43
  %fi30 = call %struct.Node* @injectFault3(i64 42, %struct.Node* %31, i32 27, i32 0, i32 1, i32 0, i8* getelementptr inbounds ([5 x i8]* @load_namestr, i32 0, i32 0)), !llfi_injectfault !11
  %32 = load %struct.Node** %curr, align 8, !llfi_index !44
  %fi31 = call %struct.Node* @injectFault3(i64 43, %struct.Node* %32, i32 27, i32 0, i32 1, i32 0, i8* getelementptr inbounds ([5 x i8]* @load_namestr, i32 0, i32 0)), !llfi_injectfault !11
  %33 = icmp ne %struct.Node* %fi30, %fi31, !llfi_index !45
  %fi18 = call i1 @injectFault4(i64 44, i1 %33, i32 46, i32 0, i32 1, i32 0, i8* getelementptr inbounds ([5 x i8]* @icmp_namestr, i32 0, i32 0)), !llfi_injectfault !11
  br label %34, !llfi_index !46

; <label>:34                                      ; preds = %28, %23
  %35 = phi i1 [ false, %23 ], [ %fi18, %28 ], !llfi_index !47
  br i1 %35, label %36, label %40, !llfi_index !48

; <label>:36                                      ; preds = %34
  %37 = load %struct.Node** %pre, align 8, !llfi_index !49
  %fi32 = call %struct.Node* @injectFault3(i64 48, %struct.Node* %37, i32 27, i32 0, i32 1, i32 0, i8* getelementptr inbounds ([5 x i8]* @load_namestr, i32 0, i32 0)), !llfi_injectfault !11
  %38 = getelementptr %struct.Node* %fi32, i32 0, i32 2, !llfi_index !50
  %fi = call %struct.Node** @injectFault2(i64 49, %struct.Node** %38, i32 29, i32 0, i32 1, i32 0, i8* getelementptr inbounds ([14 x i8]* @getelementptr_namestr, i32 0, i32 0)), !llfi_injectfault !11
  %39 = load %struct.Node** %fi, align 8, !llfi_index !51
  %fi1 = call %struct.Node* @injectFault3(i64 50, %struct.Node* %39, i32 27, i32 0, i32 1, i32 0, i8* getelementptr inbounds ([5 x i8]* @load_namestr, i32 0, i32 0)), !llfi_injectfault !11
  store %struct.Node* %fi1, %struct.Node** %pre, align 8, !llfi_index !52
  br label %23, !llfi_index !53

; <label>:40                                      ; preds = %34
  %41 = load %struct.Node** %pre, align 8, !llfi_index !54
  %fi2 = call %struct.Node* @injectFault3(i64 53, %struct.Node* %41, i32 27, i32 0, i32 1, i32 0, i8* getelementptr inbounds ([5 x i8]* @load_namestr, i32 0, i32 0)), !llfi_injectfault !11
  %42 = getelementptr %struct.Node* %fi2, i32 0, i32 2, !llfi_index !55
  %fi3 = call %struct.Node** @injectFault2(i64 54, %struct.Node** %42, i32 29, i32 0, i32 1, i32 0, i8* getelementptr inbounds ([14 x i8]* @getelementptr_namestr, i32 0, i32 0)), !llfi_injectfault !11
  %43 = load %struct.Node** %fi3, align 8, !llfi_index !56
  %fi4 = call %struct.Node* @injectFault3(i64 55, %struct.Node* %43, i32 27, i32 0, i32 1, i32 0, i8* getelementptr inbounds ([5 x i8]* @load_namestr, i32 0, i32 0)), !llfi_injectfault !11
  %44 = icmp eq %struct.Node* %fi4, null, !llfi_index !57
  %fi5 = call i1 @injectFault4(i64 56, i1 %44, i32 46, i32 0, i32 1, i32 0, i8* getelementptr inbounds ([5 x i8]* @icmp_namestr, i32 0, i32 0)), !llfi_injectfault !11
  br i1 %fi5, label %45, label %52, !llfi_index !58

; <label>:45                                      ; preds = %40
  %46 = load %struct.Node** %curr, align 8, !llfi_index !59
  %fi6 = call %struct.Node* @injectFault3(i64 58, %struct.Node* %46, i32 27, i32 0, i32 1, i32 0, i8* getelementptr inbounds ([5 x i8]* @load_namestr, i32 0, i32 0)), !llfi_injectfault !11
  %47 = load %struct.Node** %pre, align 8, !llfi_index !60
  %fi33 = call %struct.Node* @injectFault3(i64 59, %struct.Node* %47, i32 27, i32 0, i32 1, i32 0, i8* getelementptr inbounds ([5 x i8]* @load_namestr, i32 0, i32 0)), !llfi_injectfault !11
  %48 = getelementptr %struct.Node* %fi33, i32 0, i32 2, !llfi_index !61
  %fi34 = call %struct.Node** @injectFault2(i64 60, %struct.Node** %48, i32 29, i32 0, i32 1, i32 0, i8* getelementptr inbounds ([14 x i8]* @getelementptr_namestr, i32 0, i32 0)), !llfi_injectfault !11
  store %struct.Node* %fi6, %struct.Node** %fi34, align 8, !llfi_index !62
  %49 = load %struct.Node** %curr, align 8, !llfi_index !63
  %fi35 = call %struct.Node* @injectFault3(i64 62, %struct.Node* %49, i32 27, i32 0, i32 1, i32 0, i8* getelementptr inbounds ([5 x i8]* @load_namestr, i32 0, i32 0)), !llfi_injectfault !11
  %50 = getelementptr %struct.Node* %fi35, i32 0, i32 1, !llfi_index !64
  %fi36 = call %struct.Node** @injectFault2(i64 63, %struct.Node** %50, i32 29, i32 0, i32 1, i32 0, i8* getelementptr inbounds ([14 x i8]* @getelementptr_namestr, i32 0, i32 0)), !llfi_injectfault !11
  %51 = load %struct.Node** %fi36, align 8, !llfi_index !65
  %fi37 = call %struct.Node* @injectFault3(i64 64, %struct.Node* %51, i32 27, i32 0, i32 1, i32 0, i8* getelementptr inbounds ([5 x i8]* @load_namestr, i32 0, i32 0)), !llfi_injectfault !11
  store %struct.Node* %fi37, %struct.Node** %curr, align 8, !llfi_index !66
  br label %61, !llfi_index !67

; <label>:52                                      ; preds = %40
  %53 = load %struct.Node** %pre, align 8, !llfi_index !68
  %fi38 = call %struct.Node* @injectFault3(i64 67, %struct.Node* %53, i32 27, i32 0, i32 1, i32 0, i8* getelementptr inbounds ([5 x i8]* @load_namestr, i32 0, i32 0)), !llfi_injectfault !11
  %54 = getelementptr %struct.Node* %fi38, i32 0, i32 2, !llfi_index !69
  %fi39 = call %struct.Node** @injectFault2(i64 68, %struct.Node** %54, i32 29, i32 0, i32 1, i32 0, i8* getelementptr inbounds ([14 x i8]* @getelementptr_namestr, i32 0, i32 0)), !llfi_injectfault !11
  store %struct.Node* null, %struct.Node** %fi39, align 8, !llfi_index !70
  %55 = load %"class.std::vector"** %2, align 8, !llfi_index !71
  %fi40 = call %"class.std::vector"* @injectFault5(i64 70, %"class.std::vector"* %55, i32 27, i32 0, i32 1, i32 0, i8* getelementptr inbounds ([5 x i8]* @load_namestr, i32 0, i32 0)), !llfi_injectfault !11
  %56 = load %struct.Node** %curr, align 8, !llfi_index !72
  %fi41 = call %struct.Node* @injectFault3(i64 71, %struct.Node* %56, i32 27, i32 0, i32 1, i32 0, i8* getelementptr inbounds ([5 x i8]* @load_namestr, i32 0, i32 0)), !llfi_injectfault !11
  %57 = getelementptr %struct.Node* %fi41, i32 0, i32 0, !llfi_index !73
  %fi42 = call i32* @injectFault1(i64 72, i32* %57, i32 29, i32 0, i32 1, i32 0, i8* getelementptr inbounds ([14 x i8]* @getelementptr_namestr, i32 0, i32 0)), !llfi_injectfault !11
  call void @_ZNSt6vectorIiSaIiEE9push_backERKi(%"class.std::vector"* %fi40, i32* %fi42), !llfi_index !74
  %58 = load %struct.Node** %curr, align 8, !llfi_index !75
  %fi43 = call %struct.Node* @injectFault3(i64 74, %struct.Node* %58, i32 27, i32 0, i32 1, i32 0, i8* getelementptr inbounds ([5 x i8]* @load_namestr, i32 0, i32 0)), !llfi_injectfault !11
  %59 = getelementptr %struct.Node* %fi43, i32 0, i32 2, !llfi_index !76
  %fi44 = call %struct.Node** @injectFault2(i64 75, %struct.Node** %59, i32 29, i32 0, i32 1, i32 0, i8* getelementptr inbounds ([14 x i8]* @getelementptr_namestr, i32 0, i32 0)), !llfi_injectfault !11
  %60 = load %struct.Node** %fi44, align 8, !llfi_index !77
  %fi45 = call %struct.Node* @injectFault3(i64 76, %struct.Node* %60, i32 27, i32 0, i32 1, i32 0, i8* getelementptr inbounds ([5 x i8]* @load_namestr, i32 0, i32 0)), !llfi_injectfault !11
  store %struct.Node* %fi45, %struct.Node** %curr, align 8, !llfi_index !78
  br label %61, !llfi_index !79

; <label>:61                                      ; preds = %52, %45
  br label %62, !llfi_index !80

; <label>:62                                      ; preds = %61, %12
  br label %4, !llfi_index !81

; <label>:63                                      ; preds = %4
  ret void, !llfi_index !82
}

; Function Attrs: nounwind uwtable
define linkonce_odr void @_ZNSt6vectorIiSaIiEE9push_backERKi(%"class.std::vector"* %this, i32* %__x) #3 align 2 {
  %1 = alloca %"class.std::vector"*, align 8, !llfi_index !83
  %2 = alloca i32*, align 8, !llfi_index !84
  store %"class.std::vector"* %this, %"class.std::vector"** %1, align 8, !llfi_index !85
  store i32* %__x, i32** %2, align 8, !llfi_index !86
  %3 = load %"class.std::vector"** %1, !llfi_index !87
  %fi13 = call %"class.std::vector"* @injectFault5(i64 86, %"class.std::vector"* %3, i32 27, i32 0, i32 1, i32 0, i8* getelementptr inbounds ([5 x i8]* @load_namestr, i32 0, i32 0)), !llfi_injectfault !11
  %4 = bitcast %"class.std::vector"* %fi13 to %"struct.std::_Vector_base"*, !llfi_index !88
  %fi14 = call %"struct.std::_Vector_base"* @injectFault6(i64 87, %"struct.std::_Vector_base"* %4, i32 44, i32 0, i32 1, i32 0, i8* getelementptr inbounds ([8 x i8]* @bitcast_namestr, i32 0, i32 0)), !llfi_injectfault !11
  %5 = getelementptr %"struct.std::_Vector_base"* %fi14, i32 0, i32 0, !llfi_index !89
  %fi15 = call %"struct.std::_Vector_base<int, std::allocator<int> >::_Vector_impl"* @injectFault7(i64 88, %"struct.std::_Vector_base<int, std::allocator<int> >::_Vector_impl"* %5, i32 29, i32 0, i32 1, i32 0, i8* getelementptr inbounds ([14 x i8]* @getelementptr_namestr, i32 0, i32 0)), !llfi_injectfault !11
  %6 = getelementptr %"struct.std::_Vector_base<int, std::allocator<int> >::_Vector_impl"* %fi15, i32 0, i32 1, !llfi_index !90
  %fi16 = call i32** @injectFault0(i64 89, i32** %6, i32 29, i32 0, i32 1, i32 0, i8* getelementptr inbounds ([14 x i8]* @getelementptr_namestr, i32 0, i32 0)), !llfi_injectfault !11
  %7 = load i32** %fi16, align 8, !llfi_index !91
  %fi17 = call i32* @injectFault1(i64 90, i32* %7, i32 27, i32 0, i32 1, i32 0, i8* getelementptr inbounds ([5 x i8]* @load_namestr, i32 0, i32 0)), !llfi_injectfault !11
  %8 = bitcast %"class.std::vector"* %fi13 to %"struct.std::_Vector_base"*, !llfi_index !92
  %fi18 = call %"struct.std::_Vector_base"* @injectFault6(i64 91, %"struct.std::_Vector_base"* %8, i32 44, i32 0, i32 1, i32 0, i8* getelementptr inbounds ([8 x i8]* @bitcast_namestr, i32 0, i32 0)), !llfi_injectfault !11
  %9 = getelementptr %"struct.std::_Vector_base"* %fi18, i32 0, i32 0, !llfi_index !93
  %fi20 = call %"struct.std::_Vector_base<int, std::allocator<int> >::_Vector_impl"* @injectFault7(i64 92, %"struct.std::_Vector_base<int, std::allocator<int> >::_Vector_impl"* %9, i32 29, i32 0, i32 1, i32 0, i8* getelementptr inbounds ([14 x i8]* @getelementptr_namestr, i32 0, i32 0)), !llfi_injectfault !11
  %10 = getelementptr %"struct.std::_Vector_base<int, std::allocator<int> >::_Vector_impl"* %fi20, i32 0, i32 2, !llfi_index !94
  %fi21 = call i32** @injectFault0(i64 93, i32** %10, i32 29, i32 0, i32 1, i32 0, i8* getelementptr inbounds ([14 x i8]* @getelementptr_namestr, i32 0, i32 0)), !llfi_injectfault !11
  %11 = load i32** %fi21, align 8, !llfi_index !95
  %fi22 = call i32* @injectFault1(i64 94, i32* %11, i32 27, i32 0, i32 1, i32 0, i8* getelementptr inbounds ([5 x i8]* @load_namestr, i32 0, i32 0)), !llfi_injectfault !11
  %12 = icmp ne i32* %fi17, %fi22, !llfi_index !96
  %fi23 = call i1 @injectFault4(i64 95, i1 %12, i32 46, i32 0, i32 1, i32 0, i8* getelementptr inbounds ([5 x i8]* @icmp_namestr, i32 0, i32 0)), !llfi_injectfault !11
  br i1 %fi23, label %13, label %27, !llfi_index !97

; <label>:13                                      ; preds = %0
  %14 = bitcast %"class.std::vector"* %fi13 to %"struct.std::_Vector_base"*, !llfi_index !98
  %fi = call %"struct.std::_Vector_base"* @injectFault6(i64 97, %"struct.std::_Vector_base"* %14, i32 44, i32 0, i32 1, i32 0, i8* getelementptr inbounds ([8 x i8]* @bitcast_namestr, i32 0, i32 0)), !llfi_injectfault !11
  %15 = getelementptr %"struct.std::_Vector_base"* %fi, i32 0, i32 0, !llfi_index !99
  %fi1 = call %"struct.std::_Vector_base<int, std::allocator<int> >::_Vector_impl"* @injectFault7(i64 98, %"struct.std::_Vector_base<int, std::allocator<int> >::_Vector_impl"* %15, i32 29, i32 0, i32 1, i32 0, i8* getelementptr inbounds ([14 x i8]* @getelementptr_namestr, i32 0, i32 0)), !llfi_injectfault !11
  %16 = bitcast %"struct.std::_Vector_base<int, std::allocator<int> >::_Vector_impl"* %fi1 to %"class.std::allocator"*, !llfi_index !100
  %fi2 = call %"class.std::allocator"* @injectFault8(i64 99, %"class.std::allocator"* %16, i32 44, i32 0, i32 1, i32 0, i8* getelementptr inbounds ([8 x i8]* @bitcast_namestr, i32 0, i32 0)), !llfi_injectfault !11
  %17 = bitcast %"class.std::vector"* %fi13 to %"struct.std::_Vector_base"*, !llfi_index !101
  %fi19 = call %"struct.std::_Vector_base"* @injectFault6(i64 100, %"struct.std::_Vector_base"* %17, i32 44, i32 0, i32 1, i32 0, i8* getelementptr inbounds ([8 x i8]* @bitcast_namestr, i32 0, i32 0)), !llfi_injectfault !11
  %18 = getelementptr %"struct.std::_Vector_base"* %fi19, i32 0, i32 0, !llfi_index !102
  %fi3 = call %"struct.std::_Vector_base<int, std::allocator<int> >::_Vector_impl"* @injectFault7(i64 101, %"struct.std::_Vector_base<int, std::allocator<int> >::_Vector_impl"* %18, i32 29, i32 0, i32 1, i32 0, i8* getelementptr inbounds ([14 x i8]* @getelementptr_namestr, i32 0, i32 0)), !llfi_injectfault !11
  %19 = getelementptr %"struct.std::_Vector_base<int, std::allocator<int> >::_Vector_impl"* %fi3, i32 0, i32 1, !llfi_index !103
  %fi4 = call i32** @injectFault0(i64 102, i32** %19, i32 29, i32 0, i32 1, i32 0, i8* getelementptr inbounds ([14 x i8]* @getelementptr_namestr, i32 0, i32 0)), !llfi_injectfault !11
  %20 = load i32** %fi4, align 8, !llfi_index !104
  %fi5 = call i32* @injectFault1(i64 103, i32* %20, i32 27, i32 0, i32 1, i32 0, i8* getelementptr inbounds ([5 x i8]* @load_namestr, i32 0, i32 0)), !llfi_injectfault !11
  %21 = load i32** %2, align 8, !llfi_index !105
  %fi6 = call i32* @injectFault1(i64 104, i32* %21, i32 27, i32 0, i32 1, i32 0, i8* getelementptr inbounds ([5 x i8]* @load_namestr, i32 0, i32 0)), !llfi_injectfault !11
  call void @_ZNSt16allocator_traitsISaIiEE9constructIiJRKiEEEvRS0_PT_DpOT0_(%"class.std::allocator"* %fi2, i32* %fi5, i32* %fi6), !llfi_index !106
  %22 = bitcast %"class.std::vector"* %fi13 to %"struct.std::_Vector_base"*, !llfi_index !107
  %fi7 = call %"struct.std::_Vector_base"* @injectFault6(i64 106, %"struct.std::_Vector_base"* %22, i32 44, i32 0, i32 1, i32 0, i8* getelementptr inbounds ([8 x i8]* @bitcast_namestr, i32 0, i32 0)), !llfi_injectfault !11
  %23 = getelementptr %"struct.std::_Vector_base"* %fi7, i32 0, i32 0, !llfi_index !108
  %fi8 = call %"struct.std::_Vector_base<int, std::allocator<int> >::_Vector_impl"* @injectFault7(i64 107, %"struct.std::_Vector_base<int, std::allocator<int> >::_Vector_impl"* %23, i32 29, i32 0, i32 1, i32 0, i8* getelementptr inbounds ([14 x i8]* @getelementptr_namestr, i32 0, i32 0)), !llfi_injectfault !11
  %24 = getelementptr %"struct.std::_Vector_base<int, std::allocator<int> >::_Vector_impl"* %fi8, i32 0, i32 1, !llfi_index !109
  %fi9 = call i32** @injectFault0(i64 108, i32** %24, i32 29, i32 0, i32 1, i32 0, i8* getelementptr inbounds ([14 x i8]* @getelementptr_namestr, i32 0, i32 0)), !llfi_injectfault !11
  %25 = load i32** %fi9, align 8, !llfi_index !110
  %fi10 = call i32* @injectFault1(i64 109, i32* %25, i32 27, i32 0, i32 1, i32 0, i8* getelementptr inbounds ([5 x i8]* @load_namestr, i32 0, i32 0)), !llfi_injectfault !11
  %26 = getelementptr i32* %fi10, i32 1, !llfi_index !111
  %fi11 = call i32* @injectFault1(i64 110, i32* %26, i32 29, i32 0, i32 1, i32 0, i8* getelementptr inbounds ([14 x i8]* @getelementptr_namestr, i32 0, i32 0)), !llfi_injectfault !11
  store i32* %fi11, i32** %fi9, align 8, !llfi_index !112
  br label %29, !llfi_index !113

; <label>:27                                      ; preds = %0
  %28 = load i32** %2, align 8, !llfi_index !114
  %fi12 = call i32* @injectFault1(i64 113, i32* %28, i32 27, i32 0, i32 1, i32 0, i8* getelementptr inbounds ([5 x i8]* @load_namestr, i32 0, i32 0)), !llfi_injectfault !11
  call void @_ZNSt6vectorIiSaIiEE19_M_emplace_back_auxIJRKiEEEvDpOT_(%"class.std::vector"* %fi13, i32* %fi12), !llfi_index !115
  br label %29, !llfi_index !116

; <label>:29                                      ; preds = %27, %13
  ret void, !llfi_index !117
}

; Function Attrs: nounwind uwtable
define %struct.Node* @_Z6insertP4Nodei(%struct.Node* %root, i32 %val) #3 {
  %1 = alloca %struct.Node*, align 8, !llfi_index !118
  %2 = alloca %struct.Node*, align 8, !llfi_index !119
  %3 = alloca i32, align 4, !llfi_index !120
  store %struct.Node* %root, %struct.Node** %2, align 8, !llfi_index !121
  store i32 %val, i32* %3, align 4, !llfi_index !122
  %4 = load %struct.Node** %2, align 8, !llfi_index !123
  %fi = call %struct.Node* @injectFault3(i64 122, %struct.Node* %4, i32 27, i32 0, i32 1, i32 0, i8* getelementptr inbounds ([5 x i8]* @load_namestr, i32 0, i32 0)), !llfi_injectfault !11
  %5 = icmp ne %struct.Node* %fi, null, !llfi_index !124
  %fi1 = call i1 @injectFault4(i64 123, i1 %5, i32 46, i32 0, i32 1, i32 0, i8* getelementptr inbounds ([5 x i8]* @icmp_namestr, i32 0, i32 0)), !llfi_injectfault !11
  br i1 %fi1, label %10, label %6, !llfi_index !125

; <label>:6                                       ; preds = %0
  %7 = call noalias i8* @_Znwm(i64 32) #8, !llfi_index !126
  %8 = bitcast i8* %7 to %struct.Node*, !llfi_index !127
  %fi2 = call %struct.Node* @injectFault3(i64 126, %struct.Node* %8, i32 44, i32 0, i32 1, i32 0, i8* getelementptr inbounds ([8 x i8]* @bitcast_namestr, i32 0, i32 0)), !llfi_injectfault !11
  %9 = load i32* %3, align 4, !llfi_index !128
  %fi4 = call i32 @injectFault9(i64 127, i32 %9, i32 27, i32 0, i32 1, i32 0, i8* getelementptr inbounds ([5 x i8]* @load_namestr, i32 0, i32 0)), !llfi_injectfault !11
  call void @_ZN4NodeC2Ei(%struct.Node* %fi2, i32 %fi4), !llfi_index !129
  store %struct.Node* %fi2, %struct.Node** %1, !llfi_index !130
  br label %44, !llfi_index !131

; <label>:10                                      ; preds = %0
  %11 = load i32* %3, align 4, !llfi_index !132
  %fi5 = call i32 @injectFault9(i64 131, i32 %11, i32 27, i32 0, i32 1, i32 0, i8* getelementptr inbounds ([5 x i8]* @load_namestr, i32 0, i32 0)), !llfi_injectfault !11
  %12 = load %struct.Node** %2, align 8, !llfi_index !133
  %fi6 = call %struct.Node* @injectFault3(i64 132, %struct.Node* %12, i32 27, i32 0, i32 1, i32 0, i8* getelementptr inbounds ([5 x i8]* @load_namestr, i32 0, i32 0)), !llfi_injectfault !11
  %13 = getelementptr %struct.Node* %fi6, i32 0, i32 0, !llfi_index !134
  %fi7 = call i32* @injectFault1(i64 133, i32* %13, i32 29, i32 0, i32 1, i32 0, i8* getelementptr inbounds ([14 x i8]* @getelementptr_namestr, i32 0, i32 0)), !llfi_injectfault !11
  %14 = load i32* %fi7, align 4, !llfi_index !135
  %fi8 = call i32 @injectFault9(i64 134, i32 %14, i32 27, i32 0, i32 1, i32 0, i8* getelementptr inbounds ([5 x i8]* @load_namestr, i32 0, i32 0)), !llfi_injectfault !11
  %15 = icmp slt i32 %fi5, %fi8, !llfi_index !136
  %fi9 = call i1 @injectFault4(i64 135, i1 %15, i32 46, i32 0, i32 1, i32 0, i8* getelementptr inbounds ([5 x i8]* @icmp_namestr, i32 0, i32 0)), !llfi_injectfault !11
  br i1 %fi9, label %16, label %29, !llfi_index !137

; <label>:16                                      ; preds = %10
  %17 = load %struct.Node** %2, align 8, !llfi_index !138
  %fi3 = call %struct.Node* @injectFault3(i64 137, %struct.Node* %17, i32 27, i32 0, i32 1, i32 0, i8* getelementptr inbounds ([5 x i8]* @load_namestr, i32 0, i32 0)), !llfi_injectfault !11
  %18 = getelementptr %struct.Node* %fi3, i32 0, i32 1, !llfi_index !139
  %fi11 = call %struct.Node** @injectFault2(i64 138, %struct.Node** %18, i32 29, i32 0, i32 1, i32 0, i8* getelementptr inbounds ([14 x i8]* @getelementptr_namestr, i32 0, i32 0)), !llfi_injectfault !11
  %19 = load %struct.Node** %fi11, align 8, !llfi_index !140
  %fi12 = call %struct.Node* @injectFault3(i64 139, %struct.Node* %19, i32 27, i32 0, i32 1, i32 0, i8* getelementptr inbounds ([5 x i8]* @load_namestr, i32 0, i32 0)), !llfi_injectfault !11
  %20 = load i32* %3, align 4, !llfi_index !141
  %fi13 = call i32 @injectFault9(i64 140, i32 %20, i32 27, i32 0, i32 1, i32 0, i8* getelementptr inbounds ([5 x i8]* @load_namestr, i32 0, i32 0)), !llfi_injectfault !11
  %21 = call %struct.Node* @_Z6insertP4Nodei(%struct.Node* %fi12, i32 %fi13), !llfi_index !142
  %22 = load %struct.Node** %2, align 8, !llfi_index !143
  %fi14 = call %struct.Node* @injectFault3(i64 142, %struct.Node* %22, i32 27, i32 0, i32 1, i32 0, i8* getelementptr inbounds ([5 x i8]* @load_namestr, i32 0, i32 0)), !llfi_injectfault !11
  %23 = getelementptr %struct.Node* %fi14, i32 0, i32 1, !llfi_index !144
  %fi15 = call %struct.Node** @injectFault2(i64 143, %struct.Node** %23, i32 29, i32 0, i32 1, i32 0, i8* getelementptr inbounds ([14 x i8]* @getelementptr_namestr, i32 0, i32 0)), !llfi_injectfault !11
  store %struct.Node* %21, %struct.Node** %fi15, align 8, !llfi_index !145
  %24 = load %struct.Node** %2, align 8, !llfi_index !146
  %fi16 = call %struct.Node* @injectFault3(i64 145, %struct.Node* %24, i32 27, i32 0, i32 1, i32 0, i8* getelementptr inbounds ([5 x i8]* @load_namestr, i32 0, i32 0)), !llfi_injectfault !11
  %25 = load %struct.Node** %2, align 8, !llfi_index !147
  %fi17 = call %struct.Node* @injectFault3(i64 146, %struct.Node* %25, i32 27, i32 0, i32 1, i32 0, i8* getelementptr inbounds ([5 x i8]* @load_namestr, i32 0, i32 0)), !llfi_injectfault !11
  %26 = getelementptr %struct.Node* %fi17, i32 0, i32 1, !llfi_index !148
  %fi18 = call %struct.Node** @injectFault2(i64 147, %struct.Node** %26, i32 29, i32 0, i32 1, i32 0, i8* getelementptr inbounds ([14 x i8]* @getelementptr_namestr, i32 0, i32 0)), !llfi_injectfault !11
  %27 = load %struct.Node** %fi18, align 8, !llfi_index !149
  %fi19 = call %struct.Node* @injectFault3(i64 148, %struct.Node* %27, i32 27, i32 0, i32 1, i32 0, i8* getelementptr inbounds ([5 x i8]* @load_namestr, i32 0, i32 0)), !llfi_injectfault !11
  %28 = getelementptr %struct.Node* %fi19, i32 0, i32 3, !llfi_index !150
  %fi20 = call %struct.Node** @injectFault2(i64 149, %struct.Node** %28, i32 29, i32 0, i32 1, i32 0, i8* getelementptr inbounds ([14 x i8]* @getelementptr_namestr, i32 0, i32 0)), !llfi_injectfault !11
  store %struct.Node* %fi16, %struct.Node** %fi20, align 8, !llfi_index !151
  br label %42, !llfi_index !152

; <label>:29                                      ; preds = %10
  %30 = load %struct.Node** %2, align 8, !llfi_index !153
  %fi21 = call %struct.Node* @injectFault3(i64 152, %struct.Node* %30, i32 27, i32 0, i32 1, i32 0, i8* getelementptr inbounds ([5 x i8]* @load_namestr, i32 0, i32 0)), !llfi_injectfault !11
  %31 = getelementptr %struct.Node* %fi21, i32 0, i32 2, !llfi_index !154
  %fi22 = call %struct.Node** @injectFault2(i64 153, %struct.Node** %31, i32 29, i32 0, i32 1, i32 0, i8* getelementptr inbounds ([14 x i8]* @getelementptr_namestr, i32 0, i32 0)), !llfi_injectfault !11
  %32 = load %struct.Node** %fi22, align 8, !llfi_index !155
  %fi23 = call %struct.Node* @injectFault3(i64 154, %struct.Node* %32, i32 27, i32 0, i32 1, i32 0, i8* getelementptr inbounds ([5 x i8]* @load_namestr, i32 0, i32 0)), !llfi_injectfault !11
  %33 = load i32* %3, align 4, !llfi_index !156
  %fi10 = call i32 @injectFault9(i64 155, i32 %33, i32 27, i32 0, i32 1, i32 0, i8* getelementptr inbounds ([5 x i8]* @load_namestr, i32 0, i32 0)), !llfi_injectfault !11
  %34 = call %struct.Node* @_Z6insertP4Nodei(%struct.Node* %fi23, i32 %fi10), !llfi_index !157
  %35 = load %struct.Node** %2, align 8, !llfi_index !158
  %fi24 = call %struct.Node* @injectFault3(i64 157, %struct.Node* %35, i32 27, i32 0, i32 1, i32 0, i8* getelementptr inbounds ([5 x i8]* @load_namestr, i32 0, i32 0)), !llfi_injectfault !11
  %36 = getelementptr %struct.Node* %fi24, i32 0, i32 2, !llfi_index !159
  %fi25 = call %struct.Node** @injectFault2(i64 158, %struct.Node** %36, i32 29, i32 0, i32 1, i32 0, i8* getelementptr inbounds ([14 x i8]* @getelementptr_namestr, i32 0, i32 0)), !llfi_injectfault !11
  store %struct.Node* %34, %struct.Node** %fi25, align 8, !llfi_index !160
  %37 = load %struct.Node** %2, align 8, !llfi_index !161
  %fi26 = call %struct.Node* @injectFault3(i64 160, %struct.Node* %37, i32 27, i32 0, i32 1, i32 0, i8* getelementptr inbounds ([5 x i8]* @load_namestr, i32 0, i32 0)), !llfi_injectfault !11
  %38 = load %struct.Node** %2, align 8, !llfi_index !162
  %fi27 = call %struct.Node* @injectFault3(i64 161, %struct.Node* %38, i32 27, i32 0, i32 1, i32 0, i8* getelementptr inbounds ([5 x i8]* @load_namestr, i32 0, i32 0)), !llfi_injectfault !11
  %39 = getelementptr %struct.Node* %fi27, i32 0, i32 2, !llfi_index !163
  %fi28 = call %struct.Node** @injectFault2(i64 162, %struct.Node** %39, i32 29, i32 0, i32 1, i32 0, i8* getelementptr inbounds ([14 x i8]* @getelementptr_namestr, i32 0, i32 0)), !llfi_injectfault !11
  %40 = load %struct.Node** %fi28, align 8, !llfi_index !164
  %fi29 = call %struct.Node* @injectFault3(i64 163, %struct.Node* %40, i32 27, i32 0, i32 1, i32 0, i8* getelementptr inbounds ([5 x i8]* @load_namestr, i32 0, i32 0)), !llfi_injectfault !11
  %41 = getelementptr %struct.Node* %fi29, i32 0, i32 3, !llfi_index !165
  %fi30 = call %struct.Node** @injectFault2(i64 164, %struct.Node** %41, i32 29, i32 0, i32 1, i32 0, i8* getelementptr inbounds ([14 x i8]* @getelementptr_namestr, i32 0, i32 0)), !llfi_injectfault !11
  store %struct.Node* %fi26, %struct.Node** %fi30, align 8, !llfi_index !166
  br label %42, !llfi_index !167

; <label>:42                                      ; preds = %29, %16
  %43 = load %struct.Node** %2, align 8, !llfi_index !168
  %fi31 = call %struct.Node* @injectFault3(i64 167, %struct.Node* %43, i32 27, i32 0, i32 1, i32 0, i8* getelementptr inbounds ([5 x i8]* @load_namestr, i32 0, i32 0)), !llfi_injectfault !11
  store %struct.Node* %fi31, %struct.Node** %1, !llfi_index !169
  br label %44, !llfi_index !170

; <label>:44                                      ; preds = %42, %6
  %45 = load %struct.Node** %1, !llfi_index !171
  %fi32 = call %struct.Node* @injectFault3(i64 170, %struct.Node* %45, i32 27, i32 0, i32 1, i32 0, i8* getelementptr inbounds ([5 x i8]* @load_namestr, i32 0, i32 0)), !llfi_injectfault !11
  ret %struct.Node* %fi32, !llfi_index !172
}

; Function Attrs: nobuiltin
declare noalias i8* @_Znwm(i64) #4

; Function Attrs: nounwind uwtable
define linkonce_odr void @_ZN4NodeC2Ei(%struct.Node* %this, i32 %v) unnamed_addr #3 align 2 {
  %1 = alloca %struct.Node*, align 8, !llfi_index !173
  %2 = alloca i32, align 4, !llfi_index !174
  store %struct.Node* %this, %struct.Node** %1, align 8, !llfi_index !175
  store i32 %v, i32* %2, align 4, !llfi_index !176
  %3 = load %struct.Node** %1, !llfi_index !177
  %fi = call %struct.Node* @injectFault3(i64 176, %struct.Node* %3, i32 27, i32 0, i32 1, i32 0, i8* getelementptr inbounds ([5 x i8]* @load_namestr, i32 0, i32 0)), !llfi_injectfault !11
  %4 = getelementptr %struct.Node* %fi, i32 0, i32 0, !llfi_index !178
  %fi1 = call i32* @injectFault1(i64 177, i32* %4, i32 29, i32 0, i32 1, i32 0, i8* getelementptr inbounds ([14 x i8]* @getelementptr_namestr, i32 0, i32 0)), !llfi_injectfault !11
  %5 = load i32* %2, align 4, !llfi_index !179
  %fi2 = call i32 @injectFault9(i64 178, i32 %5, i32 27, i32 0, i32 1, i32 0, i8* getelementptr inbounds ([5 x i8]* @load_namestr, i32 0, i32 0)), !llfi_injectfault !11
  store i32 %fi2, i32* %fi1, align 4, !llfi_index !180
  %6 = getelementptr %struct.Node* %fi, i32 0, i32 1, !llfi_index !181
  %fi3 = call %struct.Node** @injectFault2(i64 180, %struct.Node** %6, i32 29, i32 0, i32 1, i32 0, i8* getelementptr inbounds ([14 x i8]* @getelementptr_namestr, i32 0, i32 0)), !llfi_injectfault !11
  store %struct.Node* null, %struct.Node** %fi3, align 8, !llfi_index !182
  %7 = getelementptr %struct.Node* %fi, i32 0, i32 2, !llfi_index !183
  %fi4 = call %struct.Node** @injectFault2(i64 182, %struct.Node** %7, i32 29, i32 0, i32 1, i32 0, i8* getelementptr inbounds ([14 x i8]* @getelementptr_namestr, i32 0, i32 0)), !llfi_injectfault !11
  store %struct.Node* null, %struct.Node** %fi4, align 8, !llfi_index !184
  %8 = getelementptr %struct.Node* %fi, i32 0, i32 3, !llfi_index !185
  %fi5 = call %struct.Node** @injectFault2(i64 184, %struct.Node** %8, i32 29, i32 0, i32 1, i32 0, i8* getelementptr inbounds ([14 x i8]* @getelementptr_namestr, i32 0, i32 0)), !llfi_injectfault !11
  store %struct.Node* null, %struct.Node** %fi5, align 8, !llfi_index !186
  ret void, !llfi_index !187
}

; Function Attrs: nounwind uwtable
define i32 @main(i32 %argc, i8** %argv) #3 {
  call void @initInjections()
  %1 = alloca i32, align 4, !llfi_index !188
  %2 = alloca i32, align 4, !llfi_index !189
  %3 = alloca i8**, align 8, !llfi_index !190
  %filename = alloca %"class.std::__cxx11::basic_string", align 8, !llfi_index !191
  %4 = alloca %"class.std::allocator.0", align 1, !llfi_index !192
  %file = alloca %"class.std::basic_ifstream", align 8, !llfi_index !193
  %num = alloca i32, align 4, !llfi_index !194
  %root = alloca %struct.Node*, align 8, !llfi_index !195
  %fb = alloca %"class.std::vector", align 8, !llfi_index !196
  %5 = alloca %"class.std::initializer_list", align 8, !llfi_index !197
  %6 = alloca [7 x i32], align 4, !llfi_index !198
  %7 = alloca %"class.std::allocator", align 1, !llfi_index !199
  %__range = alloca %"class.std::vector"*, align 8, !llfi_index !200
  %__begin = alloca %"class.__gnu_cxx::__normal_iterator", align 8, !llfi_index !201
  %__end = alloca %"class.__gnu_cxx::__normal_iterator", align 8, !llfi_index !202
  %x = alloca i32, align 4, !llfi_index !203
  %limit = alloca i32, align 4, !llfi_index !204
  %result = alloca %"class.std::vector", align 8, !llfi_index !205
  %passed = alloca i8, align 1, !llfi_index !206
  %i = alloca i64, align 8, !llfi_index !207
  %8 = alloca i32, !llfi_index !208
  store i32 0, i32* %1, !llfi_index !209
  store i32 %argc, i32* %2, align 4, !llfi_index !210
  store i8** %argv, i8*** %3, align 8, !llfi_index !211
  call void @_ZNSaIcEC1Ev(%"class.std::allocator.0"* %4) #0, !llfi_index !212
  call void @_ZNSt7__cxx1112basic_stringIcSt11char_traitsIcESaIcEEC1EPKcRKS3_(%"class.std::__cxx11::basic_string"* %filename, i8* getelementptr inbounds ([12 x i8]* @.str, i32 0, i32 0), %"class.std::allocator.0"* %4), !llfi_index !213
  call void @_ZNSaIcED1Ev(%"class.std::allocator.0"* %4) #0, !llfi_index !214
  %9 = load i32* %2, align 4, !llfi_index !215
  %fi = call i32 @injectFault9(i64 214, i32 %9, i32 27, i32 0, i32 1, i32 0, i8* getelementptr inbounds ([5 x i8]* @load_namestr, i32 0, i32 0)), !llfi_injectfault !11
  %10 = icmp sgt i32 %fi, 1, !llfi_index !216
  %fi1 = call i1 @injectFault4(i64 215, i1 %10, i32 46, i32 0, i32 1, i32 0, i8* getelementptr inbounds ([5 x i8]* @icmp_namestr, i32 0, i32 0)), !llfi_injectfault !11
  br i1 %fi1, label %11, label %16, !llfi_index !217

; <label>:11                                      ; preds = %0
  %12 = load i8*** %3, align 8, !llfi_index !218
  %fi2 = call i8** @injectFault10(i64 217, i8** %12, i32 27, i32 0, i32 1, i32 0, i8* getelementptr inbounds ([5 x i8]* @load_namestr, i32 0, i32 0)), !llfi_injectfault !11
  %13 = getelementptr i8** %fi2, i64 1, !llfi_index !219
  %fi3 = call i8** @injectFault10(i64 218, i8** %13, i32 29, i32 0, i32 1, i32 0, i8* getelementptr inbounds ([14 x i8]* @getelementptr_namestr, i32 0, i32 0)), !llfi_injectfault !11
  %14 = load i8** %fi3, align 8, !llfi_index !220
  %fi4 = call i8* @injectFault11(i64 219, i8* %14, i32 27, i32 0, i32 1, i32 0, i8* getelementptr inbounds ([5 x i8]* @load_namestr, i32 0, i32 0)), !llfi_injectfault !11
  %15 = call %"class.std::__cxx11::basic_string"* @_ZNSt7__cxx1112basic_stringIcSt11char_traitsIcESaIcEEaSEPKc(%"class.std::__cxx11::basic_string"* %filename, i8* %fi4), !llfi_index !221
  br label %16, !llfi_index !222

; <label>:16                                      ; preds = %11, %0
  %17 = call i8* @_ZNKSt7__cxx1112basic_stringIcSt11char_traitsIcESaIcEE5c_strEv(%"class.std::__cxx11::basic_string"* %filename) #0, !llfi_index !223
  call void @_ZNSt14basic_ifstreamIcSt11char_traitsIcEEC1EPKcSt13_Ios_Openmode(%"class.std::basic_ifstream"* %file, i8* %17, i32 8), !llfi_index !224
  store %struct.Node* null, %struct.Node** %root, align 8, !llfi_index !225
  %18 = call zeroext i1 @_ZNSt14basic_ifstreamIcSt11char_traitsIcEE7is_openEv(%"class.std::basic_ifstream"* %file), !llfi_index !226
  br i1 %18, label %52, label %19, !llfi_index !227

; <label>:19                                      ; preds = %16
  %20 = getelementptr [7 x i32]* %6, i64 0, i64 0, !llfi_index !228
  %fi7 = call i32* @injectFault1(i64 227, i32* %20, i32 29, i32 0, i32 1, i32 0, i8* getelementptr inbounds ([14 x i8]* @getelementptr_namestr, i32 0, i32 0)), !llfi_injectfault !11
  store i32 5, i32* %fi7, !llfi_index !229
  %21 = getelementptr i32* %fi7, i64 1, !llfi_index !230
  %fi8 = call i32* @injectFault1(i64 229, i32* %21, i32 29, i32 0, i32 1, i32 0, i8* getelementptr inbounds ([14 x i8]* @getelementptr_namestr, i32 0, i32 0)), !llfi_injectfault !11
  store i32 3, i32* %fi8, !llfi_index !231
  %22 = getelementptr i32* %fi8, i64 1, !llfi_index !232
  %fi9 = call i32* @injectFault1(i64 231, i32* %22, i32 29, i32 0, i32 1, i32 0, i8* getelementptr inbounds ([14 x i8]* @getelementptr_namestr, i32 0, i32 0)), !llfi_injectfault !11
  store i32 7, i32* %fi9, !llfi_index !233
  %23 = getelementptr i32* %fi9, i64 1, !llfi_index !234
  %fi10 = call i32* @injectFault1(i64 233, i32* %23, i32 29, i32 0, i32 1, i32 0, i8* getelementptr inbounds ([14 x i8]* @getelementptr_namestr, i32 0, i32 0)), !llfi_injectfault !11
  store i32 1, i32* %fi10, !llfi_index !235
  %24 = getelementptr i32* %fi10, i64 1, !llfi_index !236
  %fi11 = call i32* @injectFault1(i64 235, i32* %24, i32 29, i32 0, i32 1, i32 0, i8* getelementptr inbounds ([14 x i8]* @getelementptr_namestr, i32 0, i32 0)), !llfi_injectfault !11
  store i32 4, i32* %fi11, !llfi_index !237
  %25 = getelementptr i32* %fi11, i64 1, !llfi_index !238
  %fi12 = call i32* @injectFault1(i64 237, i32* %25, i32 29, i32 0, i32 1, i32 0, i8* getelementptr inbounds ([14 x i8]* @getelementptr_namestr, i32 0, i32 0)), !llfi_injectfault !11
  store i32 6, i32* %fi12, !llfi_index !239
  %26 = getelementptr i32* %fi12, i64 1, !llfi_index !240
  %fi13 = call i32* @injectFault1(i64 239, i32* %26, i32 29, i32 0, i32 1, i32 0, i8* getelementptr inbounds ([14 x i8]* @getelementptr_namestr, i32 0, i32 0)), !llfi_injectfault !11
  store i32 8, i32* %fi13, !llfi_index !241
  %27 = getelementptr %"class.std::initializer_list"* %5, i32 0, i32 0, !llfi_index !242
  %fi14 = call i32** @injectFault0(i64 241, i32** %27, i32 29, i32 0, i32 1, i32 0, i8* getelementptr inbounds ([14 x i8]* @getelementptr_namestr, i32 0, i32 0)), !llfi_injectfault !11
  %28 = getelementptr [7 x i32]* %6, i64 0, i64 0, !llfi_index !243
  %fi15 = call i32* @injectFault1(i64 242, i32* %28, i32 29, i32 0, i32 1, i32 0, i8* getelementptr inbounds ([14 x i8]* @getelementptr_namestr, i32 0, i32 0)), !llfi_injectfault !11
  store i32* %fi15, i32** %fi14, align 8, !llfi_index !244
  %29 = getelementptr %"class.std::initializer_list"* %5, i32 0, i32 1, !llfi_index !245
  %fi16 = call i64* @injectFault14(i64 244, i64* %29, i32 29, i32 0, i32 1, i32 0, i8* getelementptr inbounds ([14 x i8]* @getelementptr_namestr, i32 0, i32 0)), !llfi_injectfault !11
  store i64 7, i64* %fi16, align 8, !llfi_index !246
  call void @_ZNSaIiEC2Ev(%"class.std::allocator"* %7) #0, !llfi_index !247
  %30 = bitcast %"class.std::initializer_list"* %5 to { i32*, i64 }*, !llfi_index !248
  %fi17 = call { i32*, i64 }* @injectFault15(i64 247, { i32*, i64 }* %30, i32 44, i32 0, i32 1, i32 0, i8* getelementptr inbounds ([8 x i8]* @bitcast_namestr, i32 0, i32 0)), !llfi_injectfault !11
  %31 = getelementptr { i32*, i64 }* %fi17, i32 0, i32 0, !llfi_index !249
  %fi18 = call i32** @injectFault0(i64 248, i32** %31, i32 29, i32 0, i32 1, i32 0, i8* getelementptr inbounds ([14 x i8]* @getelementptr_namestr, i32 0, i32 0)), !llfi_injectfault !11
  %32 = load i32** %fi18, align 1, !llfi_index !250
  %fi19 = call i32* @injectFault1(i64 249, i32* %32, i32 27, i32 0, i32 1, i32 0, i8* getelementptr inbounds ([5 x i8]* @load_namestr, i32 0, i32 0)), !llfi_injectfault !11
  %33 = getelementptr { i32*, i64 }* %fi17, i32 0, i32 1, !llfi_index !251
  %fi6 = call i64* @injectFault14(i64 250, i64* %33, i32 29, i32 0, i32 1, i32 0, i8* getelementptr inbounds ([14 x i8]* @getelementptr_namestr, i32 0, i32 0)), !llfi_injectfault !11
  %34 = load i64* %fi6, align 1, !llfi_index !252
  %fi21 = call i64 @injectFault16(i64 251, i64 %34, i32 27, i32 0, i32 1, i32 0, i8* getelementptr inbounds ([5 x i8]* @load_namestr, i32 0, i32 0)), !llfi_injectfault !11
  call void @_ZNSt6vectorIiSaIiEEC2ESt16initializer_listIiERKS0_(%"class.std::vector"* %fb, i32* %fi19, i64 %fi21, %"class.std::allocator"* %7), !llfi_index !253
  call void @_ZNSaIiED2Ev(%"class.std::allocator"* %7) #0, !llfi_index !254
  store %"class.std::vector"* %fb, %"class.std::vector"** %__range, align 8, !llfi_index !255
  %35 = load %"class.std::vector"** %__range, align 8, !llfi_index !256
  %fi22 = call %"class.std::vector"* @injectFault5(i64 255, %"class.std::vector"* %35, i32 27, i32 0, i32 1, i32 0, i8* getelementptr inbounds ([5 x i8]* @load_namestr, i32 0, i32 0)), !llfi_injectfault !11
  %36 = call i32* @_ZNSt6vectorIiSaIiEE5beginEv(%"class.std::vector"* %fi22) #0, !llfi_index !257
  %37 = getelementptr %"class.__gnu_cxx::__normal_iterator"* %__begin, i32 0, i32 0, !llfi_index !258
  %fi23 = call i32** @injectFault0(i64 257, i32** %37, i32 29, i32 0, i32 1, i32 0, i8* getelementptr inbounds ([14 x i8]* @getelementptr_namestr, i32 0, i32 0)), !llfi_injectfault !11
  store i32* %36, i32** %fi23, !llfi_index !259
  %38 = load %"class.std::vector"** %__range, align 8, !llfi_index !260
  %fi24 = call %"class.std::vector"* @injectFault5(i64 259, %"class.std::vector"* %38, i32 27, i32 0, i32 1, i32 0, i8* getelementptr inbounds ([5 x i8]* @load_namestr, i32 0, i32 0)), !llfi_injectfault !11
  %39 = call i32* @_ZNSt6vectorIiSaIiEE3endEv(%"class.std::vector"* %fi24) #0, !llfi_index !261
  %40 = getelementptr %"class.__gnu_cxx::__normal_iterator"* %__end, i32 0, i32 0, !llfi_index !262
  %fi25 = call i32** @injectFault0(i64 261, i32** %40, i32 29, i32 0, i32 1, i32 0, i8* getelementptr inbounds ([14 x i8]* @getelementptr_namestr, i32 0, i32 0)), !llfi_injectfault !11
  store i32* %39, i32** %fi25, !llfi_index !263
  br label %41, !llfi_index !264

; <label>:41                                      ; preds = %49, %19
  %42 = call zeroext i1 @_ZN9__gnu_cxxneIPiSt6vectorIiSaIiEEEEbRKNS_17__normal_iteratorIT_T0_EESA_(%"class.__gnu_cxx::__normal_iterator"* %__begin, %"class.__gnu_cxx::__normal_iterator"* %__end) #0, !llfi_index !265
  br i1 %42, label %43, label %51, !llfi_index !266

; <label>:43                                      ; preds = %41
  %44 = call i32* @_ZNK9__gnu_cxx17__normal_iteratorIPiSt6vectorIiSaIiEEEdeEv(%"class.__gnu_cxx::__normal_iterator"* %__begin) #0, !llfi_index !267
  %45 = load i32* %44, !llfi_index !268
  %fi26 = call i32 @injectFault9(i64 267, i32 %45, i32 27, i32 0, i32 1, i32 0, i8* getelementptr inbounds ([5 x i8]* @load_namestr, i32 0, i32 0)), !llfi_injectfault !11
  store i32 %fi26, i32* %x, align 4, !llfi_index !269
  %46 = load %struct.Node** %root, align 8, !llfi_index !270
  %fi27 = call %struct.Node* @injectFault3(i64 269, %struct.Node* %46, i32 27, i32 0, i32 1, i32 0, i8* getelementptr inbounds ([5 x i8]* @load_namestr, i32 0, i32 0)), !llfi_injectfault !11
  %47 = load i32* %x, align 4, !llfi_index !271
  %fi28 = call i32 @injectFault9(i64 270, i32 %47, i32 27, i32 0, i32 1, i32 0, i8* getelementptr inbounds ([5 x i8]* @load_namestr, i32 0, i32 0)), !llfi_injectfault !11
  %48 = call %struct.Node* @_Z6insertP4Nodei(%struct.Node* %fi27, i32 %fi28), !llfi_index !272
  store %struct.Node* %48, %struct.Node** %root, align 8, !llfi_index !273
  br label %49, !llfi_index !274

; <label>:49                                      ; preds = %43
  %50 = call %"class.__gnu_cxx::__normal_iterator"* @_ZN9__gnu_cxx17__normal_iteratorIPiSt6vectorIiSaIiEEEppEv(%"class.__gnu_cxx::__normal_iterator"* %__begin) #0, !llfi_index !275
  br label %41, !llfi_index !276

; <label>:51                                      ; preds = %41
  call void @_ZNSt6vectorIiSaIiEED2Ev(%"class.std::vector"* %fb) #0, !llfi_index !277
  br label %76, !llfi_index !278

; <label>:52                                      ; preds = %16
  store i32 0, i32* %limit, align 4, !llfi_index !279
  br label %53, !llfi_index !280

; <label>:53                                      ; preds = %71, %52
  %54 = bitcast %"class.std::basic_ifstream"* %file to %"class.std::basic_istream"*, !llfi_index !281
  %fi29 = call %"class.std::basic_istream"* @injectFault17(i64 280, %"class.std::basic_istream"* %54, i32 44, i32 0, i32 1, i32 0, i8* getelementptr inbounds ([8 x i8]* @bitcast_namestr, i32 0, i32 0)), !llfi_injectfault !11
  %55 = call %"class.std::basic_istream"* @_ZNSirsERi(%"class.std::basic_istream"* %fi29, i32* %num), !llfi_index !282
  %56 = bitcast %"class.std::basic_istream"* %55 to i8**, !llfi_index !283
  %fi30 = call i8** @injectFault10(i64 282, i8** %56, i32 44, i32 0, i32 1, i32 0, i8* getelementptr inbounds ([8 x i8]* @bitcast_namestr, i32 0, i32 0)), !llfi_injectfault !11
  %57 = load i8** %fi30, !llfi_index !284
  %fi31 = call i8* @injectFault11(i64 283, i8* %57, i32 27, i32 0, i32 1, i32 0, i8* getelementptr inbounds ([5 x i8]* @load_namestr, i32 0, i32 0)), !llfi_injectfault !11
  %58 = getelementptr i8* %fi31, i64 -24, !llfi_index !285
  %fi32 = call i8* @injectFault11(i64 284, i8* %58, i32 29, i32 0, i32 1, i32 0, i8* getelementptr inbounds ([14 x i8]* @getelementptr_namestr, i32 0, i32 0)), !llfi_injectfault !11
  %59 = bitcast i8* %fi32 to i64*, !llfi_index !286
  %fi33 = call i64* @injectFault14(i64 285, i64* %59, i32 44, i32 0, i32 1, i32 0, i8* getelementptr inbounds ([8 x i8]* @bitcast_namestr, i32 0, i32 0)), !llfi_injectfault !11
  %60 = load i64* %fi33, !llfi_index !287
  %fi34 = call i64 @injectFault16(i64 286, i64 %60, i32 27, i32 0, i32 1, i32 0, i8* getelementptr inbounds ([5 x i8]* @load_namestr, i32 0, i32 0)), !llfi_injectfault !11
  %61 = bitcast %"class.std::basic_istream"* %55 to i8*, !llfi_index !288
  %fi35 = call i8* @injectFault11(i64 287, i8* %61, i32 44, i32 0, i32 1, i32 0, i8* getelementptr inbounds ([8 x i8]* @bitcast_namestr, i32 0, i32 0)), !llfi_injectfault !11
  %62 = getelementptr i8* %fi35, i64 %fi34, !llfi_index !289
  %fi36 = call i8* @injectFault11(i64 288, i8* %62, i32 29, i32 0, i32 1, i32 0, i8* getelementptr inbounds ([14 x i8]* @getelementptr_namestr, i32 0, i32 0)), !llfi_injectfault !11
  %63 = bitcast i8* %fi36 to %"class.std::basic_ios"*, !llfi_index !290
  %fi37 = call %"class.std::basic_ios"* @injectFault18(i64 289, %"class.std::basic_ios"* %63, i32 44, i32 0, i32 1, i32 0, i8* getelementptr inbounds ([8 x i8]* @bitcast_namestr, i32 0, i32 0)), !llfi_injectfault !11
  %64 = call zeroext i1 @_ZNKSt9basic_iosIcSt11char_traitsIcEEcvbEv(%"class.std::basic_ios"* %fi37), !llfi_index !291
  br i1 %64, label %65, label %69, !llfi_index !292

; <label>:65                                      ; preds = %53
  %66 = load i32* %limit, align 4, !llfi_index !293
  %fi20 = call i32 @injectFault9(i64 292, i32 %66, i32 27, i32 0, i32 1, i32 0, i8* getelementptr inbounds ([5 x i8]* @load_namestr, i32 0, i32 0)), !llfi_injectfault !11
  %67 = add nsw i32 %fi20, 1, !llfi_index !294
  %fi38 = call i32 @injectFault9(i64 293, i32 %67, i32 8, i32 0, i32 1, i32 0, i8* getelementptr inbounds ([4 x i8]* @add_namestr, i32 0, i32 0)), !llfi_injectfault !11
  store i32 %fi38, i32* %limit, align 4, !llfi_index !295
  %68 = icmp slt i32 %fi20, 2000, !llfi_index !296
  %fi39 = call i1 @injectFault4(i64 295, i1 %68, i32 46, i32 0, i32 1, i32 0, i8* getelementptr inbounds ([5 x i8]* @icmp_namestr, i32 0, i32 0)), !llfi_injectfault !11
  br label %69, !llfi_index !297

; <label>:69                                      ; preds = %65, %53
  %70 = phi i1 [ false, %53 ], [ %fi39, %65 ], !llfi_index !298
  br i1 %70, label %71, label %75, !llfi_index !299

; <label>:71                                      ; preds = %69
  %72 = load %struct.Node** %root, align 8, !llfi_index !300
  %fi40 = call %struct.Node* @injectFault3(i64 299, %struct.Node* %72, i32 27, i32 0, i32 1, i32 0, i8* getelementptr inbounds ([5 x i8]* @load_namestr, i32 0, i32 0)), !llfi_injectfault !11
  %73 = load i32* %num, align 4, !llfi_index !301
  %fi41 = call i32 @injectFault9(i64 300, i32 %73, i32 27, i32 0, i32 1, i32 0, i8* getelementptr inbounds ([5 x i8]* @load_namestr, i32 0, i32 0)), !llfi_injectfault !11
  %74 = call %struct.Node* @_Z6insertP4Nodei(%struct.Node* %fi40, i32 %fi41), !llfi_index !302
  store %struct.Node* %74, %struct.Node** %root, align 8, !llfi_index !303
  br label %53, !llfi_index !304

; <label>:75                                      ; preds = %69
  call void @_ZNSt14basic_ifstreamIcSt11char_traitsIcEE5closeEv(%"class.std::basic_ifstream"* %file), !llfi_index !305
  br label %76, !llfi_index !306

; <label>:76                                      ; preds = %75, %51
  call void @_ZNSt6vectorIiSaIiEEC2Ev(%"class.std::vector"* %result) #0, !llfi_index !307
  %77 = load %struct.Node** %root, align 8, !llfi_index !308
  %fi42 = call %struct.Node* @injectFault3(i64 307, %struct.Node* %77, i32 27, i32 0, i32 1, i32 0, i8* getelementptr inbounds ([5 x i8]* @load_namestr, i32 0, i32 0)), !llfi_injectfault !11
  %78 = icmp ne %struct.Node* %fi42, null, !llfi_index !309
  %fi43 = call i1 @injectFault4(i64 308, i1 %78, i32 46, i32 0, i32 1, i32 0, i8* getelementptr inbounds ([5 x i8]* @icmp_namestr, i32 0, i32 0)), !llfi_injectfault !11
  br i1 %fi43, label %79, label %81, !llfi_index !310

; <label>:79                                      ; preds = %76
  %80 = load %struct.Node** %root, align 8, !llfi_index !311
  %fi44 = call %struct.Node* @injectFault3(i64 310, %struct.Node* %80, i32 27, i32 0, i32 1, i32 0, i8* getelementptr inbounds ([5 x i8]* @load_namestr, i32 0, i32 0)), !llfi_injectfault !11
  call void @_Z18in_order_traversalP4NodeRSt6vectorIiSaIiEE(%struct.Node* %fi44, %"class.std::vector"* %result), !llfi_index !312
  br label %81, !llfi_index !313

; <label>:81                                      ; preds = %79, %76
  store i8 1, i8* %passed, align 1, !llfi_index !314
  store i64 0, i64* %i, align 8, !llfi_index !315
  br label %82, !llfi_index !316

; <label>:82                                      ; preds = %98, %81
  %83 = load i64* %i, align 8, !llfi_index !317
  %fi45 = call i64 @injectFault16(i64 316, i64 %83, i32 27, i32 0, i32 1, i32 0, i8* getelementptr inbounds ([5 x i8]* @load_namestr, i32 0, i32 0)), !llfi_injectfault !11
  %84 = call i64 @_ZNKSt6vectorIiSaIiEE4sizeEv(%"class.std::vector"* %result) #0, !llfi_index !318
  %85 = sub i64 %84, 1, !llfi_index !319
  %fi46 = call i64 @injectFault16(i64 318, i64 %85, i32 10, i32 0, i32 1, i32 0, i8* getelementptr inbounds ([4 x i8]* @sub_namestr, i32 0, i32 0)), !llfi_injectfault !11
  %86 = icmp ult i64 %fi45, %fi46, !llfi_index !320
  %fi47 = call i1 @injectFault4(i64 319, i1 %86, i32 46, i32 0, i32 1, i32 0, i8* getelementptr inbounds ([5 x i8]* @icmp_namestr, i32 0, i32 0)), !llfi_injectfault !11
  br i1 %fi47, label %87, label %101, !llfi_index !321

; <label>:87                                      ; preds = %82
  %88 = load i64* %i, align 8, !llfi_index !322
  %fi48 = call i64 @injectFault16(i64 321, i64 %88, i32 27, i32 0, i32 1, i32 0, i8* getelementptr inbounds ([5 x i8]* @load_namestr, i32 0, i32 0)), !llfi_injectfault !11
  %89 = call i32* @_ZNSt6vectorIiSaIiEEixEm(%"class.std::vector"* %result, i64 %fi48) #0, !llfi_index !323
  %90 = load i32* %89, !llfi_index !324
  %fi49 = call i32 @injectFault9(i64 323, i32 %90, i32 27, i32 0, i32 1, i32 0, i8* getelementptr inbounds ([5 x i8]* @load_namestr, i32 0, i32 0)), !llfi_injectfault !11
  %91 = load i64* %i, align 8, !llfi_index !325
  %fi50 = call i64 @injectFault16(i64 324, i64 %91, i32 27, i32 0, i32 1, i32 0, i8* getelementptr inbounds ([5 x i8]* @load_namestr, i32 0, i32 0)), !llfi_injectfault !11
  %92 = add i64 %fi50, 1, !llfi_index !326
  %fi51 = call i64 @injectFault16(i64 325, i64 %92, i32 8, i32 0, i32 1, i32 0, i8* getelementptr inbounds ([4 x i8]* @add_namestr, i32 0, i32 0)), !llfi_injectfault !11
  %93 = call i32* @_ZNSt6vectorIiSaIiEEixEm(%"class.std::vector"* %result, i64 %fi51) #0, !llfi_index !327
  %94 = load i32* %93, !llfi_index !328
  %fi52 = call i32 @injectFault9(i64 327, i32 %94, i32 27, i32 0, i32 1, i32 0, i8* getelementptr inbounds ([5 x i8]* @load_namestr, i32 0, i32 0)), !llfi_injectfault !11
  %95 = icmp sgt i32 %fi49, %fi52, !llfi_index !329
  %fi53 = call i1 @injectFault4(i64 328, i1 %95, i32 46, i32 0, i32 1, i32 0, i8* getelementptr inbounds ([5 x i8]* @icmp_namestr, i32 0, i32 0)), !llfi_injectfault !11
  br i1 %fi53, label %96, label %97, !llfi_index !330

; <label>:96                                      ; preds = %87
  store i8 0, i8* %passed, align 1, !llfi_index !331
  br label %101, !llfi_index !332

; <label>:97                                      ; preds = %87
  br label %98, !llfi_index !333

; <label>:98                                      ; preds = %97
  %99 = load i64* %i, align 8, !llfi_index !334
  %fi54 = call i64 @injectFault16(i64 333, i64 %99, i32 27, i32 0, i32 1, i32 0, i8* getelementptr inbounds ([5 x i8]* @load_namestr, i32 0, i32 0)), !llfi_injectfault !11
  %100 = add i64 %fi54, 1, !llfi_index !335
  %fi55 = call i64 @injectFault16(i64 334, i64 %100, i32 8, i32 0, i32 1, i32 0, i8* getelementptr inbounds ([4 x i8]* @add_namestr, i32 0, i32 0)), !llfi_injectfault !11
  store i64 %fi55, i64* %i, align 8, !llfi_index !336
  br label %82, !llfi_index !337

; <label>:101                                     ; preds = %96, %82
  %102 = load i8* %passed, align 1, !llfi_index !338
  %fi56 = call i8 @injectFault19(i64 337, i8 %102, i32 27, i32 0, i32 1, i32 0, i8* getelementptr inbounds ([5 x i8]* @load_namestr, i32 0, i32 0)), !llfi_injectfault !11
  %103 = trunc i8 %fi56 to i1, !llfi_index !339
  %fi57 = call i1 @injectFault4(i64 338, i1 %103, i32 33, i32 0, i32 1, i32 0, i8* getelementptr inbounds ([6 x i8]* @trunc_namestr, i32 0, i32 0)), !llfi_injectfault !11
  br i1 %fi57, label %104, label %109, !llfi_index !340

; <label>:104                                     ; preds = %101
  %105 = call zeroext i1 @_ZNKSt6vectorIiSaIiEE5emptyEv(%"class.std::vector"* %result) #0, !llfi_index !341
  br i1 %105, label %109, label %106, !llfi_index !342

; <label>:106                                     ; preds = %104
  %107 = call %"class.std::basic_ostream"* @_ZStlsISt11char_traitsIcEERSt13basic_ostreamIcT_ES5_PKc(%"class.std::basic_ostream"* @_ZSt4cout, i8* getelementptr inbounds ([20 x i8]* @.str1, i32 0, i32 0)), !llfi_index !343
  %108 = call %"class.std::basic_ostream"* @_ZNSolsEPFRSoS_E(%"class.std::basic_ostream"* %107, %"class.std::basic_ostream"* (%"class.std::basic_ostream"*)* @_ZSt4endlIcSt11char_traitsIcEERSt13basic_ostreamIT_T0_ES6_), !llfi_index !344
  br label %112, !llfi_index !345

; <label>:109                                     ; preds = %104, %101
  %110 = call %"class.std::basic_ostream"* @_ZStlsISt11char_traitsIcEERSt13basic_ostreamIcT_ES5_PKc(%"class.std::basic_ostream"* @_ZSt4cout, i8* getelementptr inbounds ([7 x i8]* @.str2, i32 0, i32 0)), !llfi_index !346
  %111 = call %"class.std::basic_ostream"* @_ZNSolsEPFRSoS_E(%"class.std::basic_ostream"* %110, %"class.std::basic_ostream"* (%"class.std::basic_ostream"*)* @_ZSt4endlIcSt11char_traitsIcEERSt13basic_ostreamIT_T0_ES6_), !llfi_index !347
  br label %112, !llfi_index !348

; <label>:112                                     ; preds = %109, %106
  store i32 0, i32* %1, !llfi_index !349
  store i32 1, i32* %8, !llfi_index !350
  call void @_ZNSt6vectorIiSaIiEED2Ev(%"class.std::vector"* %result) #0, !llfi_index !351
  call void @_ZNSt14basic_ifstreamIcSt11char_traitsIcEED1Ev(%"class.std::basic_ifstream"* %file) #0, !llfi_index !352
  call void @_ZNSt7__cxx1112basic_stringIcSt11char_traitsIcESaIcEED1Ev(%"class.std::__cxx11::basic_string"* %filename) #0, !llfi_index !353
  %113 = load i32* %1, !llfi_index !354
  %fi5 = call i32 @injectFault9(i64 353, i32 %113, i32 27, i32 0, i32 1, i32 0, i8* getelementptr inbounds ([5 x i8]* @load_namestr, i32 0, i32 0)), !llfi_injectfault !11
  call void @postInjections()
  ret i32 %fi5, !llfi_index !355
}

declare void @_ZNSt7__cxx1112basic_stringIcSt11char_traitsIcESaIcEEC1EPKcRKS3_(%"class.std::__cxx11::basic_string"*, i8*, %"class.std::allocator.0"*) #1

; Function Attrs: nounwind
declare void @_ZNSaIcEC1Ev(%"class.std::allocator.0"*) #2

; Function Attrs: nounwind
declare void @_ZNSaIcED1Ev(%"class.std::allocator.0"*) #2

declare %"class.std::__cxx11::basic_string"* @_ZNSt7__cxx1112basic_stringIcSt11char_traitsIcESaIcEEaSEPKc(%"class.std::__cxx11::basic_string"*, i8*) #1

declare void @_ZNSt14basic_ifstreamIcSt11char_traitsIcEEC1EPKcSt13_Ios_Openmode(%"class.std::basic_ifstream"*, i8*, i32) #1

; Function Attrs: nounwind
declare i8* @_ZNKSt7__cxx1112basic_stringIcSt11char_traitsIcESaIcEE5c_strEv(%"class.std::__cxx11::basic_string"*) #2

declare zeroext i1 @_ZNSt14basic_ifstreamIcSt11char_traitsIcEE7is_openEv(%"class.std::basic_ifstream"*) #1

; Function Attrs: nounwind uwtable
define linkonce_odr void @_ZNSt6vectorIiSaIiEEC2ESt16initializer_listIiERKS0_(%"class.std::vector"* %this, i32* %__l.coerce0, i64 %__l.coerce1, %"class.std::allocator"* %__a) unnamed_addr #3 align 2 {
  %1 = alloca %"class.std::vector"*, align 8, !llfi_index !356
  %__l = alloca %"class.std::initializer_list", align 8, !llfi_index !357
  %2 = alloca %"class.std::allocator"*, align 8, !llfi_index !358
  %3 = alloca %"struct.std::forward_iterator_tag", align 1, !llfi_index !359
  %4 = alloca %"struct.std::random_access_iterator_tag", align 1, !llfi_index !360
  store %"class.std::vector"* %this, %"class.std::vector"** %1, align 8, !llfi_index !361
  %5 = bitcast %"class.std::initializer_list"* %__l to { i32*, i64 }*, !llfi_index !362
  %fi = call { i32*, i64 }* @injectFault15(i64 361, { i32*, i64 }* %5, i32 44, i32 0, i32 1, i32 0, i8* getelementptr inbounds ([8 x i8]* @bitcast_namestr, i32 0, i32 0)), !llfi_injectfault !11
  %6 = getelementptr { i32*, i64 }* %fi, i32 0, i32 0, !llfi_index !363
  %fi1 = call i32** @injectFault0(i64 362, i32** %6, i32 29, i32 0, i32 1, i32 0, i8* getelementptr inbounds ([14 x i8]* @getelementptr_namestr, i32 0, i32 0)), !llfi_injectfault !11
  store i32* %__l.coerce0, i32** %fi1, !llfi_index !364
  %7 = getelementptr { i32*, i64 }* %fi, i32 0, i32 1, !llfi_index !365
  %fi2 = call i64* @injectFault14(i64 364, i64* %7, i32 29, i32 0, i32 1, i32 0, i8* getelementptr inbounds ([14 x i8]* @getelementptr_namestr, i32 0, i32 0)), !llfi_injectfault !11
  store i64 %__l.coerce1, i64* %fi2, !llfi_index !366
  store %"class.std::allocator"* %__a, %"class.std::allocator"** %2, align 8, !llfi_index !367
  %8 = load %"class.std::vector"** %1, !llfi_index !368
  %fi3 = call %"class.std::vector"* @injectFault5(i64 367, %"class.std::vector"* %8, i32 27, i32 0, i32 1, i32 0, i8* getelementptr inbounds ([5 x i8]* @load_namestr, i32 0, i32 0)), !llfi_injectfault !11
  %9 = bitcast %"class.std::vector"* %fi3 to %"struct.std::_Vector_base"*, !llfi_index !369
  %fi4 = call %"struct.std::_Vector_base"* @injectFault6(i64 368, %"struct.std::_Vector_base"* %9, i32 44, i32 0, i32 1, i32 0, i8* getelementptr inbounds ([8 x i8]* @bitcast_namestr, i32 0, i32 0)), !llfi_injectfault !11
  %10 = load %"class.std::allocator"** %2, align 8, !llfi_index !370
  %fi5 = call %"class.std::allocator"* @injectFault8(i64 369, %"class.std::allocator"* %10, i32 27, i32 0, i32 1, i32 0, i8* getelementptr inbounds ([5 x i8]* @load_namestr, i32 0, i32 0)), !llfi_injectfault !11
  call void @_ZNSt12_Vector_baseIiSaIiEEC2ERKS0_(%"struct.std::_Vector_base"* %fi4, %"class.std::allocator"* %fi5) #0, !llfi_index !371
  %11 = call i32* @_ZNKSt16initializer_listIiE5beginEv(%"class.std::initializer_list"* %__l) #0, !llfi_index !372
  %12 = call i32* @_ZNKSt16initializer_listIiE3endEv(%"class.std::initializer_list"* %__l) #0, !llfi_index !373
  %13 = bitcast %"struct.std::random_access_iterator_tag"* %4 to %"struct.std::forward_iterator_tag"*, !llfi_index !374
  %fi6 = call %"struct.std::forward_iterator_tag"* @injectFault20(i64 373, %"struct.std::forward_iterator_tag"* %13, i32 44, i32 0, i32 1, i32 0, i8* getelementptr inbounds ([8 x i8]* @bitcast_namestr, i32 0, i32 0)), !llfi_injectfault !11
  call void @_ZNSt6vectorIiSaIiEE19_M_range_initializeIPKiEEvT_S5_St20forward_iterator_tag(%"class.std::vector"* %fi3, i32* %11, i32* %12), !llfi_index !375
  ret void, !llfi_index !376
}

; Function Attrs: nounwind uwtable
define linkonce_odr void @_ZNSaIiEC2Ev(%"class.std::allocator"* %this) unnamed_addr #3 align 2 {
  %1 = alloca %"class.std::allocator"*, align 8, !llfi_index !377
  store %"class.std::allocator"* %this, %"class.std::allocator"** %1, align 8, !llfi_index !378
  %2 = load %"class.std::allocator"** %1, !llfi_index !379
  %fi = call %"class.std::allocator"* @injectFault8(i64 378, %"class.std::allocator"* %2, i32 27, i32 0, i32 1, i32 0, i8* getelementptr inbounds ([5 x i8]* @load_namestr, i32 0, i32 0)), !llfi_injectfault !11
  %3 = bitcast %"class.std::allocator"* %fi to %"class.__gnu_cxx::new_allocator"*, !llfi_index !380
  %fi1 = call %"class.__gnu_cxx::new_allocator"* @injectFault12(i64 379, %"class.__gnu_cxx::new_allocator"* %3, i32 44, i32 0, i32 1, i32 0, i8* getelementptr inbounds ([8 x i8]* @bitcast_namestr, i32 0, i32 0)), !llfi_injectfault !11
  call void @_ZN9__gnu_cxx13new_allocatorIiEC2Ev(%"class.__gnu_cxx::new_allocator"* %fi1) #0, !llfi_index !381
  ret void, !llfi_index !382
}

; Function Attrs: nounwind uwtable
define linkonce_odr void @_ZNSaIiED2Ev(%"class.std::allocator"* %this) unnamed_addr #3 align 2 {
  %1 = alloca %"class.std::allocator"*, align 8, !llfi_index !383
  store %"class.std::allocator"* %this, %"class.std::allocator"** %1, align 8, !llfi_index !384
  %2 = load %"class.std::allocator"** %1, !llfi_index !385
  %fi1 = call %"class.std::allocator"* @injectFault8(i64 384, %"class.std::allocator"* %2, i32 27, i32 0, i32 1, i32 0, i8* getelementptr inbounds ([5 x i8]* @load_namestr, i32 0, i32 0)), !llfi_injectfault !11
  %3 = bitcast %"class.std::allocator"* %fi1 to %"class.__gnu_cxx::new_allocator"*, !llfi_index !386
  %fi = call %"class.__gnu_cxx::new_allocator"* @injectFault12(i64 385, %"class.__gnu_cxx::new_allocator"* %3, i32 44, i32 0, i32 1, i32 0, i8* getelementptr inbounds ([8 x i8]* @bitcast_namestr, i32 0, i32 0)), !llfi_injectfault !11
  call void @_ZN9__gnu_cxx13new_allocatorIiED2Ev(%"class.__gnu_cxx::new_allocator"* %fi) #0, !llfi_index !387
  ret void, !llfi_index !388
}

; Function Attrs: nounwind uwtable
define linkonce_odr i32* @_ZNSt6vectorIiSaIiEE5beginEv(%"class.std::vector"* %this) #3 align 2 {
  %1 = alloca %"class.__gnu_cxx::__normal_iterator", align 8, !llfi_index !389
  %2 = alloca %"class.std::vector"*, align 8, !llfi_index !390
  store %"class.std::vector"* %this, %"class.std::vector"** %2, align 8, !llfi_index !391
  %3 = load %"class.std::vector"** %2, !llfi_index !392
  %fi = call %"class.std::vector"* @injectFault5(i64 391, %"class.std::vector"* %3, i32 27, i32 0, i32 1, i32 0, i8* getelementptr inbounds ([5 x i8]* @load_namestr, i32 0, i32 0)), !llfi_injectfault !11
  %4 = bitcast %"class.std::vector"* %fi to %"struct.std::_Vector_base"*, !llfi_index !393
  %fi1 = call %"struct.std::_Vector_base"* @injectFault6(i64 392, %"struct.std::_Vector_base"* %4, i32 44, i32 0, i32 1, i32 0, i8* getelementptr inbounds ([8 x i8]* @bitcast_namestr, i32 0, i32 0)), !llfi_injectfault !11
  %5 = getelementptr %"struct.std::_Vector_base"* %fi1, i32 0, i32 0, !llfi_index !394
  %fi2 = call %"struct.std::_Vector_base<int, std::allocator<int> >::_Vector_impl"* @injectFault7(i64 393, %"struct.std::_Vector_base<int, std::allocator<int> >::_Vector_impl"* %5, i32 29, i32 0, i32 1, i32 0, i8* getelementptr inbounds ([14 x i8]* @getelementptr_namestr, i32 0, i32 0)), !llfi_injectfault !11
  %6 = getelementptr %"struct.std::_Vector_base<int, std::allocator<int> >::_Vector_impl"* %fi2, i32 0, i32 0, !llfi_index !395
  %fi3 = call i32** @injectFault0(i64 394, i32** %6, i32 29, i32 0, i32 1, i32 0, i8* getelementptr inbounds ([14 x i8]* @getelementptr_namestr, i32 0, i32 0)), !llfi_injectfault !11
  call void @_ZN9__gnu_cxx17__normal_iteratorIPiSt6vectorIiSaIiEEEC2ERKS1_(%"class.__gnu_cxx::__normal_iterator"* %1, i32** %fi3) #0, !llfi_index !396
  %7 = getelementptr %"class.__gnu_cxx::__normal_iterator"* %1, i32 0, i32 0, !llfi_index !397
  %fi4 = call i32** @injectFault0(i64 396, i32** %7, i32 29, i32 0, i32 1, i32 0, i8* getelementptr inbounds ([14 x i8]* @getelementptr_namestr, i32 0, i32 0)), !llfi_injectfault !11
  %8 = load i32** %fi4, !llfi_index !398
  %fi5 = call i32* @injectFault1(i64 397, i32* %8, i32 27, i32 0, i32 1, i32 0, i8* getelementptr inbounds ([5 x i8]* @load_namestr, i32 0, i32 0)), !llfi_injectfault !11
  ret i32* %fi5, !llfi_index !399
}

; Function Attrs: nounwind uwtable
define linkonce_odr i32* @_ZNSt6vectorIiSaIiEE3endEv(%"class.std::vector"* %this) #3 align 2 {
  %1 = alloca %"class.__gnu_cxx::__normal_iterator", align 8, !llfi_index !400
  %2 = alloca %"class.std::vector"*, align 8, !llfi_index !401
  store %"class.std::vector"* %this, %"class.std::vector"** %2, align 8, !llfi_index !402
  %3 = load %"class.std::vector"** %2, !llfi_index !403
  %fi = call %"class.std::vector"* @injectFault5(i64 402, %"class.std::vector"* %3, i32 27, i32 0, i32 1, i32 0, i8* getelementptr inbounds ([5 x i8]* @load_namestr, i32 0, i32 0)), !llfi_injectfault !11
  %4 = bitcast %"class.std::vector"* %fi to %"struct.std::_Vector_base"*, !llfi_index !404
  %fi1 = call %"struct.std::_Vector_base"* @injectFault6(i64 403, %"struct.std::_Vector_base"* %4, i32 44, i32 0, i32 1, i32 0, i8* getelementptr inbounds ([8 x i8]* @bitcast_namestr, i32 0, i32 0)), !llfi_injectfault !11
  %5 = getelementptr %"struct.std::_Vector_base"* %fi1, i32 0, i32 0, !llfi_index !405
  %fi2 = call %"struct.std::_Vector_base<int, std::allocator<int> >::_Vector_impl"* @injectFault7(i64 404, %"struct.std::_Vector_base<int, std::allocator<int> >::_Vector_impl"* %5, i32 29, i32 0, i32 1, i32 0, i8* getelementptr inbounds ([14 x i8]* @getelementptr_namestr, i32 0, i32 0)), !llfi_injectfault !11
  %6 = getelementptr %"struct.std::_Vector_base<int, std::allocator<int> >::_Vector_impl"* %fi2, i32 0, i32 1, !llfi_index !406
  %fi3 = call i32** @injectFault0(i64 405, i32** %6, i32 29, i32 0, i32 1, i32 0, i8* getelementptr inbounds ([14 x i8]* @getelementptr_namestr, i32 0, i32 0)), !llfi_injectfault !11
  call void @_ZN9__gnu_cxx17__normal_iteratorIPiSt6vectorIiSaIiEEEC2ERKS1_(%"class.__gnu_cxx::__normal_iterator"* %1, i32** %fi3) #0, !llfi_index !407
  %7 = getelementptr %"class.__gnu_cxx::__normal_iterator"* %1, i32 0, i32 0, !llfi_index !408
  %fi4 = call i32** @injectFault0(i64 407, i32** %7, i32 29, i32 0, i32 1, i32 0, i8* getelementptr inbounds ([14 x i8]* @getelementptr_namestr, i32 0, i32 0)), !llfi_injectfault !11
  %8 = load i32** %fi4, !llfi_index !409
  %fi5 = call i32* @injectFault1(i64 408, i32* %8, i32 27, i32 0, i32 1, i32 0, i8* getelementptr inbounds ([5 x i8]* @load_namestr, i32 0, i32 0)), !llfi_injectfault !11
  ret i32* %fi5, !llfi_index !410
}

; Function Attrs: inlinehint nounwind uwtable
define linkonce_odr zeroext i1 @_ZN9__gnu_cxxneIPiSt6vectorIiSaIiEEEEbRKNS_17__normal_iteratorIT_T0_EESA_(%"class.__gnu_cxx::__normal_iterator"* %__lhs, %"class.__gnu_cxx::__normal_iterator"* %__rhs) #5 {
  %1 = alloca %"class.__gnu_cxx::__normal_iterator"*, align 8, !llfi_index !411
  %2 = alloca %"class.__gnu_cxx::__normal_iterator"*, align 8, !llfi_index !412
  store %"class.__gnu_cxx::__normal_iterator"* %__lhs, %"class.__gnu_cxx::__normal_iterator"** %1, align 8, !llfi_index !413
  store %"class.__gnu_cxx::__normal_iterator"* %__rhs, %"class.__gnu_cxx::__normal_iterator"** %2, align 8, !llfi_index !414
  %3 = load %"class.__gnu_cxx::__normal_iterator"** %1, align 8, !llfi_index !415
  %fi = call %"class.__gnu_cxx::__normal_iterator"* @injectFault13(i64 414, %"class.__gnu_cxx::__normal_iterator"* %3, i32 27, i32 0, i32 1, i32 0, i8* getelementptr inbounds ([5 x i8]* @load_namestr, i32 0, i32 0)), !llfi_injectfault !11
  %4 = call i32** @_ZNK9__gnu_cxx17__normal_iteratorIPiSt6vectorIiSaIiEEE4baseEv(%"class.__gnu_cxx::__normal_iterator"* %fi) #0, !llfi_index !416
  %5 = load i32** %4, !llfi_index !417
  %fi1 = call i32* @injectFault1(i64 416, i32* %5, i32 27, i32 0, i32 1, i32 0, i8* getelementptr inbounds ([5 x i8]* @load_namestr, i32 0, i32 0)), !llfi_injectfault !11
  %6 = load %"class.__gnu_cxx::__normal_iterator"** %2, align 8, !llfi_index !418
  %fi2 = call %"class.__gnu_cxx::__normal_iterator"* @injectFault13(i64 417, %"class.__gnu_cxx::__normal_iterator"* %6, i32 27, i32 0, i32 1, i32 0, i8* getelementptr inbounds ([5 x i8]* @load_namestr, i32 0, i32 0)), !llfi_injectfault !11
  %7 = call i32** @_ZNK9__gnu_cxx17__normal_iteratorIPiSt6vectorIiSaIiEEE4baseEv(%"class.__gnu_cxx::__normal_iterator"* %fi2) #0, !llfi_index !419
  %8 = load i32** %7, !llfi_index !420
  %fi3 = call i32* @injectFault1(i64 419, i32* %8, i32 27, i32 0, i32 1, i32 0, i8* getelementptr inbounds ([5 x i8]* @load_namestr, i32 0, i32 0)), !llfi_injectfault !11
  %9 = icmp ne i32* %fi1, %fi3, !llfi_index !421
  %fi4 = call i1 @injectFault4(i64 420, i1 %9, i32 46, i32 0, i32 1, i32 0, i8* getelementptr inbounds ([5 x i8]* @icmp_namestr, i32 0, i32 0)), !llfi_injectfault !11
  ret i1 %fi4, !llfi_index !422
}

; Function Attrs: nounwind uwtable
define linkonce_odr i32* @_ZNK9__gnu_cxx17__normal_iteratorIPiSt6vectorIiSaIiEEEdeEv(%"class.__gnu_cxx::__normal_iterator"* %this) #3 align 2 {
  %1 = alloca %"class.__gnu_cxx::__normal_iterator"*, align 8, !llfi_index !423
  store %"class.__gnu_cxx::__normal_iterator"* %this, %"class.__gnu_cxx::__normal_iterator"** %1, align 8, !llfi_index !424
  %2 = load %"class.__gnu_cxx::__normal_iterator"** %1, !llfi_index !425
  %fi = call %"class.__gnu_cxx::__normal_iterator"* @injectFault13(i64 424, %"class.__gnu_cxx::__normal_iterator"* %2, i32 27, i32 0, i32 1, i32 0, i8* getelementptr inbounds ([5 x i8]* @load_namestr, i32 0, i32 0)), !llfi_injectfault !11
  %3 = getelementptr %"class.__gnu_cxx::__normal_iterator"* %fi, i32 0, i32 0, !llfi_index !426
  %fi1 = call i32** @injectFault0(i64 425, i32** %3, i32 29, i32 0, i32 1, i32 0, i8* getelementptr inbounds ([14 x i8]* @getelementptr_namestr, i32 0, i32 0)), !llfi_injectfault !11
  %4 = load i32** %fi1, align 8, !llfi_index !427
  %fi2 = call i32* @injectFault1(i64 426, i32* %4, i32 27, i32 0, i32 1, i32 0, i8* getelementptr inbounds ([5 x i8]* @load_namestr, i32 0, i32 0)), !llfi_injectfault !11
  ret i32* %fi2, !llfi_index !428
}

; Function Attrs: nounwind uwtable
define linkonce_odr %"class.__gnu_cxx::__normal_iterator"* @_ZN9__gnu_cxx17__normal_iteratorIPiSt6vectorIiSaIiEEEppEv(%"class.__gnu_cxx::__normal_iterator"* %this) #3 align 2 {
  %1 = alloca %"class.__gnu_cxx::__normal_iterator"*, align 8, !llfi_index !429
  store %"class.__gnu_cxx::__normal_iterator"* %this, %"class.__gnu_cxx::__normal_iterator"** %1, align 8, !llfi_index !430
  %2 = load %"class.__gnu_cxx::__normal_iterator"** %1, !llfi_index !431
  %fi = call %"class.__gnu_cxx::__normal_iterator"* @injectFault13(i64 430, %"class.__gnu_cxx::__normal_iterator"* %2, i32 27, i32 0, i32 1, i32 0, i8* getelementptr inbounds ([5 x i8]* @load_namestr, i32 0, i32 0)), !llfi_injectfault !11
  %3 = getelementptr %"class.__gnu_cxx::__normal_iterator"* %fi, i32 0, i32 0, !llfi_index !432
  %fi1 = call i32** @injectFault0(i64 431, i32** %3, i32 29, i32 0, i32 1, i32 0, i8* getelementptr inbounds ([14 x i8]* @getelementptr_namestr, i32 0, i32 0)), !llfi_injectfault !11
  %4 = load i32** %fi1, align 8, !llfi_index !433
  %fi2 = call i32* @injectFault1(i64 432, i32* %4, i32 27, i32 0, i32 1, i32 0, i8* getelementptr inbounds ([5 x i8]* @load_namestr, i32 0, i32 0)), !llfi_injectfault !11
  %5 = getelementptr i32* %fi2, i32 1, !llfi_index !434
  %fi3 = call i32* @injectFault1(i64 433, i32* %5, i32 29, i32 0, i32 1, i32 0, i8* getelementptr inbounds ([14 x i8]* @getelementptr_namestr, i32 0, i32 0)), !llfi_injectfault !11
  store i32* %fi3, i32** %fi1, align 8, !llfi_index !435
  ret %"class.__gnu_cxx::__normal_iterator"* %fi, !llfi_index !436
}

; Function Attrs: nounwind uwtable
define linkonce_odr void @_ZNSt6vectorIiSaIiEED2Ev(%"class.std::vector"* %this) unnamed_addr #3 align 2 {
  %1 = alloca %"class.std::vector"*, align 8, !llfi_index !437
  store %"class.std::vector"* %this, %"class.std::vector"** %1, align 8, !llfi_index !438
  %2 = load %"class.std::vector"** %1, !llfi_index !439
  %fi1 = call %"class.std::vector"* @injectFault5(i64 438, %"class.std::vector"* %2, i32 27, i32 0, i32 1, i32 0, i8* getelementptr inbounds ([5 x i8]* @load_namestr, i32 0, i32 0)), !llfi_injectfault !11
  %3 = bitcast %"class.std::vector"* %fi1 to %"struct.std::_Vector_base"*, !llfi_index !440
  %fi2 = call %"struct.std::_Vector_base"* @injectFault6(i64 439, %"struct.std::_Vector_base"* %3, i32 44, i32 0, i32 1, i32 0, i8* getelementptr inbounds ([8 x i8]* @bitcast_namestr, i32 0, i32 0)), !llfi_injectfault !11
  %4 = getelementptr %"struct.std::_Vector_base"* %fi2, i32 0, i32 0, !llfi_index !441
  %fi3 = call %"struct.std::_Vector_base<int, std::allocator<int> >::_Vector_impl"* @injectFault7(i64 440, %"struct.std::_Vector_base<int, std::allocator<int> >::_Vector_impl"* %4, i32 29, i32 0, i32 1, i32 0, i8* getelementptr inbounds ([14 x i8]* @getelementptr_namestr, i32 0, i32 0)), !llfi_injectfault !11
  %5 = getelementptr %"struct.std::_Vector_base<int, std::allocator<int> >::_Vector_impl"* %fi3, i32 0, i32 0, !llfi_index !442
  %fi4 = call i32** @injectFault0(i64 441, i32** %5, i32 29, i32 0, i32 1, i32 0, i8* getelementptr inbounds ([14 x i8]* @getelementptr_namestr, i32 0, i32 0)), !llfi_injectfault !11
  %6 = load i32** %fi4, align 8, !llfi_index !443
  %fi5 = call i32* @injectFault1(i64 442, i32* %6, i32 27, i32 0, i32 1, i32 0, i8* getelementptr inbounds ([5 x i8]* @load_namestr, i32 0, i32 0)), !llfi_injectfault !11
  %7 = bitcast %"class.std::vector"* %fi1 to %"struct.std::_Vector_base"*, !llfi_index !444
  %fi6 = call %"struct.std::_Vector_base"* @injectFault6(i64 443, %"struct.std::_Vector_base"* %7, i32 44, i32 0, i32 1, i32 0, i8* getelementptr inbounds ([8 x i8]* @bitcast_namestr, i32 0, i32 0)), !llfi_injectfault !11
  %8 = getelementptr %"struct.std::_Vector_base"* %fi6, i32 0, i32 0, !llfi_index !445
  %fi7 = call %"struct.std::_Vector_base<int, std::allocator<int> >::_Vector_impl"* @injectFault7(i64 444, %"struct.std::_Vector_base<int, std::allocator<int> >::_Vector_impl"* %8, i32 29, i32 0, i32 1, i32 0, i8* getelementptr inbounds ([14 x i8]* @getelementptr_namestr, i32 0, i32 0)), !llfi_injectfault !11
  %9 = getelementptr %"struct.std::_Vector_base<int, std::allocator<int> >::_Vector_impl"* %fi7, i32 0, i32 1, !llfi_index !446
  %fi8 = call i32** @injectFault0(i64 445, i32** %9, i32 29, i32 0, i32 1, i32 0, i8* getelementptr inbounds ([14 x i8]* @getelementptr_namestr, i32 0, i32 0)), !llfi_injectfault !11
  %10 = load i32** %fi8, align 8, !llfi_index !447
  %fi9 = call i32* @injectFault1(i64 446, i32* %10, i32 27, i32 0, i32 1, i32 0, i8* getelementptr inbounds ([5 x i8]* @load_namestr, i32 0, i32 0)), !llfi_injectfault !11
  %11 = bitcast %"class.std::vector"* %fi1 to %"struct.std::_Vector_base"*, !llfi_index !448
  %fi10 = call %"struct.std::_Vector_base"* @injectFault6(i64 447, %"struct.std::_Vector_base"* %11, i32 44, i32 0, i32 1, i32 0, i8* getelementptr inbounds ([8 x i8]* @bitcast_namestr, i32 0, i32 0)), !llfi_injectfault !11
  %12 = call %"class.std::allocator"* @_ZNSt12_Vector_baseIiSaIiEE19_M_get_Tp_allocatorEv(%"struct.std::_Vector_base"* %fi10) #0, !llfi_index !449
  call void @_ZSt8_DestroyIPiiEvT_S1_RSaIT0_E(i32* %fi5, i32* %fi9, %"class.std::allocator"* %12), !llfi_index !450
  %13 = bitcast %"class.std::vector"* %fi1 to %"struct.std::_Vector_base"*, !llfi_index !451
  %fi = call %"struct.std::_Vector_base"* @injectFault6(i64 450, %"struct.std::_Vector_base"* %13, i32 44, i32 0, i32 1, i32 0, i8* getelementptr inbounds ([8 x i8]* @bitcast_namestr, i32 0, i32 0)), !llfi_injectfault !11
  call void @_ZNSt12_Vector_baseIiSaIiEED2Ev(%"struct.std::_Vector_base"* %fi) #0, !llfi_index !452
  ret void, !llfi_index !453
}

declare %"class.std::basic_istream"* @_ZNSirsERi(%"class.std::basic_istream"*, i32*) #1

declare zeroext i1 @_ZNKSt9basic_iosIcSt11char_traitsIcEEcvbEv(%"class.std::basic_ios"*) #1

declare void @_ZNSt14basic_ifstreamIcSt11char_traitsIcEE5closeEv(%"class.std::basic_ifstream"*) #1

; Function Attrs: nounwind uwtable
define linkonce_odr void @_ZNSt6vectorIiSaIiEEC2Ev(%"class.std::vector"* %this) unnamed_addr #3 align 2 {
  %1 = alloca %"class.std::vector"*, align 8, !llfi_index !454
  store %"class.std::vector"* %this, %"class.std::vector"** %1, align 8, !llfi_index !455
  %2 = load %"class.std::vector"** %1, !llfi_index !456
  %fi = call %"class.std::vector"* @injectFault5(i64 455, %"class.std::vector"* %2, i32 27, i32 0, i32 1, i32 0, i8* getelementptr inbounds ([5 x i8]* @load_namestr, i32 0, i32 0)), !llfi_injectfault !11
  %3 = bitcast %"class.std::vector"* %fi to %"struct.std::_Vector_base"*, !llfi_index !457
  %fi1 = call %"struct.std::_Vector_base"* @injectFault6(i64 456, %"struct.std::_Vector_base"* %3, i32 44, i32 0, i32 1, i32 0, i8* getelementptr inbounds ([8 x i8]* @bitcast_namestr, i32 0, i32 0)), !llfi_injectfault !11
  call void @_ZNSt12_Vector_baseIiSaIiEEC2Ev(%"struct.std::_Vector_base"* %fi1), !llfi_index !458
  ret void, !llfi_index !459
}

; Function Attrs: nounwind uwtable
define linkonce_odr i64 @_ZNKSt6vectorIiSaIiEE4sizeEv(%"class.std::vector"* %this) #3 align 2 {
  %1 = alloca %"class.std::vector"*, align 8, !llfi_index !460
  store %"class.std::vector"* %this, %"class.std::vector"** %1, align 8, !llfi_index !461
  %2 = load %"class.std::vector"** %1, !llfi_index !462
  %fi = call %"class.std::vector"* @injectFault5(i64 461, %"class.std::vector"* %2, i32 27, i32 0, i32 1, i32 0, i8* getelementptr inbounds ([5 x i8]* @load_namestr, i32 0, i32 0)), !llfi_injectfault !11
  %3 = bitcast %"class.std::vector"* %fi to %"struct.std::_Vector_base"*, !llfi_index !463
  %fi1 = call %"struct.std::_Vector_base"* @injectFault6(i64 462, %"struct.std::_Vector_base"* %3, i32 44, i32 0, i32 1, i32 0, i8* getelementptr inbounds ([8 x i8]* @bitcast_namestr, i32 0, i32 0)), !llfi_injectfault !11
  %4 = getelementptr %"struct.std::_Vector_base"* %fi1, i32 0, i32 0, !llfi_index !464
  %fi2 = call %"struct.std::_Vector_base<int, std::allocator<int> >::_Vector_impl"* @injectFault7(i64 463, %"struct.std::_Vector_base<int, std::allocator<int> >::_Vector_impl"* %4, i32 29, i32 0, i32 1, i32 0, i8* getelementptr inbounds ([14 x i8]* @getelementptr_namestr, i32 0, i32 0)), !llfi_injectfault !11
  %5 = getelementptr %"struct.std::_Vector_base<int, std::allocator<int> >::_Vector_impl"* %fi2, i32 0, i32 1, !llfi_index !465
  %fi3 = call i32** @injectFault0(i64 464, i32** %5, i32 29, i32 0, i32 1, i32 0, i8* getelementptr inbounds ([14 x i8]* @getelementptr_namestr, i32 0, i32 0)), !llfi_injectfault !11
  %6 = load i32** %fi3, align 8, !llfi_index !466
  %fi4 = call i32* @injectFault1(i64 465, i32* %6, i32 27, i32 0, i32 1, i32 0, i8* getelementptr inbounds ([5 x i8]* @load_namestr, i32 0, i32 0)), !llfi_injectfault !11
  %7 = bitcast %"class.std::vector"* %fi to %"struct.std::_Vector_base"*, !llfi_index !467
  %fi5 = call %"struct.std::_Vector_base"* @injectFault6(i64 466, %"struct.std::_Vector_base"* %7, i32 44, i32 0, i32 1, i32 0, i8* getelementptr inbounds ([8 x i8]* @bitcast_namestr, i32 0, i32 0)), !llfi_injectfault !11
  %8 = getelementptr %"struct.std::_Vector_base"* %fi5, i32 0, i32 0, !llfi_index !468
  %fi6 = call %"struct.std::_Vector_base<int, std::allocator<int> >::_Vector_impl"* @injectFault7(i64 467, %"struct.std::_Vector_base<int, std::allocator<int> >::_Vector_impl"* %8, i32 29, i32 0, i32 1, i32 0, i8* getelementptr inbounds ([14 x i8]* @getelementptr_namestr, i32 0, i32 0)), !llfi_injectfault !11
  %9 = getelementptr %"struct.std::_Vector_base<int, std::allocator<int> >::_Vector_impl"* %fi6, i32 0, i32 0, !llfi_index !469
  %fi7 = call i32** @injectFault0(i64 468, i32** %9, i32 29, i32 0, i32 1, i32 0, i8* getelementptr inbounds ([14 x i8]* @getelementptr_namestr, i32 0, i32 0)), !llfi_injectfault !11
  %10 = load i32** %fi7, align 8, !llfi_index !470
  %fi8 = call i32* @injectFault1(i64 469, i32* %10, i32 27, i32 0, i32 1, i32 0, i8* getelementptr inbounds ([5 x i8]* @load_namestr, i32 0, i32 0)), !llfi_injectfault !11
  %11 = ptrtoint i32* %fi4 to i64, !llfi_index !471
  %fi9 = call i64 @injectFault16(i64 470, i64 %11, i32 42, i32 0, i32 1, i32 0, i8* getelementptr inbounds ([9 x i8]* @ptrtoint_namestr, i32 0, i32 0)), !llfi_injectfault !11
  %12 = ptrtoint i32* %fi8 to i64, !llfi_index !472
  %fi10 = call i64 @injectFault16(i64 471, i64 %12, i32 42, i32 0, i32 1, i32 0, i8* getelementptr inbounds ([9 x i8]* @ptrtoint_namestr, i32 0, i32 0)), !llfi_injectfault !11
  %13 = sub i64 %fi9, %fi10, !llfi_index !473
  %fi11 = call i64 @injectFault16(i64 472, i64 %13, i32 10, i32 0, i32 1, i32 0, i8* getelementptr inbounds ([4 x i8]* @sub_namestr, i32 0, i32 0)), !llfi_injectfault !11
  %14 = sdiv exact i64 %fi11, 4, !llfi_index !474
  %fi12 = call i64 @injectFault16(i64 473, i64 %14, i32 15, i32 0, i32 1, i32 0, i8* getelementptr inbounds ([5 x i8]* @sdiv_namestr, i32 0, i32 0)), !llfi_injectfault !11
  ret i64 %fi12, !llfi_index !475
}

; Function Attrs: nounwind uwtable
define linkonce_odr i32* @_ZNSt6vectorIiSaIiEEixEm(%"class.std::vector"* %this, i64 %__n) #3 align 2 {
  %1 = alloca %"class.std::vector"*, align 8, !llfi_index !476
  %2 = alloca i64, align 8, !llfi_index !477
  store %"class.std::vector"* %this, %"class.std::vector"** %1, align 8, !llfi_index !478
  store i64 %__n, i64* %2, align 8, !llfi_index !479
  %3 = load %"class.std::vector"** %1, !llfi_index !480
  %fi = call %"class.std::vector"* @injectFault5(i64 479, %"class.std::vector"* %3, i32 27, i32 0, i32 1, i32 0, i8* getelementptr inbounds ([5 x i8]* @load_namestr, i32 0, i32 0)), !llfi_injectfault !11
  %4 = bitcast %"class.std::vector"* %fi to %"struct.std::_Vector_base"*, !llfi_index !481
  %fi1 = call %"struct.std::_Vector_base"* @injectFault6(i64 480, %"struct.std::_Vector_base"* %4, i32 44, i32 0, i32 1, i32 0, i8* getelementptr inbounds ([8 x i8]* @bitcast_namestr, i32 0, i32 0)), !llfi_injectfault !11
  %5 = getelementptr %"struct.std::_Vector_base"* %fi1, i32 0, i32 0, !llfi_index !482
  %fi2 = call %"struct.std::_Vector_base<int, std::allocator<int> >::_Vector_impl"* @injectFault7(i64 481, %"struct.std::_Vector_base<int, std::allocator<int> >::_Vector_impl"* %5, i32 29, i32 0, i32 1, i32 0, i8* getelementptr inbounds ([14 x i8]* @getelementptr_namestr, i32 0, i32 0)), !llfi_injectfault !11
  %6 = getelementptr %"struct.std::_Vector_base<int, std::allocator<int> >::_Vector_impl"* %fi2, i32 0, i32 0, !llfi_index !483
  %fi3 = call i32** @injectFault0(i64 482, i32** %6, i32 29, i32 0, i32 1, i32 0, i8* getelementptr inbounds ([14 x i8]* @getelementptr_namestr, i32 0, i32 0)), !llfi_injectfault !11
  %7 = load i32** %fi3, align 8, !llfi_index !484
  %fi4 = call i32* @injectFault1(i64 483, i32* %7, i32 27, i32 0, i32 1, i32 0, i8* getelementptr inbounds ([5 x i8]* @load_namestr, i32 0, i32 0)), !llfi_injectfault !11
  %8 = load i64* %2, align 8, !llfi_index !485
  %fi5 = call i64 @injectFault16(i64 484, i64 %8, i32 27, i32 0, i32 1, i32 0, i8* getelementptr inbounds ([5 x i8]* @load_namestr, i32 0, i32 0)), !llfi_injectfault !11
  %9 = getelementptr i32* %fi4, i64 %fi5, !llfi_index !486
  %fi6 = call i32* @injectFault1(i64 485, i32* %9, i32 29, i32 0, i32 1, i32 0, i8* getelementptr inbounds ([14 x i8]* @getelementptr_namestr, i32 0, i32 0)), !llfi_injectfault !11
  ret i32* %fi6, !llfi_index !487
}

; Function Attrs: nounwind uwtable
define linkonce_odr zeroext i1 @_ZNKSt6vectorIiSaIiEE5emptyEv(%"class.std::vector"* %this) #3 align 2 {
  %1 = alloca %"class.std::vector"*, align 8, !llfi_index !488
  %2 = alloca %"class.__gnu_cxx::__normal_iterator.4", align 8, !llfi_index !489
  %3 = alloca %"class.__gnu_cxx::__normal_iterator.4", align 8, !llfi_index !490
  store %"class.std::vector"* %this, %"class.std::vector"** %1, align 8, !llfi_index !491
  %4 = load %"class.std::vector"** %1, !llfi_index !492
  %fi = call %"class.std::vector"* @injectFault5(i64 491, %"class.std::vector"* %4, i32 27, i32 0, i32 1, i32 0, i8* getelementptr inbounds ([5 x i8]* @load_namestr, i32 0, i32 0)), !llfi_injectfault !11
  %5 = call i32* @_ZNKSt6vectorIiSaIiEE5beginEv(%"class.std::vector"* %fi) #0, !llfi_index !493
  %6 = getelementptr %"class.__gnu_cxx::__normal_iterator.4"* %2, i32 0, i32 0, !llfi_index !494
  %fi1 = call i32** @injectFault0(i64 493, i32** %6, i32 29, i32 0, i32 1, i32 0, i8* getelementptr inbounds ([14 x i8]* @getelementptr_namestr, i32 0, i32 0)), !llfi_injectfault !11
  store i32* %5, i32** %fi1, !llfi_index !495
  %7 = call i32* @_ZNKSt6vectorIiSaIiEE3endEv(%"class.std::vector"* %fi) #0, !llfi_index !496
  %8 = getelementptr %"class.__gnu_cxx::__normal_iterator.4"* %3, i32 0, i32 0, !llfi_index !497
  %fi2 = call i32** @injectFault0(i64 496, i32** %8, i32 29, i32 0, i32 1, i32 0, i8* getelementptr inbounds ([14 x i8]* @getelementptr_namestr, i32 0, i32 0)), !llfi_injectfault !11
  store i32* %7, i32** %fi2, !llfi_index !498
  %9 = call zeroext i1 @_ZN9__gnu_cxxeqIPKiSt6vectorIiSaIiEEEEbRKNS_17__normal_iteratorIT_T0_EESB_(%"class.__gnu_cxx::__normal_iterator.4"* %2, %"class.__gnu_cxx::__normal_iterator.4"* %3) #0, !llfi_index !499
  ret i1 %9, !llfi_index !500
}

declare %"class.std::basic_ostream"* @_ZStlsISt11char_traitsIcEERSt13basic_ostreamIcT_ES5_PKc(%"class.std::basic_ostream"*, i8*) #1

declare %"class.std::basic_ostream"* @_ZNSolsEPFRSoS_E(%"class.std::basic_ostream"*, %"class.std::basic_ostream"* (%"class.std::basic_ostream"*)*) #1

declare %"class.std::basic_ostream"* @_ZSt4endlIcSt11char_traitsIcEERSt13basic_ostreamIT_T0_ES6_(%"class.std::basic_ostream"*) #1

; Function Attrs: nounwind
declare void @_ZNSt14basic_ifstreamIcSt11char_traitsIcEED1Ev(%"class.std::basic_ifstream"*) #2

; Function Attrs: nounwind
declare void @_ZNSt7__cxx1112basic_stringIcSt11char_traitsIcESaIcEED1Ev(%"class.std::__cxx11::basic_string"*) #2

; Function Attrs: inlinehint nounwind uwtable
define linkonce_odr zeroext i1 @_ZN9__gnu_cxxeqIPKiSt6vectorIiSaIiEEEEbRKNS_17__normal_iteratorIT_T0_EESB_(%"class.__gnu_cxx::__normal_iterator.4"* %__lhs, %"class.__gnu_cxx::__normal_iterator.4"* %__rhs) #5 {
  %1 = alloca %"class.__gnu_cxx::__normal_iterator.4"*, align 8, !llfi_index !501
  %2 = alloca %"class.__gnu_cxx::__normal_iterator.4"*, align 8, !llfi_index !502
  store %"class.__gnu_cxx::__normal_iterator.4"* %__lhs, %"class.__gnu_cxx::__normal_iterator.4"** %1, align 8, !llfi_index !503
  store %"class.__gnu_cxx::__normal_iterator.4"* %__rhs, %"class.__gnu_cxx::__normal_iterator.4"** %2, align 8, !llfi_index !504
  %3 = load %"class.__gnu_cxx::__normal_iterator.4"** %1, align 8, !llfi_index !505
  %fi = call %"class.__gnu_cxx::__normal_iterator.4"* @injectFault21(i64 504, %"class.__gnu_cxx::__normal_iterator.4"* %3, i32 27, i32 0, i32 1, i32 0, i8* getelementptr inbounds ([5 x i8]* @load_namestr, i32 0, i32 0)), !llfi_injectfault !11
  %4 = call i32** @_ZNK9__gnu_cxx17__normal_iteratorIPKiSt6vectorIiSaIiEEE4baseEv(%"class.__gnu_cxx::__normal_iterator.4"* %fi) #0, !llfi_index !506
  %5 = load i32** %4, !llfi_index !507
  %fi1 = call i32* @injectFault1(i64 506, i32* %5, i32 27, i32 0, i32 1, i32 0, i8* getelementptr inbounds ([5 x i8]* @load_namestr, i32 0, i32 0)), !llfi_injectfault !11
  %6 = load %"class.__gnu_cxx::__normal_iterator.4"** %2, align 8, !llfi_index !508
  %fi2 = call %"class.__gnu_cxx::__normal_iterator.4"* @injectFault21(i64 507, %"class.__gnu_cxx::__normal_iterator.4"* %6, i32 27, i32 0, i32 1, i32 0, i8* getelementptr inbounds ([5 x i8]* @load_namestr, i32 0, i32 0)), !llfi_injectfault !11
  %7 = call i32** @_ZNK9__gnu_cxx17__normal_iteratorIPKiSt6vectorIiSaIiEEE4baseEv(%"class.__gnu_cxx::__normal_iterator.4"* %fi2) #0, !llfi_index !509
  %8 = load i32** %7, !llfi_index !510
  %fi3 = call i32* @injectFault1(i64 509, i32* %8, i32 27, i32 0, i32 1, i32 0, i8* getelementptr inbounds ([5 x i8]* @load_namestr, i32 0, i32 0)), !llfi_injectfault !11
  %9 = icmp eq i32* %fi1, %fi3, !llfi_index !511
  %fi4 = call i1 @injectFault4(i64 510, i1 %9, i32 46, i32 0, i32 1, i32 0, i8* getelementptr inbounds ([5 x i8]* @icmp_namestr, i32 0, i32 0)), !llfi_injectfault !11
  ret i1 %fi4, !llfi_index !512
}

; Function Attrs: nounwind uwtable
define linkonce_odr i32* @_ZNKSt6vectorIiSaIiEE5beginEv(%"class.std::vector"* %this) #3 align 2 {
  %1 = alloca %"class.__gnu_cxx::__normal_iterator.4", align 8, !llfi_index !513
  %2 = alloca %"class.std::vector"*, align 8, !llfi_index !514
  %3 = alloca i32*, align 8, !llfi_index !515
  store %"class.std::vector"* %this, %"class.std::vector"** %2, align 8, !llfi_index !516
  %4 = load %"class.std::vector"** %2, !llfi_index !517
  %fi2 = call %"class.std::vector"* @injectFault5(i64 516, %"class.std::vector"* %4, i32 27, i32 0, i32 1, i32 0, i8* getelementptr inbounds ([5 x i8]* @load_namestr, i32 0, i32 0)), !llfi_injectfault !11
  %5 = bitcast %"class.std::vector"* %fi2 to %"struct.std::_Vector_base"*, !llfi_index !518
  %fi3 = call %"struct.std::_Vector_base"* @injectFault6(i64 517, %"struct.std::_Vector_base"* %5, i32 44, i32 0, i32 1, i32 0, i8* getelementptr inbounds ([8 x i8]* @bitcast_namestr, i32 0, i32 0)), !llfi_injectfault !11
  %6 = getelementptr %"struct.std::_Vector_base"* %fi3, i32 0, i32 0, !llfi_index !519
  %fi4 = call %"struct.std::_Vector_base<int, std::allocator<int> >::_Vector_impl"* @injectFault7(i64 518, %"struct.std::_Vector_base<int, std::allocator<int> >::_Vector_impl"* %6, i32 29, i32 0, i32 1, i32 0, i8* getelementptr inbounds ([14 x i8]* @getelementptr_namestr, i32 0, i32 0)), !llfi_injectfault !11
  %7 = getelementptr %"struct.std::_Vector_base<int, std::allocator<int> >::_Vector_impl"* %fi4, i32 0, i32 0, !llfi_index !520
  %fi5 = call i32** @injectFault0(i64 519, i32** %7, i32 29, i32 0, i32 1, i32 0, i8* getelementptr inbounds ([14 x i8]* @getelementptr_namestr, i32 0, i32 0)), !llfi_injectfault !11
  %8 = load i32** %fi5, align 8, !llfi_index !521
  %fi6 = call i32* @injectFault1(i64 520, i32* %8, i32 27, i32 0, i32 1, i32 0, i8* getelementptr inbounds ([5 x i8]* @load_namestr, i32 0, i32 0)), !llfi_injectfault !11
  store i32* %fi6, i32** %3, !llfi_index !522
  call void @_ZN9__gnu_cxx17__normal_iteratorIPKiSt6vectorIiSaIiEEEC2ERKS2_(%"class.__gnu_cxx::__normal_iterator.4"* %1, i32** %3) #0, !llfi_index !523
  %9 = getelementptr %"class.__gnu_cxx::__normal_iterator.4"* %1, i32 0, i32 0, !llfi_index !524
  %fi = call i32** @injectFault0(i64 523, i32** %9, i32 29, i32 0, i32 1, i32 0, i8* getelementptr inbounds ([14 x i8]* @getelementptr_namestr, i32 0, i32 0)), !llfi_injectfault !11
  %10 = load i32** %fi, !llfi_index !525
  %fi1 = call i32* @injectFault1(i64 524, i32* %10, i32 27, i32 0, i32 1, i32 0, i8* getelementptr inbounds ([5 x i8]* @load_namestr, i32 0, i32 0)), !llfi_injectfault !11
  ret i32* %fi1, !llfi_index !526
}

; Function Attrs: nounwind uwtable
define linkonce_odr i32* @_ZNKSt6vectorIiSaIiEE3endEv(%"class.std::vector"* %this) #3 align 2 {
  %1 = alloca %"class.__gnu_cxx::__normal_iterator.4", align 8, !llfi_index !527
  %2 = alloca %"class.std::vector"*, align 8, !llfi_index !528
  %3 = alloca i32*, align 8, !llfi_index !529
  store %"class.std::vector"* %this, %"class.std::vector"** %2, align 8, !llfi_index !530
  %4 = load %"class.std::vector"** %2, !llfi_index !531
  %fi = call %"class.std::vector"* @injectFault5(i64 530, %"class.std::vector"* %4, i32 27, i32 0, i32 1, i32 0, i8* getelementptr inbounds ([5 x i8]* @load_namestr, i32 0, i32 0)), !llfi_injectfault !11
  %5 = bitcast %"class.std::vector"* %fi to %"struct.std::_Vector_base"*, !llfi_index !532
  %fi1 = call %"struct.std::_Vector_base"* @injectFault6(i64 531, %"struct.std::_Vector_base"* %5, i32 44, i32 0, i32 1, i32 0, i8* getelementptr inbounds ([8 x i8]* @bitcast_namestr, i32 0, i32 0)), !llfi_injectfault !11
  %6 = getelementptr %"struct.std::_Vector_base"* %fi1, i32 0, i32 0, !llfi_index !533
  %fi2 = call %"struct.std::_Vector_base<int, std::allocator<int> >::_Vector_impl"* @injectFault7(i64 532, %"struct.std::_Vector_base<int, std::allocator<int> >::_Vector_impl"* %6, i32 29, i32 0, i32 1, i32 0, i8* getelementptr inbounds ([14 x i8]* @getelementptr_namestr, i32 0, i32 0)), !llfi_injectfault !11
  %7 = getelementptr %"struct.std::_Vector_base<int, std::allocator<int> >::_Vector_impl"* %fi2, i32 0, i32 1, !llfi_index !534
  %fi3 = call i32** @injectFault0(i64 533, i32** %7, i32 29, i32 0, i32 1, i32 0, i8* getelementptr inbounds ([14 x i8]* @getelementptr_namestr, i32 0, i32 0)), !llfi_injectfault !11
  %8 = load i32** %fi3, align 8, !llfi_index !535
  %fi4 = call i32* @injectFault1(i64 534, i32* %8, i32 27, i32 0, i32 1, i32 0, i8* getelementptr inbounds ([5 x i8]* @load_namestr, i32 0, i32 0)), !llfi_injectfault !11
  store i32* %fi4, i32** %3, !llfi_index !536
  call void @_ZN9__gnu_cxx17__normal_iteratorIPKiSt6vectorIiSaIiEEEC2ERKS2_(%"class.__gnu_cxx::__normal_iterator.4"* %1, i32** %3) #0, !llfi_index !537
  %9 = getelementptr %"class.__gnu_cxx::__normal_iterator.4"* %1, i32 0, i32 0, !llfi_index !538
  %fi5 = call i32** @injectFault0(i64 537, i32** %9, i32 29, i32 0, i32 1, i32 0, i8* getelementptr inbounds ([14 x i8]* @getelementptr_namestr, i32 0, i32 0)), !llfi_injectfault !11
  %10 = load i32** %fi5, !llfi_index !539
  %fi6 = call i32* @injectFault1(i64 538, i32* %10, i32 27, i32 0, i32 1, i32 0, i8* getelementptr inbounds ([5 x i8]* @load_namestr, i32 0, i32 0)), !llfi_injectfault !11
  ret i32* %fi6, !llfi_index !540
}

; Function Attrs: nounwind uwtable
define linkonce_odr void @_ZN9__gnu_cxx17__normal_iteratorIPKiSt6vectorIiSaIiEEEC2ERKS2_(%"class.__gnu_cxx::__normal_iterator.4"* %this, i32** %__i) unnamed_addr #3 align 2 {
  %1 = alloca %"class.__gnu_cxx::__normal_iterator.4"*, align 8, !llfi_index !541
  %2 = alloca i32**, align 8, !llfi_index !542
  store %"class.__gnu_cxx::__normal_iterator.4"* %this, %"class.__gnu_cxx::__normal_iterator.4"** %1, align 8, !llfi_index !543
  store i32** %__i, i32*** %2, align 8, !llfi_index !544
  %3 = load %"class.__gnu_cxx::__normal_iterator.4"** %1, !llfi_index !545
  %fi = call %"class.__gnu_cxx::__normal_iterator.4"* @injectFault21(i64 544, %"class.__gnu_cxx::__normal_iterator.4"* %3, i32 27, i32 0, i32 1, i32 0, i8* getelementptr inbounds ([5 x i8]* @load_namestr, i32 0, i32 0)), !llfi_injectfault !11
  %4 = getelementptr %"class.__gnu_cxx::__normal_iterator.4"* %fi, i32 0, i32 0, !llfi_index !546
  %fi1 = call i32** @injectFault0(i64 545, i32** %4, i32 29, i32 0, i32 1, i32 0, i8* getelementptr inbounds ([14 x i8]* @getelementptr_namestr, i32 0, i32 0)), !llfi_injectfault !11
  %5 = load i32*** %2, align 8, !llfi_index !547
  %fi2 = call i32** @injectFault0(i64 546, i32** %5, i32 27, i32 0, i32 1, i32 0, i8* getelementptr inbounds ([5 x i8]* @load_namestr, i32 0, i32 0)), !llfi_injectfault !11
  %6 = load i32** %fi2, align 8, !llfi_index !548
  %fi3 = call i32* @injectFault1(i64 547, i32* %6, i32 27, i32 0, i32 1, i32 0, i8* getelementptr inbounds ([5 x i8]* @load_namestr, i32 0, i32 0)), !llfi_injectfault !11
  store i32* %fi3, i32** %fi1, align 8, !llfi_index !549
  ret void, !llfi_index !550
}

; Function Attrs: nounwind uwtable
define linkonce_odr i32** @_ZNK9__gnu_cxx17__normal_iteratorIPKiSt6vectorIiSaIiEEE4baseEv(%"class.__gnu_cxx::__normal_iterator.4"* %this) #3 align 2 {
  %1 = alloca %"class.__gnu_cxx::__normal_iterator.4"*, align 8, !llfi_index !551
  store %"class.__gnu_cxx::__normal_iterator.4"* %this, %"class.__gnu_cxx::__normal_iterator.4"** %1, align 8, !llfi_index !552
  %2 = load %"class.__gnu_cxx::__normal_iterator.4"** %1, !llfi_index !553
  %fi = call %"class.__gnu_cxx::__normal_iterator.4"* @injectFault21(i64 552, %"class.__gnu_cxx::__normal_iterator.4"* %2, i32 27, i32 0, i32 1, i32 0, i8* getelementptr inbounds ([5 x i8]* @load_namestr, i32 0, i32 0)), !llfi_injectfault !11
  %3 = getelementptr %"class.__gnu_cxx::__normal_iterator.4"* %fi, i32 0, i32 0, !llfi_index !554
  %fi1 = call i32** @injectFault0(i64 553, i32** %3, i32 29, i32 0, i32 1, i32 0, i8* getelementptr inbounds ([14 x i8]* @getelementptr_namestr, i32 0, i32 0)), !llfi_injectfault !11
  ret i32** %fi1, !llfi_index !555
}

; Function Attrs: nounwind uwtable
define linkonce_odr void @_ZNSt12_Vector_baseIiSaIiEEC2Ev(%"struct.std::_Vector_base"* %this) unnamed_addr #3 align 2 {
  %1 = alloca %"struct.std::_Vector_base"*, align 8, !llfi_index !556
  store %"struct.std::_Vector_base"* %this, %"struct.std::_Vector_base"** %1, align 8, !llfi_index !557
  %2 = load %"struct.std::_Vector_base"** %1, !llfi_index !558
  %fi = call %"struct.std::_Vector_base"* @injectFault6(i64 557, %"struct.std::_Vector_base"* %2, i32 27, i32 0, i32 1, i32 0, i8* getelementptr inbounds ([5 x i8]* @load_namestr, i32 0, i32 0)), !llfi_injectfault !11
  %3 = getelementptr %"struct.std::_Vector_base"* %fi, i32 0, i32 0, !llfi_index !559
  %fi1 = call %"struct.std::_Vector_base<int, std::allocator<int> >::_Vector_impl"* @injectFault7(i64 558, %"struct.std::_Vector_base<int, std::allocator<int> >::_Vector_impl"* %3, i32 29, i32 0, i32 1, i32 0, i8* getelementptr inbounds ([14 x i8]* @getelementptr_namestr, i32 0, i32 0)), !llfi_injectfault !11
  call void @_ZNSt12_Vector_baseIiSaIiEE12_Vector_implC2Ev(%"struct.std::_Vector_base<int, std::allocator<int> >::_Vector_impl"* %fi1), !llfi_index !560
  ret void, !llfi_index !561
}

; Function Attrs: nounwind uwtable
define linkonce_odr void @_ZNSt12_Vector_baseIiSaIiEE12_Vector_implC2Ev(%"struct.std::_Vector_base<int, std::allocator<int> >::_Vector_impl"* %this) unnamed_addr #3 align 2 {
  %1 = alloca %"struct.std::_Vector_base<int, std::allocator<int> >::_Vector_impl"*, align 8, !llfi_index !562
  store %"struct.std::_Vector_base<int, std::allocator<int> >::_Vector_impl"* %this, %"struct.std::_Vector_base<int, std::allocator<int> >::_Vector_impl"** %1, align 8, !llfi_index !563
  %2 = load %"struct.std::_Vector_base<int, std::allocator<int> >::_Vector_impl"** %1, !llfi_index !564
  %fi = call %"struct.std::_Vector_base<int, std::allocator<int> >::_Vector_impl"* @injectFault7(i64 563, %"struct.std::_Vector_base<int, std::allocator<int> >::_Vector_impl"* %2, i32 27, i32 0, i32 1, i32 0, i8* getelementptr inbounds ([5 x i8]* @load_namestr, i32 0, i32 0)), !llfi_injectfault !11
  %3 = bitcast %"struct.std::_Vector_base<int, std::allocator<int> >::_Vector_impl"* %fi to %"class.std::allocator"*, !llfi_index !565
  %fi1 = call %"class.std::allocator"* @injectFault8(i64 564, %"class.std::allocator"* %3, i32 44, i32 0, i32 1, i32 0, i8* getelementptr inbounds ([8 x i8]* @bitcast_namestr, i32 0, i32 0)), !llfi_injectfault !11
  call void @_ZNSaIiEC2Ev(%"class.std::allocator"* %fi1) #0, !llfi_index !566
  %4 = getelementptr %"struct.std::_Vector_base<int, std::allocator<int> >::_Vector_impl"* %fi, i32 0, i32 0, !llfi_index !567
  %fi2 = call i32** @injectFault0(i64 566, i32** %4, i32 29, i32 0, i32 1, i32 0, i8* getelementptr inbounds ([14 x i8]* @getelementptr_namestr, i32 0, i32 0)), !llfi_injectfault !11
  store i32* null, i32** %fi2, align 8, !llfi_index !568
  %5 = getelementptr %"struct.std::_Vector_base<int, std::allocator<int> >::_Vector_impl"* %fi, i32 0, i32 1, !llfi_index !569
  %fi3 = call i32** @injectFault0(i64 568, i32** %5, i32 29, i32 0, i32 1, i32 0, i8* getelementptr inbounds ([14 x i8]* @getelementptr_namestr, i32 0, i32 0)), !llfi_injectfault !11
  store i32* null, i32** %fi3, align 8, !llfi_index !570
  %6 = getelementptr %"struct.std::_Vector_base<int, std::allocator<int> >::_Vector_impl"* %fi, i32 0, i32 2, !llfi_index !571
  %fi4 = call i32** @injectFault0(i64 570, i32** %6, i32 29, i32 0, i32 1, i32 0, i8* getelementptr inbounds ([14 x i8]* @getelementptr_namestr, i32 0, i32 0)), !llfi_injectfault !11
  store i32* null, i32** %fi4, align 8, !llfi_index !572
  ret void, !llfi_index !573
}

; Function Attrs: nounwind uwtable
define linkonce_odr void @_ZN9__gnu_cxx13new_allocatorIiEC2Ev(%"class.__gnu_cxx::new_allocator"* %this) unnamed_addr #3 align 2 {
  %1 = alloca %"class.__gnu_cxx::new_allocator"*, align 8, !llfi_index !574
  store %"class.__gnu_cxx::new_allocator"* %this, %"class.__gnu_cxx::new_allocator"** %1, align 8, !llfi_index !575
  %2 = load %"class.__gnu_cxx::new_allocator"** %1, !llfi_index !576
  %fi = call %"class.__gnu_cxx::new_allocator"* @injectFault12(i64 575, %"class.__gnu_cxx::new_allocator"* %2, i32 27, i32 0, i32 1, i32 0, i8* getelementptr inbounds ([5 x i8]* @load_namestr, i32 0, i32 0)), !llfi_injectfault !11
  ret void, !llfi_index !577
}

; Function Attrs: nounwind uwtable
define linkonce_odr i32** @_ZNK9__gnu_cxx17__normal_iteratorIPiSt6vectorIiSaIiEEE4baseEv(%"class.__gnu_cxx::__normal_iterator"* %this) #3 align 2 {
  %1 = alloca %"class.__gnu_cxx::__normal_iterator"*, align 8, !llfi_index !578
  store %"class.__gnu_cxx::__normal_iterator"* %this, %"class.__gnu_cxx::__normal_iterator"** %1, align 8, !llfi_index !579
  %2 = load %"class.__gnu_cxx::__normal_iterator"** %1, !llfi_index !580
  %fi = call %"class.__gnu_cxx::__normal_iterator"* @injectFault13(i64 579, %"class.__gnu_cxx::__normal_iterator"* %2, i32 27, i32 0, i32 1, i32 0, i8* getelementptr inbounds ([5 x i8]* @load_namestr, i32 0, i32 0)), !llfi_injectfault !11
  %3 = getelementptr %"class.__gnu_cxx::__normal_iterator"* %fi, i32 0, i32 0, !llfi_index !581
  %fi1 = call i32** @injectFault0(i64 580, i32** %3, i32 29, i32 0, i32 1, i32 0, i8* getelementptr inbounds ([14 x i8]* @getelementptr_namestr, i32 0, i32 0)), !llfi_injectfault !11
  ret i32** %fi1, !llfi_index !582
}

; Function Attrs: nounwind uwtable
define linkonce_odr void @_ZN9__gnu_cxx17__normal_iteratorIPiSt6vectorIiSaIiEEEC2ERKS1_(%"class.__gnu_cxx::__normal_iterator"* %this, i32** %__i) unnamed_addr #3 align 2 {
  %1 = alloca %"class.__gnu_cxx::__normal_iterator"*, align 8, !llfi_index !583
  %2 = alloca i32**, align 8, !llfi_index !584
  store %"class.__gnu_cxx::__normal_iterator"* %this, %"class.__gnu_cxx::__normal_iterator"** %1, align 8, !llfi_index !585
  store i32** %__i, i32*** %2, align 8, !llfi_index !586
  %3 = load %"class.__gnu_cxx::__normal_iterator"** %1, !llfi_index !587
  %fi = call %"class.__gnu_cxx::__normal_iterator"* @injectFault13(i64 586, %"class.__gnu_cxx::__normal_iterator"* %3, i32 27, i32 0, i32 1, i32 0, i8* getelementptr inbounds ([5 x i8]* @load_namestr, i32 0, i32 0)), !llfi_injectfault !11
  %4 = getelementptr %"class.__gnu_cxx::__normal_iterator"* %fi, i32 0, i32 0, !llfi_index !588
  %fi1 = call i32** @injectFault0(i64 587, i32** %4, i32 29, i32 0, i32 1, i32 0, i8* getelementptr inbounds ([14 x i8]* @getelementptr_namestr, i32 0, i32 0)), !llfi_injectfault !11
  %5 = load i32*** %2, align 8, !llfi_index !589
  %fi2 = call i32** @injectFault0(i64 588, i32** %5, i32 27, i32 0, i32 1, i32 0, i8* getelementptr inbounds ([5 x i8]* @load_namestr, i32 0, i32 0)), !llfi_injectfault !11
  %6 = load i32** %fi2, align 8, !llfi_index !590
  %fi3 = call i32* @injectFault1(i64 589, i32* %6, i32 27, i32 0, i32 1, i32 0, i8* getelementptr inbounds ([5 x i8]* @load_namestr, i32 0, i32 0)), !llfi_injectfault !11
  store i32* %fi3, i32** %fi1, align 8, !llfi_index !591
  ret void, !llfi_index !592
}

; Function Attrs: inlinehint nounwind uwtable
define linkonce_odr void @_ZSt8_DestroyIPiiEvT_S1_RSaIT0_E(i32* %__first, i32* %__last, %"class.std::allocator"*) #5 {
  %2 = alloca i32*, align 8, !llfi_index !593
  %3 = alloca i32*, align 8, !llfi_index !594
  %4 = alloca %"class.std::allocator"*, align 8, !llfi_index !595
  store i32* %__first, i32** %2, align 8, !llfi_index !596
  store i32* %__last, i32** %3, align 8, !llfi_index !597
  store %"class.std::allocator"* %0, %"class.std::allocator"** %4, align 8, !llfi_index !598
  %5 = load i32** %2, align 8, !llfi_index !599
  %fi = call i32* @injectFault1(i64 598, i32* %5, i32 27, i32 0, i32 1, i32 0, i8* getelementptr inbounds ([5 x i8]* @load_namestr, i32 0, i32 0)), !llfi_injectfault !11
  %6 = load i32** %3, align 8, !llfi_index !600
  %fi1 = call i32* @injectFault1(i64 599, i32* %6, i32 27, i32 0, i32 1, i32 0, i8* getelementptr inbounds ([5 x i8]* @load_namestr, i32 0, i32 0)), !llfi_injectfault !11
  call void @_ZSt8_DestroyIPiEvT_S1_(i32* %fi, i32* %fi1), !llfi_index !601
  ret void, !llfi_index !602
}

; Function Attrs: nounwind uwtable
define linkonce_odr %"class.std::allocator"* @_ZNSt12_Vector_baseIiSaIiEE19_M_get_Tp_allocatorEv(%"struct.std::_Vector_base"* %this) #3 align 2 {
  %1 = alloca %"struct.std::_Vector_base"*, align 8, !llfi_index !603
  store %"struct.std::_Vector_base"* %this, %"struct.std::_Vector_base"** %1, align 8, !llfi_index !604
  %2 = load %"struct.std::_Vector_base"** %1, !llfi_index !605
  %fi = call %"struct.std::_Vector_base"* @injectFault6(i64 604, %"struct.std::_Vector_base"* %2, i32 27, i32 0, i32 1, i32 0, i8* getelementptr inbounds ([5 x i8]* @load_namestr, i32 0, i32 0)), !llfi_injectfault !11
  %3 = getelementptr %"struct.std::_Vector_base"* %fi, i32 0, i32 0, !llfi_index !606
  %fi1 = call %"struct.std::_Vector_base<int, std::allocator<int> >::_Vector_impl"* @injectFault7(i64 605, %"struct.std::_Vector_base<int, std::allocator<int> >::_Vector_impl"* %3, i32 29, i32 0, i32 1, i32 0, i8* getelementptr inbounds ([14 x i8]* @getelementptr_namestr, i32 0, i32 0)), !llfi_injectfault !11
  %4 = bitcast %"struct.std::_Vector_base<int, std::allocator<int> >::_Vector_impl"* %fi1 to %"class.std::allocator"*, !llfi_index !607
  %fi2 = call %"class.std::allocator"* @injectFault8(i64 606, %"class.std::allocator"* %4, i32 44, i32 0, i32 1, i32 0, i8* getelementptr inbounds ([8 x i8]* @bitcast_namestr, i32 0, i32 0)), !llfi_injectfault !11
  ret %"class.std::allocator"* %fi2, !llfi_index !608
}

; Function Attrs: nounwind uwtable
define linkonce_odr void @_ZNSt12_Vector_baseIiSaIiEED2Ev(%"struct.std::_Vector_base"* %this) unnamed_addr #3 align 2 {
  %1 = alloca %"struct.std::_Vector_base"*, align 8, !llfi_index !609
  store %"struct.std::_Vector_base"* %this, %"struct.std::_Vector_base"** %1, align 8, !llfi_index !610
  %2 = load %"struct.std::_Vector_base"** %1, !llfi_index !611
  %fi = call %"struct.std::_Vector_base"* @injectFault6(i64 610, %"struct.std::_Vector_base"* %2, i32 27, i32 0, i32 1, i32 0, i8* getelementptr inbounds ([5 x i8]* @load_namestr, i32 0, i32 0)), !llfi_injectfault !11
  %3 = getelementptr %"struct.std::_Vector_base"* %fi, i32 0, i32 0, !llfi_index !612
  %fi1 = call %"struct.std::_Vector_base<int, std::allocator<int> >::_Vector_impl"* @injectFault7(i64 611, %"struct.std::_Vector_base<int, std::allocator<int> >::_Vector_impl"* %3, i32 29, i32 0, i32 1, i32 0, i8* getelementptr inbounds ([14 x i8]* @getelementptr_namestr, i32 0, i32 0)), !llfi_injectfault !11
  %4 = getelementptr %"struct.std::_Vector_base<int, std::allocator<int> >::_Vector_impl"* %fi1, i32 0, i32 0, !llfi_index !613
  %fi2 = call i32** @injectFault0(i64 612, i32** %4, i32 29, i32 0, i32 1, i32 0, i8* getelementptr inbounds ([14 x i8]* @getelementptr_namestr, i32 0, i32 0)), !llfi_injectfault !11
  %5 = load i32** %fi2, align 8, !llfi_index !614
  %fi3 = call i32* @injectFault1(i64 613, i32* %5, i32 27, i32 0, i32 1, i32 0, i8* getelementptr inbounds ([5 x i8]* @load_namestr, i32 0, i32 0)), !llfi_injectfault !11
  %6 = getelementptr %"struct.std::_Vector_base"* %fi, i32 0, i32 0, !llfi_index !615
  %fi4 = call %"struct.std::_Vector_base<int, std::allocator<int> >::_Vector_impl"* @injectFault7(i64 614, %"struct.std::_Vector_base<int, std::allocator<int> >::_Vector_impl"* %6, i32 29, i32 0, i32 1, i32 0, i8* getelementptr inbounds ([14 x i8]* @getelementptr_namestr, i32 0, i32 0)), !llfi_injectfault !11
  %7 = getelementptr %"struct.std::_Vector_base<int, std::allocator<int> >::_Vector_impl"* %fi4, i32 0, i32 2, !llfi_index !616
  %fi5 = call i32** @injectFault0(i64 615, i32** %7, i32 29, i32 0, i32 1, i32 0, i8* getelementptr inbounds ([14 x i8]* @getelementptr_namestr, i32 0, i32 0)), !llfi_injectfault !11
  %8 = load i32** %fi5, align 8, !llfi_index !617
  %fi6 = call i32* @injectFault1(i64 616, i32* %8, i32 27, i32 0, i32 1, i32 0, i8* getelementptr inbounds ([5 x i8]* @load_namestr, i32 0, i32 0)), !llfi_injectfault !11
  %9 = getelementptr %"struct.std::_Vector_base"* %fi, i32 0, i32 0, !llfi_index !618
  %fi7 = call %"struct.std::_Vector_base<int, std::allocator<int> >::_Vector_impl"* @injectFault7(i64 617, %"struct.std::_Vector_base<int, std::allocator<int> >::_Vector_impl"* %9, i32 29, i32 0, i32 1, i32 0, i8* getelementptr inbounds ([14 x i8]* @getelementptr_namestr, i32 0, i32 0)), !llfi_injectfault !11
  %10 = getelementptr %"struct.std::_Vector_base<int, std::allocator<int> >::_Vector_impl"* %fi7, i32 0, i32 0, !llfi_index !619
  %fi8 = call i32** @injectFault0(i64 618, i32** %10, i32 29, i32 0, i32 1, i32 0, i8* getelementptr inbounds ([14 x i8]* @getelementptr_namestr, i32 0, i32 0)), !llfi_injectfault !11
  %11 = load i32** %fi8, align 8, !llfi_index !620
  %fi9 = call i32* @injectFault1(i64 619, i32* %11, i32 27, i32 0, i32 1, i32 0, i8* getelementptr inbounds ([5 x i8]* @load_namestr, i32 0, i32 0)), !llfi_injectfault !11
  %12 = ptrtoint i32* %fi6 to i64, !llfi_index !621
  %fi10 = call i64 @injectFault16(i64 620, i64 %12, i32 42, i32 0, i32 1, i32 0, i8* getelementptr inbounds ([9 x i8]* @ptrtoint_namestr, i32 0, i32 0)), !llfi_injectfault !11
  %13 = ptrtoint i32* %fi9 to i64, !llfi_index !622
  %fi11 = call i64 @injectFault16(i64 621, i64 %13, i32 42, i32 0, i32 1, i32 0, i8* getelementptr inbounds ([9 x i8]* @ptrtoint_namestr, i32 0, i32 0)), !llfi_injectfault !11
  %14 = sub i64 %fi10, %fi11, !llfi_index !623
  %fi12 = call i64 @injectFault16(i64 622, i64 %14, i32 10, i32 0, i32 1, i32 0, i8* getelementptr inbounds ([4 x i8]* @sub_namestr, i32 0, i32 0)), !llfi_injectfault !11
  %15 = sdiv exact i64 %fi12, 4, !llfi_index !624
  %fi13 = call i64 @injectFault16(i64 623, i64 %15, i32 15, i32 0, i32 1, i32 0, i8* getelementptr inbounds ([5 x i8]* @sdiv_namestr, i32 0, i32 0)), !llfi_injectfault !11
  call void @_ZNSt12_Vector_baseIiSaIiEE13_M_deallocateEPim(%"struct.std::_Vector_base"* %fi, i32* %fi3, i64 %fi13), !llfi_index !625
  %16 = getelementptr %"struct.std::_Vector_base"* %fi, i32 0, i32 0, !llfi_index !626
  %fi14 = call %"struct.std::_Vector_base<int, std::allocator<int> >::_Vector_impl"* @injectFault7(i64 625, %"struct.std::_Vector_base<int, std::allocator<int> >::_Vector_impl"* %16, i32 29, i32 0, i32 1, i32 0, i8* getelementptr inbounds ([14 x i8]* @getelementptr_namestr, i32 0, i32 0)), !llfi_injectfault !11
  call void @_ZNSt12_Vector_baseIiSaIiEE12_Vector_implD2Ev(%"struct.std::_Vector_base<int, std::allocator<int> >::_Vector_impl"* %fi14) #0, !llfi_index !627
  ret void, !llfi_index !628
}

; Function Attrs: nounwind uwtable
define linkonce_odr void @_ZNSt12_Vector_baseIiSaIiEE13_M_deallocateEPim(%"struct.std::_Vector_base"* %this, i32* %__p, i64 %__n) #3 align 2 {
  %1 = alloca %"struct.std::_Vector_base"*, align 8, !llfi_index !629
  %2 = alloca i32*, align 8, !llfi_index !630
  %3 = alloca i64, align 8, !llfi_index !631
  store %"struct.std::_Vector_base"* %this, %"struct.std::_Vector_base"** %1, align 8, !llfi_index !632
  store i32* %__p, i32** %2, align 8, !llfi_index !633
  store i64 %__n, i64* %3, align 8, !llfi_index !634
  %4 = load %"struct.std::_Vector_base"** %1, !llfi_index !635
  %fi = call %"struct.std::_Vector_base"* @injectFault6(i64 634, %"struct.std::_Vector_base"* %4, i32 27, i32 0, i32 1, i32 0, i8* getelementptr inbounds ([5 x i8]* @load_namestr, i32 0, i32 0)), !llfi_injectfault !11
  %5 = load i32** %2, align 8, !llfi_index !636
  %fi1 = call i32* @injectFault1(i64 635, i32* %5, i32 27, i32 0, i32 1, i32 0, i8* getelementptr inbounds ([5 x i8]* @load_namestr, i32 0, i32 0)), !llfi_injectfault !11
  %6 = icmp ne i32* %fi1, null, !llfi_index !637
  %fi2 = call i1 @injectFault4(i64 636, i1 %6, i32 46, i32 0, i32 1, i32 0, i8* getelementptr inbounds ([5 x i8]* @icmp_namestr, i32 0, i32 0)), !llfi_injectfault !11
  br i1 %fi2, label %7, label %12, !llfi_index !638

; <label>:7                                       ; preds = %0
  %8 = getelementptr %"struct.std::_Vector_base"* %fi, i32 0, i32 0, !llfi_index !639
  %fi3 = call %"struct.std::_Vector_base<int, std::allocator<int> >::_Vector_impl"* @injectFault7(i64 638, %"struct.std::_Vector_base<int, std::allocator<int> >::_Vector_impl"* %8, i32 29, i32 0, i32 1, i32 0, i8* getelementptr inbounds ([14 x i8]* @getelementptr_namestr, i32 0, i32 0)), !llfi_injectfault !11
  %9 = bitcast %"struct.std::_Vector_base<int, std::allocator<int> >::_Vector_impl"* %fi3 to %"class.std::allocator"*, !llfi_index !640
  %fi4 = call %"class.std::allocator"* @injectFault8(i64 639, %"class.std::allocator"* %9, i32 44, i32 0, i32 1, i32 0, i8* getelementptr inbounds ([8 x i8]* @bitcast_namestr, i32 0, i32 0)), !llfi_injectfault !11
  %10 = load i32** %2, align 8, !llfi_index !641
  %fi5 = call i32* @injectFault1(i64 640, i32* %10, i32 27, i32 0, i32 1, i32 0, i8* getelementptr inbounds ([5 x i8]* @load_namestr, i32 0, i32 0)), !llfi_injectfault !11
  %11 = load i64* %3, align 8, !llfi_index !642
  %fi6 = call i64 @injectFault16(i64 641, i64 %11, i32 27, i32 0, i32 1, i32 0, i8* getelementptr inbounds ([5 x i8]* @load_namestr, i32 0, i32 0)), !llfi_injectfault !11
  call void @_ZNSt16allocator_traitsISaIiEE10deallocateERS0_Pim(%"class.std::allocator"* %fi4, i32* %fi5, i64 %fi6), !llfi_index !643
  br label %12, !llfi_index !644

; <label>:12                                      ; preds = %7, %0
  ret void, !llfi_index !645
}

; Function Attrs: inlinehint nounwind uwtable
define linkonce_odr void @_ZNSt12_Vector_baseIiSaIiEE12_Vector_implD2Ev(%"struct.std::_Vector_base<int, std::allocator<int> >::_Vector_impl"* %this) unnamed_addr #5 align 2 {
  %1 = alloca %"struct.std::_Vector_base<int, std::allocator<int> >::_Vector_impl"*, align 8, !llfi_index !646
  store %"struct.std::_Vector_base<int, std::allocator<int> >::_Vector_impl"* %this, %"struct.std::_Vector_base<int, std::allocator<int> >::_Vector_impl"** %1, align 8, !llfi_index !647
  %2 = load %"struct.std::_Vector_base<int, std::allocator<int> >::_Vector_impl"** %1, !llfi_index !648
  %fi = call %"struct.std::_Vector_base<int, std::allocator<int> >::_Vector_impl"* @injectFault7(i64 647, %"struct.std::_Vector_base<int, std::allocator<int> >::_Vector_impl"* %2, i32 27, i32 0, i32 1, i32 0, i8* getelementptr inbounds ([5 x i8]* @load_namestr, i32 0, i32 0)), !llfi_injectfault !11
  %3 = bitcast %"struct.std::_Vector_base<int, std::allocator<int> >::_Vector_impl"* %fi to %"class.std::allocator"*, !llfi_index !649
  %fi1 = call %"class.std::allocator"* @injectFault8(i64 648, %"class.std::allocator"* %3, i32 44, i32 0, i32 1, i32 0, i8* getelementptr inbounds ([8 x i8]* @bitcast_namestr, i32 0, i32 0)), !llfi_injectfault !11
  call void @_ZNSaIiED2Ev(%"class.std::allocator"* %fi1) #0, !llfi_index !650
  ret void, !llfi_index !651
}

; Function Attrs: nounwind uwtable
define linkonce_odr void @_ZN9__gnu_cxx13new_allocatorIiED2Ev(%"class.__gnu_cxx::new_allocator"* %this) unnamed_addr #3 align 2 {
  %1 = alloca %"class.__gnu_cxx::new_allocator"*, align 8, !llfi_index !652
  store %"class.__gnu_cxx::new_allocator"* %this, %"class.__gnu_cxx::new_allocator"** %1, align 8, !llfi_index !653
  %2 = load %"class.__gnu_cxx::new_allocator"** %1, !llfi_index !654
  %fi = call %"class.__gnu_cxx::new_allocator"* @injectFault12(i64 653, %"class.__gnu_cxx::new_allocator"* %2, i32 27, i32 0, i32 1, i32 0, i8* getelementptr inbounds ([5 x i8]* @load_namestr, i32 0, i32 0)), !llfi_injectfault !11
  ret void, !llfi_index !655
}

; Function Attrs: nounwind uwtable
define linkonce_odr void @_ZNSt16allocator_traitsISaIiEE10deallocateERS0_Pim(%"class.std::allocator"* %__a, i32* %__p, i64 %__n) #3 align 2 {
  %1 = alloca %"class.std::allocator"*, align 8, !llfi_index !656
  %2 = alloca i32*, align 8, !llfi_index !657
  %3 = alloca i64, align 8, !llfi_index !658
  store %"class.std::allocator"* %__a, %"class.std::allocator"** %1, align 8, !llfi_index !659
  store i32* %__p, i32** %2, align 8, !llfi_index !660
  store i64 %__n, i64* %3, align 8, !llfi_index !661
  %4 = load %"class.std::allocator"** %1, align 8, !llfi_index !662
  %fi = call %"class.std::allocator"* @injectFault8(i64 661, %"class.std::allocator"* %4, i32 27, i32 0, i32 1, i32 0, i8* getelementptr inbounds ([5 x i8]* @load_namestr, i32 0, i32 0)), !llfi_injectfault !11
  %5 = bitcast %"class.std::allocator"* %fi to %"class.__gnu_cxx::new_allocator"*, !llfi_index !663
  %fi1 = call %"class.__gnu_cxx::new_allocator"* @injectFault12(i64 662, %"class.__gnu_cxx::new_allocator"* %5, i32 44, i32 0, i32 1, i32 0, i8* getelementptr inbounds ([8 x i8]* @bitcast_namestr, i32 0, i32 0)), !llfi_injectfault !11
  %6 = load i32** %2, align 8, !llfi_index !664
  %fi2 = call i32* @injectFault1(i64 663, i32* %6, i32 27, i32 0, i32 1, i32 0, i8* getelementptr inbounds ([5 x i8]* @load_namestr, i32 0, i32 0)), !llfi_injectfault !11
  %7 = load i64* %3, align 8, !llfi_index !665
  %fi3 = call i64 @injectFault16(i64 664, i64 %7, i32 27, i32 0, i32 1, i32 0, i8* getelementptr inbounds ([5 x i8]* @load_namestr, i32 0, i32 0)), !llfi_injectfault !11
  call void @_ZN9__gnu_cxx13new_allocatorIiE10deallocateEPim(%"class.__gnu_cxx::new_allocator"* %fi1, i32* %fi2, i64 %fi3), !llfi_index !666
  ret void, !llfi_index !667
}

; Function Attrs: nounwind uwtable
define linkonce_odr void @_ZN9__gnu_cxx13new_allocatorIiE10deallocateEPim(%"class.__gnu_cxx::new_allocator"* %this, i32* %__p, i64) #3 align 2 {
  %2 = alloca %"class.__gnu_cxx::new_allocator"*, align 8, !llfi_index !668
  %3 = alloca i32*, align 8, !llfi_index !669
  %4 = alloca i64, align 8, !llfi_index !670
  store %"class.__gnu_cxx::new_allocator"* %this, %"class.__gnu_cxx::new_allocator"** %2, align 8, !llfi_index !671
  store i32* %__p, i32** %3, align 8, !llfi_index !672
  store i64 %0, i64* %4, align 8, !llfi_index !673
  %5 = load %"class.__gnu_cxx::new_allocator"** %2, !llfi_index !674
  %fi = call %"class.__gnu_cxx::new_allocator"* @injectFault12(i64 673, %"class.__gnu_cxx::new_allocator"* %5, i32 27, i32 0, i32 1, i32 0, i8* getelementptr inbounds ([5 x i8]* @load_namestr, i32 0, i32 0)), !llfi_injectfault !11
  %6 = load i32** %3, align 8, !llfi_index !675
  %fi1 = call i32* @injectFault1(i64 674, i32* %6, i32 27, i32 0, i32 1, i32 0, i8* getelementptr inbounds ([5 x i8]* @load_namestr, i32 0, i32 0)), !llfi_injectfault !11
  %7 = bitcast i32* %fi1 to i8*, !llfi_index !676
  %fi2 = call i8* @injectFault11(i64 675, i8* %7, i32 44, i32 0, i32 1, i32 0, i8* getelementptr inbounds ([8 x i8]* @bitcast_namestr, i32 0, i32 0)), !llfi_injectfault !11
  call void @_ZdlPv(i8* %fi2) #0, !llfi_index !677
  ret void, !llfi_index !678
}

; Function Attrs: nobuiltin nounwind
declare void @_ZdlPv(i8*) #6

; Function Attrs: inlinehint nounwind uwtable
define linkonce_odr void @_ZSt8_DestroyIPiEvT_S1_(i32* %__first, i32* %__last) #5 {
  %1 = alloca i32*, align 8, !llfi_index !679
  %2 = alloca i32*, align 8, !llfi_index !680
  store i32* %__first, i32** %1, align 8, !llfi_index !681
  store i32* %__last, i32** %2, align 8, !llfi_index !682
  %3 = load i32** %1, align 8, !llfi_index !683
  %fi = call i32* @injectFault1(i64 682, i32* %3, i32 27, i32 0, i32 1, i32 0, i8* getelementptr inbounds ([5 x i8]* @load_namestr, i32 0, i32 0)), !llfi_injectfault !11
  %4 = load i32** %2, align 8, !llfi_index !684
  %fi1 = call i32* @injectFault1(i64 683, i32* %4, i32 27, i32 0, i32 1, i32 0, i8* getelementptr inbounds ([5 x i8]* @load_namestr, i32 0, i32 0)), !llfi_injectfault !11
  call void @_ZNSt12_Destroy_auxILb1EE9__destroyIPiEEvT_S3_(i32* %fi, i32* %fi1), !llfi_index !685
  ret void, !llfi_index !686
}

; Function Attrs: nounwind uwtable
define linkonce_odr void @_ZNSt12_Destroy_auxILb1EE9__destroyIPiEEvT_S3_(i32*, i32*) #3 align 2 {
  %3 = alloca i32*, align 8, !llfi_index !687
  %4 = alloca i32*, align 8, !llfi_index !688
  store i32* %0, i32** %3, align 8, !llfi_index !689
  store i32* %1, i32** %4, align 8, !llfi_index !690
  ret void, !llfi_index !691
}

; Function Attrs: nounwind uwtable
define linkonce_odr void @_ZNSt12_Vector_baseIiSaIiEEC2ERKS0_(%"struct.std::_Vector_base"* %this, %"class.std::allocator"* %__a) unnamed_addr #3 align 2 {
  %1 = alloca %"struct.std::_Vector_base"*, align 8, !llfi_index !692
  %2 = alloca %"class.std::allocator"*, align 8, !llfi_index !693
  store %"struct.std::_Vector_base"* %this, %"struct.std::_Vector_base"** %1, align 8, !llfi_index !694
  store %"class.std::allocator"* %__a, %"class.std::allocator"** %2, align 8, !llfi_index !695
  %3 = load %"struct.std::_Vector_base"** %1, !llfi_index !696
  %fi = call %"struct.std::_Vector_base"* @injectFault6(i64 695, %"struct.std::_Vector_base"* %3, i32 27, i32 0, i32 1, i32 0, i8* getelementptr inbounds ([5 x i8]* @load_namestr, i32 0, i32 0)), !llfi_injectfault !11
  %4 = getelementptr %"struct.std::_Vector_base"* %fi, i32 0, i32 0, !llfi_index !697
  %fi1 = call %"struct.std::_Vector_base<int, std::allocator<int> >::_Vector_impl"* @injectFault7(i64 696, %"struct.std::_Vector_base<int, std::allocator<int> >::_Vector_impl"* %4, i32 29, i32 0, i32 1, i32 0, i8* getelementptr inbounds ([14 x i8]* @getelementptr_namestr, i32 0, i32 0)), !llfi_injectfault !11
  %5 = load %"class.std::allocator"** %2, align 8, !llfi_index !698
  %fi2 = call %"class.std::allocator"* @injectFault8(i64 697, %"class.std::allocator"* %5, i32 27, i32 0, i32 1, i32 0, i8* getelementptr inbounds ([5 x i8]* @load_namestr, i32 0, i32 0)), !llfi_injectfault !11
  call void @_ZNSt12_Vector_baseIiSaIiEE12_Vector_implC2ERKS0_(%"struct.std::_Vector_base<int, std::allocator<int> >::_Vector_impl"* %fi1, %"class.std::allocator"* %fi2) #0, !llfi_index !699
  ret void, !llfi_index !700
}

; Function Attrs: nounwind uwtable
define linkonce_odr void @_ZNSt6vectorIiSaIiEE19_M_range_initializeIPKiEEvT_S5_St20forward_iterator_tag(%"class.std::vector"* %this, i32* %__first, i32* %__last) #3 align 2 {
  %1 = alloca %"class.std::vector"*, align 8, !llfi_index !701
  %2 = alloca i32*, align 8, !llfi_index !702
  %3 = alloca i32*, align 8, !llfi_index !703
  %4 = alloca %"struct.std::forward_iterator_tag", align 1, !llfi_index !704
  %__n = alloca i64, align 8, !llfi_index !705
  store %"class.std::vector"* %this, %"class.std::vector"** %1, align 8, !llfi_index !706
  store i32* %__first, i32** %2, align 8, !llfi_index !707
  store i32* %__last, i32** %3, align 8, !llfi_index !708
  %5 = load %"class.std::vector"** %1, !llfi_index !709
  %fi = call %"class.std::vector"* @injectFault5(i64 708, %"class.std::vector"* %5, i32 27, i32 0, i32 1, i32 0, i8* getelementptr inbounds ([5 x i8]* @load_namestr, i32 0, i32 0)), !llfi_injectfault !11
  %6 = load i32** %2, align 8, !llfi_index !710
  %fi1 = call i32* @injectFault1(i64 709, i32* %6, i32 27, i32 0, i32 1, i32 0, i8* getelementptr inbounds ([5 x i8]* @load_namestr, i32 0, i32 0)), !llfi_injectfault !11
  %7 = load i32** %3, align 8, !llfi_index !711
  %fi2 = call i32* @injectFault1(i64 710, i32* %7, i32 27, i32 0, i32 1, i32 0, i8* getelementptr inbounds ([5 x i8]* @load_namestr, i32 0, i32 0)), !llfi_injectfault !11
  %8 = call i64 @_ZSt8distanceIPKiENSt15iterator_traitsIT_E15difference_typeES3_S3_(i32* %fi1, i32* %fi2), !llfi_index !712
  store i64 %8, i64* %__n, align 8, !llfi_index !713
  %9 = bitcast %"class.std::vector"* %fi to %"struct.std::_Vector_base"*, !llfi_index !714
  %fi3 = call %"struct.std::_Vector_base"* @injectFault6(i64 713, %"struct.std::_Vector_base"* %9, i32 44, i32 0, i32 1, i32 0, i8* getelementptr inbounds ([8 x i8]* @bitcast_namestr, i32 0, i32 0)), !llfi_injectfault !11
  %10 = load i64* %__n, align 8, !llfi_index !715
  %fi4 = call i64 @injectFault16(i64 714, i64 %10, i32 27, i32 0, i32 1, i32 0, i8* getelementptr inbounds ([5 x i8]* @load_namestr, i32 0, i32 0)), !llfi_injectfault !11
  %11 = call i32* @_ZNSt12_Vector_baseIiSaIiEE11_M_allocateEm(%"struct.std::_Vector_base"* %fi3, i64 %fi4), !llfi_index !716
  %12 = bitcast %"class.std::vector"* %fi to %"struct.std::_Vector_base"*, !llfi_index !717
  %fi5 = call %"struct.std::_Vector_base"* @injectFault6(i64 716, %"struct.std::_Vector_base"* %12, i32 44, i32 0, i32 1, i32 0, i8* getelementptr inbounds ([8 x i8]* @bitcast_namestr, i32 0, i32 0)), !llfi_injectfault !11
  %13 = getelementptr %"struct.std::_Vector_base"* %fi5, i32 0, i32 0, !llfi_index !718
  %fi6 = call %"struct.std::_Vector_base<int, std::allocator<int> >::_Vector_impl"* @injectFault7(i64 717, %"struct.std::_Vector_base<int, std::allocator<int> >::_Vector_impl"* %13, i32 29, i32 0, i32 1, i32 0, i8* getelementptr inbounds ([14 x i8]* @getelementptr_namestr, i32 0, i32 0)), !llfi_injectfault !11
  %14 = getelementptr %"struct.std::_Vector_base<int, std::allocator<int> >::_Vector_impl"* %fi6, i32 0, i32 0, !llfi_index !719
  %fi7 = call i32** @injectFault0(i64 718, i32** %14, i32 29, i32 0, i32 1, i32 0, i8* getelementptr inbounds ([14 x i8]* @getelementptr_namestr, i32 0, i32 0)), !llfi_injectfault !11
  store i32* %11, i32** %fi7, align 8, !llfi_index !720
  %15 = bitcast %"class.std::vector"* %fi to %"struct.std::_Vector_base"*, !llfi_index !721
  %fi8 = call %"struct.std::_Vector_base"* @injectFault6(i64 720, %"struct.std::_Vector_base"* %15, i32 44, i32 0, i32 1, i32 0, i8* getelementptr inbounds ([8 x i8]* @bitcast_namestr, i32 0, i32 0)), !llfi_injectfault !11
  %16 = getelementptr %"struct.std::_Vector_base"* %fi8, i32 0, i32 0, !llfi_index !722
  %fi9 = call %"struct.std::_Vector_base<int, std::allocator<int> >::_Vector_impl"* @injectFault7(i64 721, %"struct.std::_Vector_base<int, std::allocator<int> >::_Vector_impl"* %16, i32 29, i32 0, i32 1, i32 0, i8* getelementptr inbounds ([14 x i8]* @getelementptr_namestr, i32 0, i32 0)), !llfi_injectfault !11
  %17 = getelementptr %"struct.std::_Vector_base<int, std::allocator<int> >::_Vector_impl"* %fi9, i32 0, i32 0, !llfi_index !723
  %fi11 = call i32** @injectFault0(i64 722, i32** %17, i32 29, i32 0, i32 1, i32 0, i8* getelementptr inbounds ([14 x i8]* @getelementptr_namestr, i32 0, i32 0)), !llfi_injectfault !11
  %18 = load i32** %fi11, align 8, !llfi_index !724
  %fi12 = call i32* @injectFault1(i64 723, i32* %18, i32 27, i32 0, i32 1, i32 0, i8* getelementptr inbounds ([5 x i8]* @load_namestr, i32 0, i32 0)), !llfi_injectfault !11
  %19 = load i64* %__n, align 8, !llfi_index !725
  %fi13 = call i64 @injectFault16(i64 724, i64 %19, i32 27, i32 0, i32 1, i32 0, i8* getelementptr inbounds ([5 x i8]* @load_namestr, i32 0, i32 0)), !llfi_injectfault !11
  %20 = getelementptr i32* %fi12, i64 %fi13, !llfi_index !726
  %fi14 = call i32* @injectFault1(i64 725, i32* %20, i32 29, i32 0, i32 1, i32 0, i8* getelementptr inbounds ([14 x i8]* @getelementptr_namestr, i32 0, i32 0)), !llfi_injectfault !11
  %21 = bitcast %"class.std::vector"* %fi to %"struct.std::_Vector_base"*, !llfi_index !727
  %fi15 = call %"struct.std::_Vector_base"* @injectFault6(i64 726, %"struct.std::_Vector_base"* %21, i32 44, i32 0, i32 1, i32 0, i8* getelementptr inbounds ([8 x i8]* @bitcast_namestr, i32 0, i32 0)), !llfi_injectfault !11
  %22 = getelementptr %"struct.std::_Vector_base"* %fi15, i32 0, i32 0, !llfi_index !728
  %fi16 = call %"struct.std::_Vector_base<int, std::allocator<int> >::_Vector_impl"* @injectFault7(i64 727, %"struct.std::_Vector_base<int, std::allocator<int> >::_Vector_impl"* %22, i32 29, i32 0, i32 1, i32 0, i8* getelementptr inbounds ([14 x i8]* @getelementptr_namestr, i32 0, i32 0)), !llfi_injectfault !11
  %23 = getelementptr %"struct.std::_Vector_base<int, std::allocator<int> >::_Vector_impl"* %fi16, i32 0, i32 2, !llfi_index !729
  %fi17 = call i32** @injectFault0(i64 728, i32** %23, i32 29, i32 0, i32 1, i32 0, i8* getelementptr inbounds ([14 x i8]* @getelementptr_namestr, i32 0, i32 0)), !llfi_injectfault !11
  store i32* %fi14, i32** %fi17, align 8, !llfi_index !730
  %24 = load i32** %2, align 8, !llfi_index !731
  %fi18 = call i32* @injectFault1(i64 730, i32* %24, i32 27, i32 0, i32 1, i32 0, i8* getelementptr inbounds ([5 x i8]* @load_namestr, i32 0, i32 0)), !llfi_injectfault !11
  %25 = load i32** %3, align 8, !llfi_index !732
  %fi19 = call i32* @injectFault1(i64 731, i32* %25, i32 27, i32 0, i32 1, i32 0, i8* getelementptr inbounds ([5 x i8]* @load_namestr, i32 0, i32 0)), !llfi_injectfault !11
  %26 = bitcast %"class.std::vector"* %fi to %"struct.std::_Vector_base"*, !llfi_index !733
  %fi20 = call %"struct.std::_Vector_base"* @injectFault6(i64 732, %"struct.std::_Vector_base"* %26, i32 44, i32 0, i32 1, i32 0, i8* getelementptr inbounds ([8 x i8]* @bitcast_namestr, i32 0, i32 0)), !llfi_injectfault !11
  %27 = getelementptr %"struct.std::_Vector_base"* %fi20, i32 0, i32 0, !llfi_index !734
  %fi21 = call %"struct.std::_Vector_base<int, std::allocator<int> >::_Vector_impl"* @injectFault7(i64 733, %"struct.std::_Vector_base<int, std::allocator<int> >::_Vector_impl"* %27, i32 29, i32 0, i32 1, i32 0, i8* getelementptr inbounds ([14 x i8]* @getelementptr_namestr, i32 0, i32 0)), !llfi_injectfault !11
  %28 = getelementptr %"struct.std::_Vector_base<int, std::allocator<int> >::_Vector_impl"* %fi21, i32 0, i32 0, !llfi_index !735
  %fi22 = call i32** @injectFault0(i64 734, i32** %28, i32 29, i32 0, i32 1, i32 0, i8* getelementptr inbounds ([14 x i8]* @getelementptr_namestr, i32 0, i32 0)), !llfi_injectfault !11
  %29 = load i32** %fi22, align 8, !llfi_index !736
  %fi23 = call i32* @injectFault1(i64 735, i32* %29, i32 27, i32 0, i32 1, i32 0, i8* getelementptr inbounds ([5 x i8]* @load_namestr, i32 0, i32 0)), !llfi_injectfault !11
  %30 = bitcast %"class.std::vector"* %fi to %"struct.std::_Vector_base"*, !llfi_index !737
  %fi24 = call %"struct.std::_Vector_base"* @injectFault6(i64 736, %"struct.std::_Vector_base"* %30, i32 44, i32 0, i32 1, i32 0, i8* getelementptr inbounds ([8 x i8]* @bitcast_namestr, i32 0, i32 0)), !llfi_injectfault !11
  %31 = call %"class.std::allocator"* @_ZNSt12_Vector_baseIiSaIiEE19_M_get_Tp_allocatorEv(%"struct.std::_Vector_base"* %fi24) #0, !llfi_index !738
  %32 = call i32* @_ZSt22__uninitialized_copy_aIPKiPiiET0_T_S4_S3_RSaIT1_E(i32* %fi18, i32* %fi19, i32* %fi23, %"class.std::allocator"* %31), !llfi_index !739
  %33 = bitcast %"class.std::vector"* %fi to %"struct.std::_Vector_base"*, !llfi_index !740
  %fi10 = call %"struct.std::_Vector_base"* @injectFault6(i64 739, %"struct.std::_Vector_base"* %33, i32 44, i32 0, i32 1, i32 0, i8* getelementptr inbounds ([8 x i8]* @bitcast_namestr, i32 0, i32 0)), !llfi_injectfault !11
  %34 = getelementptr %"struct.std::_Vector_base"* %fi10, i32 0, i32 0, !llfi_index !741
  %fi25 = call %"struct.std::_Vector_base<int, std::allocator<int> >::_Vector_impl"* @injectFault7(i64 740, %"struct.std::_Vector_base<int, std::allocator<int> >::_Vector_impl"* %34, i32 29, i32 0, i32 1, i32 0, i8* getelementptr inbounds ([14 x i8]* @getelementptr_namestr, i32 0, i32 0)), !llfi_injectfault !11
  %35 = getelementptr %"struct.std::_Vector_base<int, std::allocator<int> >::_Vector_impl"* %fi25, i32 0, i32 1, !llfi_index !742
  %fi26 = call i32** @injectFault0(i64 741, i32** %35, i32 29, i32 0, i32 1, i32 0, i8* getelementptr inbounds ([14 x i8]* @getelementptr_namestr, i32 0, i32 0)), !llfi_injectfault !11
  store i32* %32, i32** %fi26, align 8, !llfi_index !743
  ret void, !llfi_index !744
}

; Function Attrs: nounwind uwtable
define linkonce_odr i32* @_ZNKSt16initializer_listIiE5beginEv(%"class.std::initializer_list"* %this) #3 align 2 {
  %1 = alloca %"class.std::initializer_list"*, align 8, !llfi_index !745
  store %"class.std::initializer_list"* %this, %"class.std::initializer_list"** %1, align 8, !llfi_index !746
  %2 = load %"class.std::initializer_list"** %1, !llfi_index !747
  %fi = call %"class.std::initializer_list"* @injectFault22(i64 746, %"class.std::initializer_list"* %2, i32 27, i32 0, i32 1, i32 0, i8* getelementptr inbounds ([5 x i8]* @load_namestr, i32 0, i32 0)), !llfi_injectfault !11
  %3 = getelementptr %"class.std::initializer_list"* %fi, i32 0, i32 0, !llfi_index !748
  %fi1 = call i32** @injectFault0(i64 747, i32** %3, i32 29, i32 0, i32 1, i32 0, i8* getelementptr inbounds ([14 x i8]* @getelementptr_namestr, i32 0, i32 0)), !llfi_injectfault !11
  %4 = load i32** %fi1, align 8, !llfi_index !749
  %fi2 = call i32* @injectFault1(i64 748, i32* %4, i32 27, i32 0, i32 1, i32 0, i8* getelementptr inbounds ([5 x i8]* @load_namestr, i32 0, i32 0)), !llfi_injectfault !11
  ret i32* %fi2, !llfi_index !750
}

; Function Attrs: nounwind uwtable
define linkonce_odr i32* @_ZNKSt16initializer_listIiE3endEv(%"class.std::initializer_list"* %this) #3 align 2 {
  %1 = alloca %"class.std::initializer_list"*, align 8, !llfi_index !751
  store %"class.std::initializer_list"* %this, %"class.std::initializer_list"** %1, align 8, !llfi_index !752
  %2 = load %"class.std::initializer_list"** %1, !llfi_index !753
  %fi = call %"class.std::initializer_list"* @injectFault22(i64 752, %"class.std::initializer_list"* %2, i32 27, i32 0, i32 1, i32 0, i8* getelementptr inbounds ([5 x i8]* @load_namestr, i32 0, i32 0)), !llfi_injectfault !11
  %3 = call i32* @_ZNKSt16initializer_listIiE5beginEv(%"class.std::initializer_list"* %fi) #0, !llfi_index !754
  %4 = call i64 @_ZNKSt16initializer_listIiE4sizeEv(%"class.std::initializer_list"* %fi) #0, !llfi_index !755
  %5 = getelementptr i32* %3, i64 %4, !llfi_index !756
  %fi1 = call i32* @injectFault1(i64 755, i32* %5, i32 29, i32 0, i32 1, i32 0, i8* getelementptr inbounds ([14 x i8]* @getelementptr_namestr, i32 0, i32 0)), !llfi_injectfault !11
  ret i32* %fi1, !llfi_index !757
}

; Function Attrs: nounwind uwtable
define linkonce_odr i64 @_ZNKSt16initializer_listIiE4sizeEv(%"class.std::initializer_list"* %this) #3 align 2 {
  %1 = alloca %"class.std::initializer_list"*, align 8, !llfi_index !758
  store %"class.std::initializer_list"* %this, %"class.std::initializer_list"** %1, align 8, !llfi_index !759
  %2 = load %"class.std::initializer_list"** %1, !llfi_index !760
  %fi = call %"class.std::initializer_list"* @injectFault22(i64 759, %"class.std::initializer_list"* %2, i32 27, i32 0, i32 1, i32 0, i8* getelementptr inbounds ([5 x i8]* @load_namestr, i32 0, i32 0)), !llfi_injectfault !11
  %3 = getelementptr %"class.std::initializer_list"* %fi, i32 0, i32 1, !llfi_index !761
  %fi1 = call i64* @injectFault14(i64 760, i64* %3, i32 29, i32 0, i32 1, i32 0, i8* getelementptr inbounds ([14 x i8]* @getelementptr_namestr, i32 0, i32 0)), !llfi_injectfault !11
  %4 = load i64* %fi1, align 8, !llfi_index !762
  %fi2 = call i64 @injectFault16(i64 761, i64 %4, i32 27, i32 0, i32 1, i32 0, i8* getelementptr inbounds ([5 x i8]* @load_namestr, i32 0, i32 0)), !llfi_injectfault !11
  ret i64 %fi2, !llfi_index !763
}

; Function Attrs: inlinehint nounwind uwtable
define linkonce_odr i64 @_ZSt8distanceIPKiENSt15iterator_traitsIT_E15difference_typeES3_S3_(i32* %__first, i32* %__last) #5 {
  %1 = alloca i32*, align 8, !llfi_index !764
  %2 = alloca i32*, align 8, !llfi_index !765
  %3 = alloca %"struct.std::random_access_iterator_tag", align 1, !llfi_index !766
  %4 = alloca %"struct.std::random_access_iterator_tag", align 1, !llfi_index !767
  store i32* %__first, i32** %1, align 8, !llfi_index !768
  store i32* %__last, i32** %2, align 8, !llfi_index !769
  %5 = load i32** %1, align 8, !llfi_index !770
  %fi = call i32* @injectFault1(i64 769, i32* %5, i32 27, i32 0, i32 1, i32 0, i8* getelementptr inbounds ([5 x i8]* @load_namestr, i32 0, i32 0)), !llfi_injectfault !11
  %6 = load i32** %2, align 8, !llfi_index !771
  %fi1 = call i32* @injectFault1(i64 770, i32* %6, i32 27, i32 0, i32 1, i32 0, i8* getelementptr inbounds ([5 x i8]* @load_namestr, i32 0, i32 0)), !llfi_injectfault !11
  call void @_ZSt19__iterator_categoryIPKiENSt15iterator_traitsIT_E17iterator_categoryERKS3_(i32** %1), !llfi_index !772
  %7 = call i64 @_ZSt10__distanceIPKiENSt15iterator_traitsIT_E15difference_typeES3_S3_St26random_access_iterator_tag(i32* %fi, i32* %fi1), !llfi_index !773
  ret i64 %7, !llfi_index !774
}

; Function Attrs: nounwind uwtable
define linkonce_odr i32* @_ZNSt12_Vector_baseIiSaIiEE11_M_allocateEm(%"struct.std::_Vector_base"* %this, i64 %__n) #3 align 2 {
  %1 = alloca %"struct.std::_Vector_base"*, align 8, !llfi_index !775
  %2 = alloca i64, align 8, !llfi_index !776
  store %"struct.std::_Vector_base"* %this, %"struct.std::_Vector_base"** %1, align 8, !llfi_index !777
  store i64 %__n, i64* %2, align 8, !llfi_index !778
  %3 = load %"struct.std::_Vector_base"** %1, !llfi_index !779
  %fi = call %"struct.std::_Vector_base"* @injectFault6(i64 778, %"struct.std::_Vector_base"* %3, i32 27, i32 0, i32 1, i32 0, i8* getelementptr inbounds ([5 x i8]* @load_namestr, i32 0, i32 0)), !llfi_injectfault !11
  %4 = load i64* %2, align 8, !llfi_index !780
  %fi1 = call i64 @injectFault16(i64 779, i64 %4, i32 27, i32 0, i32 1, i32 0, i8* getelementptr inbounds ([5 x i8]* @load_namestr, i32 0, i32 0)), !llfi_injectfault !11
  %5 = icmp ne i64 %fi1, 0, !llfi_index !781
  %fi2 = call i1 @injectFault4(i64 780, i1 %5, i32 46, i32 0, i32 1, i32 0, i8* getelementptr inbounds ([5 x i8]* @icmp_namestr, i32 0, i32 0)), !llfi_injectfault !11
  br i1 %fi2, label %6, label %11, !llfi_index !782

; <label>:6                                       ; preds = %0
  %7 = getelementptr %"struct.std::_Vector_base"* %fi, i32 0, i32 0, !llfi_index !783
  %fi3 = call %"struct.std::_Vector_base<int, std::allocator<int> >::_Vector_impl"* @injectFault7(i64 782, %"struct.std::_Vector_base<int, std::allocator<int> >::_Vector_impl"* %7, i32 29, i32 0, i32 1, i32 0, i8* getelementptr inbounds ([14 x i8]* @getelementptr_namestr, i32 0, i32 0)), !llfi_injectfault !11
  %8 = bitcast %"struct.std::_Vector_base<int, std::allocator<int> >::_Vector_impl"* %fi3 to %"class.std::allocator"*, !llfi_index !784
  %fi4 = call %"class.std::allocator"* @injectFault8(i64 783, %"class.std::allocator"* %8, i32 44, i32 0, i32 1, i32 0, i8* getelementptr inbounds ([8 x i8]* @bitcast_namestr, i32 0, i32 0)), !llfi_injectfault !11
  %9 = load i64* %2, align 8, !llfi_index !785
  %fi5 = call i64 @injectFault16(i64 784, i64 %9, i32 27, i32 0, i32 1, i32 0, i8* getelementptr inbounds ([5 x i8]* @load_namestr, i32 0, i32 0)), !llfi_injectfault !11
  %10 = call i32* @_ZNSt16allocator_traitsISaIiEE8allocateERS0_m(%"class.std::allocator"* %fi4, i64 %fi5), !llfi_index !786
  br label %12, !llfi_index !787

; <label>:11                                      ; preds = %0
  br label %12, !llfi_index !788

; <label>:12                                      ; preds = %11, %6
  %13 = phi i32* [ %10, %6 ], [ null, %11 ], !llfi_index !789
  ret i32* %13, !llfi_index !790
}

; Function Attrs: inlinehint nounwind uwtable
define linkonce_odr i32* @_ZSt22__uninitialized_copy_aIPKiPiiET0_T_S4_S3_RSaIT1_E(i32* %__first, i32* %__last, i32* %__result, %"class.std::allocator"*) #5 {
  %2 = alloca i32*, align 8, !llfi_index !791
  %3 = alloca i32*, align 8, !llfi_index !792
  %4 = alloca i32*, align 8, !llfi_index !793
  %5 = alloca %"class.std::allocator"*, align 8, !llfi_index !794
  store i32* %__first, i32** %2, align 8, !llfi_index !795
  store i32* %__last, i32** %3, align 8, !llfi_index !796
  store i32* %__result, i32** %4, align 8, !llfi_index !797
  store %"class.std::allocator"* %0, %"class.std::allocator"** %5, align 8, !llfi_index !798
  %6 = load i32** %2, align 8, !llfi_index !799
  %fi = call i32* @injectFault1(i64 798, i32* %6, i32 27, i32 0, i32 1, i32 0, i8* getelementptr inbounds ([5 x i8]* @load_namestr, i32 0, i32 0)), !llfi_injectfault !11
  %7 = load i32** %3, align 8, !llfi_index !800
  %fi1 = call i32* @injectFault1(i64 799, i32* %7, i32 27, i32 0, i32 1, i32 0, i8* getelementptr inbounds ([5 x i8]* @load_namestr, i32 0, i32 0)), !llfi_injectfault !11
  %8 = load i32** %4, align 8, !llfi_index !801
  %fi2 = call i32* @injectFault1(i64 800, i32* %8, i32 27, i32 0, i32 1, i32 0, i8* getelementptr inbounds ([5 x i8]* @load_namestr, i32 0, i32 0)), !llfi_injectfault !11
  %9 = call i32* @_ZSt18uninitialized_copyIPKiPiET0_T_S4_S3_(i32* %fi, i32* %fi1, i32* %fi2), !llfi_index !802
  ret i32* %9, !llfi_index !803
}

; Function Attrs: inlinehint nounwind uwtable
define linkonce_odr i32* @_ZSt18uninitialized_copyIPKiPiET0_T_S4_S3_(i32* %__first, i32* %__last, i32* %__result) #5 {
  %1 = alloca i32*, align 8, !llfi_index !804
  %2 = alloca i32*, align 8, !llfi_index !805
  %3 = alloca i32*, align 8, !llfi_index !806
  %__assignable = alloca i8, align 1, !llfi_index !807
  store i32* %__first, i32** %1, align 8, !llfi_index !808
  store i32* %__last, i32** %2, align 8, !llfi_index !809
  store i32* %__result, i32** %3, align 8, !llfi_index !810
  store i8 1, i8* %__assignable, align 1, !llfi_index !811
  %4 = load i32** %1, align 8, !llfi_index !812
  %fi = call i32* @injectFault1(i64 811, i32* %4, i32 27, i32 0, i32 1, i32 0, i8* getelementptr inbounds ([5 x i8]* @load_namestr, i32 0, i32 0)), !llfi_injectfault !11
  %5 = load i32** %2, align 8, !llfi_index !813
  %fi1 = call i32* @injectFault1(i64 812, i32* %5, i32 27, i32 0, i32 1, i32 0, i8* getelementptr inbounds ([5 x i8]* @load_namestr, i32 0, i32 0)), !llfi_injectfault !11
  %6 = load i32** %3, align 8, !llfi_index !814
  %fi2 = call i32* @injectFault1(i64 813, i32* %6, i32 27, i32 0, i32 1, i32 0, i8* getelementptr inbounds ([5 x i8]* @load_namestr, i32 0, i32 0)), !llfi_injectfault !11
  %7 = call i32* @_ZNSt20__uninitialized_copyILb1EE13__uninit_copyIPKiPiEET0_T_S6_S5_(i32* %fi, i32* %fi1, i32* %fi2), !llfi_index !815
  ret i32* %7, !llfi_index !816
}

; Function Attrs: nounwind uwtable
define linkonce_odr i32* @_ZNSt20__uninitialized_copyILb1EE13__uninit_copyIPKiPiEET0_T_S6_S5_(i32* %__first, i32* %__last, i32* %__result) #3 align 2 {
  %1 = alloca i32*, align 8, !llfi_index !817
  %2 = alloca i32*, align 8, !llfi_index !818
  %3 = alloca i32*, align 8, !llfi_index !819
  store i32* %__first, i32** %1, align 8, !llfi_index !820
  store i32* %__last, i32** %2, align 8, !llfi_index !821
  store i32* %__result, i32** %3, align 8, !llfi_index !822
  %4 = load i32** %1, align 8, !llfi_index !823
  %fi = call i32* @injectFault1(i64 822, i32* %4, i32 27, i32 0, i32 1, i32 0, i8* getelementptr inbounds ([5 x i8]* @load_namestr, i32 0, i32 0)), !llfi_injectfault !11
  %5 = load i32** %2, align 8, !llfi_index !824
  %fi1 = call i32* @injectFault1(i64 823, i32* %5, i32 27, i32 0, i32 1, i32 0, i8* getelementptr inbounds ([5 x i8]* @load_namestr, i32 0, i32 0)), !llfi_injectfault !11
  %6 = load i32** %3, align 8, !llfi_index !825
  %fi2 = call i32* @injectFault1(i64 824, i32* %6, i32 27, i32 0, i32 1, i32 0, i8* getelementptr inbounds ([5 x i8]* @load_namestr, i32 0, i32 0)), !llfi_injectfault !11
  %7 = call i32* @_ZSt4copyIPKiPiET0_T_S4_S3_(i32* %fi, i32* %fi1, i32* %fi2), !llfi_index !826
  ret i32* %7, !llfi_index !827
}

; Function Attrs: inlinehint nounwind uwtable
define linkonce_odr i32* @_ZSt4copyIPKiPiET0_T_S4_S3_(i32* %__first, i32* %__last, i32* %__result) #5 {
  %1 = alloca i32*, align 8, !llfi_index !828
  %2 = alloca i32*, align 8, !llfi_index !829
  %3 = alloca i32*, align 8, !llfi_index !830
  store i32* %__first, i32** %1, align 8, !llfi_index !831
  store i32* %__last, i32** %2, align 8, !llfi_index !832
  store i32* %__result, i32** %3, align 8, !llfi_index !833
  %4 = load i32** %1, align 8, !llfi_index !834
  %fi = call i32* @injectFault1(i64 833, i32* %4, i32 27, i32 0, i32 1, i32 0, i8* getelementptr inbounds ([5 x i8]* @load_namestr, i32 0, i32 0)), !llfi_injectfault !11
  %5 = call i32* @_ZSt12__miter_baseIPKiENSt11_Miter_baseIT_E13iterator_typeES3_(i32* %fi), !llfi_index !835
  %6 = load i32** %2, align 8, !llfi_index !836
  %fi1 = call i32* @injectFault1(i64 835, i32* %6, i32 27, i32 0, i32 1, i32 0, i8* getelementptr inbounds ([5 x i8]* @load_namestr, i32 0, i32 0)), !llfi_injectfault !11
  %7 = call i32* @_ZSt12__miter_baseIPKiENSt11_Miter_baseIT_E13iterator_typeES3_(i32* %fi1), !llfi_index !837
  %8 = load i32** %3, align 8, !llfi_index !838
  %fi2 = call i32* @injectFault1(i64 837, i32* %8, i32 27, i32 0, i32 1, i32 0, i8* getelementptr inbounds ([5 x i8]* @load_namestr, i32 0, i32 0)), !llfi_injectfault !11
  %9 = call i32* @_ZSt14__copy_move_a2ILb0EPKiPiET1_T0_S4_S3_(i32* %5, i32* %7, i32* %fi2), !llfi_index !839
  ret i32* %9, !llfi_index !840
}

; Function Attrs: inlinehint nounwind uwtable
define linkonce_odr i32* @_ZSt14__copy_move_a2ILb0EPKiPiET1_T0_S4_S3_(i32* %__first, i32* %__last, i32* %__result) #5 {
  %1 = alloca i32*, align 8, !llfi_index !841
  %2 = alloca i32*, align 8, !llfi_index !842
  %3 = alloca i32*, align 8, !llfi_index !843
  store i32* %__first, i32** %1, align 8, !llfi_index !844
  store i32* %__last, i32** %2, align 8, !llfi_index !845
  store i32* %__result, i32** %3, align 8, !llfi_index !846
  %4 = load i32** %1, align 8, !llfi_index !847
  %fi = call i32* @injectFault1(i64 846, i32* %4, i32 27, i32 0, i32 1, i32 0, i8* getelementptr inbounds ([5 x i8]* @load_namestr, i32 0, i32 0)), !llfi_injectfault !11
  %5 = call i32* @_ZSt12__niter_baseIPKiENSt11_Niter_baseIT_E13iterator_typeES3_(i32* %fi), !llfi_index !848
  %6 = load i32** %2, align 8, !llfi_index !849
  %fi1 = call i32* @injectFault1(i64 848, i32* %6, i32 27, i32 0, i32 1, i32 0, i8* getelementptr inbounds ([5 x i8]* @load_namestr, i32 0, i32 0)), !llfi_injectfault !11
  %7 = call i32* @_ZSt12__niter_baseIPKiENSt11_Niter_baseIT_E13iterator_typeES3_(i32* %fi1), !llfi_index !850
  %8 = load i32** %3, align 8, !llfi_index !851
  %fi2 = call i32* @injectFault1(i64 850, i32* %8, i32 27, i32 0, i32 1, i32 0, i8* getelementptr inbounds ([5 x i8]* @load_namestr, i32 0, i32 0)), !llfi_injectfault !11
  %9 = call i32* @_ZSt12__niter_baseIPiENSt11_Niter_baseIT_E13iterator_typeES2_(i32* %fi2), !llfi_index !852
  %10 = call i32* @_ZSt13__copy_move_aILb0EPKiPiET1_T0_S4_S3_(i32* %5, i32* %7, i32* %9), !llfi_index !853
  ret i32* %10, !llfi_index !854
}

; Function Attrs: inlinehint nounwind uwtable
define linkonce_odr i32* @_ZSt12__miter_baseIPKiENSt11_Miter_baseIT_E13iterator_typeES3_(i32* %__it) #5 {
  %1 = alloca i32*, align 8, !llfi_index !855
  store i32* %__it, i32** %1, align 8, !llfi_index !856
  %2 = load i32** %1, align 8, !llfi_index !857
  %fi = call i32* @injectFault1(i64 856, i32* %2, i32 27, i32 0, i32 1, i32 0, i8* getelementptr inbounds ([5 x i8]* @load_namestr, i32 0, i32 0)), !llfi_injectfault !11
  %3 = call i32* @_ZNSt10_Iter_baseIPKiLb0EE7_S_baseES1_(i32* %fi), !llfi_index !858
  ret i32* %3, !llfi_index !859
}

; Function Attrs: nounwind uwtable
define linkonce_odr i32* @_ZNSt10_Iter_baseIPKiLb0EE7_S_baseES1_(i32* %__it) #3 align 2 {
  %1 = alloca i32*, align 8, !llfi_index !860
  store i32* %__it, i32** %1, align 8, !llfi_index !861
  %2 = load i32** %1, align 8, !llfi_index !862
  %fi = call i32* @injectFault1(i64 861, i32* %2, i32 27, i32 0, i32 1, i32 0, i8* getelementptr inbounds ([5 x i8]* @load_namestr, i32 0, i32 0)), !llfi_injectfault !11
  ret i32* %fi, !llfi_index !863
}

; Function Attrs: inlinehint nounwind uwtable
define linkonce_odr i32* @_ZSt13__copy_move_aILb0EPKiPiET1_T0_S4_S3_(i32* %__first, i32* %__last, i32* %__result) #5 {
  %1 = alloca i32*, align 8, !llfi_index !864
  %2 = alloca i32*, align 8, !llfi_index !865
  %3 = alloca i32*, align 8, !llfi_index !866
  %__simple = alloca i8, align 1, !llfi_index !867
  store i32* %__first, i32** %1, align 8, !llfi_index !868
  store i32* %__last, i32** %2, align 8, !llfi_index !869
  store i32* %__result, i32** %3, align 8, !llfi_index !870
  store i8 1, i8* %__simple, align 1, !llfi_index !871
  %4 = load i32** %1, align 8, !llfi_index !872
  %fi = call i32* @injectFault1(i64 871, i32* %4, i32 27, i32 0, i32 1, i32 0, i8* getelementptr inbounds ([5 x i8]* @load_namestr, i32 0, i32 0)), !llfi_injectfault !11
  %5 = load i32** %2, align 8, !llfi_index !873
  %fi1 = call i32* @injectFault1(i64 872, i32* %5, i32 27, i32 0, i32 1, i32 0, i8* getelementptr inbounds ([5 x i8]* @load_namestr, i32 0, i32 0)), !llfi_injectfault !11
  %6 = load i32** %3, align 8, !llfi_index !874
  %fi2 = call i32* @injectFault1(i64 873, i32* %6, i32 27, i32 0, i32 1, i32 0, i8* getelementptr inbounds ([5 x i8]* @load_namestr, i32 0, i32 0)), !llfi_injectfault !11
  %7 = call i32* @_ZNSt11__copy_moveILb0ELb1ESt26random_access_iterator_tagE8__copy_mIiEEPT_PKS3_S6_S4_(i32* %fi, i32* %fi1, i32* %fi2), !llfi_index !875
  ret i32* %7, !llfi_index !876
}

; Function Attrs: inlinehint nounwind uwtable
define linkonce_odr i32* @_ZSt12__niter_baseIPKiENSt11_Niter_baseIT_E13iterator_typeES3_(i32* %__it) #5 {
  %1 = alloca i32*, align 8, !llfi_index !877
  store i32* %__it, i32** %1, align 8, !llfi_index !878
  %2 = load i32** %1, align 8, !llfi_index !879
  %fi = call i32* @injectFault1(i64 878, i32* %2, i32 27, i32 0, i32 1, i32 0, i8* getelementptr inbounds ([5 x i8]* @load_namestr, i32 0, i32 0)), !llfi_injectfault !11
  %3 = call i32* @_ZNSt10_Iter_baseIPKiLb0EE7_S_baseES1_(i32* %fi), !llfi_index !880
  ret i32* %3, !llfi_index !881
}

; Function Attrs: inlinehint nounwind uwtable
define linkonce_odr i32* @_ZSt12__niter_baseIPiENSt11_Niter_baseIT_E13iterator_typeES2_(i32* %__it) #5 {
  %1 = alloca i32*, align 8, !llfi_index !882
  store i32* %__it, i32** %1, align 8, !llfi_index !883
  %2 = load i32** %1, align 8, !llfi_index !884
  %fi = call i32* @injectFault1(i64 883, i32* %2, i32 27, i32 0, i32 1, i32 0, i8* getelementptr inbounds ([5 x i8]* @load_namestr, i32 0, i32 0)), !llfi_injectfault !11
  %3 = call i32* @_ZNSt10_Iter_baseIPiLb0EE7_S_baseES0_(i32* %fi), !llfi_index !885
  ret i32* %3, !llfi_index !886
}

; Function Attrs: nounwind uwtable
define linkonce_odr i32* @_ZNSt10_Iter_baseIPiLb0EE7_S_baseES0_(i32* %__it) #3 align 2 {
  %1 = alloca i32*, align 8, !llfi_index !887
  store i32* %__it, i32** %1, align 8, !llfi_index !888
  %2 = load i32** %1, align 8, !llfi_index !889
  %fi = call i32* @injectFault1(i64 888, i32* %2, i32 27, i32 0, i32 1, i32 0, i8* getelementptr inbounds ([5 x i8]* @load_namestr, i32 0, i32 0)), !llfi_injectfault !11
  ret i32* %fi, !llfi_index !890
}

; Function Attrs: nounwind uwtable
define linkonce_odr i32* @_ZNSt11__copy_moveILb0ELb1ESt26random_access_iterator_tagE8__copy_mIiEEPT_PKS3_S6_S4_(i32* %__first, i32* %__last, i32* %__result) #3 align 2 {
  %1 = alloca i32*, align 8, !llfi_index !891
  %2 = alloca i32*, align 8, !llfi_index !892
  %3 = alloca i32*, align 8, !llfi_index !893
  %_Num = alloca i64, align 8, !llfi_index !894
  store i32* %__first, i32** %1, align 8, !llfi_index !895
  store i32* %__last, i32** %2, align 8, !llfi_index !896
  store i32* %__result, i32** %3, align 8, !llfi_index !897
  %4 = load i32** %2, align 8, !llfi_index !898
  %fi = call i32* @injectFault1(i64 897, i32* %4, i32 27, i32 0, i32 1, i32 0, i8* getelementptr inbounds ([5 x i8]* @load_namestr, i32 0, i32 0)), !llfi_injectfault !11
  %5 = load i32** %1, align 8, !llfi_index !899
  %fi1 = call i32* @injectFault1(i64 898, i32* %5, i32 27, i32 0, i32 1, i32 0, i8* getelementptr inbounds ([5 x i8]* @load_namestr, i32 0, i32 0)), !llfi_injectfault !11
  %6 = ptrtoint i32* %fi to i64, !llfi_index !900
  %fi2 = call i64 @injectFault16(i64 899, i64 %6, i32 42, i32 0, i32 1, i32 0, i8* getelementptr inbounds ([9 x i8]* @ptrtoint_namestr, i32 0, i32 0)), !llfi_injectfault !11
  %7 = ptrtoint i32* %fi1 to i64, !llfi_index !901
  %fi3 = call i64 @injectFault16(i64 900, i64 %7, i32 42, i32 0, i32 1, i32 0, i8* getelementptr inbounds ([9 x i8]* @ptrtoint_namestr, i32 0, i32 0)), !llfi_injectfault !11
  %8 = sub i64 %fi2, %fi3, !llfi_index !902
  %fi4 = call i64 @injectFault16(i64 901, i64 %8, i32 10, i32 0, i32 1, i32 0, i8* getelementptr inbounds ([4 x i8]* @sub_namestr, i32 0, i32 0)), !llfi_injectfault !11
  %9 = sdiv exact i64 %fi4, 4, !llfi_index !903
  %fi6 = call i64 @injectFault16(i64 902, i64 %9, i32 15, i32 0, i32 1, i32 0, i8* getelementptr inbounds ([5 x i8]* @sdiv_namestr, i32 0, i32 0)), !llfi_injectfault !11
  store i64 %fi6, i64* %_Num, align 8, !llfi_index !904
  %10 = load i64* %_Num, align 8, !llfi_index !905
  %fi7 = call i64 @injectFault16(i64 904, i64 %10, i32 27, i32 0, i32 1, i32 0, i8* getelementptr inbounds ([5 x i8]* @load_namestr, i32 0, i32 0)), !llfi_injectfault !11
  %11 = icmp ne i64 %fi7, 0, !llfi_index !906
  %fi8 = call i1 @injectFault4(i64 905, i1 %11, i32 46, i32 0, i32 1, i32 0, i8* getelementptr inbounds ([5 x i8]* @icmp_namestr, i32 0, i32 0)), !llfi_injectfault !11
  br i1 %fi8, label %12, label %19, !llfi_index !907

; <label>:12                                      ; preds = %0
  %13 = load i32** %3, align 8, !llfi_index !908
  %fi9 = call i32* @injectFault1(i64 907, i32* %13, i32 27, i32 0, i32 1, i32 0, i8* getelementptr inbounds ([5 x i8]* @load_namestr, i32 0, i32 0)), !llfi_injectfault !11
  %14 = bitcast i32* %fi9 to i8*, !llfi_index !909
  %fi10 = call i8* @injectFault11(i64 908, i8* %14, i32 44, i32 0, i32 1, i32 0, i8* getelementptr inbounds ([8 x i8]* @bitcast_namestr, i32 0, i32 0)), !llfi_injectfault !11
  %15 = load i32** %1, align 8, !llfi_index !910
  %fi11 = call i32* @injectFault1(i64 909, i32* %15, i32 27, i32 0, i32 1, i32 0, i8* getelementptr inbounds ([5 x i8]* @load_namestr, i32 0, i32 0)), !llfi_injectfault !11
  %16 = bitcast i32* %fi11 to i8*, !llfi_index !911
  %fi12 = call i8* @injectFault11(i64 910, i8* %16, i32 44, i32 0, i32 1, i32 0, i8* getelementptr inbounds ([8 x i8]* @bitcast_namestr, i32 0, i32 0)), !llfi_injectfault !11
  %17 = load i64* %_Num, align 8, !llfi_index !912
  %fi5 = call i64 @injectFault16(i64 911, i64 %17, i32 27, i32 0, i32 1, i32 0, i8* getelementptr inbounds ([5 x i8]* @load_namestr, i32 0, i32 0)), !llfi_injectfault !11
  %18 = mul i64 4, %fi5, !llfi_index !913
  %fi13 = call i64 @injectFault16(i64 912, i64 %18, i32 12, i32 0, i32 1, i32 0, i8* getelementptr inbounds ([4 x i8]* @mul_namestr, i32 0, i32 0)), !llfi_injectfault !11
  call void @llvm.memmove.p0i8.p0i8.i64(i8* %fi10, i8* %fi12, i64 %fi13, i32 4, i1 false), !llfi_index !914
  br label %19, !llfi_index !915

; <label>:19                                      ; preds = %12, %0
  %20 = load i32** %3, align 8, !llfi_index !916
  %fi14 = call i32* @injectFault1(i64 915, i32* %20, i32 27, i32 0, i32 1, i32 0, i8* getelementptr inbounds ([5 x i8]* @load_namestr, i32 0, i32 0)), !llfi_injectfault !11
  %21 = load i64* %_Num, align 8, !llfi_index !917
  %fi15 = call i64 @injectFault16(i64 916, i64 %21, i32 27, i32 0, i32 1, i32 0, i8* getelementptr inbounds ([5 x i8]* @load_namestr, i32 0, i32 0)), !llfi_injectfault !11
  %22 = getelementptr i32* %fi14, i64 %fi15, !llfi_index !918
  %fi16 = call i32* @injectFault1(i64 917, i32* %22, i32 29, i32 0, i32 1, i32 0, i8* getelementptr inbounds ([14 x i8]* @getelementptr_namestr, i32 0, i32 0)), !llfi_injectfault !11
  ret i32* %fi16, !llfi_index !919
}

; Function Attrs: nounwind
declare void @llvm.memmove.p0i8.p0i8.i64(i8* nocapture, i8* nocapture readonly, i64, i32, i1) #0

; Function Attrs: nounwind uwtable
define linkonce_odr i32* @_ZNSt16allocator_traitsISaIiEE8allocateERS0_m(%"class.std::allocator"* %__a, i64 %__n) #3 align 2 {
  %1 = alloca %"class.std::allocator"*, align 8, !llfi_index !920
  %2 = alloca i64, align 8, !llfi_index !921
  store %"class.std::allocator"* %__a, %"class.std::allocator"** %1, align 8, !llfi_index !922
  store i64 %__n, i64* %2, align 8, !llfi_index !923
  %3 = load %"class.std::allocator"** %1, align 8, !llfi_index !924
  %fi = call %"class.std::allocator"* @injectFault8(i64 923, %"class.std::allocator"* %3, i32 27, i32 0, i32 1, i32 0, i8* getelementptr inbounds ([5 x i8]* @load_namestr, i32 0, i32 0)), !llfi_injectfault !11
  %4 = bitcast %"class.std::allocator"* %fi to %"class.__gnu_cxx::new_allocator"*, !llfi_index !925
  %fi1 = call %"class.__gnu_cxx::new_allocator"* @injectFault12(i64 924, %"class.__gnu_cxx::new_allocator"* %4, i32 44, i32 0, i32 1, i32 0, i8* getelementptr inbounds ([8 x i8]* @bitcast_namestr, i32 0, i32 0)), !llfi_injectfault !11
  %5 = load i64* %2, align 8, !llfi_index !926
  %fi2 = call i64 @injectFault16(i64 925, i64 %5, i32 27, i32 0, i32 1, i32 0, i8* getelementptr inbounds ([5 x i8]* @load_namestr, i32 0, i32 0)), !llfi_injectfault !11
  %6 = call i32* @_ZN9__gnu_cxx13new_allocatorIiE8allocateEmPKv(%"class.__gnu_cxx::new_allocator"* %fi1, i64 %fi2, i8* null), !llfi_index !927
  ret i32* %6, !llfi_index !928
}

; Function Attrs: nounwind uwtable
define linkonce_odr i32* @_ZN9__gnu_cxx13new_allocatorIiE8allocateEmPKv(%"class.__gnu_cxx::new_allocator"* %this, i64 %__n, i8*) #3 align 2 {
  %2 = alloca %"class.__gnu_cxx::new_allocator"*, align 8, !llfi_index !929
  %3 = alloca i64, align 8, !llfi_index !930
  %4 = alloca i8*, align 8, !llfi_index !931
  store %"class.__gnu_cxx::new_allocator"* %this, %"class.__gnu_cxx::new_allocator"** %2, align 8, !llfi_index !932
  store i64 %__n, i64* %3, align 8, !llfi_index !933
  store i8* %0, i8** %4, align 8, !llfi_index !934
  %5 = load %"class.__gnu_cxx::new_allocator"** %2, !llfi_index !935
  %fi3 = call %"class.__gnu_cxx::new_allocator"* @injectFault12(i64 934, %"class.__gnu_cxx::new_allocator"* %5, i32 27, i32 0, i32 1, i32 0, i8* getelementptr inbounds ([5 x i8]* @load_namestr, i32 0, i32 0)), !llfi_injectfault !11
  %6 = load i64* %3, align 8, !llfi_index !936
  %fi4 = call i64 @injectFault16(i64 935, i64 %6, i32 27, i32 0, i32 1, i32 0, i8* getelementptr inbounds ([5 x i8]* @load_namestr, i32 0, i32 0)), !llfi_injectfault !11
  %7 = call i64 @_ZNK9__gnu_cxx13new_allocatorIiE8max_sizeEv(%"class.__gnu_cxx::new_allocator"* %fi3) #0, !llfi_index !937
  %8 = icmp ugt i64 %fi4, %7, !llfi_index !938
  %fi5 = call i1 @injectFault4(i64 937, i1 %8, i32 46, i32 0, i32 1, i32 0, i8* getelementptr inbounds ([5 x i8]* @icmp_namestr, i32 0, i32 0)), !llfi_injectfault !11
  br i1 %fi5, label %9, label %10, !llfi_index !939

; <label>:9                                       ; preds = %1
  call void @_ZSt17__throw_bad_allocv() #9, !llfi_index !940
  unreachable, !llfi_index !941

; <label>:10                                      ; preds = %1
  %11 = load i64* %3, align 8, !llfi_index !942
  %fi = call i64 @injectFault16(i64 941, i64 %11, i32 27, i32 0, i32 1, i32 0, i8* getelementptr inbounds ([5 x i8]* @load_namestr, i32 0, i32 0)), !llfi_injectfault !11
  %12 = mul i64 %fi, 4, !llfi_index !943
  %fi1 = call i64 @injectFault16(i64 942, i64 %12, i32 12, i32 0, i32 1, i32 0, i8* getelementptr inbounds ([4 x i8]* @mul_namestr, i32 0, i32 0)), !llfi_injectfault !11
  %13 = call noalias i8* @_Znwm(i64 %fi1), !llfi_index !944
  %14 = bitcast i8* %13 to i32*, !llfi_index !945
  %fi2 = call i32* @injectFault1(i64 944, i32* %14, i32 44, i32 0, i32 1, i32 0, i8* getelementptr inbounds ([8 x i8]* @bitcast_namestr, i32 0, i32 0)), !llfi_injectfault !11
  ret i32* %fi2, !llfi_index !946
}

; Function Attrs: nounwind uwtable
define linkonce_odr i64 @_ZNK9__gnu_cxx13new_allocatorIiE8max_sizeEv(%"class.__gnu_cxx::new_allocator"* %this) #3 align 2 {
  %1 = alloca %"class.__gnu_cxx::new_allocator"*, align 8, !llfi_index !947
  store %"class.__gnu_cxx::new_allocator"* %this, %"class.__gnu_cxx::new_allocator"** %1, align 8, !llfi_index !948
  %2 = load %"class.__gnu_cxx::new_allocator"** %1, !llfi_index !949
  %fi = call %"class.__gnu_cxx::new_allocator"* @injectFault12(i64 948, %"class.__gnu_cxx::new_allocator"* %2, i32 27, i32 0, i32 1, i32 0, i8* getelementptr inbounds ([5 x i8]* @load_namestr, i32 0, i32 0)), !llfi_injectfault !11
  ret i64 4611686018427387903, !llfi_index !950
}

; Function Attrs: noreturn
declare void @_ZSt17__throw_bad_allocv() #7

; Function Attrs: inlinehint nounwind uwtable
define linkonce_odr i64 @_ZSt10__distanceIPKiENSt15iterator_traitsIT_E15difference_typeES3_S3_St26random_access_iterator_tag(i32* %__first, i32* %__last) #5 {
  %1 = alloca i32*, align 8, !llfi_index !951
  %2 = alloca i32*, align 8, !llfi_index !952
  %3 = alloca %"struct.std::random_access_iterator_tag", align 1, !llfi_index !953
  store i32* %__first, i32** %1, align 8, !llfi_index !954
  store i32* %__last, i32** %2, align 8, !llfi_index !955
  %4 = load i32** %2, align 8, !llfi_index !956
  %fi = call i32* @injectFault1(i64 955, i32* %4, i32 27, i32 0, i32 1, i32 0, i8* getelementptr inbounds ([5 x i8]* @load_namestr, i32 0, i32 0)), !llfi_injectfault !11
  %5 = load i32** %1, align 8, !llfi_index !957
  %fi1 = call i32* @injectFault1(i64 956, i32* %5, i32 27, i32 0, i32 1, i32 0, i8* getelementptr inbounds ([5 x i8]* @load_namestr, i32 0, i32 0)), !llfi_injectfault !11
  %6 = ptrtoint i32* %fi to i64, !llfi_index !958
  %fi2 = call i64 @injectFault16(i64 957, i64 %6, i32 42, i32 0, i32 1, i32 0, i8* getelementptr inbounds ([9 x i8]* @ptrtoint_namestr, i32 0, i32 0)), !llfi_injectfault !11
  %7 = ptrtoint i32* %fi1 to i64, !llfi_index !959
  %fi3 = call i64 @injectFault16(i64 958, i64 %7, i32 42, i32 0, i32 1, i32 0, i8* getelementptr inbounds ([9 x i8]* @ptrtoint_namestr, i32 0, i32 0)), !llfi_injectfault !11
  %8 = sub i64 %fi2, %fi3, !llfi_index !960
  %fi4 = call i64 @injectFault16(i64 959, i64 %8, i32 10, i32 0, i32 1, i32 0, i8* getelementptr inbounds ([4 x i8]* @sub_namestr, i32 0, i32 0)), !llfi_injectfault !11
  %9 = sdiv exact i64 %fi4, 4, !llfi_index !961
  %fi5 = call i64 @injectFault16(i64 960, i64 %9, i32 15, i32 0, i32 1, i32 0, i8* getelementptr inbounds ([5 x i8]* @sdiv_namestr, i32 0, i32 0)), !llfi_injectfault !11
  ret i64 %fi5, !llfi_index !962
}

; Function Attrs: inlinehint nounwind uwtable
define linkonce_odr void @_ZSt19__iterator_categoryIPKiENSt15iterator_traitsIT_E17iterator_categoryERKS3_(i32**) #5 {
  %2 = alloca %"struct.std::random_access_iterator_tag", align 1, !llfi_index !963
  %3 = alloca i32**, align 8, !llfi_index !964
  store i32** %0, i32*** %3, align 8, !llfi_index !965
  ret void, !llfi_index !966
}

; Function Attrs: nounwind uwtable
define linkonce_odr void @_ZNSt12_Vector_baseIiSaIiEE12_Vector_implC2ERKS0_(%"struct.std::_Vector_base<int, std::allocator<int> >::_Vector_impl"* %this, %"class.std::allocator"* %__a) unnamed_addr #3 align 2 {
  %1 = alloca %"struct.std::_Vector_base<int, std::allocator<int> >::_Vector_impl"*, align 8, !llfi_index !967
  %2 = alloca %"class.std::allocator"*, align 8, !llfi_index !968
  store %"struct.std::_Vector_base<int, std::allocator<int> >::_Vector_impl"* %this, %"struct.std::_Vector_base<int, std::allocator<int> >::_Vector_impl"** %1, align 8, !llfi_index !969
  store %"class.std::allocator"* %__a, %"class.std::allocator"** %2, align 8, !llfi_index !970
  %3 = load %"struct.std::_Vector_base<int, std::allocator<int> >::_Vector_impl"** %1, !llfi_index !971
  %fi = call %"struct.std::_Vector_base<int, std::allocator<int> >::_Vector_impl"* @injectFault7(i64 970, %"struct.std::_Vector_base<int, std::allocator<int> >::_Vector_impl"* %3, i32 27, i32 0, i32 1, i32 0, i8* getelementptr inbounds ([5 x i8]* @load_namestr, i32 0, i32 0)), !llfi_injectfault !11
  %4 = bitcast %"struct.std::_Vector_base<int, std::allocator<int> >::_Vector_impl"* %fi to %"class.std::allocator"*, !llfi_index !972
  %fi1 = call %"class.std::allocator"* @injectFault8(i64 971, %"class.std::allocator"* %4, i32 44, i32 0, i32 1, i32 0, i8* getelementptr inbounds ([8 x i8]* @bitcast_namestr, i32 0, i32 0)), !llfi_injectfault !11
  %5 = load %"class.std::allocator"** %2, align 8, !llfi_index !973
  %fi2 = call %"class.std::allocator"* @injectFault8(i64 972, %"class.std::allocator"* %5, i32 27, i32 0, i32 1, i32 0, i8* getelementptr inbounds ([5 x i8]* @load_namestr, i32 0, i32 0)), !llfi_injectfault !11
  call void @_ZNSaIiEC2ERKS_(%"class.std::allocator"* %fi1, %"class.std::allocator"* %fi2) #0, !llfi_index !974
  %6 = getelementptr %"struct.std::_Vector_base<int, std::allocator<int> >::_Vector_impl"* %fi, i32 0, i32 0, !llfi_index !975
  %fi3 = call i32** @injectFault0(i64 974, i32** %6, i32 29, i32 0, i32 1, i32 0, i8* getelementptr inbounds ([14 x i8]* @getelementptr_namestr, i32 0, i32 0)), !llfi_injectfault !11
  store i32* null, i32** %fi3, align 8, !llfi_index !976
  %7 = getelementptr %"struct.std::_Vector_base<int, std::allocator<int> >::_Vector_impl"* %fi, i32 0, i32 1, !llfi_index !977
  %fi4 = call i32** @injectFault0(i64 976, i32** %7, i32 29, i32 0, i32 1, i32 0, i8* getelementptr inbounds ([14 x i8]* @getelementptr_namestr, i32 0, i32 0)), !llfi_injectfault !11
  store i32* null, i32** %fi4, align 8, !llfi_index !978
  %8 = getelementptr %"struct.std::_Vector_base<int, std::allocator<int> >::_Vector_impl"* %fi, i32 0, i32 2, !llfi_index !979
  %fi5 = call i32** @injectFault0(i64 978, i32** %8, i32 29, i32 0, i32 1, i32 0, i8* getelementptr inbounds ([14 x i8]* @getelementptr_namestr, i32 0, i32 0)), !llfi_injectfault !11
  store i32* null, i32** %fi5, align 8, !llfi_index !980
  ret void, !llfi_index !981
}

; Function Attrs: nounwind uwtable
define linkonce_odr void @_ZNSaIiEC2ERKS_(%"class.std::allocator"* %this, %"class.std::allocator"* %__a) unnamed_addr #3 align 2 {
  %1 = alloca %"class.std::allocator"*, align 8, !llfi_index !982
  %2 = alloca %"class.std::allocator"*, align 8, !llfi_index !983
  store %"class.std::allocator"* %this, %"class.std::allocator"** %1, align 8, !llfi_index !984
  store %"class.std::allocator"* %__a, %"class.std::allocator"** %2, align 8, !llfi_index !985
  %3 = load %"class.std::allocator"** %1, !llfi_index !986
  %fi = call %"class.std::allocator"* @injectFault8(i64 985, %"class.std::allocator"* %3, i32 27, i32 0, i32 1, i32 0, i8* getelementptr inbounds ([5 x i8]* @load_namestr, i32 0, i32 0)), !llfi_injectfault !11
  %4 = bitcast %"class.std::allocator"* %fi to %"class.__gnu_cxx::new_allocator"*, !llfi_index !987
  %fi1 = call %"class.__gnu_cxx::new_allocator"* @injectFault12(i64 986, %"class.__gnu_cxx::new_allocator"* %4, i32 44, i32 0, i32 1, i32 0, i8* getelementptr inbounds ([8 x i8]* @bitcast_namestr, i32 0, i32 0)), !llfi_injectfault !11
  %5 = load %"class.std::allocator"** %2, align 8, !llfi_index !988
  %fi2 = call %"class.std::allocator"* @injectFault8(i64 987, %"class.std::allocator"* %5, i32 27, i32 0, i32 1, i32 0, i8* getelementptr inbounds ([5 x i8]* @load_namestr, i32 0, i32 0)), !llfi_injectfault !11
  %6 = bitcast %"class.std::allocator"* %fi2 to %"class.__gnu_cxx::new_allocator"*, !llfi_index !989
  %fi3 = call %"class.__gnu_cxx::new_allocator"* @injectFault12(i64 988, %"class.__gnu_cxx::new_allocator"* %6, i32 44, i32 0, i32 1, i32 0, i8* getelementptr inbounds ([8 x i8]* @bitcast_namestr, i32 0, i32 0)), !llfi_injectfault !11
  call void @_ZN9__gnu_cxx13new_allocatorIiEC2ERKS1_(%"class.__gnu_cxx::new_allocator"* %fi1, %"class.__gnu_cxx::new_allocator"* %fi3) #0, !llfi_index !990
  ret void, !llfi_index !991
}

; Function Attrs: nounwind uwtable
define linkonce_odr void @_ZN9__gnu_cxx13new_allocatorIiEC2ERKS1_(%"class.__gnu_cxx::new_allocator"* %this, %"class.__gnu_cxx::new_allocator"*) unnamed_addr #3 align 2 {
  %2 = alloca %"class.__gnu_cxx::new_allocator"*, align 8, !llfi_index !992
  %3 = alloca %"class.__gnu_cxx::new_allocator"*, align 8, !llfi_index !993
  store %"class.__gnu_cxx::new_allocator"* %this, %"class.__gnu_cxx::new_allocator"** %2, align 8, !llfi_index !994
  store %"class.__gnu_cxx::new_allocator"* %0, %"class.__gnu_cxx::new_allocator"** %3, align 8, !llfi_index !995
  %4 = load %"class.__gnu_cxx::new_allocator"** %2, !llfi_index !996
  %fi = call %"class.__gnu_cxx::new_allocator"* @injectFault12(i64 995, %"class.__gnu_cxx::new_allocator"* %4, i32 27, i32 0, i32 1, i32 0, i8* getelementptr inbounds ([5 x i8]* @load_namestr, i32 0, i32 0)), !llfi_injectfault !11
  ret void, !llfi_index !997
}

; Function Attrs: nounwind uwtable
define linkonce_odr void @_ZNSt16allocator_traitsISaIiEE9constructIiJRKiEEEvRS0_PT_DpOT0_(%"class.std::allocator"* %__a, i32* %__p, i32* %__args) #3 align 2 {
  %1 = alloca %"class.std::allocator"*, align 8, !llfi_index !998
  %2 = alloca i32*, align 8, !llfi_index !999
  %3 = alloca i32*, align 8, !llfi_index !1000
  store %"class.std::allocator"* %__a, %"class.std::allocator"** %1, align 8, !llfi_index !1001
  store i32* %__p, i32** %2, align 8, !llfi_index !1002
  store i32* %__args, i32** %3, align 8, !llfi_index !1003
  %4 = load %"class.std::allocator"** %1, align 8, !llfi_index !1004
  %fi = call %"class.std::allocator"* @injectFault8(i64 1003, %"class.std::allocator"* %4, i32 27, i32 0, i32 1, i32 0, i8* getelementptr inbounds ([5 x i8]* @load_namestr, i32 0, i32 0)), !llfi_injectfault !11
  %5 = bitcast %"class.std::allocator"* %fi to %"class.__gnu_cxx::new_allocator"*, !llfi_index !1005
  %fi1 = call %"class.__gnu_cxx::new_allocator"* @injectFault12(i64 1004, %"class.__gnu_cxx::new_allocator"* %5, i32 44, i32 0, i32 1, i32 0, i8* getelementptr inbounds ([8 x i8]* @bitcast_namestr, i32 0, i32 0)), !llfi_injectfault !11
  %6 = load i32** %2, align 8, !llfi_index !1006
  %fi2 = call i32* @injectFault1(i64 1005, i32* %6, i32 27, i32 0, i32 1, i32 0, i8* getelementptr inbounds ([5 x i8]* @load_namestr, i32 0, i32 0)), !llfi_injectfault !11
  %7 = load i32** %3, align 8, !llfi_index !1007
  %fi3 = call i32* @injectFault1(i64 1006, i32* %7, i32 27, i32 0, i32 1, i32 0, i8* getelementptr inbounds ([5 x i8]* @load_namestr, i32 0, i32 0)), !llfi_injectfault !11
  %8 = call i32* @_ZSt7forwardIRKiEOT_RNSt16remove_referenceIS2_E4typeE(i32* %fi3) #0, !llfi_index !1008
  call void @_ZN9__gnu_cxx13new_allocatorIiE9constructIiJRKiEEEvPT_DpOT0_(%"class.__gnu_cxx::new_allocator"* %fi1, i32* %fi2, i32* %8), !llfi_index !1009
  ret void, !llfi_index !1010
}

; Function Attrs: nounwind uwtable
define linkonce_odr void @_ZNSt6vectorIiSaIiEE19_M_emplace_back_auxIJRKiEEEvDpOT_(%"class.std::vector"* %this, i32* %__args) #3 align 2 {
  %1 = alloca %"class.std::vector"*, align 8, !llfi_index !1011
  %2 = alloca i32*, align 8, !llfi_index !1012
  %__len = alloca i64, align 8, !llfi_index !1013
  %__new_start = alloca i32*, align 8, !llfi_index !1014
  %__new_finish = alloca i32*, align 8, !llfi_index !1015
  store %"class.std::vector"* %this, %"class.std::vector"** %1, align 8, !llfi_index !1016
  store i32* %__args, i32** %2, align 8, !llfi_index !1017
  %3 = load %"class.std::vector"** %1, !llfi_index !1018
  %fi = call %"class.std::vector"* @injectFault5(i64 1017, %"class.std::vector"* %3, i32 27, i32 0, i32 1, i32 0, i8* getelementptr inbounds ([5 x i8]* @load_namestr, i32 0, i32 0)), !llfi_injectfault !11
  %4 = call i64 @_ZNKSt6vectorIiSaIiEE12_M_check_lenEmPKc(%"class.std::vector"* %fi, i64 1, i8* getelementptr inbounds ([28 x i8]* @.str3, i32 0, i32 0)), !llfi_index !1019
  store i64 %4, i64* %__len, align 8, !llfi_index !1020
  %5 = bitcast %"class.std::vector"* %fi to %"struct.std::_Vector_base"*, !llfi_index !1021
  %fi1 = call %"struct.std::_Vector_base"* @injectFault6(i64 1020, %"struct.std::_Vector_base"* %5, i32 44, i32 0, i32 1, i32 0, i8* getelementptr inbounds ([8 x i8]* @bitcast_namestr, i32 0, i32 0)), !llfi_injectfault !11
  %6 = load i64* %__len, align 8, !llfi_index !1022
  %fi2 = call i64 @injectFault16(i64 1021, i64 %6, i32 27, i32 0, i32 1, i32 0, i8* getelementptr inbounds ([5 x i8]* @load_namestr, i32 0, i32 0)), !llfi_injectfault !11
  %7 = call i32* @_ZNSt12_Vector_baseIiSaIiEE11_M_allocateEm(%"struct.std::_Vector_base"* %fi1, i64 %fi2), !llfi_index !1023
  store i32* %7, i32** %__new_start, align 8, !llfi_index !1024
  %8 = load i32** %__new_start, align 8, !llfi_index !1025
  %fi3 = call i32* @injectFault1(i64 1024, i32* %8, i32 27, i32 0, i32 1, i32 0, i8* getelementptr inbounds ([5 x i8]* @load_namestr, i32 0, i32 0)), !llfi_injectfault !11
  store i32* %fi3, i32** %__new_finish, align 8, !llfi_index !1026
  %9 = bitcast %"class.std::vector"* %fi to %"struct.std::_Vector_base"*, !llfi_index !1027
  %fi4 = call %"struct.std::_Vector_base"* @injectFault6(i64 1026, %"struct.std::_Vector_base"* %9, i32 44, i32 0, i32 1, i32 0, i8* getelementptr inbounds ([8 x i8]* @bitcast_namestr, i32 0, i32 0)), !llfi_injectfault !11
  %10 = getelementptr %"struct.std::_Vector_base"* %fi4, i32 0, i32 0, !llfi_index !1028
  %fi5 = call %"struct.std::_Vector_base<int, std::allocator<int> >::_Vector_impl"* @injectFault7(i64 1027, %"struct.std::_Vector_base<int, std::allocator<int> >::_Vector_impl"* %10, i32 29, i32 0, i32 1, i32 0, i8* getelementptr inbounds ([14 x i8]* @getelementptr_namestr, i32 0, i32 0)), !llfi_injectfault !11
  %11 = bitcast %"struct.std::_Vector_base<int, std::allocator<int> >::_Vector_impl"* %fi5 to %"class.std::allocator"*, !llfi_index !1029
  %fi6 = call %"class.std::allocator"* @injectFault8(i64 1028, %"class.std::allocator"* %11, i32 44, i32 0, i32 1, i32 0, i8* getelementptr inbounds ([8 x i8]* @bitcast_namestr, i32 0, i32 0)), !llfi_injectfault !11
  %12 = load i32** %__new_start, align 8, !llfi_index !1030
  %fi7 = call i32* @injectFault1(i64 1029, i32* %12, i32 27, i32 0, i32 1, i32 0, i8* getelementptr inbounds ([5 x i8]* @load_namestr, i32 0, i32 0)), !llfi_injectfault !11
  %13 = call i64 @_ZNKSt6vectorIiSaIiEE4sizeEv(%"class.std::vector"* %fi) #0, !llfi_index !1031
  %14 = getelementptr i32* %fi7, i64 %13, !llfi_index !1032
  %fi8 = call i32* @injectFault1(i64 1031, i32* %14, i32 29, i32 0, i32 1, i32 0, i8* getelementptr inbounds ([14 x i8]* @getelementptr_namestr, i32 0, i32 0)), !llfi_injectfault !11
  %15 = load i32** %2, align 8, !llfi_index !1033
  %fi9 = call i32* @injectFault1(i64 1032, i32* %15, i32 27, i32 0, i32 1, i32 0, i8* getelementptr inbounds ([5 x i8]* @load_namestr, i32 0, i32 0)), !llfi_injectfault !11
  %16 = call i32* @_ZSt7forwardIRKiEOT_RNSt16remove_referenceIS2_E4typeE(i32* %fi9) #0, !llfi_index !1034
  call void @_ZNSt16allocator_traitsISaIiEE9constructIiJRKiEEEvRS0_PT_DpOT0_(%"class.std::allocator"* %fi6, i32* %fi8, i32* %16), !llfi_index !1035
  store i32* null, i32** %__new_finish, align 8, !llfi_index !1036
  %17 = bitcast %"class.std::vector"* %fi to %"struct.std::_Vector_base"*, !llfi_index !1037
  %fi11 = call %"struct.std::_Vector_base"* @injectFault6(i64 1036, %"struct.std::_Vector_base"* %17, i32 44, i32 0, i32 1, i32 0, i8* getelementptr inbounds ([8 x i8]* @bitcast_namestr, i32 0, i32 0)), !llfi_injectfault !11
  %18 = getelementptr %"struct.std::_Vector_base"* %fi11, i32 0, i32 0, !llfi_index !1038
  %fi12 = call %"struct.std::_Vector_base<int, std::allocator<int> >::_Vector_impl"* @injectFault7(i64 1037, %"struct.std::_Vector_base<int, std::allocator<int> >::_Vector_impl"* %18, i32 29, i32 0, i32 1, i32 0, i8* getelementptr inbounds ([14 x i8]* @getelementptr_namestr, i32 0, i32 0)), !llfi_injectfault !11
  %19 = getelementptr %"struct.std::_Vector_base<int, std::allocator<int> >::_Vector_impl"* %fi12, i32 0, i32 0, !llfi_index !1039
  %fi13 = call i32** @injectFault0(i64 1038, i32** %19, i32 29, i32 0, i32 1, i32 0, i8* getelementptr inbounds ([14 x i8]* @getelementptr_namestr, i32 0, i32 0)), !llfi_injectfault !11
  %20 = load i32** %fi13, align 8, !llfi_index !1040
  %fi14 = call i32* @injectFault1(i64 1039, i32* %20, i32 27, i32 0, i32 1, i32 0, i8* getelementptr inbounds ([5 x i8]* @load_namestr, i32 0, i32 0)), !llfi_injectfault !11
  %21 = bitcast %"class.std::vector"* %fi to %"struct.std::_Vector_base"*, !llfi_index !1041
  %fi15 = call %"struct.std::_Vector_base"* @injectFault6(i64 1040, %"struct.std::_Vector_base"* %21, i32 44, i32 0, i32 1, i32 0, i8* getelementptr inbounds ([8 x i8]* @bitcast_namestr, i32 0, i32 0)), !llfi_injectfault !11
  %22 = getelementptr %"struct.std::_Vector_base"* %fi15, i32 0, i32 0, !llfi_index !1042
  %fi16 = call %"struct.std::_Vector_base<int, std::allocator<int> >::_Vector_impl"* @injectFault7(i64 1041, %"struct.std::_Vector_base<int, std::allocator<int> >::_Vector_impl"* %22, i32 29, i32 0, i32 1, i32 0, i8* getelementptr inbounds ([14 x i8]* @getelementptr_namestr, i32 0, i32 0)), !llfi_injectfault !11
  %23 = getelementptr %"struct.std::_Vector_base<int, std::allocator<int> >::_Vector_impl"* %fi16, i32 0, i32 1, !llfi_index !1043
  %fi17 = call i32** @injectFault0(i64 1042, i32** %23, i32 29, i32 0, i32 1, i32 0, i8* getelementptr inbounds ([14 x i8]* @getelementptr_namestr, i32 0, i32 0)), !llfi_injectfault !11
  %24 = load i32** %fi17, align 8, !llfi_index !1044
  %fi18 = call i32* @injectFault1(i64 1043, i32* %24, i32 27, i32 0, i32 1, i32 0, i8* getelementptr inbounds ([5 x i8]* @load_namestr, i32 0, i32 0)), !llfi_injectfault !11
  %25 = load i32** %__new_start, align 8, !llfi_index !1045
  %fi19 = call i32* @injectFault1(i64 1044, i32* %25, i32 27, i32 0, i32 1, i32 0, i8* getelementptr inbounds ([5 x i8]* @load_namestr, i32 0, i32 0)), !llfi_injectfault !11
  %26 = bitcast %"class.std::vector"* %fi to %"struct.std::_Vector_base"*, !llfi_index !1046
  %fi20 = call %"struct.std::_Vector_base"* @injectFault6(i64 1045, %"struct.std::_Vector_base"* %26, i32 44, i32 0, i32 1, i32 0, i8* getelementptr inbounds ([8 x i8]* @bitcast_namestr, i32 0, i32 0)), !llfi_injectfault !11
  %27 = call %"class.std::allocator"* @_ZNSt12_Vector_baseIiSaIiEE19_M_get_Tp_allocatorEv(%"struct.std::_Vector_base"* %fi20) #0, !llfi_index !1047
  %28 = call i32* @_ZSt34__uninitialized_move_if_noexcept_aIPiS0_SaIiEET0_T_S3_S2_RT1_(i32* %fi14, i32* %fi18, i32* %fi19, %"class.std::allocator"* %27), !llfi_index !1048
  store i32* %28, i32** %__new_finish, align 8, !llfi_index !1049
  %29 = load i32** %__new_finish, align 8, !llfi_index !1050
  %fi21 = call i32* @injectFault1(i64 1049, i32* %29, i32 27, i32 0, i32 1, i32 0, i8* getelementptr inbounds ([5 x i8]* @load_namestr, i32 0, i32 0)), !llfi_injectfault !11
  %30 = getelementptr i32* %fi21, i32 1, !llfi_index !1051
  %fi22 = call i32* @injectFault1(i64 1050, i32* %30, i32 29, i32 0, i32 1, i32 0, i8* getelementptr inbounds ([14 x i8]* @getelementptr_namestr, i32 0, i32 0)), !llfi_injectfault !11
  store i32* %fi22, i32** %__new_finish, align 8, !llfi_index !1052
  %31 = bitcast %"class.std::vector"* %fi to %"struct.std::_Vector_base"*, !llfi_index !1053
  %fi23 = call %"struct.std::_Vector_base"* @injectFault6(i64 1052, %"struct.std::_Vector_base"* %31, i32 44, i32 0, i32 1, i32 0, i8* getelementptr inbounds ([8 x i8]* @bitcast_namestr, i32 0, i32 0)), !llfi_injectfault !11
  %32 = getelementptr %"struct.std::_Vector_base"* %fi23, i32 0, i32 0, !llfi_index !1054
  %fi24 = call %"struct.std::_Vector_base<int, std::allocator<int> >::_Vector_impl"* @injectFault7(i64 1053, %"struct.std::_Vector_base<int, std::allocator<int> >::_Vector_impl"* %32, i32 29, i32 0, i32 1, i32 0, i8* getelementptr inbounds ([14 x i8]* @getelementptr_namestr, i32 0, i32 0)), !llfi_injectfault !11
  %33 = getelementptr %"struct.std::_Vector_base<int, std::allocator<int> >::_Vector_impl"* %fi24, i32 0, i32 0, !llfi_index !1055
  %fi10 = call i32** @injectFault0(i64 1054, i32** %33, i32 29, i32 0, i32 1, i32 0, i8* getelementptr inbounds ([14 x i8]* @getelementptr_namestr, i32 0, i32 0)), !llfi_injectfault !11
  %34 = load i32** %fi10, align 8, !llfi_index !1056
  %fi27 = call i32* @injectFault1(i64 1055, i32* %34, i32 27, i32 0, i32 1, i32 0, i8* getelementptr inbounds ([5 x i8]* @load_namestr, i32 0, i32 0)), !llfi_injectfault !11
  %35 = bitcast %"class.std::vector"* %fi to %"struct.std::_Vector_base"*, !llfi_index !1057
  %fi28 = call %"struct.std::_Vector_base"* @injectFault6(i64 1056, %"struct.std::_Vector_base"* %35, i32 44, i32 0, i32 1, i32 0, i8* getelementptr inbounds ([8 x i8]* @bitcast_namestr, i32 0, i32 0)), !llfi_injectfault !11
  %36 = getelementptr %"struct.std::_Vector_base"* %fi28, i32 0, i32 0, !llfi_index !1058
  %fi29 = call %"struct.std::_Vector_base<int, std::allocator<int> >::_Vector_impl"* @injectFault7(i64 1057, %"struct.std::_Vector_base<int, std::allocator<int> >::_Vector_impl"* %36, i32 29, i32 0, i32 1, i32 0, i8* getelementptr inbounds ([14 x i8]* @getelementptr_namestr, i32 0, i32 0)), !llfi_injectfault !11
  %37 = getelementptr %"struct.std::_Vector_base<int, std::allocator<int> >::_Vector_impl"* %fi29, i32 0, i32 1, !llfi_index !1059
  %fi30 = call i32** @injectFault0(i64 1058, i32** %37, i32 29, i32 0, i32 1, i32 0, i8* getelementptr inbounds ([14 x i8]* @getelementptr_namestr, i32 0, i32 0)), !llfi_injectfault !11
  %38 = load i32** %fi30, align 8, !llfi_index !1060
  %fi31 = call i32* @injectFault1(i64 1059, i32* %38, i32 27, i32 0, i32 1, i32 0, i8* getelementptr inbounds ([5 x i8]* @load_namestr, i32 0, i32 0)), !llfi_injectfault !11
  %39 = bitcast %"class.std::vector"* %fi to %"struct.std::_Vector_base"*, !llfi_index !1061
  %fi32 = call %"struct.std::_Vector_base"* @injectFault6(i64 1060, %"struct.std::_Vector_base"* %39, i32 44, i32 0, i32 1, i32 0, i8* getelementptr inbounds ([8 x i8]* @bitcast_namestr, i32 0, i32 0)), !llfi_injectfault !11
  %40 = call %"class.std::allocator"* @_ZNSt12_Vector_baseIiSaIiEE19_M_get_Tp_allocatorEv(%"struct.std::_Vector_base"* %fi32) #0, !llfi_index !1062
  call void @_ZSt8_DestroyIPiiEvT_S1_RSaIT0_E(i32* %fi27, i32* %fi31, %"class.std::allocator"* %40), !llfi_index !1063
  %41 = bitcast %"class.std::vector"* %fi to %"struct.std::_Vector_base"*, !llfi_index !1064
  %fi33 = call %"struct.std::_Vector_base"* @injectFault6(i64 1063, %"struct.std::_Vector_base"* %41, i32 44, i32 0, i32 1, i32 0, i8* getelementptr inbounds ([8 x i8]* @bitcast_namestr, i32 0, i32 0)), !llfi_injectfault !11
  %42 = bitcast %"class.std::vector"* %fi to %"struct.std::_Vector_base"*, !llfi_index !1065
  %fi34 = call %"struct.std::_Vector_base"* @injectFault6(i64 1064, %"struct.std::_Vector_base"* %42, i32 44, i32 0, i32 1, i32 0, i8* getelementptr inbounds ([8 x i8]* @bitcast_namestr, i32 0, i32 0)), !llfi_injectfault !11
  %43 = getelementptr %"struct.std::_Vector_base"* %fi34, i32 0, i32 0, !llfi_index !1066
  %fi35 = call %"struct.std::_Vector_base<int, std::allocator<int> >::_Vector_impl"* @injectFault7(i64 1065, %"struct.std::_Vector_base<int, std::allocator<int> >::_Vector_impl"* %43, i32 29, i32 0, i32 1, i32 0, i8* getelementptr inbounds ([14 x i8]* @getelementptr_namestr, i32 0, i32 0)), !llfi_injectfault !11
  %44 = getelementptr %"struct.std::_Vector_base<int, std::allocator<int> >::_Vector_impl"* %fi35, i32 0, i32 0, !llfi_index !1067
  %fi36 = call i32** @injectFault0(i64 1066, i32** %44, i32 29, i32 0, i32 1, i32 0, i8* getelementptr inbounds ([14 x i8]* @getelementptr_namestr, i32 0, i32 0)), !llfi_injectfault !11
  %45 = load i32** %fi36, align 8, !llfi_index !1068
  %fi37 = call i32* @injectFault1(i64 1067, i32* %45, i32 27, i32 0, i32 1, i32 0, i8* getelementptr inbounds ([5 x i8]* @load_namestr, i32 0, i32 0)), !llfi_injectfault !11
  %46 = bitcast %"class.std::vector"* %fi to %"struct.std::_Vector_base"*, !llfi_index !1069
  %fi38 = call %"struct.std::_Vector_base"* @injectFault6(i64 1068, %"struct.std::_Vector_base"* %46, i32 44, i32 0, i32 1, i32 0, i8* getelementptr inbounds ([8 x i8]* @bitcast_namestr, i32 0, i32 0)), !llfi_injectfault !11
  %47 = getelementptr %"struct.std::_Vector_base"* %fi38, i32 0, i32 0, !llfi_index !1070
  %fi39 = call %"struct.std::_Vector_base<int, std::allocator<int> >::_Vector_impl"* @injectFault7(i64 1069, %"struct.std::_Vector_base<int, std::allocator<int> >::_Vector_impl"* %47, i32 29, i32 0, i32 1, i32 0, i8* getelementptr inbounds ([14 x i8]* @getelementptr_namestr, i32 0, i32 0)), !llfi_injectfault !11
  %48 = getelementptr %"struct.std::_Vector_base<int, std::allocator<int> >::_Vector_impl"* %fi39, i32 0, i32 2, !llfi_index !1071
  %fi40 = call i32** @injectFault0(i64 1070, i32** %48, i32 29, i32 0, i32 1, i32 0, i8* getelementptr inbounds ([14 x i8]* @getelementptr_namestr, i32 0, i32 0)), !llfi_injectfault !11
  %49 = load i32** %fi40, align 8, !llfi_index !1072
  %fi41 = call i32* @injectFault1(i64 1071, i32* %49, i32 27, i32 0, i32 1, i32 0, i8* getelementptr inbounds ([5 x i8]* @load_namestr, i32 0, i32 0)), !llfi_injectfault !11
  %50 = bitcast %"class.std::vector"* %fi to %"struct.std::_Vector_base"*, !llfi_index !1073
  %fi42 = call %"struct.std::_Vector_base"* @injectFault6(i64 1072, %"struct.std::_Vector_base"* %50, i32 44, i32 0, i32 1, i32 0, i8* getelementptr inbounds ([8 x i8]* @bitcast_namestr, i32 0, i32 0)), !llfi_injectfault !11
  %51 = getelementptr %"struct.std::_Vector_base"* %fi42, i32 0, i32 0, !llfi_index !1074
  %fi43 = call %"struct.std::_Vector_base<int, std::allocator<int> >::_Vector_impl"* @injectFault7(i64 1073, %"struct.std::_Vector_base<int, std::allocator<int> >::_Vector_impl"* %51, i32 29, i32 0, i32 1, i32 0, i8* getelementptr inbounds ([14 x i8]* @getelementptr_namestr, i32 0, i32 0)), !llfi_injectfault !11
  %52 = getelementptr %"struct.std::_Vector_base<int, std::allocator<int> >::_Vector_impl"* %fi43, i32 0, i32 0, !llfi_index !1075
  %fi44 = call i32** @injectFault0(i64 1074, i32** %52, i32 29, i32 0, i32 1, i32 0, i8* getelementptr inbounds ([14 x i8]* @getelementptr_namestr, i32 0, i32 0)), !llfi_injectfault !11
  %53 = load i32** %fi44, align 8, !llfi_index !1076
  %fi45 = call i32* @injectFault1(i64 1075, i32* %53, i32 27, i32 0, i32 1, i32 0, i8* getelementptr inbounds ([5 x i8]* @load_namestr, i32 0, i32 0)), !llfi_injectfault !11
  %54 = ptrtoint i32* %fi41 to i64, !llfi_index !1077
  %fi46 = call i64 @injectFault16(i64 1076, i64 %54, i32 42, i32 0, i32 1, i32 0, i8* getelementptr inbounds ([9 x i8]* @ptrtoint_namestr, i32 0, i32 0)), !llfi_injectfault !11
  %55 = ptrtoint i32* %fi45 to i64, !llfi_index !1078
  %fi47 = call i64 @injectFault16(i64 1077, i64 %55, i32 42, i32 0, i32 1, i32 0, i8* getelementptr inbounds ([9 x i8]* @ptrtoint_namestr, i32 0, i32 0)), !llfi_injectfault !11
  %56 = sub i64 %fi46, %fi47, !llfi_index !1079
  %fi48 = call i64 @injectFault16(i64 1078, i64 %56, i32 10, i32 0, i32 1, i32 0, i8* getelementptr inbounds ([4 x i8]* @sub_namestr, i32 0, i32 0)), !llfi_injectfault !11
  %57 = sdiv exact i64 %fi48, 4, !llfi_index !1080
  %fi49 = call i64 @injectFault16(i64 1079, i64 %57, i32 15, i32 0, i32 1, i32 0, i8* getelementptr inbounds ([5 x i8]* @sdiv_namestr, i32 0, i32 0)), !llfi_injectfault !11
  call void @_ZNSt12_Vector_baseIiSaIiEE13_M_deallocateEPim(%"struct.std::_Vector_base"* %fi33, i32* %fi37, i64 %fi49), !llfi_index !1081
  %58 = load i32** %__new_start, align 8, !llfi_index !1082
  %fi50 = call i32* @injectFault1(i64 1081, i32* %58, i32 27, i32 0, i32 1, i32 0, i8* getelementptr inbounds ([5 x i8]* @load_namestr, i32 0, i32 0)), !llfi_injectfault !11
  %59 = bitcast %"class.std::vector"* %fi to %"struct.std::_Vector_base"*, !llfi_index !1083
  %fi51 = call %"struct.std::_Vector_base"* @injectFault6(i64 1082, %"struct.std::_Vector_base"* %59, i32 44, i32 0, i32 1, i32 0, i8* getelementptr inbounds ([8 x i8]* @bitcast_namestr, i32 0, i32 0)), !llfi_injectfault !11
  %60 = getelementptr %"struct.std::_Vector_base"* %fi51, i32 0, i32 0, !llfi_index !1084
  %fi52 = call %"struct.std::_Vector_base<int, std::allocator<int> >::_Vector_impl"* @injectFault7(i64 1083, %"struct.std::_Vector_base<int, std::allocator<int> >::_Vector_impl"* %60, i32 29, i32 0, i32 1, i32 0, i8* getelementptr inbounds ([14 x i8]* @getelementptr_namestr, i32 0, i32 0)), !llfi_injectfault !11
  %61 = getelementptr %"struct.std::_Vector_base<int, std::allocator<int> >::_Vector_impl"* %fi52, i32 0, i32 0, !llfi_index !1085
  %fi53 = call i32** @injectFault0(i64 1084, i32** %61, i32 29, i32 0, i32 1, i32 0, i8* getelementptr inbounds ([14 x i8]* @getelementptr_namestr, i32 0, i32 0)), !llfi_injectfault !11
  store i32* %fi50, i32** %fi53, align 8, !llfi_index !1086
  %62 = load i32** %__new_finish, align 8, !llfi_index !1087
  %fi54 = call i32* @injectFault1(i64 1086, i32* %62, i32 27, i32 0, i32 1, i32 0, i8* getelementptr inbounds ([5 x i8]* @load_namestr, i32 0, i32 0)), !llfi_injectfault !11
  %63 = bitcast %"class.std::vector"* %fi to %"struct.std::_Vector_base"*, !llfi_index !1088
  %fi55 = call %"struct.std::_Vector_base"* @injectFault6(i64 1087, %"struct.std::_Vector_base"* %63, i32 44, i32 0, i32 1, i32 0, i8* getelementptr inbounds ([8 x i8]* @bitcast_namestr, i32 0, i32 0)), !llfi_injectfault !11
  %64 = getelementptr %"struct.std::_Vector_base"* %fi55, i32 0, i32 0, !llfi_index !1089
  %fi56 = call %"struct.std::_Vector_base<int, std::allocator<int> >::_Vector_impl"* @injectFault7(i64 1088, %"struct.std::_Vector_base<int, std::allocator<int> >::_Vector_impl"* %64, i32 29, i32 0, i32 1, i32 0, i8* getelementptr inbounds ([14 x i8]* @getelementptr_namestr, i32 0, i32 0)), !llfi_injectfault !11
  %65 = getelementptr %"struct.std::_Vector_base<int, std::allocator<int> >::_Vector_impl"* %fi56, i32 0, i32 1, !llfi_index !1090
  %fi25 = call i32** @injectFault0(i64 1089, i32** %65, i32 29, i32 0, i32 1, i32 0, i8* getelementptr inbounds ([14 x i8]* @getelementptr_namestr, i32 0, i32 0)), !llfi_injectfault !11
  store i32* %fi54, i32** %fi25, align 8, !llfi_index !1091
  %66 = load i32** %__new_start, align 8, !llfi_index !1092
  %fi26 = call i32* @injectFault1(i64 1091, i32* %66, i32 27, i32 0, i32 1, i32 0, i8* getelementptr inbounds ([5 x i8]* @load_namestr, i32 0, i32 0)), !llfi_injectfault !11
  %67 = load i64* %__len, align 8, !llfi_index !1093
  %fi57 = call i64 @injectFault16(i64 1092, i64 %67, i32 27, i32 0, i32 1, i32 0, i8* getelementptr inbounds ([5 x i8]* @load_namestr, i32 0, i32 0)), !llfi_injectfault !11
  %68 = getelementptr i32* %fi26, i64 %fi57, !llfi_index !1094
  %fi58 = call i32* @injectFault1(i64 1093, i32* %68, i32 29, i32 0, i32 1, i32 0, i8* getelementptr inbounds ([14 x i8]* @getelementptr_namestr, i32 0, i32 0)), !llfi_injectfault !11
  %69 = bitcast %"class.std::vector"* %fi to %"struct.std::_Vector_base"*, !llfi_index !1095
  %fi59 = call %"struct.std::_Vector_base"* @injectFault6(i64 1094, %"struct.std::_Vector_base"* %69, i32 44, i32 0, i32 1, i32 0, i8* getelementptr inbounds ([8 x i8]* @bitcast_namestr, i32 0, i32 0)), !llfi_injectfault !11
  %70 = getelementptr %"struct.std::_Vector_base"* %fi59, i32 0, i32 0, !llfi_index !1096
  %fi60 = call %"struct.std::_Vector_base<int, std::allocator<int> >::_Vector_impl"* @injectFault7(i64 1095, %"struct.std::_Vector_base<int, std::allocator<int> >::_Vector_impl"* %70, i32 29, i32 0, i32 1, i32 0, i8* getelementptr inbounds ([14 x i8]* @getelementptr_namestr, i32 0, i32 0)), !llfi_injectfault !11
  %71 = getelementptr %"struct.std::_Vector_base<int, std::allocator<int> >::_Vector_impl"* %fi60, i32 0, i32 2, !llfi_index !1097
  %fi61 = call i32** @injectFault0(i64 1096, i32** %71, i32 29, i32 0, i32 1, i32 0, i8* getelementptr inbounds ([14 x i8]* @getelementptr_namestr, i32 0, i32 0)), !llfi_injectfault !11
  store i32* %fi58, i32** %fi61, align 8, !llfi_index !1098
  ret void, !llfi_index !1099
}

; Function Attrs: nounwind uwtable
define linkonce_odr i64 @_ZNKSt6vectorIiSaIiEE12_M_check_lenEmPKc(%"class.std::vector"* %this, i64 %__n, i8* %__s) #3 align 2 {
  %1 = alloca %"class.std::vector"*, align 8, !llfi_index !1100
  %2 = alloca i64, align 8, !llfi_index !1101
  %3 = alloca i8*, align 8, !llfi_index !1102
  %__len = alloca i64, align 8, !llfi_index !1103
  %4 = alloca i64, align 8, !llfi_index !1104
  store %"class.std::vector"* %this, %"class.std::vector"** %1, align 8, !llfi_index !1105
  store i64 %__n, i64* %2, align 8, !llfi_index !1106
  store i8* %__s, i8** %3, align 8, !llfi_index !1107
  %5 = load %"class.std::vector"** %1, !llfi_index !1108
  %fi = call %"class.std::vector"* @injectFault5(i64 1107, %"class.std::vector"* %5, i32 27, i32 0, i32 1, i32 0, i8* getelementptr inbounds ([5 x i8]* @load_namestr, i32 0, i32 0)), !llfi_injectfault !11
  %6 = call i64 @_ZNKSt6vectorIiSaIiEE8max_sizeEv(%"class.std::vector"* %fi) #0, !llfi_index !1109
  %7 = call i64 @_ZNKSt6vectorIiSaIiEE4sizeEv(%"class.std::vector"* %fi) #0, !llfi_index !1110
  %8 = sub i64 %6, %7, !llfi_index !1111
  %fi1 = call i64 @injectFault16(i64 1110, i64 %8, i32 10, i32 0, i32 1, i32 0, i8* getelementptr inbounds ([4 x i8]* @sub_namestr, i32 0, i32 0)), !llfi_injectfault !11
  %9 = load i64* %2, align 8, !llfi_index !1112
  %fi3 = call i64 @injectFault16(i64 1111, i64 %9, i32 27, i32 0, i32 1, i32 0, i8* getelementptr inbounds ([5 x i8]* @load_namestr, i32 0, i32 0)), !llfi_injectfault !11
  %10 = icmp ult i64 %fi1, %fi3, !llfi_index !1113
  %fi4 = call i1 @injectFault4(i64 1112, i1 %10, i32 46, i32 0, i32 1, i32 0, i8* getelementptr inbounds ([5 x i8]* @icmp_namestr, i32 0, i32 0)), !llfi_injectfault !11
  br i1 %fi4, label %11, label %13, !llfi_index !1114

; <label>:11                                      ; preds = %0
  %12 = load i8** %3, align 8, !llfi_index !1115
  %fi5 = call i8* @injectFault11(i64 1114, i8* %12, i32 27, i32 0, i32 1, i32 0, i8* getelementptr inbounds ([5 x i8]* @load_namestr, i32 0, i32 0)), !llfi_injectfault !11
  call void @_ZSt20__throw_length_errorPKc(i8* %fi5) #9, !llfi_index !1116
  unreachable, !llfi_index !1117

; <label>:13                                      ; preds = %0
  %14 = call i64 @_ZNKSt6vectorIiSaIiEE4sizeEv(%"class.std::vector"* %fi) #0, !llfi_index !1118
  %15 = call i64 @_ZNKSt6vectorIiSaIiEE4sizeEv(%"class.std::vector"* %fi) #0, !llfi_index !1119
  store i64 %15, i64* %4, !llfi_index !1120
  %16 = call i64* @_ZSt3maxImERKT_S2_S2_(i64* %4, i64* %2), !llfi_index !1121
  %17 = load i64* %16, !llfi_index !1122
  %fi2 = call i64 @injectFault16(i64 1121, i64 %17, i32 27, i32 0, i32 1, i32 0, i8* getelementptr inbounds ([5 x i8]* @load_namestr, i32 0, i32 0)), !llfi_injectfault !11
  %18 = add i64 %14, %fi2, !llfi_index !1123
  %fi6 = call i64 @injectFault16(i64 1122, i64 %18, i32 8, i32 0, i32 1, i32 0, i8* getelementptr inbounds ([4 x i8]* @add_namestr, i32 0, i32 0)), !llfi_injectfault !11
  store i64 %fi6, i64* %__len, align 8, !llfi_index !1124
  %19 = load i64* %__len, align 8, !llfi_index !1125
  %fi7 = call i64 @injectFault16(i64 1124, i64 %19, i32 27, i32 0, i32 1, i32 0, i8* getelementptr inbounds ([5 x i8]* @load_namestr, i32 0, i32 0)), !llfi_injectfault !11
  %20 = call i64 @_ZNKSt6vectorIiSaIiEE4sizeEv(%"class.std::vector"* %fi) #0, !llfi_index !1126
  %21 = icmp ult i64 %fi7, %20, !llfi_index !1127
  %fi8 = call i1 @injectFault4(i64 1126, i1 %21, i32 46, i32 0, i32 1, i32 0, i8* getelementptr inbounds ([5 x i8]* @icmp_namestr, i32 0, i32 0)), !llfi_injectfault !11
  br i1 %fi8, label %26, label %22, !llfi_index !1128

; <label>:22                                      ; preds = %13
  %23 = load i64* %__len, align 8, !llfi_index !1129
  %fi9 = call i64 @injectFault16(i64 1128, i64 %23, i32 27, i32 0, i32 1, i32 0, i8* getelementptr inbounds ([5 x i8]* @load_namestr, i32 0, i32 0)), !llfi_injectfault !11
  %24 = call i64 @_ZNKSt6vectorIiSaIiEE8max_sizeEv(%"class.std::vector"* %fi) #0, !llfi_index !1130
  %25 = icmp ugt i64 %fi9, %24, !llfi_index !1131
  %fi10 = call i1 @injectFault4(i64 1130, i1 %25, i32 46, i32 0, i32 1, i32 0, i8* getelementptr inbounds ([5 x i8]* @icmp_namestr, i32 0, i32 0)), !llfi_injectfault !11
  br i1 %fi10, label %26, label %28, !llfi_index !1132

; <label>:26                                      ; preds = %22, %13
  %27 = call i64 @_ZNKSt6vectorIiSaIiEE8max_sizeEv(%"class.std::vector"* %fi) #0, !llfi_index !1133
  br label %30, !llfi_index !1134

; <label>:28                                      ; preds = %22
  %29 = load i64* %__len, align 8, !llfi_index !1135
  %fi11 = call i64 @injectFault16(i64 1134, i64 %29, i32 27, i32 0, i32 1, i32 0, i8* getelementptr inbounds ([5 x i8]* @load_namestr, i32 0, i32 0)), !llfi_injectfault !11
  br label %30, !llfi_index !1136

; <label>:30                                      ; preds = %28, %26
  %31 = phi i64 [ %27, %26 ], [ %fi11, %28 ], !llfi_index !1137
  ret i64 %31, !llfi_index !1138
}

; Function Attrs: nounwind uwtable
define linkonce_odr i32* @_ZSt7forwardIRKiEOT_RNSt16remove_referenceIS2_E4typeE(i32* %__t) #3 {
  %1 = alloca i32*, align 8, !llfi_index !1139
  store i32* %__t, i32** %1, align 8, !llfi_index !1140
  %2 = load i32** %1, align 8, !llfi_index !1141
  %fi = call i32* @injectFault1(i64 1140, i32* %2, i32 27, i32 0, i32 1, i32 0, i8* getelementptr inbounds ([5 x i8]* @load_namestr, i32 0, i32 0)), !llfi_injectfault !11
  ret i32* %fi, !llfi_index !1142
}

; Function Attrs: inlinehint nounwind uwtable
define linkonce_odr i32* @_ZSt34__uninitialized_move_if_noexcept_aIPiS0_SaIiEET0_T_S3_S2_RT1_(i32* %__first, i32* %__last, i32* %__result, %"class.std::allocator"* %__alloc) #5 {
  %1 = alloca i32*, align 8, !llfi_index !1143
  %2 = alloca i32*, align 8, !llfi_index !1144
  %3 = alloca i32*, align 8, !llfi_index !1145
  %4 = alloca %"class.std::allocator"*, align 8, !llfi_index !1146
  %5 = alloca %"class.std::move_iterator", align 8, !llfi_index !1147
  %6 = alloca %"class.std::move_iterator", align 8, !llfi_index !1148
  store i32* %__first, i32** %1, align 8, !llfi_index !1149
  store i32* %__last, i32** %2, align 8, !llfi_index !1150
  store i32* %__result, i32** %3, align 8, !llfi_index !1151
  store %"class.std::allocator"* %__alloc, %"class.std::allocator"** %4, align 8, !llfi_index !1152
  %7 = load i32** %1, align 8, !llfi_index !1153
  %fi = call i32* @injectFault1(i64 1152, i32* %7, i32 27, i32 0, i32 1, i32 0, i8* getelementptr inbounds ([5 x i8]* @load_namestr, i32 0, i32 0)), !llfi_injectfault !11
  %8 = call i32* @_ZSt32__make_move_if_noexcept_iteratorIPiSt13move_iteratorIS0_EET0_T_(i32* %fi), !llfi_index !1154
  %9 = getelementptr %"class.std::move_iterator"* %5, i32 0, i32 0, !llfi_index !1155
  %fi1 = call i32** @injectFault0(i64 1154, i32** %9, i32 29, i32 0, i32 1, i32 0, i8* getelementptr inbounds ([14 x i8]* @getelementptr_namestr, i32 0, i32 0)), !llfi_injectfault !11
  store i32* %8, i32** %fi1, !llfi_index !1156
  %10 = load i32** %2, align 8, !llfi_index !1157
  %fi2 = call i32* @injectFault1(i64 1156, i32* %10, i32 27, i32 0, i32 1, i32 0, i8* getelementptr inbounds ([5 x i8]* @load_namestr, i32 0, i32 0)), !llfi_injectfault !11
  %11 = call i32* @_ZSt32__make_move_if_noexcept_iteratorIPiSt13move_iteratorIS0_EET0_T_(i32* %fi2), !llfi_index !1158
  %12 = getelementptr %"class.std::move_iterator"* %6, i32 0, i32 0, !llfi_index !1159
  %fi3 = call i32** @injectFault0(i64 1158, i32** %12, i32 29, i32 0, i32 1, i32 0, i8* getelementptr inbounds ([14 x i8]* @getelementptr_namestr, i32 0, i32 0)), !llfi_injectfault !11
  store i32* %11, i32** %fi3, !llfi_index !1160
  %13 = load i32** %3, align 8, !llfi_index !1161
  %fi4 = call i32* @injectFault1(i64 1160, i32* %13, i32 27, i32 0, i32 1, i32 0, i8* getelementptr inbounds ([5 x i8]* @load_namestr, i32 0, i32 0)), !llfi_injectfault !11
  %14 = load %"class.std::allocator"** %4, align 8, !llfi_index !1162
  %fi5 = call %"class.std::allocator"* @injectFault8(i64 1161, %"class.std::allocator"* %14, i32 27, i32 0, i32 1, i32 0, i8* getelementptr inbounds ([5 x i8]* @load_namestr, i32 0, i32 0)), !llfi_injectfault !11
  %15 = getelementptr %"class.std::move_iterator"* %5, i32 0, i32 0, !llfi_index !1163
  %fi6 = call i32** @injectFault0(i64 1162, i32** %15, i32 29, i32 0, i32 1, i32 0, i8* getelementptr inbounds ([14 x i8]* @getelementptr_namestr, i32 0, i32 0)), !llfi_injectfault !11
  %16 = load i32** %fi6, !llfi_index !1164
  %fi7 = call i32* @injectFault1(i64 1163, i32* %16, i32 27, i32 0, i32 1, i32 0, i8* getelementptr inbounds ([5 x i8]* @load_namestr, i32 0, i32 0)), !llfi_injectfault !11
  %17 = getelementptr %"class.std::move_iterator"* %6, i32 0, i32 0, !llfi_index !1165
  %fi8 = call i32** @injectFault0(i64 1164, i32** %17, i32 29, i32 0, i32 1, i32 0, i8* getelementptr inbounds ([14 x i8]* @getelementptr_namestr, i32 0, i32 0)), !llfi_injectfault !11
  %18 = load i32** %fi8, !llfi_index !1166
  %fi9 = call i32* @injectFault1(i64 1165, i32* %18, i32 27, i32 0, i32 1, i32 0, i8* getelementptr inbounds ([5 x i8]* @load_namestr, i32 0, i32 0)), !llfi_injectfault !11
  %19 = call i32* @_ZSt22__uninitialized_copy_aISt13move_iteratorIPiES1_iET0_T_S4_S3_RSaIT1_E(i32* %fi7, i32* %fi9, i32* %fi4, %"class.std::allocator"* %fi5), !llfi_index !1167
  ret i32* %19, !llfi_index !1168
}

; Function Attrs: inlinehint nounwind uwtable
define linkonce_odr i32* @_ZSt22__uninitialized_copy_aISt13move_iteratorIPiES1_iET0_T_S4_S3_RSaIT1_E(i32* %__first.coerce, i32* %__last.coerce, i32* %__result, %"class.std::allocator"*) #5 {
  %__first = alloca %"class.std::move_iterator", align 8, !llfi_index !1169
  %__last = alloca %"class.std::move_iterator", align 8, !llfi_index !1170
  %2 = alloca i32*, align 8, !llfi_index !1171
  %3 = alloca %"class.std::allocator"*, align 8, !llfi_index !1172
  %4 = alloca %"class.std::move_iterator", align 8, !llfi_index !1173
  %5 = alloca %"class.std::move_iterator", align 8, !llfi_index !1174
  %6 = getelementptr %"class.std::move_iterator"* %__first, i32 0, i32 0, !llfi_index !1175
  %fi = call i32** @injectFault0(i64 1174, i32** %6, i32 29, i32 0, i32 1, i32 0, i8* getelementptr inbounds ([14 x i8]* @getelementptr_namestr, i32 0, i32 0)), !llfi_injectfault !11
  store i32* %__first.coerce, i32** %fi, !llfi_index !1176
  %7 = getelementptr %"class.std::move_iterator"* %__last, i32 0, i32 0, !llfi_index !1177
  %fi1 = call i32** @injectFault0(i64 1176, i32** %7, i32 29, i32 0, i32 1, i32 0, i8* getelementptr inbounds ([14 x i8]* @getelementptr_namestr, i32 0, i32 0)), !llfi_injectfault !11
  store i32* %__last.coerce, i32** %fi1, !llfi_index !1178
  store i32* %__result, i32** %2, align 8, !llfi_index !1179
  store %"class.std::allocator"* %0, %"class.std::allocator"** %3, align 8, !llfi_index !1180
  %8 = bitcast %"class.std::move_iterator"* %4 to i8*, !llfi_index !1181
  %fi2 = call i8* @injectFault11(i64 1180, i8* %8, i32 44, i32 0, i32 1, i32 0, i8* getelementptr inbounds ([8 x i8]* @bitcast_namestr, i32 0, i32 0)), !llfi_injectfault !11
  %9 = bitcast %"class.std::move_iterator"* %__first to i8*, !llfi_index !1182
  %fi3 = call i8* @injectFault11(i64 1181, i8* %9, i32 44, i32 0, i32 1, i32 0, i8* getelementptr inbounds ([8 x i8]* @bitcast_namestr, i32 0, i32 0)), !llfi_injectfault !11
  call void @llvm.memcpy.p0i8.p0i8.i64(i8* %fi2, i8* %fi3, i64 8, i32 8, i1 false), !llfi_index !1183
  %10 = bitcast %"class.std::move_iterator"* %5 to i8*, !llfi_index !1184
  %fi4 = call i8* @injectFault11(i64 1183, i8* %10, i32 44, i32 0, i32 1, i32 0, i8* getelementptr inbounds ([8 x i8]* @bitcast_namestr, i32 0, i32 0)), !llfi_injectfault !11
  %11 = bitcast %"class.std::move_iterator"* %__last to i8*, !llfi_index !1185
  %fi5 = call i8* @injectFault11(i64 1184, i8* %11, i32 44, i32 0, i32 1, i32 0, i8* getelementptr inbounds ([8 x i8]* @bitcast_namestr, i32 0, i32 0)), !llfi_injectfault !11
  call void @llvm.memcpy.p0i8.p0i8.i64(i8* %fi4, i8* %fi5, i64 8, i32 8, i1 false), !llfi_index !1186
  %12 = load i32** %2, align 8, !llfi_index !1187
  %fi6 = call i32* @injectFault1(i64 1186, i32* %12, i32 27, i32 0, i32 1, i32 0, i8* getelementptr inbounds ([5 x i8]* @load_namestr, i32 0, i32 0)), !llfi_injectfault !11
  %13 = getelementptr %"class.std::move_iterator"* %4, i32 0, i32 0, !llfi_index !1188
  %fi7 = call i32** @injectFault0(i64 1187, i32** %13, i32 29, i32 0, i32 1, i32 0, i8* getelementptr inbounds ([14 x i8]* @getelementptr_namestr, i32 0, i32 0)), !llfi_injectfault !11
  %14 = load i32** %fi7, !llfi_index !1189
  %fi8 = call i32* @injectFault1(i64 1188, i32* %14, i32 27, i32 0, i32 1, i32 0, i8* getelementptr inbounds ([5 x i8]* @load_namestr, i32 0, i32 0)), !llfi_injectfault !11
  %15 = getelementptr %"class.std::move_iterator"* %5, i32 0, i32 0, !llfi_index !1190
  %fi9 = call i32** @injectFault0(i64 1189, i32** %15, i32 29, i32 0, i32 1, i32 0, i8* getelementptr inbounds ([14 x i8]* @getelementptr_namestr, i32 0, i32 0)), !llfi_injectfault !11
  %16 = load i32** %fi9, !llfi_index !1191
  %fi10 = call i32* @injectFault1(i64 1190, i32* %16, i32 27, i32 0, i32 1, i32 0, i8* getelementptr inbounds ([5 x i8]* @load_namestr, i32 0, i32 0)), !llfi_injectfault !11
  %17 = call i32* @_ZSt18uninitialized_copyISt13move_iteratorIPiES1_ET0_T_S4_S3_(i32* %fi8, i32* %fi10, i32* %fi6), !llfi_index !1192
  ret i32* %17, !llfi_index !1193
}

; Function Attrs: inlinehint nounwind uwtable
define linkonce_odr i32* @_ZSt32__make_move_if_noexcept_iteratorIPiSt13move_iteratorIS0_EET0_T_(i32* %__i) #5 {
  %1 = alloca %"class.std::move_iterator", align 8, !llfi_index !1194
  %2 = alloca i32*, align 8, !llfi_index !1195
  store i32* %__i, i32** %2, align 8, !llfi_index !1196
  %3 = load i32** %2, align 8, !llfi_index !1197
  %fi = call i32* @injectFault1(i64 1196, i32* %3, i32 27, i32 0, i32 1, i32 0, i8* getelementptr inbounds ([5 x i8]* @load_namestr, i32 0, i32 0)), !llfi_injectfault !11
  call void @_ZNSt13move_iteratorIPiEC2ES0_(%"class.std::move_iterator"* %1, i32* %fi), !llfi_index !1198
  %4 = getelementptr %"class.std::move_iterator"* %1, i32 0, i32 0, !llfi_index !1199
  %fi1 = call i32** @injectFault0(i64 1198, i32** %4, i32 29, i32 0, i32 1, i32 0, i8* getelementptr inbounds ([14 x i8]* @getelementptr_namestr, i32 0, i32 0)), !llfi_injectfault !11
  %5 = load i32** %fi1, !llfi_index !1200
  %fi2 = call i32* @injectFault1(i64 1199, i32* %5, i32 27, i32 0, i32 1, i32 0, i8* getelementptr inbounds ([5 x i8]* @load_namestr, i32 0, i32 0)), !llfi_injectfault !11
  ret i32* %fi2, !llfi_index !1201
}

; Function Attrs: nounwind uwtable
define linkonce_odr void @_ZNSt13move_iteratorIPiEC2ES0_(%"class.std::move_iterator"* %this, i32* %__i) unnamed_addr #3 align 2 {
  %1 = alloca %"class.std::move_iterator"*, align 8, !llfi_index !1202
  %2 = alloca i32*, align 8, !llfi_index !1203
  store %"class.std::move_iterator"* %this, %"class.std::move_iterator"** %1, align 8, !llfi_index !1204
  store i32* %__i, i32** %2, align 8, !llfi_index !1205
  %3 = load %"class.std::move_iterator"** %1, !llfi_index !1206
  %fi = call %"class.std::move_iterator"* @injectFault23(i64 1205, %"class.std::move_iterator"* %3, i32 27, i32 0, i32 1, i32 0, i8* getelementptr inbounds ([5 x i8]* @load_namestr, i32 0, i32 0)), !llfi_injectfault !11
  %4 = getelementptr %"class.std::move_iterator"* %fi, i32 0, i32 0, !llfi_index !1207
  %fi1 = call i32** @injectFault0(i64 1206, i32** %4, i32 29, i32 0, i32 1, i32 0, i8* getelementptr inbounds ([14 x i8]* @getelementptr_namestr, i32 0, i32 0)), !llfi_injectfault !11
  %5 = load i32** %2, align 8, !llfi_index !1208
  %fi2 = call i32* @injectFault1(i64 1207, i32* %5, i32 27, i32 0, i32 1, i32 0, i8* getelementptr inbounds ([5 x i8]* @load_namestr, i32 0, i32 0)), !llfi_injectfault !11
  store i32* %fi2, i32** %fi1, align 8, !llfi_index !1209
  ret void, !llfi_index !1210
}

; Function Attrs: inlinehint nounwind uwtable
define linkonce_odr i32* @_ZSt18uninitialized_copyISt13move_iteratorIPiES1_ET0_T_S4_S3_(i32* %__first.coerce, i32* %__last.coerce, i32* %__result) #5 {
  %__first = alloca %"class.std::move_iterator", align 8, !llfi_index !1211
  %__last = alloca %"class.std::move_iterator", align 8, !llfi_index !1212
  %1 = alloca i32*, align 8, !llfi_index !1213
  %__assignable = alloca i8, align 1, !llfi_index !1214
  %2 = alloca %"class.std::move_iterator", align 8, !llfi_index !1215
  %3 = alloca %"class.std::move_iterator", align 8, !llfi_index !1216
  %4 = getelementptr %"class.std::move_iterator"* %__first, i32 0, i32 0, !llfi_index !1217
  %fi = call i32** @injectFault0(i64 1216, i32** %4, i32 29, i32 0, i32 1, i32 0, i8* getelementptr inbounds ([14 x i8]* @getelementptr_namestr, i32 0, i32 0)), !llfi_injectfault !11
  store i32* %__first.coerce, i32** %fi, !llfi_index !1218
  %5 = getelementptr %"class.std::move_iterator"* %__last, i32 0, i32 0, !llfi_index !1219
  %fi1 = call i32** @injectFault0(i64 1218, i32** %5, i32 29, i32 0, i32 1, i32 0, i8* getelementptr inbounds ([14 x i8]* @getelementptr_namestr, i32 0, i32 0)), !llfi_injectfault !11
  store i32* %__last.coerce, i32** %fi1, !llfi_index !1220
  store i32* %__result, i32** %1, align 8, !llfi_index !1221
  store i8 1, i8* %__assignable, align 1, !llfi_index !1222
  %6 = bitcast %"class.std::move_iterator"* %2 to i8*, !llfi_index !1223
  %fi2 = call i8* @injectFault11(i64 1222, i8* %6, i32 44, i32 0, i32 1, i32 0, i8* getelementptr inbounds ([8 x i8]* @bitcast_namestr, i32 0, i32 0)), !llfi_injectfault !11
  %7 = bitcast %"class.std::move_iterator"* %__first to i8*, !llfi_index !1224
  %fi3 = call i8* @injectFault11(i64 1223, i8* %7, i32 44, i32 0, i32 1, i32 0, i8* getelementptr inbounds ([8 x i8]* @bitcast_namestr, i32 0, i32 0)), !llfi_injectfault !11
  call void @llvm.memcpy.p0i8.p0i8.i64(i8* %fi2, i8* %fi3, i64 8, i32 8, i1 false), !llfi_index !1225
  %8 = bitcast %"class.std::move_iterator"* %3 to i8*, !llfi_index !1226
  %fi4 = call i8* @injectFault11(i64 1225, i8* %8, i32 44, i32 0, i32 1, i32 0, i8* getelementptr inbounds ([8 x i8]* @bitcast_namestr, i32 0, i32 0)), !llfi_injectfault !11
  %9 = bitcast %"class.std::move_iterator"* %__last to i8*, !llfi_index !1227
  %fi5 = call i8* @injectFault11(i64 1226, i8* %9, i32 44, i32 0, i32 1, i32 0, i8* getelementptr inbounds ([8 x i8]* @bitcast_namestr, i32 0, i32 0)), !llfi_injectfault !11
  call void @llvm.memcpy.p0i8.p0i8.i64(i8* %fi4, i8* %fi5, i64 8, i32 8, i1 false), !llfi_index !1228
  %10 = load i32** %1, align 8, !llfi_index !1229
  %fi6 = call i32* @injectFault1(i64 1228, i32* %10, i32 27, i32 0, i32 1, i32 0, i8* getelementptr inbounds ([5 x i8]* @load_namestr, i32 0, i32 0)), !llfi_injectfault !11
  %11 = getelementptr %"class.std::move_iterator"* %2, i32 0, i32 0, !llfi_index !1230
  %fi7 = call i32** @injectFault0(i64 1229, i32** %11, i32 29, i32 0, i32 1, i32 0, i8* getelementptr inbounds ([14 x i8]* @getelementptr_namestr, i32 0, i32 0)), !llfi_injectfault !11
  %12 = load i32** %fi7, !llfi_index !1231
  %fi8 = call i32* @injectFault1(i64 1230, i32* %12, i32 27, i32 0, i32 1, i32 0, i8* getelementptr inbounds ([5 x i8]* @load_namestr, i32 0, i32 0)), !llfi_injectfault !11
  %13 = getelementptr %"class.std::move_iterator"* %3, i32 0, i32 0, !llfi_index !1232
  %fi9 = call i32** @injectFault0(i64 1231, i32** %13, i32 29, i32 0, i32 1, i32 0, i8* getelementptr inbounds ([14 x i8]* @getelementptr_namestr, i32 0, i32 0)), !llfi_injectfault !11
  %14 = load i32** %fi9, !llfi_index !1233
  %fi10 = call i32* @injectFault1(i64 1232, i32* %14, i32 27, i32 0, i32 1, i32 0, i8* getelementptr inbounds ([5 x i8]* @load_namestr, i32 0, i32 0)), !llfi_injectfault !11
  %15 = call i32* @_ZNSt20__uninitialized_copyILb1EE13__uninit_copyISt13move_iteratorIPiES3_EET0_T_S6_S5_(i32* %fi8, i32* %fi10, i32* %fi6), !llfi_index !1234
  ret i32* %15, !llfi_index !1235
}

; Function Attrs: nounwind
declare void @llvm.memcpy.p0i8.p0i8.i64(i8* nocapture, i8* nocapture readonly, i64, i32, i1) #0

; Function Attrs: nounwind uwtable
define linkonce_odr i32* @_ZNSt20__uninitialized_copyILb1EE13__uninit_copyISt13move_iteratorIPiES3_EET0_T_S6_S5_(i32* %__first.coerce, i32* %__last.coerce, i32* %__result) #3 align 2 {
  %__first = alloca %"class.std::move_iterator", align 8, !llfi_index !1236
  %__last = alloca %"class.std::move_iterator", align 8, !llfi_index !1237
  %1 = alloca i32*, align 8, !llfi_index !1238
  %2 = alloca %"class.std::move_iterator", align 8, !llfi_index !1239
  %3 = alloca %"class.std::move_iterator", align 8, !llfi_index !1240
  %4 = getelementptr %"class.std::move_iterator"* %__first, i32 0, i32 0, !llfi_index !1241
  %fi = call i32** @injectFault0(i64 1240, i32** %4, i32 29, i32 0, i32 1, i32 0, i8* getelementptr inbounds ([14 x i8]* @getelementptr_namestr, i32 0, i32 0)), !llfi_injectfault !11
  store i32* %__first.coerce, i32** %fi, !llfi_index !1242
  %5 = getelementptr %"class.std::move_iterator"* %__last, i32 0, i32 0, !llfi_index !1243
  %fi1 = call i32** @injectFault0(i64 1242, i32** %5, i32 29, i32 0, i32 1, i32 0, i8* getelementptr inbounds ([14 x i8]* @getelementptr_namestr, i32 0, i32 0)), !llfi_injectfault !11
  store i32* %__last.coerce, i32** %fi1, !llfi_index !1244
  store i32* %__result, i32** %1, align 8, !llfi_index !1245
  %6 = bitcast %"class.std::move_iterator"* %2 to i8*, !llfi_index !1246
  %fi2 = call i8* @injectFault11(i64 1245, i8* %6, i32 44, i32 0, i32 1, i32 0, i8* getelementptr inbounds ([8 x i8]* @bitcast_namestr, i32 0, i32 0)), !llfi_injectfault !11
  %7 = bitcast %"class.std::move_iterator"* %__first to i8*, !llfi_index !1247
  %fi3 = call i8* @injectFault11(i64 1246, i8* %7, i32 44, i32 0, i32 1, i32 0, i8* getelementptr inbounds ([8 x i8]* @bitcast_namestr, i32 0, i32 0)), !llfi_injectfault !11
  call void @llvm.memcpy.p0i8.p0i8.i64(i8* %fi2, i8* %fi3, i64 8, i32 8, i1 false), !llfi_index !1248
  %8 = bitcast %"class.std::move_iterator"* %3 to i8*, !llfi_index !1249
  %fi4 = call i8* @injectFault11(i64 1248, i8* %8, i32 44, i32 0, i32 1, i32 0, i8* getelementptr inbounds ([8 x i8]* @bitcast_namestr, i32 0, i32 0)), !llfi_injectfault !11
  %9 = bitcast %"class.std::move_iterator"* %__last to i8*, !llfi_index !1250
  %fi5 = call i8* @injectFault11(i64 1249, i8* %9, i32 44, i32 0, i32 1, i32 0, i8* getelementptr inbounds ([8 x i8]* @bitcast_namestr, i32 0, i32 0)), !llfi_injectfault !11
  call void @llvm.memcpy.p0i8.p0i8.i64(i8* %fi4, i8* %fi5, i64 8, i32 8, i1 false), !llfi_index !1251
  %10 = load i32** %1, align 8, !llfi_index !1252
  %fi6 = call i32* @injectFault1(i64 1251, i32* %10, i32 27, i32 0, i32 1, i32 0, i8* getelementptr inbounds ([5 x i8]* @load_namestr, i32 0, i32 0)), !llfi_injectfault !11
  %11 = getelementptr %"class.std::move_iterator"* %2, i32 0, i32 0, !llfi_index !1253
  %fi7 = call i32** @injectFault0(i64 1252, i32** %11, i32 29, i32 0, i32 1, i32 0, i8* getelementptr inbounds ([14 x i8]* @getelementptr_namestr, i32 0, i32 0)), !llfi_injectfault !11
  %12 = load i32** %fi7, !llfi_index !1254
  %fi8 = call i32* @injectFault1(i64 1253, i32* %12, i32 27, i32 0, i32 1, i32 0, i8* getelementptr inbounds ([5 x i8]* @load_namestr, i32 0, i32 0)), !llfi_injectfault !11
  %13 = getelementptr %"class.std::move_iterator"* %3, i32 0, i32 0, !llfi_index !1255
  %fi9 = call i32** @injectFault0(i64 1254, i32** %13, i32 29, i32 0, i32 1, i32 0, i8* getelementptr inbounds ([14 x i8]* @getelementptr_namestr, i32 0, i32 0)), !llfi_injectfault !11
  %14 = load i32** %fi9, !llfi_index !1256
  %fi10 = call i32* @injectFault1(i64 1255, i32* %14, i32 27, i32 0, i32 1, i32 0, i8* getelementptr inbounds ([5 x i8]* @load_namestr, i32 0, i32 0)), !llfi_injectfault !11
  %15 = call i32* @_ZSt4copyISt13move_iteratorIPiES1_ET0_T_S4_S3_(i32* %fi8, i32* %fi10, i32* %fi6), !llfi_index !1257
  ret i32* %15, !llfi_index !1258
}

; Function Attrs: inlinehint nounwind uwtable
define linkonce_odr i32* @_ZSt4copyISt13move_iteratorIPiES1_ET0_T_S4_S3_(i32* %__first.coerce, i32* %__last.coerce, i32* %__result) #5 {
  %__first = alloca %"class.std::move_iterator", align 8, !llfi_index !1259
  %__last = alloca %"class.std::move_iterator", align 8, !llfi_index !1260
  %1 = alloca i32*, align 8, !llfi_index !1261
  %2 = alloca %"class.std::move_iterator", align 8, !llfi_index !1262
  %3 = alloca %"class.std::move_iterator", align 8, !llfi_index !1263
  %4 = getelementptr %"class.std::move_iterator"* %__first, i32 0, i32 0, !llfi_index !1264
  %fi = call i32** @injectFault0(i64 1263, i32** %4, i32 29, i32 0, i32 1, i32 0, i8* getelementptr inbounds ([14 x i8]* @getelementptr_namestr, i32 0, i32 0)), !llfi_injectfault !11
  store i32* %__first.coerce, i32** %fi, !llfi_index !1265
  %5 = getelementptr %"class.std::move_iterator"* %__last, i32 0, i32 0, !llfi_index !1266
  %fi1 = call i32** @injectFault0(i64 1265, i32** %5, i32 29, i32 0, i32 1, i32 0, i8* getelementptr inbounds ([14 x i8]* @getelementptr_namestr, i32 0, i32 0)), !llfi_injectfault !11
  store i32* %__last.coerce, i32** %fi1, !llfi_index !1267
  store i32* %__result, i32** %1, align 8, !llfi_index !1268
  %6 = bitcast %"class.std::move_iterator"* %2 to i8*, !llfi_index !1269
  %fi2 = call i8* @injectFault11(i64 1268, i8* %6, i32 44, i32 0, i32 1, i32 0, i8* getelementptr inbounds ([8 x i8]* @bitcast_namestr, i32 0, i32 0)), !llfi_injectfault !11
  %7 = bitcast %"class.std::move_iterator"* %__first to i8*, !llfi_index !1270
  %fi3 = call i8* @injectFault11(i64 1269, i8* %7, i32 44, i32 0, i32 1, i32 0, i8* getelementptr inbounds ([8 x i8]* @bitcast_namestr, i32 0, i32 0)), !llfi_injectfault !11
  call void @llvm.memcpy.p0i8.p0i8.i64(i8* %fi2, i8* %fi3, i64 8, i32 8, i1 false), !llfi_index !1271
  %8 = getelementptr %"class.std::move_iterator"* %2, i32 0, i32 0, !llfi_index !1272
  %fi4 = call i32** @injectFault0(i64 1271, i32** %8, i32 29, i32 0, i32 1, i32 0, i8* getelementptr inbounds ([14 x i8]* @getelementptr_namestr, i32 0, i32 0)), !llfi_injectfault !11
  %9 = load i32** %fi4, !llfi_index !1273
  %fi5 = call i32* @injectFault1(i64 1272, i32* %9, i32 27, i32 0, i32 1, i32 0, i8* getelementptr inbounds ([5 x i8]* @load_namestr, i32 0, i32 0)), !llfi_injectfault !11
  %10 = call i32* @_ZSt12__miter_baseISt13move_iteratorIPiEENSt11_Miter_baseIT_E13iterator_typeES4_(i32* %fi5), !llfi_index !1274
  %11 = bitcast %"class.std::move_iterator"* %3 to i8*, !llfi_index !1275
  %fi6 = call i8* @injectFault11(i64 1274, i8* %11, i32 44, i32 0, i32 1, i32 0, i8* getelementptr inbounds ([8 x i8]* @bitcast_namestr, i32 0, i32 0)), !llfi_injectfault !11
  %12 = bitcast %"class.std::move_iterator"* %__last to i8*, !llfi_index !1276
  %fi7 = call i8* @injectFault11(i64 1275, i8* %12, i32 44, i32 0, i32 1, i32 0, i8* getelementptr inbounds ([8 x i8]* @bitcast_namestr, i32 0, i32 0)), !llfi_injectfault !11
  call void @llvm.memcpy.p0i8.p0i8.i64(i8* %fi6, i8* %fi7, i64 8, i32 8, i1 false), !llfi_index !1277
  %13 = getelementptr %"class.std::move_iterator"* %3, i32 0, i32 0, !llfi_index !1278
  %fi8 = call i32** @injectFault0(i64 1277, i32** %13, i32 29, i32 0, i32 1, i32 0, i8* getelementptr inbounds ([14 x i8]* @getelementptr_namestr, i32 0, i32 0)), !llfi_injectfault !11
  %14 = load i32** %fi8, !llfi_index !1279
  %fi9 = call i32* @injectFault1(i64 1278, i32* %14, i32 27, i32 0, i32 1, i32 0, i8* getelementptr inbounds ([5 x i8]* @load_namestr, i32 0, i32 0)), !llfi_injectfault !11
  %15 = call i32* @_ZSt12__miter_baseISt13move_iteratorIPiEENSt11_Miter_baseIT_E13iterator_typeES4_(i32* %fi9), !llfi_index !1280
  %16 = load i32** %1, align 8, !llfi_index !1281
  %fi10 = call i32* @injectFault1(i64 1280, i32* %16, i32 27, i32 0, i32 1, i32 0, i8* getelementptr inbounds ([5 x i8]* @load_namestr, i32 0, i32 0)), !llfi_injectfault !11
  %17 = call i32* @_ZSt14__copy_move_a2ILb1EPiS0_ET1_T0_S2_S1_(i32* %10, i32* %15, i32* %fi10), !llfi_index !1282
  ret i32* %17, !llfi_index !1283
}

; Function Attrs: inlinehint nounwind uwtable
define linkonce_odr i32* @_ZSt14__copy_move_a2ILb1EPiS0_ET1_T0_S2_S1_(i32* %__first, i32* %__last, i32* %__result) #5 {
  %1 = alloca i32*, align 8, !llfi_index !1284
  %2 = alloca i32*, align 8, !llfi_index !1285
  %3 = alloca i32*, align 8, !llfi_index !1286
  store i32* %__first, i32** %1, align 8, !llfi_index !1287
  store i32* %__last, i32** %2, align 8, !llfi_index !1288
  store i32* %__result, i32** %3, align 8, !llfi_index !1289
  %4 = load i32** %1, align 8, !llfi_index !1290
  %fi = call i32* @injectFault1(i64 1289, i32* %4, i32 27, i32 0, i32 1, i32 0, i8* getelementptr inbounds ([5 x i8]* @load_namestr, i32 0, i32 0)), !llfi_injectfault !11
  %5 = call i32* @_ZSt12__niter_baseIPiENSt11_Niter_baseIT_E13iterator_typeES2_(i32* %fi), !llfi_index !1291
  %6 = load i32** %2, align 8, !llfi_index !1292
  %fi1 = call i32* @injectFault1(i64 1291, i32* %6, i32 27, i32 0, i32 1, i32 0, i8* getelementptr inbounds ([5 x i8]* @load_namestr, i32 0, i32 0)), !llfi_injectfault !11
  %7 = call i32* @_ZSt12__niter_baseIPiENSt11_Niter_baseIT_E13iterator_typeES2_(i32* %fi1), !llfi_index !1293
  %8 = load i32** %3, align 8, !llfi_index !1294
  %fi2 = call i32* @injectFault1(i64 1293, i32* %8, i32 27, i32 0, i32 1, i32 0, i8* getelementptr inbounds ([5 x i8]* @load_namestr, i32 0, i32 0)), !llfi_injectfault !11
  %9 = call i32* @_ZSt12__niter_baseIPiENSt11_Niter_baseIT_E13iterator_typeES2_(i32* %fi2), !llfi_index !1295
  %10 = call i32* @_ZSt13__copy_move_aILb1EPiS0_ET1_T0_S2_S1_(i32* %5, i32* %7, i32* %9), !llfi_index !1296
  ret i32* %10, !llfi_index !1297
}

; Function Attrs: inlinehint nounwind uwtable
define linkonce_odr i32* @_ZSt12__miter_baseISt13move_iteratorIPiEENSt11_Miter_baseIT_E13iterator_typeES4_(i32* %__it.coerce) #5 {
  %__it = alloca %"class.std::move_iterator", align 8, !llfi_index !1298
  %1 = alloca %"class.std::move_iterator", align 8, !llfi_index !1299
  %2 = getelementptr %"class.std::move_iterator"* %__it, i32 0, i32 0, !llfi_index !1300
  %fi = call i32** @injectFault0(i64 1299, i32** %2, i32 29, i32 0, i32 1, i32 0, i8* getelementptr inbounds ([14 x i8]* @getelementptr_namestr, i32 0, i32 0)), !llfi_injectfault !11
  store i32* %__it.coerce, i32** %fi, !llfi_index !1301
  %3 = bitcast %"class.std::move_iterator"* %1 to i8*, !llfi_index !1302
  %fi1 = call i8* @injectFault11(i64 1301, i8* %3, i32 44, i32 0, i32 1, i32 0, i8* getelementptr inbounds ([8 x i8]* @bitcast_namestr, i32 0, i32 0)), !llfi_injectfault !11
  %4 = bitcast %"class.std::move_iterator"* %__it to i8*, !llfi_index !1303
  %fi2 = call i8* @injectFault11(i64 1302, i8* %4, i32 44, i32 0, i32 1, i32 0, i8* getelementptr inbounds ([8 x i8]* @bitcast_namestr, i32 0, i32 0)), !llfi_injectfault !11
  call void @llvm.memcpy.p0i8.p0i8.i64(i8* %fi1, i8* %fi2, i64 8, i32 8, i1 false), !llfi_index !1304
  %5 = getelementptr %"class.std::move_iterator"* %1, i32 0, i32 0, !llfi_index !1305
  %fi3 = call i32** @injectFault0(i64 1304, i32** %5, i32 29, i32 0, i32 1, i32 0, i8* getelementptr inbounds ([14 x i8]* @getelementptr_namestr, i32 0, i32 0)), !llfi_injectfault !11
  %6 = load i32** %fi3, !llfi_index !1306
  %fi4 = call i32* @injectFault1(i64 1305, i32* %6, i32 27, i32 0, i32 1, i32 0, i8* getelementptr inbounds ([5 x i8]* @load_namestr, i32 0, i32 0)), !llfi_injectfault !11
  %7 = call i32* @_ZNSt10_Iter_baseISt13move_iteratorIPiELb1EE7_S_baseES2_(i32* %fi4), !llfi_index !1307
  ret i32* %7, !llfi_index !1308
}

; Function Attrs: nounwind uwtable
define linkonce_odr i32* @_ZNSt10_Iter_baseISt13move_iteratorIPiELb1EE7_S_baseES2_(i32* %__it.coerce) #3 align 2 {
  %__it = alloca %"class.std::move_iterator", align 8, !llfi_index !1309
  %1 = getelementptr %"class.std::move_iterator"* %__it, i32 0, i32 0, !llfi_index !1310
  %fi = call i32** @injectFault0(i64 1309, i32** %1, i32 29, i32 0, i32 1, i32 0, i8* getelementptr inbounds ([14 x i8]* @getelementptr_namestr, i32 0, i32 0)), !llfi_injectfault !11
  store i32* %__it.coerce, i32** %fi, !llfi_index !1311
  %2 = call i32* @_ZNKSt13move_iteratorIPiE4baseEv(%"class.std::move_iterator"* %__it), !llfi_index !1312
  ret i32* %2, !llfi_index !1313
}

; Function Attrs: nounwind uwtable
define linkonce_odr i32* @_ZNKSt13move_iteratorIPiE4baseEv(%"class.std::move_iterator"* %this) #3 align 2 {
  %1 = alloca %"class.std::move_iterator"*, align 8, !llfi_index !1314
  store %"class.std::move_iterator"* %this, %"class.std::move_iterator"** %1, align 8, !llfi_index !1315
  %2 = load %"class.std::move_iterator"** %1, !llfi_index !1316
  %fi = call %"class.std::move_iterator"* @injectFault23(i64 1315, %"class.std::move_iterator"* %2, i32 27, i32 0, i32 1, i32 0, i8* getelementptr inbounds ([5 x i8]* @load_namestr, i32 0, i32 0)), !llfi_injectfault !11
  %3 = getelementptr %"class.std::move_iterator"* %fi, i32 0, i32 0, !llfi_index !1317
  %fi1 = call i32** @injectFault0(i64 1316, i32** %3, i32 29, i32 0, i32 1, i32 0, i8* getelementptr inbounds ([14 x i8]* @getelementptr_namestr, i32 0, i32 0)), !llfi_injectfault !11
  %4 = load i32** %fi1, align 8, !llfi_index !1318
  %fi2 = call i32* @injectFault1(i64 1317, i32* %4, i32 27, i32 0, i32 1, i32 0, i8* getelementptr inbounds ([5 x i8]* @load_namestr, i32 0, i32 0)), !llfi_injectfault !11
  ret i32* %fi2, !llfi_index !1319
}

; Function Attrs: inlinehint nounwind uwtable
define linkonce_odr i32* @_ZSt13__copy_move_aILb1EPiS0_ET1_T0_S2_S1_(i32* %__first, i32* %__last, i32* %__result) #5 {
  %1 = alloca i32*, align 8, !llfi_index !1320
  %2 = alloca i32*, align 8, !llfi_index !1321
  %3 = alloca i32*, align 8, !llfi_index !1322
  %__simple = alloca i8, align 1, !llfi_index !1323
  store i32* %__first, i32** %1, align 8, !llfi_index !1324
  store i32* %__last, i32** %2, align 8, !llfi_index !1325
  store i32* %__result, i32** %3, align 8, !llfi_index !1326
  store i8 1, i8* %__simple, align 1, !llfi_index !1327
  %4 = load i32** %1, align 8, !llfi_index !1328
  %fi = call i32* @injectFault1(i64 1327, i32* %4, i32 27, i32 0, i32 1, i32 0, i8* getelementptr inbounds ([5 x i8]* @load_namestr, i32 0, i32 0)), !llfi_injectfault !11
  %5 = load i32** %2, align 8, !llfi_index !1329
  %fi1 = call i32* @injectFault1(i64 1328, i32* %5, i32 27, i32 0, i32 1, i32 0, i8* getelementptr inbounds ([5 x i8]* @load_namestr, i32 0, i32 0)), !llfi_injectfault !11
  %6 = load i32** %3, align 8, !llfi_index !1330
  %fi2 = call i32* @injectFault1(i64 1329, i32* %6, i32 27, i32 0, i32 1, i32 0, i8* getelementptr inbounds ([5 x i8]* @load_namestr, i32 0, i32 0)), !llfi_injectfault !11
  %7 = call i32* @_ZNSt11__copy_moveILb1ELb1ESt26random_access_iterator_tagE8__copy_mIiEEPT_PKS3_S6_S4_(i32* %fi, i32* %fi1, i32* %fi2), !llfi_index !1331
  ret i32* %7, !llfi_index !1332
}

; Function Attrs: nounwind uwtable
define linkonce_odr i32* @_ZNSt11__copy_moveILb1ELb1ESt26random_access_iterator_tagE8__copy_mIiEEPT_PKS3_S6_S4_(i32* %__first, i32* %__last, i32* %__result) #3 align 2 {
  %1 = alloca i32*, align 8, !llfi_index !1333
  %2 = alloca i32*, align 8, !llfi_index !1334
  %3 = alloca i32*, align 8, !llfi_index !1335
  %_Num = alloca i64, align 8, !llfi_index !1336
  store i32* %__first, i32** %1, align 8, !llfi_index !1337
  store i32* %__last, i32** %2, align 8, !llfi_index !1338
  store i32* %__result, i32** %3, align 8, !llfi_index !1339
  %4 = load i32** %2, align 8, !llfi_index !1340
  %fi = call i32* @injectFault1(i64 1339, i32* %4, i32 27, i32 0, i32 1, i32 0, i8* getelementptr inbounds ([5 x i8]* @load_namestr, i32 0, i32 0)), !llfi_injectfault !11
  %5 = load i32** %1, align 8, !llfi_index !1341
  %fi1 = call i32* @injectFault1(i64 1340, i32* %5, i32 27, i32 0, i32 1, i32 0, i8* getelementptr inbounds ([5 x i8]* @load_namestr, i32 0, i32 0)), !llfi_injectfault !11
  %6 = ptrtoint i32* %fi to i64, !llfi_index !1342
  %fi2 = call i64 @injectFault16(i64 1341, i64 %6, i32 42, i32 0, i32 1, i32 0, i8* getelementptr inbounds ([9 x i8]* @ptrtoint_namestr, i32 0, i32 0)), !llfi_injectfault !11
  %7 = ptrtoint i32* %fi1 to i64, !llfi_index !1343
  %fi3 = call i64 @injectFault16(i64 1342, i64 %7, i32 42, i32 0, i32 1, i32 0, i8* getelementptr inbounds ([9 x i8]* @ptrtoint_namestr, i32 0, i32 0)), !llfi_injectfault !11
  %8 = sub i64 %fi2, %fi3, !llfi_index !1344
  %fi4 = call i64 @injectFault16(i64 1343, i64 %8, i32 10, i32 0, i32 1, i32 0, i8* getelementptr inbounds ([4 x i8]* @sub_namestr, i32 0, i32 0)), !llfi_injectfault !11
  %9 = sdiv exact i64 %fi4, 4, !llfi_index !1345
  %fi6 = call i64 @injectFault16(i64 1344, i64 %9, i32 15, i32 0, i32 1, i32 0, i8* getelementptr inbounds ([5 x i8]* @sdiv_namestr, i32 0, i32 0)), !llfi_injectfault !11
  store i64 %fi6, i64* %_Num, align 8, !llfi_index !1346
  %10 = load i64* %_Num, align 8, !llfi_index !1347
  %fi7 = call i64 @injectFault16(i64 1346, i64 %10, i32 27, i32 0, i32 1, i32 0, i8* getelementptr inbounds ([5 x i8]* @load_namestr, i32 0, i32 0)), !llfi_injectfault !11
  %11 = icmp ne i64 %fi7, 0, !llfi_index !1348
  %fi8 = call i1 @injectFault4(i64 1347, i1 %11, i32 46, i32 0, i32 1, i32 0, i8* getelementptr inbounds ([5 x i8]* @icmp_namestr, i32 0, i32 0)), !llfi_injectfault !11
  br i1 %fi8, label %12, label %19, !llfi_index !1349

; <label>:12                                      ; preds = %0
  %13 = load i32** %3, align 8, !llfi_index !1350
  %fi9 = call i32* @injectFault1(i64 1349, i32* %13, i32 27, i32 0, i32 1, i32 0, i8* getelementptr inbounds ([5 x i8]* @load_namestr, i32 0, i32 0)), !llfi_injectfault !11
  %14 = bitcast i32* %fi9 to i8*, !llfi_index !1351
  %fi10 = call i8* @injectFault11(i64 1350, i8* %14, i32 44, i32 0, i32 1, i32 0, i8* getelementptr inbounds ([8 x i8]* @bitcast_namestr, i32 0, i32 0)), !llfi_injectfault !11
  %15 = load i32** %1, align 8, !llfi_index !1352
  %fi11 = call i32* @injectFault1(i64 1351, i32* %15, i32 27, i32 0, i32 1, i32 0, i8* getelementptr inbounds ([5 x i8]* @load_namestr, i32 0, i32 0)), !llfi_injectfault !11
  %16 = bitcast i32* %fi11 to i8*, !llfi_index !1353
  %fi12 = call i8* @injectFault11(i64 1352, i8* %16, i32 44, i32 0, i32 1, i32 0, i8* getelementptr inbounds ([8 x i8]* @bitcast_namestr, i32 0, i32 0)), !llfi_injectfault !11
  %17 = load i64* %_Num, align 8, !llfi_index !1354
  %fi5 = call i64 @injectFault16(i64 1353, i64 %17, i32 27, i32 0, i32 1, i32 0, i8* getelementptr inbounds ([5 x i8]* @load_namestr, i32 0, i32 0)), !llfi_injectfault !11
  %18 = mul i64 4, %fi5, !llfi_index !1355
  %fi13 = call i64 @injectFault16(i64 1354, i64 %18, i32 12, i32 0, i32 1, i32 0, i8* getelementptr inbounds ([4 x i8]* @mul_namestr, i32 0, i32 0)), !llfi_injectfault !11
  call void @llvm.memmove.p0i8.p0i8.i64(i8* %fi10, i8* %fi12, i64 %fi13, i32 4, i1 false), !llfi_index !1356
  br label %19, !llfi_index !1357

; <label>:19                                      ; preds = %12, %0
  %20 = load i32** %3, align 8, !llfi_index !1358
  %fi14 = call i32* @injectFault1(i64 1357, i32* %20, i32 27, i32 0, i32 1, i32 0, i8* getelementptr inbounds ([5 x i8]* @load_namestr, i32 0, i32 0)), !llfi_injectfault !11
  %21 = load i64* %_Num, align 8, !llfi_index !1359
  %fi15 = call i64 @injectFault16(i64 1358, i64 %21, i32 27, i32 0, i32 1, i32 0, i8* getelementptr inbounds ([5 x i8]* @load_namestr, i32 0, i32 0)), !llfi_injectfault !11
  %22 = getelementptr i32* %fi14, i64 %fi15, !llfi_index !1360
  %fi16 = call i32* @injectFault1(i64 1359, i32* %22, i32 29, i32 0, i32 1, i32 0, i8* getelementptr inbounds ([14 x i8]* @getelementptr_namestr, i32 0, i32 0)), !llfi_injectfault !11
  ret i32* %fi16, !llfi_index !1361
}

; Function Attrs: nounwind uwtable
define linkonce_odr i64 @_ZNKSt6vectorIiSaIiEE8max_sizeEv(%"class.std::vector"* %this) #3 align 2 {
  %1 = alloca %"class.std::vector"*, align 8, !llfi_index !1362
  store %"class.std::vector"* %this, %"class.std::vector"** %1, align 8, !llfi_index !1363
  %2 = load %"class.std::vector"** %1, !llfi_index !1364
  %fi = call %"class.std::vector"* @injectFault5(i64 1363, %"class.std::vector"* %2, i32 27, i32 0, i32 1, i32 0, i8* getelementptr inbounds ([5 x i8]* @load_namestr, i32 0, i32 0)), !llfi_injectfault !11
  %3 = bitcast %"class.std::vector"* %fi to %"struct.std::_Vector_base"*, !llfi_index !1365
  %fi1 = call %"struct.std::_Vector_base"* @injectFault6(i64 1364, %"struct.std::_Vector_base"* %3, i32 44, i32 0, i32 1, i32 0, i8* getelementptr inbounds ([8 x i8]* @bitcast_namestr, i32 0, i32 0)), !llfi_injectfault !11
  %4 = call %"class.std::allocator"* @_ZNKSt12_Vector_baseIiSaIiEE19_M_get_Tp_allocatorEv(%"struct.std::_Vector_base"* %fi1) #0, !llfi_index !1366
  %5 = call i64 @_ZNSt16allocator_traitsISaIiEE8max_sizeERKS0_(%"class.std::allocator"* %4) #0, !llfi_index !1367
  ret i64 %5, !llfi_index !1368
}

; Function Attrs: noreturn
declare void @_ZSt20__throw_length_errorPKc(i8*) #7

; Function Attrs: inlinehint nounwind uwtable
define linkonce_odr i64* @_ZSt3maxImERKT_S2_S2_(i64* %__a, i64* %__b) #5 {
  %1 = alloca i64*, align 8, !llfi_index !1369
  %2 = alloca i64*, align 8, !llfi_index !1370
  %3 = alloca i64*, align 8, !llfi_index !1371
  store i64* %__a, i64** %2, align 8, !llfi_index !1372
  store i64* %__b, i64** %3, align 8, !llfi_index !1373
  %4 = load i64** %2, align 8, !llfi_index !1374
  %fi = call i64* @injectFault14(i64 1373, i64* %4, i32 27, i32 0, i32 1, i32 0, i8* getelementptr inbounds ([5 x i8]* @load_namestr, i32 0, i32 0)), !llfi_injectfault !11
  %5 = load i64* %fi, align 8, !llfi_index !1375
  %fi1 = call i64 @injectFault16(i64 1374, i64 %5, i32 27, i32 0, i32 1, i32 0, i8* getelementptr inbounds ([5 x i8]* @load_namestr, i32 0, i32 0)), !llfi_injectfault !11
  %6 = load i64** %3, align 8, !llfi_index !1376
  %fi2 = call i64* @injectFault14(i64 1375, i64* %6, i32 27, i32 0, i32 1, i32 0, i8* getelementptr inbounds ([5 x i8]* @load_namestr, i32 0, i32 0)), !llfi_injectfault !11
  %7 = load i64* %fi2, align 8, !llfi_index !1377
  %fi3 = call i64 @injectFault16(i64 1376, i64 %7, i32 27, i32 0, i32 1, i32 0, i8* getelementptr inbounds ([5 x i8]* @load_namestr, i32 0, i32 0)), !llfi_injectfault !11
  %8 = icmp ult i64 %fi1, %fi3, !llfi_index !1378
  %fi4 = call i1 @injectFault4(i64 1377, i1 %8, i32 46, i32 0, i32 1, i32 0, i8* getelementptr inbounds ([5 x i8]* @icmp_namestr, i32 0, i32 0)), !llfi_injectfault !11
  br i1 %fi4, label %9, label %11, !llfi_index !1379

; <label>:9                                       ; preds = %0
  %10 = load i64** %3, align 8, !llfi_index !1380
  %fi5 = call i64* @injectFault14(i64 1379, i64* %10, i32 27, i32 0, i32 1, i32 0, i8* getelementptr inbounds ([5 x i8]* @load_namestr, i32 0, i32 0)), !llfi_injectfault !11
  store i64* %fi5, i64** %1, !llfi_index !1381
  br label %13, !llfi_index !1382

; <label>:11                                      ; preds = %0
  %12 = load i64** %2, align 8, !llfi_index !1383
  %fi6 = call i64* @injectFault14(i64 1382, i64* %12, i32 27, i32 0, i32 1, i32 0, i8* getelementptr inbounds ([5 x i8]* @load_namestr, i32 0, i32 0)), !llfi_injectfault !11
  store i64* %fi6, i64** %1, !llfi_index !1384
  br label %13, !llfi_index !1385

; <label>:13                                      ; preds = %11, %9
  %14 = load i64** %1, !llfi_index !1386
  %fi7 = call i64* @injectFault14(i64 1385, i64* %14, i32 27, i32 0, i32 1, i32 0, i8* getelementptr inbounds ([5 x i8]* @load_namestr, i32 0, i32 0)), !llfi_injectfault !11
  ret i64* %fi7, !llfi_index !1387
}

; Function Attrs: nounwind uwtable
define linkonce_odr i64 @_ZNSt16allocator_traitsISaIiEE8max_sizeERKS0_(%"class.std::allocator"* %__a) #3 align 2 {
  %1 = alloca %"class.std::allocator"*, align 8, !llfi_index !1388
  store %"class.std::allocator"* %__a, %"class.std::allocator"** %1, align 8, !llfi_index !1389
  %2 = load %"class.std::allocator"** %1, align 8, !llfi_index !1390
  %fi = call %"class.std::allocator"* @injectFault8(i64 1389, %"class.std::allocator"* %2, i32 27, i32 0, i32 1, i32 0, i8* getelementptr inbounds ([5 x i8]* @load_namestr, i32 0, i32 0)), !llfi_injectfault !11
  %3 = bitcast %"class.std::allocator"* %fi to %"class.__gnu_cxx::new_allocator"*, !llfi_index !1391
  %fi1 = call %"class.__gnu_cxx::new_allocator"* @injectFault12(i64 1390, %"class.__gnu_cxx::new_allocator"* %3, i32 44, i32 0, i32 1, i32 0, i8* getelementptr inbounds ([8 x i8]* @bitcast_namestr, i32 0, i32 0)), !llfi_injectfault !11
  %4 = call i64 @_ZNK9__gnu_cxx13new_allocatorIiE8max_sizeEv(%"class.__gnu_cxx::new_allocator"* %fi1) #0, !llfi_index !1392
  ret i64 %4, !llfi_index !1393
}

; Function Attrs: nounwind uwtable
define linkonce_odr %"class.std::allocator"* @_ZNKSt12_Vector_baseIiSaIiEE19_M_get_Tp_allocatorEv(%"struct.std::_Vector_base"* %this) #3 align 2 {
  %1 = alloca %"struct.std::_Vector_base"*, align 8, !llfi_index !1394
  store %"struct.std::_Vector_base"* %this, %"struct.std::_Vector_base"** %1, align 8, !llfi_index !1395
  %2 = load %"struct.std::_Vector_base"** %1, !llfi_index !1396
  %fi = call %"struct.std::_Vector_base"* @injectFault6(i64 1395, %"struct.std::_Vector_base"* %2, i32 27, i32 0, i32 1, i32 0, i8* getelementptr inbounds ([5 x i8]* @load_namestr, i32 0, i32 0)), !llfi_injectfault !11
  %3 = getelementptr %"struct.std::_Vector_base"* %fi, i32 0, i32 0, !llfi_index !1397
  %fi1 = call %"struct.std::_Vector_base<int, std::allocator<int> >::_Vector_impl"* @injectFault7(i64 1396, %"struct.std::_Vector_base<int, std::allocator<int> >::_Vector_impl"* %3, i32 29, i32 0, i32 1, i32 0, i8* getelementptr inbounds ([14 x i8]* @getelementptr_namestr, i32 0, i32 0)), !llfi_injectfault !11
  %4 = bitcast %"struct.std::_Vector_base<int, std::allocator<int> >::_Vector_impl"* %fi1 to %"class.std::allocator"*, !llfi_index !1398
  %fi2 = call %"class.std::allocator"* @injectFault8(i64 1397, %"class.std::allocator"* %4, i32 44, i32 0, i32 1, i32 0, i8* getelementptr inbounds ([8 x i8]* @bitcast_namestr, i32 0, i32 0)), !llfi_injectfault !11
  ret %"class.std::allocator"* %fi2, !llfi_index !1399
}

; Function Attrs: nounwind uwtable
define linkonce_odr void @_ZN9__gnu_cxx13new_allocatorIiE9constructIiJRKiEEEvPT_DpOT0_(%"class.__gnu_cxx::new_allocator"* %this, i32* %__p, i32* %__args) #3 align 2 {
  %1 = alloca %"class.__gnu_cxx::new_allocator"*, align 8, !llfi_index !1400
  %2 = alloca i32*, align 8, !llfi_index !1401
  %3 = alloca i32*, align 8, !llfi_index !1402
  store %"class.__gnu_cxx::new_allocator"* %this, %"class.__gnu_cxx::new_allocator"** %1, align 8, !llfi_index !1403
  store i32* %__p, i32** %2, align 8, !llfi_index !1404
  store i32* %__args, i32** %3, align 8, !llfi_index !1405
  %4 = load %"class.__gnu_cxx::new_allocator"** %1, !llfi_index !1406
  %fi = call %"class.__gnu_cxx::new_allocator"* @injectFault12(i64 1405, %"class.__gnu_cxx::new_allocator"* %4, i32 27, i32 0, i32 1, i32 0, i8* getelementptr inbounds ([5 x i8]* @load_namestr, i32 0, i32 0)), !llfi_injectfault !11
  %5 = load i32** %2, align 8, !llfi_index !1407
  %fi1 = call i32* @injectFault1(i64 1406, i32* %5, i32 27, i32 0, i32 1, i32 0, i8* getelementptr inbounds ([5 x i8]* @load_namestr, i32 0, i32 0)), !llfi_injectfault !11
  %6 = bitcast i32* %fi1 to i8*, !llfi_index !1408
  %fi2 = call i8* @injectFault11(i64 1407, i8* %6, i32 44, i32 0, i32 1, i32 0, i8* getelementptr inbounds ([8 x i8]* @bitcast_namestr, i32 0, i32 0)), !llfi_injectfault !11
  %7 = icmp eq i8* %fi2, null, !llfi_index !1409
  %fi3 = call i1 @injectFault4(i64 1408, i1 %7, i32 46, i32 0, i32 1, i32 0, i8* getelementptr inbounds ([5 x i8]* @icmp_namestr, i32 0, i32 0)), !llfi_injectfault !11
  br i1 %fi3, label %13, label %8, !llfi_index !1410

; <label>:8                                       ; preds = %0
  %9 = bitcast i8* %fi2 to i32*, !llfi_index !1411
  %fi4 = call i32* @injectFault1(i64 1410, i32* %9, i32 44, i32 0, i32 1, i32 0, i8* getelementptr inbounds ([8 x i8]* @bitcast_namestr, i32 0, i32 0)), !llfi_injectfault !11
  %10 = load i32** %3, align 8, !llfi_index !1412
  %fi5 = call i32* @injectFault1(i64 1411, i32* %10, i32 27, i32 0, i32 1, i32 0, i8* getelementptr inbounds ([5 x i8]* @load_namestr, i32 0, i32 0)), !llfi_injectfault !11
  %11 = call i32* @_ZSt7forwardIRKiEOT_RNSt16remove_referenceIS2_E4typeE(i32* %fi5) #0, !llfi_index !1413
  %12 = load i32* %11, !llfi_index !1414
  %fi6 = call i32 @injectFault9(i64 1413, i32 %12, i32 27, i32 0, i32 1, i32 0, i8* getelementptr inbounds ([5 x i8]* @load_namestr, i32 0, i32 0)), !llfi_injectfault !11
  store i32 %fi6, i32* %fi4, align 4, !llfi_index !1415
  br label %13, !llfi_index !1416

; <label>:13                                      ; preds = %8, %0
  %14 = phi i32* [ %fi4, %8 ], [ null, %0 ], !llfi_index !1417
  ret void, !llfi_index !1418
}

; Function Attrs: nounwind
define internal void @_GLOBAL__I_a() #0 section ".text.startup" {
  call void @__cxx_global_var_init(), !llfi_index !1419
  ret void, !llfi_index !1420
}

define i32** @injectFault0(i64, i32**, i32, i32, i32, i32, i8*) {
entry:
  %tmploc = alloca i32**
  store i32** %1, i32*** %tmploc
  %pre_cond = call i1 @preFunc(i64 %0, i32 %2, i32 %3, i32 %4)
  br i1 %pre_cond, label %inject, label %exit

inject:                                           ; preds = %entry
  %tmploc_cast = bitcast i32*** %tmploc to i8*
