; ModuleID = '/home/foo/ResearchAlgorithms/llfi/in_07_doubly_threaded-llfi_index.ll'
target datalayout = "e-p:64:64:64-i1:8:8-i8:8:8-i16:16:16-i32:32:32-i64:64:64-f32:32:32-f64:64:64-v64:64:64-v128:128:128-a0:0:64-s0:64:64-f80:128:128-n8:16:32:64-S128"
target triple = "x86_64-unknown-linux-gnu"

%"class.std::ios_base::Init" = type { i8 }
%"class.std::basic_ostream" = type { i32 (...)**, %"class.std::basic_ios" }
%"class.std::basic_ios" = type { %"class.std::ios_base", %"class.std::basic_ostream"*, i8, i8, %"class.std::basic_streambuf"*, %"class.std::ctype"*, %"class.std::num_put"*, %"class.std::num_get"* }
%"class.std::ios_base" = type { i32 (...)**, i64, i64, i32, i32, i32, %"struct.std::ios_base::_Callback_list"*, %"struct.std::ios_base::_Words", [8 x %"struct.std::ios_base::_Words"], i32, %"struct.std::ios_base::_Words"*, %"class.std::locale" }
%"struct.std::ios_base::_Callback_list" = type { %"struct.std::ios_base::_Callback_list"*, void (i32, %"class.std::ios_base"*, i32)*, i32, i32 }
%"struct.std::ios_base::_Words" = type { i8*, i64 }
%"class.std::locale" = type { %"class.std::locale::_Impl"* }
%"class.std::locale::_Impl" = type { i32, %"class.std::locale::facet"**, i64, %"class.std::locale::facet"**, i8** }
%"class.std::locale::facet" = type { i32 (...)**, i32 }
%"class.std::basic_streambuf" = type { i32 (...)**, i8*, i8*, i8*, i8*, i8*, i8*, %"class.std::locale" }
%"class.std::ctype" = type { %"class.std::locale::facet", %struct.__locale_struct*, i8, i32*, i32*, i16*, i8, [256 x i8], [256 x i8], i8 }
%struct.__locale_struct = type { [13 x %struct.__locale_data*], i16*, i32*, i32*, [13 x i8*] }
%struct.__locale_data = type opaque
%"class.std::num_put" = type { %"class.std::locale::facet" }
%"class.std::num_get" = type { %"class.std::locale::facet" }
%struct.Node = type { i32, i32, i32, %struct.Node*, %struct.Node* }
%"class.std::vector" = type { %"struct.std::_Vector_base" }
%"struct.std::_Vector_base" = type { %"struct.std::_Vector_base<int, std::allocator<int> >::_Vector_impl" }
%"struct.std::_Vector_base<int, std::allocator<int> >::_Vector_impl" = type { i32*, i32*, i32* }
%"class.std::allocator" = type { i8 }
%"class.std::__cxx11::basic_string" = type { %"struct.std::__cxx11::basic_string<char, std::char_traits<char>, std::allocator<char> >::_Alloc_hider", i64, %union.anon }
%"struct.std::__cxx11::basic_string<char, std::char_traits<char>, std::allocator<char> >::_Alloc_hider" = type { i8* }
%union.anon = type { i64, [8 x i8] }
%"class.std::allocator.0" = type { i8 }
%"class.std::basic_ifstream" = type { %"class.std::basic_istream.base", %"class.std::basic_filebuf", %"class.std::basic_ios" }
%"class.std::basic_istream.base" = type { i32 (...)**, i64 }
%"class.std::basic_filebuf" = type { %"class.std::basic_streambuf", %union.pthread_mutex_t, %"class.std::__basic_file", i32, %struct.__mbstate_t, %struct.__mbstate_t, %struct.__mbstate_t, i8*, i64, i8, i8, i8, i8, i8*, i8*, i8, %"class.std::codecvt"*, i8*, i64, i8*, i8* }
%union.pthread_mutex_t = type { %"struct.<anonymous union>::__pthread_mutex_s" }
%"struct.<anonymous union>::__pthread_mutex_s" = type { i32, i32, i32, i32, i32, i16, i16, %struct.__pthread_internal_list }
%struct.__pthread_internal_list = type { %struct.__pthread_internal_list*, %struct.__pthread_internal_list* }
%"class.std::__basic_file" = type { %struct._IO_FILE*, i8 }
%struct._IO_FILE = type { i32, i8*, i8*, i8*, i8*, i8*, i8*, i8*, i8*, i8*, i8*, i8*, %struct._IO_marker*, %struct._IO_FILE*, i32, i32, i64, i16, i8, [1 x i8], i8*, i64, i8*, i8*, i8*, i8*, i64, i32, [20 x i8] }
%struct._IO_marker = type { %struct._IO_marker*, %struct._IO_FILE*, i32 }
%struct.__mbstate_t = type { i32, %union.anon.3 }
%union.anon.3 = type { i32 }
%"class.std::codecvt" = type { %"class.std::__codecvt_abstract_base", %struct.__locale_struct* }
%"class.std::__codecvt_abstract_base" = type { %"class.std::locale::facet" }
%"class.std::basic_istream" = type { i32 (...)**, i64, %"class.std::basic_ios" }
%"class.__gnu_cxx::new_allocator" = type { i8 }
%"class.std::move_iterator" = type { i32* }

@_ZStL8__ioinit = internal global %"class.std::ios_base::Init" zeroinitializer, align 1
@__dso_handle = external global i8
@.str = private unnamed_addr constant [18 x i8] c"../../numbers.txt\00", align 1
@_ZSt4cout = external global %"class.std::basic_ostream"
@.str1 = private unnamed_addr constant [2 x i8] c" \00", align 1
@.str2 = private unnamed_addr constant [28 x i8] c"vector::_M_emplace_back_aux\00", align 1
@llvm.global_ctors = appending global [1 x { i32, void ()* }] [{ i32, void ()* } { i32 65535, void ()* @_GLOBAL__I_a }]

; Function Attrs: nounwind
define internal void @__cxx_global_var_init() #0 section ".text.startup" {
  call void @_ZNSt8ios_base4InitC1Ev(%"class.std::ios_base::Init"* @_ZStL8__ioinit), !llfi_index !1
  %1 = call i32 @__cxa_atexit(void (i8*)* bitcast (void (%"class.std::ios_base::Init"*)* @_ZNSt8ios_base4InitD1Ev to void (i8*)*), i8* getelementptr inbounds (%"class.std::ios_base::Init"* @_ZStL8__ioinit, i32 0, i32 0), i8* @__dso_handle) #0, !llfi_index !2
  ret void, !llfi_index !3
}

declare void @_ZNSt8ios_base4InitC1Ev(%"class.std::ios_base::Init"*) #1

; Function Attrs: nounwind
declare void @_ZNSt8ios_base4InitD1Ev(%"class.std::ios_base::Init"*) #2

; Function Attrs: nounwind
declare i32 @__cxa_atexit(void (i8*)*, i8*, i8*) #0

; Function Attrs: nounwind uwtable
define %struct.Node* @_Z10createNodei(i32 %data) #3 {
  %1 = alloca i32, align 4, !llfi_index !4
  %newNode = alloca %struct.Node*, align 8, !llfi_index !5
  store i32 %data, i32* %1, align 4, !llfi_index !6
  %2 = call noalias i8* @_Znwm(i64 32) #8, !llfi_index !7
  %3 = bitcast i8* %2 to %struct.Node*, !llfi_index !8
  call void @doProfiling(i32 44)
  store %struct.Node* %3, %struct.Node** %newNode, align 8, !llfi_index !9
  %4 = load i32* %1, align 4, !llfi_index !10
  call void @doProfiling(i32 27)
  %5 = load %struct.Node** %newNode, align 8, !llfi_index !11
  call void @doProfiling(i32 27)
  %6 = getelementptr inbounds %struct.Node* %5, i32 0, i32 0, !llfi_index !12
  call void @doProfiling(i32 29)
  store i32 %4, i32* %6, align 4, !llfi_index !13
  %7 = load %struct.Node** %newNode, align 8, !llfi_index !14
  call void @doProfiling(i32 27)
  %8 = getelementptr inbounds %struct.Node* %7, i32 0, i32 2, !llfi_index !15
  call void @doProfiling(i32 29)
  store i32 0, i32* %8, align 4, !llfi_index !16
  %9 = load %struct.Node** %newNode, align 8, !llfi_index !17
  call void @doProfiling(i32 27)
  %10 = getelementptr inbounds %struct.Node* %9, i32 0, i32 1, !llfi_index !18
  call void @doProfiling(i32 29)
  store i32 0, i32* %10, align 4, !llfi_index !19
  %11 = load %struct.Node** %newNode, align 8, !llfi_index !20
  call void @doProfiling(i32 27)
  %12 = getelementptr inbounds %struct.Node* %11, i32 0, i32 4, !llfi_index !21
  call void @doProfiling(i32 29)
  store %struct.Node* null, %struct.Node** %12, align 8, !llfi_index !22
  %13 = load %struct.Node** %newNode, align 8, !llfi_index !23
  call void @doProfiling(i32 27)
  %14 = getelementptr inbounds %struct.Node* %13, i32 0, i32 3, !llfi_index !24
  call void @doProfiling(i32 29)
  store %struct.Node* null, %struct.Node** %14, align 8, !llfi_index !25
  %15 = load %struct.Node** %newNode, align 8, !llfi_index !26
  call void @doProfiling(i32 27)
  ret %struct.Node* %15, !llfi_index !27
}

; Function Attrs: nobuiltin
declare noalias i8* @_Znwm(i64) #4

; Function Attrs: nounwind uwtable
define %struct.Node* @_Z9insertTBTP4Nodei(%struct.Node* %head, i32 %data) #3 {
  %1 = alloca %struct.Node*, align 8, !llfi_index !28
  %2 = alloca %struct.Node*, align 8, !llfi_index !29
  %3 = alloca i32, align 4, !llfi_index !30
  %temp = alloca %struct.Node*, align 8, !llfi_index !31
  %curr = alloca %struct.Node*, align 8, !llfi_index !32
  %temp1 = alloca %struct.Node*, align 8, !llfi_index !33
  store %struct.Node* %head, %struct.Node** %2, align 8, !llfi_index !34
  store i32 %data, i32* %3, align 4, !llfi_index !35
  %4 = load %struct.Node** %2, align 8, !llfi_index !36
  call void @doProfiling(i32 27)
  %5 = getelementptr inbounds %struct.Node* %4, i32 0, i32 3, !llfi_index !37
  call void @doProfiling(i32 29)
  %6 = load %struct.Node** %5, align 8, !llfi_index !38
  call void @doProfiling(i32 27)
  %7 = load %struct.Node** %2, align 8, !llfi_index !39
  call void @doProfiling(i32 27)
  %8 = icmp eq %struct.Node* %6, %7, !llfi_index !40
  call void @doProfiling(i32 46)
  br i1 %8, label %9, label %24, !llfi_index !41

; <label>:9                                       ; preds = %0
  %10 = load i32* %3, align 4, !llfi_index !42
  call void @doProfiling(i32 27)
  %11 = call %struct.Node* @_Z10createNodei(i32 %10), !llfi_index !43
  store %struct.Node* %11, %struct.Node** %temp, align 8, !llfi_index !44
  %12 = load %struct.Node** %2, align 8, !llfi_index !45
  call void @doProfiling(i32 27)
  %13 = load %struct.Node** %temp, align 8, !llfi_index !46
  call void @doProfiling(i32 27)
  %14 = getelementptr inbounds %struct.Node* %13, i32 0, i32 3, !llfi_index !47
  call void @doProfiling(i32 29)
  store %struct.Node* %12, %struct.Node** %14, align 8, !llfi_index !48
  %15 = load %struct.Node** %2, align 8, !llfi_index !49
  call void @doProfiling(i32 27)
  %16 = load %struct.Node** %temp, align 8, !llfi_index !50
  call void @doProfiling(i32 27)
  %17 = getelementptr inbounds %struct.Node* %16, i32 0, i32 4, !llfi_index !51
  call void @doProfiling(i32 29)
  store %struct.Node* %15, %struct.Node** %17, align 8, !llfi_index !52
  %18 = load %struct.Node** %temp, align 8, !llfi_index !53
  call void @doProfiling(i32 27)
  %19 = load %struct.Node** %2, align 8, !llfi_index !54
  call void @doProfiling(i32 27)
  %20 = getelementptr inbounds %struct.Node* %19, i32 0, i32 3, !llfi_index !55
  call void @doProfiling(i32 29)
  store %struct.Node* %18, %struct.Node** %20, align 8, !llfi_index !56
  %21 = load %struct.Node** %2, align 8, !llfi_index !57
  call void @doProfiling(i32 27)
  %22 = getelementptr inbounds %struct.Node* %21, i32 0, i32 1, !llfi_index !58
  call void @doProfiling(i32 29)
  store i32 1, i32* %22, align 4, !llfi_index !59
  %23 = load %struct.Node** %2, align 8, !llfi_index !60
  call void @doProfiling(i32 27)
  store %struct.Node* %23, %struct.Node** %1, !llfi_index !61
  br label %99, !llfi_index !62

; <label>:24                                      ; preds = %0
  %25 = load %struct.Node** %2, align 8, !llfi_index !63
  call void @doProfiling(i32 27)
  %26 = getelementptr inbounds %struct.Node* %25, i32 0, i32 3, !llfi_index !64
  call void @doProfiling(i32 29)
  %27 = load %struct.Node** %26, align 8, !llfi_index !65
  call void @doProfiling(i32 27)
  store %struct.Node* %27, %struct.Node** %curr, align 8, !llfi_index !66
  br label %28, !llfi_index !67

; <label>:28                                      ; preds = %60, %24
  %29 = load i32* %3, align 4, !llfi_index !68
  call void @doProfiling(i32 27)
  %30 = load %struct.Node** %curr, align 8, !llfi_index !69
  call void @doProfiling(i32 27)
  %31 = getelementptr inbounds %struct.Node* %30, i32 0, i32 0, !llfi_index !70
  call void @doProfiling(i32 29)
  %32 = load i32* %31, align 4, !llfi_index !71
  call void @doProfiling(i32 27)
  %33 = icmp slt i32 %29, %32, !llfi_index !72
  call void @doProfiling(i32 46)
  br i1 %33, label %34, label %43, !llfi_index !73

; <label>:34                                      ; preds = %28
  %35 = load %struct.Node** %curr, align 8, !llfi_index !74
  call void @doProfiling(i32 27)
  %36 = getelementptr inbounds %struct.Node* %35, i32 0, i32 1, !llfi_index !75
  call void @doProfiling(i32 29)
  %37 = load i32* %36, align 4, !llfi_index !76
  call void @doProfiling(i32 27)
  %38 = icmp eq i32 %37, 1, !llfi_index !77
  call void @doProfiling(i32 46)
  br i1 %38, label %39, label %43, !llfi_index !78

; <label>:39                                      ; preds = %34
  %40 = load %struct.Node** %curr, align 8, !llfi_index !79
  call void @doProfiling(i32 27)
  %41 = getelementptr inbounds %struct.Node* %40, i32 0, i32 3, !llfi_index !80
  call void @doProfiling(i32 29)
  %42 = load %struct.Node** %41, align 8, !llfi_index !81
  call void @doProfiling(i32 27)
  store %struct.Node* %42, %struct.Node** %curr, align 8, !llfi_index !82
  br label %60, !llfi_index !83

; <label>:43                                      ; preds = %34, %28
  %44 = load i32* %3, align 4, !llfi_index !84
  call void @doProfiling(i32 27)
  %45 = load %struct.Node** %curr, align 8, !llfi_index !85
  call void @doProfiling(i32 27)
  %46 = getelementptr inbounds %struct.Node* %45, i32 0, i32 0, !llfi_index !86
  call void @doProfiling(i32 29)
  %47 = load i32* %46, align 4, !llfi_index !87
  call void @doProfiling(i32 27)
  %48 = icmp sgt i32 %44, %47, !llfi_index !88
  call void @doProfiling(i32 46)
  br i1 %48, label %49, label %58, !llfi_index !89

; <label>:49                                      ; preds = %43
  %50 = load %struct.Node** %curr, align 8, !llfi_index !90
  call void @doProfiling(i32 27)
  %51 = getelementptr inbounds %struct.Node* %50, i32 0, i32 2, !llfi_index !91
  call void @doProfiling(i32 29)
  %52 = load i32* %51, align 4, !llfi_index !92
  call void @doProfiling(i32 27)
  %53 = icmp eq i32 %52, 1, !llfi_index !93
  call void @doProfiling(i32 46)
  br i1 %53, label %54, label %58, !llfi_index !94

; <label>:54                                      ; preds = %49
  %55 = load %struct.Node** %curr, align 8, !llfi_index !95
  call void @doProfiling(i32 27)
  %56 = getelementptr inbounds %struct.Node* %55, i32 0, i32 4, !llfi_index !96
  call void @doProfiling(i32 29)
  %57 = load %struct.Node** %56, align 8, !llfi_index !97
  call void @doProfiling(i32 27)
  store %struct.Node* %57, %struct.Node** %curr, align 8, !llfi_index !98
  br label %59, !llfi_index !99

; <label>:58                                      ; preds = %49, %43
  br label %61, !llfi_index !100

; <label>:59                                      ; preds = %54
  br label %60, !llfi_index !101

; <label>:60                                      ; preds = %59, %39
  br label %28, !llfi_index !102

; <label>:61                                      ; preds = %58
  %62 = load i32* %3, align 4, !llfi_index !103
  call void @doProfiling(i32 27)
  %63 = call %struct.Node* @_Z10createNodei(i32 %62), !llfi_index !104
  store %struct.Node* %63, %struct.Node** %temp1, align 8, !llfi_index !105
  %64 = load i32* %3, align 4, !llfi_index !106
  call void @doProfiling(i32 27)
  %65 = load %struct.Node** %curr, align 8, !llfi_index !107
  call void @doProfiling(i32 27)
  %66 = getelementptr inbounds %struct.Node* %65, i32 0, i32 0, !llfi_index !108
  call void @doProfiling(i32 29)
  %67 = load i32* %66, align 4, !llfi_index !109
  call void @doProfiling(i32 27)
  %68 = icmp slt i32 %64, %67, !llfi_index !110
  call void @doProfiling(i32 46)
  br i1 %68, label %69, label %83, !llfi_index !111

; <label>:69                                      ; preds = %61
  %70 = load %struct.Node** %curr, align 8, !llfi_index !112
  call void @doProfiling(i32 27)
  %71 = getelementptr inbounds %struct.Node* %70, i32 0, i32 3, !llfi_index !113
  call void @doProfiling(i32 29)
  %72 = load %struct.Node** %71, align 8, !llfi_index !114
  call void @doProfiling(i32 27)
  %73 = load %struct.Node** %temp1, align 8, !llfi_index !115
  call void @doProfiling(i32 27)
  %74 = getelementptr inbounds %struct.Node* %73, i32 0, i32 3, !llfi_index !116
  call void @doProfiling(i32 29)
  store %struct.Node* %72, %struct.Node** %74, align 8, !llfi_index !117
  %75 = load %struct.Node** %curr, align 8, !llfi_index !118
  call void @doProfiling(i32 27)
  %76 = load %struct.Node** %temp1, align 8, !llfi_index !119
  call void @doProfiling(i32 27)
  %77 = getelementptr inbounds %struct.Node* %76, i32 0, i32 4, !llfi_index !120
  call void @doProfiling(i32 29)
  store %struct.Node* %75, %struct.Node** %77, align 8, !llfi_index !121
  %78 = load %struct.Node** %temp1, align 8, !llfi_index !122
  call void @doProfiling(i32 27)
  %79 = load %struct.Node** %curr, align 8, !llfi_index !123
  call void @doProfiling(i32 27)
  %80 = getelementptr inbounds %struct.Node* %79, i32 0, i32 3, !llfi_index !124
  call void @doProfiling(i32 29)
  store %struct.Node* %78, %struct.Node** %80, align 8, !llfi_index !125
  %81 = load %struct.Node** %curr, align 8, !llfi_index !126
  call void @doProfiling(i32 27)
  %82 = getelementptr inbounds %struct.Node* %81, i32 0, i32 1, !llfi_index !127
  call void @doProfiling(i32 29)
  store i32 1, i32* %82, align 4, !llfi_index !128
  br label %97, !llfi_index !129

; <label>:83                                      ; preds = %61
  %84 = load %struct.Node** %curr, align 8, !llfi_index !130
  call void @doProfiling(i32 27)
  %85 = getelementptr inbounds %struct.Node* %84, i32 0, i32 4, !llfi_index !131
  call void @doProfiling(i32 29)
  %86 = load %struct.Node** %85, align 8, !llfi_index !132
  call void @doProfiling(i32 27)
  %87 = load %struct.Node** %temp1, align 8, !llfi_index !133
  call void @doProfiling(i32 27)
  %88 = getelementptr inbounds %struct.Node* %87, i32 0, i32 4, !llfi_index !134
  call void @doProfiling(i32 29)
  store %struct.Node* %86, %struct.Node** %88, align 8, !llfi_index !135
  %89 = load %struct.Node** %curr, align 8, !llfi_index !136
  call void @doProfiling(i32 27)
  %90 = load %struct.Node** %temp1, align 8, !llfi_index !137
  call void @doProfiling(i32 27)
  %91 = getelementptr inbounds %struct.Node* %90, i32 0, i32 3, !llfi_index !138
  call void @doProfiling(i32 29)
  store %struct.Node* %89, %struct.Node** %91, align 8, !llfi_index !139
  %92 = load %struct.Node** %temp1, align 8, !llfi_index !140
  call void @doProfiling(i32 27)
  %93 = load %struct.Node** %curr, align 8, !llfi_index !141
  call void @doProfiling(i32 27)
  %94 = getelementptr inbounds %struct.Node* %93, i32 0, i32 4, !llfi_index !142
  call void @doProfiling(i32 29)
  store %struct.Node* %92, %struct.Node** %94, align 8, !llfi_index !143
  %95 = load %struct.Node** %curr, align 8, !llfi_index !144
  call void @doProfiling(i32 27)
  %96 = getelementptr inbounds %struct.Node* %95, i32 0, i32 2, !llfi_index !145
  call void @doProfiling(i32 29)
  store i32 1, i32* %96, align 4, !llfi_index !146
  br label %97, !llfi_index !147

; <label>:97                                      ; preds = %83, %69
  %98 = load %struct.Node** %2, align 8, !llfi_index !148
  call void @doProfiling(i32 27)
  store %struct.Node* %98, %struct.Node** %1, !llfi_index !149
  br label %99, !llfi_index !150

; <label>:99                                      ; preds = %97, %9
  %100 = load %struct.Node** %1, !llfi_index !151
  call void @doProfiling(i32 27)
  ret %struct.Node* %100, !llfi_index !152
}

; Function Attrs: nounwind uwtable
define void @_Z18in_order_traversalP4NodeRSt6vectorIiSaIiEE(%struct.Node* %head, %"class.std::vector"* %result) #3 {
  %1 = alloca %struct.Node*, align 8, !llfi_index !153
  %2 = alloca %"class.std::vector"*, align 8, !llfi_index !154
  %temp = alloca %struct.Node*, align 8, !llfi_index !155
  store %struct.Node* %head, %struct.Node** %1, align 8, !llfi_index !156
  store %"class.std::vector"* %result, %"class.std::vector"** %2, align 8, !llfi_index !157
  %3 = load %struct.Node** %1, align 8, !llfi_index !158
  call void @doProfiling(i32 27)
  %4 = getelementptr inbounds %struct.Node* %3, i32 0, i32 3, !llfi_index !159
  call void @doProfiling(i32 29)
  %5 = load %struct.Node** %4, align 8, !llfi_index !160
  call void @doProfiling(i32 27)
  store %struct.Node* %5, %struct.Node** %temp, align 8, !llfi_index !161
  br label %6, !llfi_index !162

; <label>:6                                       ; preds = %44, %0
  %7 = load %struct.Node** %temp, align 8, !llfi_index !163
  call void @doProfiling(i32 27)
  %8 = load %struct.Node** %1, align 8, !llfi_index !164
  call void @doProfiling(i32 27)
  %9 = icmp ne %struct.Node* %7, %8, !llfi_index !165
  call void @doProfiling(i32 46)
  br i1 %9, label %10, label %48, !llfi_index !166

; <label>:10                                      ; preds = %6
  br label %11, !llfi_index !167

; <label>:11                                      ; preds = %16, %10
  %12 = load %struct.Node** %temp, align 8, !llfi_index !168
  call void @doProfiling(i32 27)
  %13 = getelementptr inbounds %struct.Node* %12, i32 0, i32 1, !llfi_index !169
  call void @doProfiling(i32 29)
  %14 = load i32* %13, align 4, !llfi_index !170
  call void @doProfiling(i32 27)
  %15 = icmp eq i32 %14, 1, !llfi_index !171
  call void @doProfiling(i32 46)
  br i1 %15, label %16, label %20, !llfi_index !172

; <label>:16                                      ; preds = %11
  %17 = load %struct.Node** %temp, align 8, !llfi_index !173
  call void @doProfiling(i32 27)
  %18 = getelementptr inbounds %struct.Node* %17, i32 0, i32 3, !llfi_index !174
  call void @doProfiling(i32 29)
  %19 = load %struct.Node** %18, align 8, !llfi_index !175
  call void @doProfiling(i32 27)
  store %struct.Node* %19, %struct.Node** %temp, align 8, !llfi_index !176
  br label %11, !llfi_index !177

; <label>:20                                      ; preds = %11
  %21 = load %"class.std::vector"** %2, align 8, !llfi_index !178
  call void @doProfiling(i32 27)
  %22 = load %struct.Node** %temp, align 8, !llfi_index !179
  call void @doProfiling(i32 27)
  %23 = getelementptr inbounds %struct.Node* %22, i32 0, i32 0, !llfi_index !180
  call void @doProfiling(i32 29)
  call void @_ZNSt6vectorIiSaIiEE9push_backERKi(%"class.std::vector"* %21, i32* %23), !llfi_index !181
  br label %24, !llfi_index !182

; <label>:24                                      ; preds = %37, %20
  %25 = load %struct.Node** %temp, align 8, !llfi_index !183
  call void @doProfiling(i32 27)
  %26 = getelementptr inbounds %struct.Node* %25, i32 0, i32 2, !llfi_index !184
  call void @doProfiling(i32 29)
  %27 = load i32* %26, align 4, !llfi_index !185
  call void @doProfiling(i32 27)
  %28 = icmp eq i32 %27, 0, !llfi_index !186
  call void @doProfiling(i32 46)
  br i1 %28, label %29, label %35, !llfi_index !187

; <label>:29                                      ; preds = %24
  %30 = load %struct.Node** %temp, align 8, !llfi_index !188
  call void @doProfiling(i32 27)
  %31 = getelementptr inbounds %struct.Node* %30, i32 0, i32 4, !llfi_index !189
  call void @doProfiling(i32 29)
  %32 = load %struct.Node** %31, align 8, !llfi_index !190
  call void @doProfiling(i32 27)
  %33 = load %struct.Node** %1, align 8, !llfi_index !191
  call void @doProfiling(i32 27)
  %34 = icmp ne %struct.Node* %32, %33, !llfi_index !192
  call void @doProfiling(i32 46)
  br label %35, !llfi_index !193

; <label>:35                                      ; preds = %29, %24
  %36 = phi i1 [ false, %24 ], [ %34, %29 ], !llfi_index !194
  br i1 %36, label %37, label %44, !llfi_index !195

; <label>:37                                      ; preds = %35
  %38 = load %struct.Node** %temp, align 8, !llfi_index !196
  call void @doProfiling(i32 27)
  %39 = getelementptr inbounds %struct.Node* %38, i32 0, i32 4, !llfi_index !197
  call void @doProfiling(i32 29)
  %40 = load %struct.Node** %39, align 8, !llfi_index !198
  call void @doProfiling(i32 27)
  store %struct.Node* %40, %struct.Node** %temp, align 8, !llfi_index !199
  %41 = load %"class.std::vector"** %2, align 8, !llfi_index !200
  call void @doProfiling(i32 27)
  %42 = load %struct.Node** %temp, align 8, !llfi_index !201
  call void @doProfiling(i32 27)
  %43 = getelementptr inbounds %struct.Node* %42, i32 0, i32 0, !llfi_index !202
  call void @doProfiling(i32 29)
  call void @_ZNSt6vectorIiSaIiEE9push_backERKi(%"class.std::vector"* %41, i32* %43), !llfi_index !203
  br label %24, !llfi_index !204

; <label>:44                                      ; preds = %35
  %45 = load %struct.Node** %temp, align 8, !llfi_index !205
  call void @doProfiling(i32 27)
  %46 = getelementptr inbounds %struct.Node* %45, i32 0, i32 4, !llfi_index !206
  call void @doProfiling(i32 29)
  %47 = load %struct.Node** %46, align 8, !llfi_index !207
  call void @doProfiling(i32 27)
  store %struct.Node* %47, %struct.Node** %temp, align 8, !llfi_index !208
  br label %6, !llfi_index !209

; <label>:48                                      ; preds = %6
  ret void, !llfi_index !210
}

; Function Attrs: nounwind uwtable
define linkonce_odr void @_ZNSt6vectorIiSaIiEE9push_backERKi(%"class.std::vector"* %this, i32* %__x) #3 align 2 {
  %1 = alloca %"class.std::vector"*, align 8, !llfi_index !211
  %2 = alloca i32*, align 8, !llfi_index !212
  store %"class.std::vector"* %this, %"class.std::vector"** %1, align 8, !llfi_index !213
  store i32* %__x, i32** %2, align 8, !llfi_index !214
  %3 = load %"class.std::vector"** %1, !llfi_index !215
  call void @doProfiling(i32 27)
  %4 = bitcast %"class.std::vector"* %3 to %"struct.std::_Vector_base"*, !llfi_index !216
  call void @doProfiling(i32 44)
  %5 = getelementptr inbounds %"struct.std::_Vector_base"* %4, i32 0, i32 0, !llfi_index !217
  call void @doProfiling(i32 29)
  %6 = getelementptr inbounds %"struct.std::_Vector_base<int, std::allocator<int> >::_Vector_impl"* %5, i32 0, i32 1, !llfi_index !218
  call void @doProfiling(i32 29)
  %7 = load i32** %6, align 8, !llfi_index !219
  call void @doProfiling(i32 27)
  %8 = bitcast %"class.std::vector"* %3 to %"struct.std::_Vector_base"*, !llfi_index !220
  call void @doProfiling(i32 44)
  %9 = getelementptr inbounds %"struct.std::_Vector_base"* %8, i32 0, i32 0, !llfi_index !221
  call void @doProfiling(i32 29)
  %10 = getelementptr inbounds %"struct.std::_Vector_base<int, std::allocator<int> >::_Vector_impl"* %9, i32 0, i32 2, !llfi_index !222
  call void @doProfiling(i32 29)
  %11 = load i32** %10, align 8, !llfi_index !223
  call void @doProfiling(i32 27)
  %12 = icmp ne i32* %7, %11, !llfi_index !224
  call void @doProfiling(i32 46)
  br i1 %12, label %13, label %27, !llfi_index !225

; <label>:13                                      ; preds = %0
  %14 = bitcast %"class.std::vector"* %3 to %"struct.std::_Vector_base"*, !llfi_index !226
  call void @doProfiling(i32 44)
  %15 = getelementptr inbounds %"struct.std::_Vector_base"* %14, i32 0, i32 0, !llfi_index !227
  call void @doProfiling(i32 29)
  %16 = bitcast %"struct.std::_Vector_base<int, std::allocator<int> >::_Vector_impl"* %15 to %"class.std::allocator"*, !llfi_index !228
  call void @doProfiling(i32 44)
  %17 = bitcast %"class.std::vector"* %3 to %"struct.std::_Vector_base"*, !llfi_index !229
  call void @doProfiling(i32 44)
  %18 = getelementptr inbounds %"struct.std::_Vector_base"* %17, i32 0, i32 0, !llfi_index !230
  call void @doProfiling(i32 29)
  %19 = getelementptr inbounds %"struct.std::_Vector_base<int, std::allocator<int> >::_Vector_impl"* %18, i32 0, i32 1, !llfi_index !231
  call void @doProfiling(i32 29)
  %20 = load i32** %19, align 8, !llfi_index !232
  call void @doProfiling(i32 27)
  %21 = load i32** %2, align 8, !llfi_index !233
  call void @doProfiling(i32 27)
  call void @_ZNSt16allocator_traitsISaIiEE9constructIiJRKiEEEvRS0_PT_DpOT0_(%"class.std::allocator"* %16, i32* %20, i32* %21), !llfi_index !234
  %22 = bitcast %"class.std::vector"* %3 to %"struct.std::_Vector_base"*, !llfi_index !235
  call void @doProfiling(i32 44)
  %23 = getelementptr inbounds %"struct.std::_Vector_base"* %22, i32 0, i32 0, !llfi_index !236
  call void @doProfiling(i32 29)
  %24 = getelementptr inbounds %"struct.std::_Vector_base<int, std::allocator<int> >::_Vector_impl"* %23, i32 0, i32 1, !llfi_index !237
  call void @doProfiling(i32 29)
  %25 = load i32** %24, align 8, !llfi_index !238
  call void @doProfiling(i32 27)
  %26 = getelementptr inbounds i32* %25, i32 1, !llfi_index !239
  call void @doProfiling(i32 29)
  store i32* %26, i32** %24, align 8, !llfi_index !240
  br label %29, !llfi_index !241

; <label>:27                                      ; preds = %0
  %28 = load i32** %2, align 8, !llfi_index !242
  call void @doProfiling(i32 27)
  call void @_ZNSt6vectorIiSaIiEE19_M_emplace_back_auxIJRKiEEEvDpOT_(%"class.std::vector"* %3, i32* %28), !llfi_index !243
  br label %29, !llfi_index !244

; <label>:29                                      ; preds = %27, %13
  ret void, !llfi_index !245
}

; Function Attrs: nounwind uwtable
define i32 @main(i32 %argc, i8** %argv) #3 {
  %1 = alloca i32, align 4, !llfi_index !246
  %2 = alloca i32, align 4, !llfi_index !247
  %3 = alloca i8**, align 8, !llfi_index !248
  %head = alloca %struct.Node*, align 8, !llfi_index !249
  %filename = alloca %"class.std::__cxx11::basic_string", align 8, !llfi_index !250
  %4 = alloca %"class.std::allocator.0", align 1, !llfi_index !251
  %file = alloca %"class.std::basic_ifstream", align 8, !llfi_index !252
  %num = alloca i32, align 4, !llfi_index !253
  %result = alloca %"class.std::vector", align 8, !llfi_index !254
  %i = alloca i64, align 8, !llfi_index !255
  %5 = alloca i32, !llfi_index !256
  store i32 0, i32* %1, !llfi_index !257
  store i32 %argc, i32* %2, align 4, !llfi_index !258
  store i8** %argv, i8*** %3, align 8, !llfi_index !259
  %6 = call noalias i8* @_Znwm(i64 32) #8, !llfi_index !260
  %7 = bitcast i8* %6 to %struct.Node*, !llfi_index !261
  call void @doProfiling(i32 44)
  store %struct.Node* %7, %struct.Node** %head, align 8, !llfi_index !262
  %8 = load %struct.Node** %head, align 8, !llfi_index !263
  call void @doProfiling(i32 27)
  %9 = getelementptr inbounds %struct.Node* %8, i32 0, i32 1, !llfi_index !264
  call void @doProfiling(i32 29)
  store i32 0, i32* %9, align 4, !llfi_index !265
  %10 = load %struct.Node** %head, align 8, !llfi_index !266
  call void @doProfiling(i32 27)
  %11 = getelementptr inbounds %struct.Node* %10, i32 0, i32 2, !llfi_index !267
  call void @doProfiling(i32 29)
  store i32 1, i32* %11, align 4, !llfi_index !268
  %12 = load %struct.Node** %head, align 8, !llfi_index !269
  call void @doProfiling(i32 27)
  %13 = load %struct.Node** %head, align 8, !llfi_index !270
  call void @doProfiling(i32 27)
  %14 = getelementptr inbounds %struct.Node* %13, i32 0, i32 4, !llfi_index !271
  call void @doProfiling(i32 29)
  store %struct.Node* %12, %struct.Node** %14, align 8, !llfi_index !272
  %15 = load %struct.Node** %head, align 8, !llfi_index !273
  call void @doProfiling(i32 27)
  %16 = getelementptr inbounds %struct.Node* %15, i32 0, i32 3, !llfi_index !274
  call void @doProfiling(i32 29)
  store %struct.Node* %12, %struct.Node** %16, align 8, !llfi_index !275
  call void @_ZNSaIcEC1Ev(%"class.std::allocator.0"* %4) #0, !llfi_index !276
  call void @_ZNSt7__cxx1112basic_stringIcSt11char_traitsIcESaIcEEC1EPKcRKS3_(%"class.std::__cxx11::basic_string"* %filename, i8* getelementptr inbounds ([18 x i8]* @.str, i32 0, i32 0), %"class.std::allocator.0"* %4), !llfi_index !277
  call void @_ZNSaIcED1Ev(%"class.std::allocator.0"* %4) #0, !llfi_index !278
  %17 = load i32* %2, align 4, !llfi_index !279
  call void @doProfiling(i32 27)
  %18 = icmp sgt i32 %17, 1, !llfi_index !280
  call void @doProfiling(i32 46)
  br i1 %18, label %19, label %24, !llfi_index !281

; <label>:19                                      ; preds = %0
  %20 = load i8*** %3, align 8, !llfi_index !282
  call void @doProfiling(i32 27)
  %21 = getelementptr inbounds i8** %20, i64 1, !llfi_index !283
  call void @doProfiling(i32 29)
  %22 = load i8** %21, align 8, !llfi_index !284
  call void @doProfiling(i32 27)
  %23 = call %"class.std::__cxx11::basic_string"* @_ZNSt7__cxx1112basic_stringIcSt11char_traitsIcESaIcEEaSEPKc(%"class.std::__cxx11::basic_string"* %filename, i8* %22), !llfi_index !285
  br label %24, !llfi_index !286

; <label>:24                                      ; preds = %19, %0
  %25 = call i8* @_ZNKSt7__cxx1112basic_stringIcSt11char_traitsIcESaIcEE5c_strEv(%"class.std::__cxx11::basic_string"* %filename) #0, !llfi_index !287
  call void @_ZNSt14basic_ifstreamIcSt11char_traitsIcEEC1EPKcSt13_Ios_Openmode(%"class.std::basic_ifstream"* %file, i8* %25, i32 8), !llfi_index !288
  br label %26, !llfi_index !289

; <label>:26                                      ; preds = %38, %24
  %27 = bitcast %"class.std::basic_ifstream"* %file to %"class.std::basic_istream"*, !llfi_index !290
  call void @doProfiling(i32 44)
  %28 = call %"class.std::basic_istream"* @_ZNSirsERi(%"class.std::basic_istream"* %27, i32* %num), !llfi_index !291
  %29 = bitcast %"class.std::basic_istream"* %28 to i8**, !llfi_index !292
  call void @doProfiling(i32 44)
  %30 = load i8** %29, !llfi_index !293
  call void @doProfiling(i32 27)
  %31 = getelementptr i8* %30, i64 -24, !llfi_index !294
  call void @doProfiling(i32 29)
  %32 = bitcast i8* %31 to i64*, !llfi_index !295
  call void @doProfiling(i32 44)
  %33 = load i64* %32, !llfi_index !296
  call void @doProfiling(i32 27)
  %34 = bitcast %"class.std::basic_istream"* %28 to i8*, !llfi_index !297
  call void @doProfiling(i32 44)
  %35 = getelementptr inbounds i8* %34, i64 %33, !llfi_index !298
  call void @doProfiling(i32 29)
  %36 = bitcast i8* %35 to %"class.std::basic_ios"*, !llfi_index !299
  call void @doProfiling(i32 44)
  %37 = call zeroext i1 @_ZNKSt9basic_iosIcSt11char_traitsIcEEcvbEv(%"class.std::basic_ios"* %36), !llfi_index !300
  br i1 %37, label %38, label %42, !llfi_index !301

; <label>:38                                      ; preds = %26
  %39 = load %struct.Node** %head, align 8, !llfi_index !302
  call void @doProfiling(i32 27)
  %40 = load i32* %num, align 4, !llfi_index !303
  call void @doProfiling(i32 27)
  %41 = call %struct.Node* @_Z9insertTBTP4Nodei(%struct.Node* %39, i32 %40), !llfi_index !304
  br label %26, !llfi_index !305

; <label>:42                                      ; preds = %26
  call void @_ZNSt14basic_ifstreamIcSt11char_traitsIcEE5closeEv(%"class.std::basic_ifstream"* %file), !llfi_index !306
  call void @_ZNSt6vectorIiSaIiEEC2Ev(%"class.std::vector"* %result) #0, !llfi_index !307
  %43 = load %struct.Node** %head, align 8, !llfi_index !308
  call void @doProfiling(i32 27)
  call void @_Z18in_order_traversalP4NodeRSt6vectorIiSaIiEE(%struct.Node* %43, %"class.std::vector"* %result), !llfi_index !309
  store i64 0, i64* %i, align 8, !llfi_index !310
  br label %44, !llfi_index !311

; <label>:44                                      ; preds = %54, %42
  %45 = load i64* %i, align 8, !llfi_index !312
  call void @doProfiling(i32 27)
  %46 = call i64 @_ZNKSt6vectorIiSaIiEE4sizeEv(%"class.std::vector"* %result) #0, !llfi_index !313
  %47 = icmp ult i64 %45, %46, !llfi_index !314
  call void @doProfiling(i32 46)
  br i1 %47, label %48, label %57, !llfi_index !315

; <label>:48                                      ; preds = %44
  %49 = load i64* %i, align 8, !llfi_index !316
  call void @doProfiling(i32 27)
  %50 = call i32* @_ZNSt6vectorIiSaIiEEixEm(%"class.std::vector"* %result, i64 %49) #0, !llfi_index !317
  %51 = load i32* %50, !llfi_index !318
  call void @doProfiling(i32 27)
  %52 = call %"class.std::basic_ostream"* @_ZNSolsEi(%"class.std::basic_ostream"* @_ZSt4cout, i32 %51), !llfi_index !319
  %53 = call %"class.std::basic_ostream"* @_ZStlsISt11char_traitsIcEERSt13basic_ostreamIcT_ES5_PKc(%"class.std::basic_ostream"* %52, i8* getelementptr inbounds ([2 x i8]* @.str1, i32 0, i32 0)), !llfi_index !320
  br label %54, !llfi_index !321

; <label>:54                                      ; preds = %48
  %55 = load i64* %i, align 8, !llfi_index !322
  call void @doProfiling(i32 27)
  %56 = add i64 %55, 1, !llfi_index !323
  call void @doProfiling(i32 8)
  store i64 %56, i64* %i, align 8, !llfi_index !324
  br label %44, !llfi_index !325

; <label>:57                                      ; preds = %44
  %58 = call %"class.std::basic_ostream"* @_ZNSolsEPFRSoS_E(%"class.std::basic_ostream"* @_ZSt4cout, %"class.std::basic_ostream"* (%"class.std::basic_ostream"*)* @_ZSt4endlIcSt11char_traitsIcEERSt13basic_ostreamIT_T0_ES6_), !llfi_index !326
  store i32 0, i32* %1, !llfi_index !327
  store i32 1, i32* %5, !llfi_index !328
  call void @_ZNSt6vectorIiSaIiEED2Ev(%"class.std::vector"* %result) #0, !llfi_index !329
  call void @_ZNSt14basic_ifstreamIcSt11char_traitsIcEED1Ev(%"class.std::basic_ifstream"* %file) #0, !llfi_index !330
  call void @_ZNSt7__cxx1112basic_stringIcSt11char_traitsIcESaIcEED1Ev(%"class.std::__cxx11::basic_string"* %filename) #0, !llfi_index !331
  %59 = load i32* %1, !llfi_index !332
  call void @doProfiling(i32 27)
  call void @endProfiling()
  ret i32 %59, !llfi_index !333
}

declare void @_ZNSt7__cxx1112basic_stringIcSt11char_traitsIcESaIcEEC1EPKcRKS3_(%"class.std::__cxx11::basic_string"*, i8*, %"class.std::allocator.0"*) #1

; Function Attrs: nounwind
declare void @_ZNSaIcEC1Ev(%"class.std::allocator.0"*) #2

; Function Attrs: nounwind
declare void @_ZNSaIcED1Ev(%"class.std::allocator.0"*) #2

declare %"class.std::__cxx11::basic_string"* @_ZNSt7__cxx1112basic_stringIcSt11char_traitsIcESaIcEEaSEPKc(%"class.std::__cxx11::basic_string"*, i8*) #1

declare void @_ZNSt14basic_ifstreamIcSt11char_traitsIcEEC1EPKcSt13_Ios_Openmode(%"class.std::basic_ifstream"*, i8*, i32) #1

; Function Attrs: nounwind
declare i8* @_ZNKSt7__cxx1112basic_stringIcSt11char_traitsIcESaIcEE5c_strEv(%"class.std::__cxx11::basic_string"*) #2

declare %"class.std::basic_istream"* @_ZNSirsERi(%"class.std::basic_istream"*, i32*) #1

declare zeroext i1 @_ZNKSt9basic_iosIcSt11char_traitsIcEEcvbEv(%"class.std::basic_ios"*) #1

declare void @_ZNSt14basic_ifstreamIcSt11char_traitsIcEE5closeEv(%"class.std::basic_ifstream"*) #1

; Function Attrs: nounwind uwtable
define linkonce_odr void @_ZNSt6vectorIiSaIiEEC2Ev(%"class.std::vector"* %this) unnamed_addr #3 align 2 {
  %1 = alloca %"class.std::vector"*, align 8, !llfi_index !334
  store %"class.std::vector"* %this, %"class.std::vector"** %1, align 8, !llfi_index !335
  %2 = load %"class.std::vector"** %1, !llfi_index !336
  call void @doProfiling(i32 27)
  %3 = bitcast %"class.std::vector"* %2 to %"struct.std::_Vector_base"*, !llfi_index !337
  call void @doProfiling(i32 44)
  call void @_ZNSt12_Vector_baseIiSaIiEEC2Ev(%"struct.std::_Vector_base"* %3), !llfi_index !338
  ret void, !llfi_index !339
}

; Function Attrs: nounwind uwtable
define linkonce_odr i64 @_ZNKSt6vectorIiSaIiEE4sizeEv(%"class.std::vector"* %this) #3 align 2 {
  %1 = alloca %"class.std::vector"*, align 8, !llfi_index !340
  store %"class.std::vector"* %this, %"class.std::vector"** %1, align 8, !llfi_index !341
  %2 = load %"class.std::vector"** %1, !llfi_index !342
  call void @doProfiling(i32 27)
  %3 = bitcast %"class.std::vector"* %2 to %"struct.std::_Vector_base"*, !llfi_index !343
  call void @doProfiling(i32 44)
  %4 = getelementptr inbounds %"struct.std::_Vector_base"* %3, i32 0, i32 0, !llfi_index !344
  call void @doProfiling(i32 29)
  %5 = getelementptr inbounds %"struct.std::_Vector_base<int, std::allocator<int> >::_Vector_impl"* %4, i32 0, i32 1, !llfi_index !345
  call void @doProfiling(i32 29)
  %6 = load i32** %5, align 8, !llfi_index !346
  call void @doProfiling(i32 27)
  %7 = bitcast %"class.std::vector"* %2 to %"struct.std::_Vector_base"*, !llfi_index !347
  call void @doProfiling(i32 44)
  %8 = getelementptr inbounds %"struct.std::_Vector_base"* %7, i32 0, i32 0, !llfi_index !348
  call void @doProfiling(i32 29)
  %9 = getelementptr inbounds %"struct.std::_Vector_base<int, std::allocator<int> >::_Vector_impl"* %8, i32 0, i32 0, !llfi_index !349
  call void @doProfiling(i32 29)
  %10 = load i32** %9, align 8, !llfi_index !350
  call void @doProfiling(i32 27)
  %11 = ptrtoint i32* %6 to i64, !llfi_index !351
  call void @doProfiling(i32 42)
  %12 = ptrtoint i32* %10 to i64, !llfi_index !352
  call void @doProfiling(i32 42)
  %13 = sub i64 %11, %12, !llfi_index !353
  call void @doProfiling(i32 10)
  %14 = sdiv exact i64 %13, 4, !llfi_index !354
  call void @doProfiling(i32 15)
  ret i64 %14, !llfi_index !355
}

declare %"class.std::basic_ostream"* @_ZStlsISt11char_traitsIcEERSt13basic_ostreamIcT_ES5_PKc(%"class.std::basic_ostream"*, i8*) #1

declare %"class.std::basic_ostream"* @_ZNSolsEi(%"class.std::basic_ostream"*, i32) #1

; Function Attrs: nounwind uwtable
define linkonce_odr i32* @_ZNSt6vectorIiSaIiEEixEm(%"class.std::vector"* %this, i64 %__n) #3 align 2 {
  %1 = alloca %"class.std::vector"*, align 8, !llfi_index !356
  %2 = alloca i64, align 8, !llfi_index !357
  store %"class.std::vector"* %this, %"class.std::vector"** %1, align 8, !llfi_index !358
  store i64 %__n, i64* %2, align 8, !llfi_index !359
  %3 = load %"class.std::vector"** %1, !llfi_index !360
  call void @doProfiling(i32 27)
  %4 = bitcast %"class.std::vector"* %3 to %"struct.std::_Vector_base"*, !llfi_index !361
  call void @doProfiling(i32 44)
  %5 = getelementptr inbounds %"struct.std::_Vector_base"* %4, i32 0, i32 0, !llfi_index !362
  call void @doProfiling(i32 29)
  %6 = getelementptr inbounds %"struct.std::_Vector_base<int, std::allocator<int> >::_Vector_impl"* %5, i32 0, i32 0, !llfi_index !363
  call void @doProfiling(i32 29)
  %7 = load i32** %6, align 8, !llfi_index !364
  call void @doProfiling(i32 27)
  %8 = load i64* %2, align 8, !llfi_index !365
  call void @doProfiling(i32 27)
  %9 = getelementptr inbounds i32* %7, i64 %8, !llfi_index !366
  call void @doProfiling(i32 29)
  ret i32* %9, !llfi_index !367
}

declare %"class.std::basic_ostream"* @_ZNSolsEPFRSoS_E(%"class.std::basic_ostream"*, %"class.std::basic_ostream"* (%"class.std::basic_ostream"*)*) #1

declare %"class.std::basic_ostream"* @_ZSt4endlIcSt11char_traitsIcEERSt13basic_ostreamIT_T0_ES6_(%"class.std::basic_ostream"*) #1

; Function Attrs: nounwind uwtable
define linkonce_odr void @_ZNSt6vectorIiSaIiEED2Ev(%"class.std::vector"* %this) unnamed_addr #3 align 2 {
  %1 = alloca %"class.std::vector"*, align 8, !llfi_index !368
  store %"class.std::vector"* %this, %"class.std::vector"** %1, align 8, !llfi_index !369
  %2 = load %"class.std::vector"** %1, !llfi_index !370
  call void @doProfiling(i32 27)
  %3 = bitcast %"class.std::vector"* %2 to %"struct.std::_Vector_base"*, !llfi_index !371
  call void @doProfiling(i32 44)
  %4 = getelementptr inbounds %"struct.std::_Vector_base"* %3, i32 0, i32 0, !llfi_index !372
  call void @doProfiling(i32 29)
  %5 = getelementptr inbounds %"struct.std::_Vector_base<int, std::allocator<int> >::_Vector_impl"* %4, i32 0, i32 0, !llfi_index !373
  call void @doProfiling(i32 29)
  %6 = load i32** %5, align 8, !llfi_index !374
  call void @doProfiling(i32 27)
  %7 = bitcast %"class.std::vector"* %2 to %"struct.std::_Vector_base"*, !llfi_index !375
  call void @doProfiling(i32 44)
  %8 = getelementptr inbounds %"struct.std::_Vector_base"* %7, i32 0, i32 0, !llfi_index !376
  call void @doProfiling(i32 29)
  %9 = getelementptr inbounds %"struct.std::_Vector_base<int, std::allocator<int> >::_Vector_impl"* %8, i32 0, i32 1, !llfi_index !377
  call void @doProfiling(i32 29)
  %10 = load i32** %9, align 8, !llfi_index !378
  call void @doProfiling(i32 27)
  %11 = bitcast %"class.std::vector"* %2 to %"struct.std::_Vector_base"*, !llfi_index !379
  call void @doProfiling(i32 44)
  %12 = call %"class.std::allocator"* @_ZNSt12_Vector_baseIiSaIiEE19_M_get_Tp_allocatorEv(%"struct.std::_Vector_base"* %11) #0, !llfi_index !380
  call void @_ZSt8_DestroyIPiiEvT_S1_RSaIT0_E(i32* %6, i32* %10, %"class.std::allocator"* %12), !llfi_index !381
  %13 = bitcast %"class.std::vector"* %2 to %"struct.std::_Vector_base"*, !llfi_index !382
  call void @doProfiling(i32 44)
  call void @_ZNSt12_Vector_baseIiSaIiEED2Ev(%"struct.std::_Vector_base"* %13) #0, !llfi_index !383
  ret void, !llfi_index !384
}

; Function Attrs: nounwind
declare void @_ZNSt14basic_ifstreamIcSt11char_traitsIcEED1Ev(%"class.std::basic_ifstream"*) #2

; Function Attrs: nounwind
declare void @_ZNSt7__cxx1112basic_stringIcSt11char_traitsIcESaIcEED1Ev(%"class.std::__cxx11::basic_string"*) #2

; Function Attrs: inlinehint nounwind uwtable
define linkonce_odr void @_ZSt8_DestroyIPiiEvT_S1_RSaIT0_E(i32* %__first, i32* %__last, %"class.std::allocator"*) #5 {
  %2 = alloca i32*, align 8, !llfi_index !385
  %3 = alloca i32*, align 8, !llfi_index !386
  %4 = alloca %"class.std::allocator"*, align 8, !llfi_index !387
  store i32* %__first, i32** %2, align 8, !llfi_index !388
  store i32* %__last, i32** %3, align 8, !llfi_index !389
  store %"class.std::allocator"* %0, %"class.std::allocator"** %4, align 8, !llfi_index !390
  %5 = load i32** %2, align 8, !llfi_index !391
  call void @doProfiling(i32 27)
  %6 = load i32** %3, align 8, !llfi_index !392
  call void @doProfiling(i32 27)
  call void @_ZSt8_DestroyIPiEvT_S1_(i32* %5, i32* %6), !llfi_index !393
  ret void, !llfi_index !394
}

; Function Attrs: nounwind uwtable
define linkonce_odr %"class.std::allocator"* @_ZNSt12_Vector_baseIiSaIiEE19_M_get_Tp_allocatorEv(%"struct.std::_Vector_base"* %this) #3 align 2 {
  %1 = alloca %"struct.std::_Vector_base"*, align 8, !llfi_index !395
  store %"struct.std::_Vector_base"* %this, %"struct.std::_Vector_base"** %1, align 8, !llfi_index !396
  %2 = load %"struct.std::_Vector_base"** %1, !llfi_index !397
  call void @doProfiling(i32 27)
  %3 = getelementptr inbounds %"struct.std::_Vector_base"* %2, i32 0, i32 0, !llfi_index !398
  call void @doProfiling(i32 29)
  %4 = bitcast %"struct.std::_Vector_base<int, std::allocator<int> >::_Vector_impl"* %3 to %"class.std::allocator"*, !llfi_index !399
  call void @doProfiling(i32 44)
  ret %"class.std::allocator"* %4, !llfi_index !400
}

; Function Attrs: nounwind uwtable
define linkonce_odr void @_ZNSt12_Vector_baseIiSaIiEED2Ev(%"struct.std::_Vector_base"* %this) unnamed_addr #3 align 2 {
  %1 = alloca %"struct.std::_Vector_base"*, align 8, !llfi_index !401
  store %"struct.std::_Vector_base"* %this, %"struct.std::_Vector_base"** %1, align 8, !llfi_index !402
  %2 = load %"struct.std::_Vector_base"** %1, !llfi_index !403
  call void @doProfiling(i32 27)
  %3 = getelementptr inbounds %"struct.std::_Vector_base"* %2, i32 0, i32 0, !llfi_index !404
  call void @doProfiling(i32 29)
  %4 = getelementptr inbounds %"struct.std::_Vector_base<int, std::allocator<int> >::_Vector_impl"* %3, i32 0, i32 0, !llfi_index !405
  call void @doProfiling(i32 29)
  %5 = load i32** %4, align 8, !llfi_index !406
  call void @doProfiling(i32 27)
  %6 = getelementptr inbounds %"struct.std::_Vector_base"* %2, i32 0, i32 0, !llfi_index !407
  call void @doProfiling(i32 29)
  %7 = getelementptr inbounds %"struct.std::_Vector_base<int, std::allocator<int> >::_Vector_impl"* %6, i32 0, i32 2, !llfi_index !408
  call void @doProfiling(i32 29)
  %8 = load i32** %7, align 8, !llfi_index !409
  call void @doProfiling(i32 27)
  %9 = getelementptr inbounds %"struct.std::_Vector_base"* %2, i32 0, i32 0, !llfi_index !410
  call void @doProfiling(i32 29)
  %10 = getelementptr inbounds %"struct.std::_Vector_base<int, std::allocator<int> >::_Vector_impl"* %9, i32 0, i32 0, !llfi_index !411
  call void @doProfiling(i32 29)
  %11 = load i32** %10, align 8, !llfi_index !412
  call void @doProfiling(i32 27)
  %12 = ptrtoint i32* %8 to i64, !llfi_index !413
  call void @doProfiling(i32 42)
  %13 = ptrtoint i32* %11 to i64, !llfi_index !414
  call void @doProfiling(i32 42)
  %14 = sub i64 %12, %13, !llfi_index !415
  call void @doProfiling(i32 10)
  %15 = sdiv exact i64 %14, 4, !llfi_index !416
  call void @doProfiling(i32 15)
  call void @_ZNSt12_Vector_baseIiSaIiEE13_M_deallocateEPim(%"struct.std::_Vector_base"* %2, i32* %5, i64 %15), !llfi_index !417
  %16 = getelementptr inbounds %"struct.std::_Vector_base"* %2, i32 0, i32 0, !llfi_index !418
  call void @doProfiling(i32 29)
  call void @_ZNSt12_Vector_baseIiSaIiEE12_Vector_implD2Ev(%"struct.std::_Vector_base<int, std::allocator<int> >::_Vector_impl"* %16) #0, !llfi_index !419
  ret void, !llfi_index !420
}

; Function Attrs: nounwind uwtable
define linkonce_odr void @_ZNSt12_Vector_baseIiSaIiEE13_M_deallocateEPim(%"struct.std::_Vector_base"* %this, i32* %__p, i64 %__n) #3 align 2 {
  %1 = alloca %"struct.std::_Vector_base"*, align 8, !llfi_index !421
  %2 = alloca i32*, align 8, !llfi_index !422
  %3 = alloca i64, align 8, !llfi_index !423
  store %"struct.std::_Vector_base"* %this, %"struct.std::_Vector_base"** %1, align 8, !llfi_index !424
  store i32* %__p, i32** %2, align 8, !llfi_index !425
  store i64 %__n, i64* %3, align 8, !llfi_index !426
  %4 = load %"struct.std::_Vector_base"** %1, !llfi_index !427
  call void @doProfiling(i32 27)
  %5 = load i32** %2, align 8, !llfi_index !428
  call void @doProfiling(i32 27)
  %6 = icmp ne i32* %5, null, !llfi_index !429
  call void @doProfiling(i32 46)
  br i1 %6, label %7, label %12, !llfi_index !430

; <label>:7                                       ; preds = %0
  %8 = getelementptr inbounds %"struct.std::_Vector_base"* %4, i32 0, i32 0, !llfi_index !431
  call void @doProfiling(i32 29)
  %9 = bitcast %"struct.std::_Vector_base<int, std::allocator<int> >::_Vector_impl"* %8 to %"class.std::allocator"*, !llfi_index !432
  call void @doProfiling(i32 44)
  %10 = load i32** %2, align 8, !llfi_index !433
  call void @doProfiling(i32 27)
  %11 = load i64* %3, align 8, !llfi_index !434
  call void @doProfiling(i32 27)
  call void @_ZNSt16allocator_traitsISaIiEE10deallocateERS0_Pim(%"class.std::allocator"* %9, i32* %10, i64 %11), !llfi_index !435
  br label %12, !llfi_index !436

; <label>:12                                      ; preds = %7, %0
  ret void, !llfi_index !437
}

; Function Attrs: inlinehint nounwind uwtable
define linkonce_odr void @_ZNSt12_Vector_baseIiSaIiEE12_Vector_implD2Ev(%"struct.std::_Vector_base<int, std::allocator<int> >::_Vector_impl"* %this) unnamed_addr #5 align 2 {
  %1 = alloca %"struct.std::_Vector_base<int, std::allocator<int> >::_Vector_impl"*, align 8, !llfi_index !438
  store %"struct.std::_Vector_base<int, std::allocator<int> >::_Vector_impl"* %this, %"struct.std::_Vector_base<int, std::allocator<int> >::_Vector_impl"** %1, align 8, !llfi_index !439
  %2 = load %"struct.std::_Vector_base<int, std::allocator<int> >::_Vector_impl"** %1, !llfi_index !440
  call void @doProfiling(i32 27)
  %3 = bitcast %"struct.std::_Vector_base<int, std::allocator<int> >::_Vector_impl"* %2 to %"class.std::allocator"*, !llfi_index !441
  call void @doProfiling(i32 44)
  call void @_ZNSaIiED2Ev(%"class.std::allocator"* %3) #0, !llfi_index !442
  ret void, !llfi_index !443
}

; Function Attrs: nounwind uwtable
define linkonce_odr void @_ZNSaIiED2Ev(%"class.std::allocator"* %this) unnamed_addr #3 align 2 {
  %1 = alloca %"class.std::allocator"*, align 8, !llfi_index !444
  store %"class.std::allocator"* %this, %"class.std::allocator"** %1, align 8, !llfi_index !445
  %2 = load %"class.std::allocator"** %1, !llfi_index !446
  call void @doProfiling(i32 27)
  %3 = bitcast %"class.std::allocator"* %2 to %"class.__gnu_cxx::new_allocator"*, !llfi_index !447
  call void @doProfiling(i32 44)
  call void @_ZN9__gnu_cxx13new_allocatorIiED2Ev(%"class.__gnu_cxx::new_allocator"* %3) #0, !llfi_index !448
  ret void, !llfi_index !449
}

; Function Attrs: nounwind uwtable
define linkonce_odr void @_ZN9__gnu_cxx13new_allocatorIiED2Ev(%"class.__gnu_cxx::new_allocator"* %this) unnamed_addr #3 align 2 {
  %1 = alloca %"class.__gnu_cxx::new_allocator"*, align 8, !llfi_index !450
  store %"class.__gnu_cxx::new_allocator"* %this, %"class.__gnu_cxx::new_allocator"** %1, align 8, !llfi_index !451
  %2 = load %"class.__gnu_cxx::new_allocator"** %1, !llfi_index !452
  call void @doProfiling(i32 27)
  ret void, !llfi_index !453
}

; Function Attrs: nounwind uwtable
define linkonce_odr void @_ZNSt16allocator_traitsISaIiEE10deallocateERS0_Pim(%"class.std::allocator"* %__a, i32* %__p, i64 %__n) #3 align 2 {
  %1 = alloca %"class.std::allocator"*, align 8, !llfi_index !454
  %2 = alloca i32*, align 8, !llfi_index !455
  %3 = alloca i64, align 8, !llfi_index !456
  store %"class.std::allocator"* %__a, %"class.std::allocator"** %1, align 8, !llfi_index !457
  store i32* %__p, i32** %2, align 8, !llfi_index !458
  store i64 %__n, i64* %3, align 8, !llfi_index !459
  %4 = load %"class.std::allocator"** %1, align 8, !llfi_index !460
  call void @doProfiling(i32 27)
  %5 = bitcast %"class.std::allocator"* %4 to %"class.__gnu_cxx::new_allocator"*, !llfi_index !461
  call void @doProfiling(i32 44)
  %6 = load i32** %2, align 8, !llfi_index !462
  call void @doProfiling(i32 27)
  %7 = load i64* %3, align 8, !llfi_index !463
  call void @doProfiling(i32 27)
  call void @_ZN9__gnu_cxx13new_allocatorIiE10deallocateEPim(%"class.__gnu_cxx::new_allocator"* %5, i32* %6, i64 %7), !llfi_index !464
  ret void, !llfi_index !465
}

; Function Attrs: nounwind uwtable
define linkonce_odr void @_ZN9__gnu_cxx13new_allocatorIiE10deallocateEPim(%"class.__gnu_cxx::new_allocator"* %this, i32* %__p, i64) #3 align 2 {
  %2 = alloca %"class.__gnu_cxx::new_allocator"*, align 8, !llfi_index !466
  %3 = alloca i32*, align 8, !llfi_index !467
  %4 = alloca i64, align 8, !llfi_index !468
  store %"class.__gnu_cxx::new_allocator"* %this, %"class.__gnu_cxx::new_allocator"** %2, align 8, !llfi_index !469
  store i32* %__p, i32** %3, align 8, !llfi_index !470
  store i64 %0, i64* %4, align 8, !llfi_index !471
  %5 = load %"class.__gnu_cxx::new_allocator"** %2, !llfi_index !472
  call void @doProfiling(i32 27)
  %6 = load i32** %3, align 8, !llfi_index !473
  call void @doProfiling(i32 27)
  %7 = bitcast i32* %6 to i8*, !llfi_index !474
  call void @doProfiling(i32 44)
  call void @_ZdlPv(i8* %7) #0, !llfi_index !475
  ret void, !llfi_index !476
}

; Function Attrs: nobuiltin nounwind
declare void @_ZdlPv(i8*) #6

; Function Attrs: inlinehint nounwind uwtable
define linkonce_odr void @_ZSt8_DestroyIPiEvT_S1_(i32* %__first, i32* %__last) #5 {
  %1 = alloca i32*, align 8, !llfi_index !477
  %2 = alloca i32*, align 8, !llfi_index !478
  store i32* %__first, i32** %1, align 8, !llfi_index !479
  store i32* %__last, i32** %2, align 8, !llfi_index !480
  %3 = load i32** %1, align 8, !llfi_index !481
  call void @doProfiling(i32 27)
  %4 = load i32** %2, align 8, !llfi_index !482
  call void @doProfiling(i32 27)
  call void @_ZNSt12_Destroy_auxILb1EE9__destroyIPiEEvT_S3_(i32* %3, i32* %4), !llfi_index !483
  ret void, !llfi_index !484
}

; Function Attrs: nounwind uwtable
define linkonce_odr void @_ZNSt12_Destroy_auxILb1EE9__destroyIPiEEvT_S3_(i32*, i32*) #3 align 2 {
  %3 = alloca i32*, align 8, !llfi_index !485
  %4 = alloca i32*, align 8, !llfi_index !486
  store i32* %0, i32** %3, align 8, !llfi_index !487
  store i32* %1, i32** %4, align 8, !llfi_index !488
  ret void, !llfi_index !489
}

; Function Attrs: nounwind uwtable
define linkonce_odr void @_ZNSt12_Vector_baseIiSaIiEEC2Ev(%"struct.std::_Vector_base"* %this) unnamed_addr #3 align 2 {
  %1 = alloca %"struct.std::_Vector_base"*, align 8, !llfi_index !490
  store %"struct.std::_Vector_base"* %this, %"struct.std::_Vector_base"** %1, align 8, !llfi_index !491
  %2 = load %"struct.std::_Vector_base"** %1, !llfi_index !492
  call void @doProfiling(i32 27)
  %3 = getelementptr inbounds %"struct.std::_Vector_base"* %2, i32 0, i32 0, !llfi_index !493
  call void @doProfiling(i32 29)
  call void @_ZNSt12_Vector_baseIiSaIiEE12_Vector_implC2Ev(%"struct.std::_Vector_base<int, std::allocator<int> >::_Vector_impl"* %3), !llfi_index !494
  ret void, !llfi_index !495
}

; Function Attrs: nounwind uwtable
define linkonce_odr void @_ZNSt12_Vector_baseIiSaIiEE12_Vector_implC2Ev(%"struct.std::_Vector_base<int, std::allocator<int> >::_Vector_impl"* %this) unnamed_addr #3 align 2 {
  %1 = alloca %"struct.std::_Vector_base<int, std::allocator<int> >::_Vector_impl"*, align 8, !llfi_index !496
  store %"struct.std::_Vector_base<int, std::allocator<int> >::_Vector_impl"* %this, %"struct.std::_Vector_base<int, std::allocator<int> >::_Vector_impl"** %1, align 8, !llfi_index !497
  %2 = load %"struct.std::_Vector_base<int, std::allocator<int> >::_Vector_impl"** %1, !llfi_index !498
  call void @doProfiling(i32 27)
  %3 = bitcast %"struct.std::_Vector_base<int, std::allocator<int> >::_Vector_impl"* %2 to %"class.std::allocator"*, !llfi_index !499
  call void @doProfiling(i32 44)
  call void @_ZNSaIiEC2Ev(%"class.std::allocator"* %3) #0, !llfi_index !500
  %4 = getelementptr inbounds %"struct.std::_Vector_base<int, std::allocator<int> >::_Vector_impl"* %2, i32 0, i32 0, !llfi_index !501
  call void @doProfiling(i32 29)
  store i32* null, i32** %4, align 8, !llfi_index !502
  %5 = getelementptr inbounds %"struct.std::_Vector_base<int, std::allocator<int> >::_Vector_impl"* %2, i32 0, i32 1, !llfi_index !503
  call void @doProfiling(i32 29)
  store i32* null, i32** %5, align 8, !llfi_index !504
  %6 = getelementptr inbounds %"struct.std::_Vector_base<int, std::allocator<int> >::_Vector_impl"* %2, i32 0, i32 2, !llfi_index !505
  call void @doProfiling(i32 29)
  store i32* null, i32** %6, align 8, !llfi_index !506
  ret void, !llfi_index !507
}

; Function Attrs: nounwind uwtable
define linkonce_odr void @_ZNSaIiEC2Ev(%"class.std::allocator"* %this) unnamed_addr #3 align 2 {
  %1 = alloca %"class.std::allocator"*, align 8, !llfi_index !508
  store %"class.std::allocator"* %this, %"class.std::allocator"** %1, align 8, !llfi_index !509
  %2 = load %"class.std::allocator"** %1, !llfi_index !510
  call void @doProfiling(i32 27)
  %3 = bitcast %"class.std::allocator"* %2 to %"class.__gnu_cxx::new_allocator"*, !llfi_index !511
  call void @doProfiling(i32 44)
  call void @_ZN9__gnu_cxx13new_allocatorIiEC2Ev(%"class.__gnu_cxx::new_allocator"* %3) #0, !llfi_index !512
  ret void, !llfi_index !513
}

; Function Attrs: nounwind uwtable
define linkonce_odr void @_ZN9__gnu_cxx13new_allocatorIiEC2Ev(%"class.__gnu_cxx::new_allocator"* %this) unnamed_addr #3 align 2 {
  %1 = alloca %"class.__gnu_cxx::new_allocator"*, align 8, !llfi_index !514
  store %"class.__gnu_cxx::new_allocator"* %this, %"class.__gnu_cxx::new_allocator"** %1, align 8, !llfi_index !515
  %2 = load %"class.__gnu_cxx::new_allocator"** %1, !llfi_index !516
  call void @doProfiling(i32 27)
  ret void, !llfi_index !517
}

; Function Attrs: nounwind uwtable
define linkonce_odr void @_ZNSt16allocator_traitsISaIiEE9constructIiJRKiEEEvRS0_PT_DpOT0_(%"class.std::allocator"* %__a, i32* %__p, i32* %__args) #3 align 2 {
  %1 = alloca %"class.std::allocator"*, align 8, !llfi_index !518
  %2 = alloca i32*, align 8, !llfi_index !519
  %3 = alloca i32*, align 8, !llfi_index !520
  store %"class.std::allocator"* %__a, %"class.std::allocator"** %1, align 8, !llfi_index !521
  store i32* %__p, i32** %2, align 8, !llfi_index !522
  store i32* %__args, i32** %3, align 8, !llfi_index !523
  %4 = load %"class.std::allocator"** %1, align 8, !llfi_index !524
  call void @doProfiling(i32 27)
  %5 = bitcast %"class.std::allocator"* %4 to %"class.__gnu_cxx::new_allocator"*, !llfi_index !525
  call void @doProfiling(i32 44)
  %6 = load i32** %2, align 8, !llfi_index !526
  call void @doProfiling(i32 27)
  %7 = load i32** %3, align 8, !llfi_index !527
  call void @doProfiling(i32 27)
  %8 = call i32* @_ZSt7forwardIRKiEOT_RNSt16remove_referenceIS2_E4typeE(i32* %7) #0, !llfi_index !528
  call void @_ZN9__gnu_cxx13new_allocatorIiE9constructIiJRKiEEEvPT_DpOT0_(%"class.__gnu_cxx::new_allocator"* %5, i32* %6, i32* %8), !llfi_index !529
  ret void, !llfi_index !530
}

; Function Attrs: nounwind uwtable
define linkonce_odr void @_ZNSt6vectorIiSaIiEE19_M_emplace_back_auxIJRKiEEEvDpOT_(%"class.std::vector"* %this, i32* %__args) #3 align 2 {
  %1 = alloca %"class.std::vector"*, align 8, !llfi_index !531
  %2 = alloca i32*, align 8, !llfi_index !532
  %__len = alloca i64, align 8, !llfi_index !533
  %__new_start = alloca i32*, align 8, !llfi_index !534
  %__new_finish = alloca i32*, align 8, !llfi_index !535
  store %"class.std::vector"* %this, %"class.std::vector"** %1, align 8, !llfi_index !536
  store i32* %__args, i32** %2, align 8, !llfi_index !537
  %3 = load %"class.std::vector"** %1, !llfi_index !538
  call void @doProfiling(i32 27)
  %4 = call i64 @_ZNKSt6vectorIiSaIiEE12_M_check_lenEmPKc(%"class.std::vector"* %3, i64 1, i8* getelementptr inbounds ([28 x i8]* @.str2, i32 0, i32 0)), !llfi_index !539
  store i64 %4, i64* %__len, align 8, !llfi_index !540
  %5 = bitcast %"class.std::vector"* %3 to %"struct.std::_Vector_base"*, !llfi_index !541
  call void @doProfiling(i32 44)
  %6 = load i64* %__len, align 8, !llfi_index !542
  call void @doProfiling(i32 27)
  %7 = call i32* @_ZNSt12_Vector_baseIiSaIiEE11_M_allocateEm(%"struct.std::_Vector_base"* %5, i64 %6), !llfi_index !543
  store i32* %7, i32** %__new_start, align 8, !llfi_index !544
  %8 = load i32** %__new_start, align 8, !llfi_index !545
  call void @doProfiling(i32 27)
  store i32* %8, i32** %__new_finish, align 8, !llfi_index !546
  %9 = bitcast %"class.std::vector"* %3 to %"struct.std::_Vector_base"*, !llfi_index !547
  call void @doProfiling(i32 44)
  %10 = getelementptr inbounds %"struct.std::_Vector_base"* %9, i32 0, i32 0, !llfi_index !548
  call void @doProfiling(i32 29)
  %11 = bitcast %"struct.std::_Vector_base<int, std::allocator<int> >::_Vector_impl"* %10 to %"class.std::allocator"*, !llfi_index !549
  call void @doProfiling(i32 44)
  %12 = load i32** %__new_start, align 8, !llfi_index !550
  call void @doProfiling(i32 27)
  %13 = call i64 @_ZNKSt6vectorIiSaIiEE4sizeEv(%"class.std::vector"* %3) #0, !llfi_index !551
  %14 = getelementptr inbounds i32* %12, i64 %13, !llfi_index !552
  call void @doProfiling(i32 29)
  %15 = load i32** %2, align 8, !llfi_index !553
  call void @doProfiling(i32 27)
  %16 = call i32* @_ZSt7forwardIRKiEOT_RNSt16remove_referenceIS2_E4typeE(i32* %15) #0, !llfi_index !554
  call void @_ZNSt16allocator_traitsISaIiEE9constructIiJRKiEEEvRS0_PT_DpOT0_(%"class.std::allocator"* %11, i32* %14, i32* %16), !llfi_index !555
  store i32* null, i32** %__new_finish, align 8, !llfi_index !556
  %17 = bitcast %"class.std::vector"* %3 to %"struct.std::_Vector_base"*, !llfi_index !557
  call void @doProfiling(i32 44)
  %18 = getelementptr inbounds %"struct.std::_Vector_base"* %17, i32 0, i32 0, !llfi_index !558
  call void @doProfiling(i32 29)
  %19 = getelementptr inbounds %"struct.std::_Vector_base<int, std::allocator<int> >::_Vector_impl"* %18, i32 0, i32 0, !llfi_index !559
  call void @doProfiling(i32 29)
  %20 = load i32** %19, align 8, !llfi_index !560
  call void @doProfiling(i32 27)
  %21 = bitcast %"class.std::vector"* %3 to %"struct.std::_Vector_base"*, !llfi_index !561
  call void @doProfiling(i32 44)
  %22 = getelementptr inbounds %"struct.std::_Vector_base"* %21, i32 0, i32 0, !llfi_index !562
  call void @doProfiling(i32 29)
  %23 = getelementptr inbounds %"struct.std::_Vector_base<int, std::allocator<int> >::_Vector_impl"* %22, i32 0, i32 1, !llfi_index !563
  call void @doProfiling(i32 29)
  %24 = load i32** %23, align 8, !llfi_index !564
  call void @doProfiling(i32 27)
  %25 = load i32** %__new_start, align 8, !llfi_index !565
  call void @doProfiling(i32 27)
  %26 = bitcast %"class.std::vector"* %3 to %"struct.std::_Vector_base"*, !llfi_index !566
  call void @doProfiling(i32 44)
  %27 = call %"class.std::allocator"* @_ZNSt12_Vector_baseIiSaIiEE19_M_get_Tp_allocatorEv(%"struct.std::_Vector_base"* %26) #0, !llfi_index !567
  %28 = call i32* @_ZSt34__uninitialized_move_if_noexcept_aIPiS0_SaIiEET0_T_S3_S2_RT1_(i32* %20, i32* %24, i32* %25, %"class.std::allocator"* %27), !llfi_index !568
  store i32* %28, i32** %__new_finish, align 8, !llfi_index !569
  %29 = load i32** %__new_finish, align 8, !llfi_index !570
  call void @doProfiling(i32 27)
  %30 = getelementptr inbounds i32* %29, i32 1, !llfi_index !571
  call void @doProfiling(i32 29)
  store i32* %30, i32** %__new_finish, align 8, !llfi_index !572
  %31 = bitcast %"class.std::vector"* %3 to %"struct.std::_Vector_base"*, !llfi_index !573
  call void @doProfiling(i32 44)
  %32 = getelementptr inbounds %"struct.std::_Vector_base"* %31, i32 0, i32 0, !llfi_index !574
  call void @doProfiling(i32 29)
  %33 = getelementptr inbounds %"struct.std::_Vector_base<int, std::allocator<int> >::_Vector_impl"* %32, i32 0, i32 0, !llfi_index !575
  call void @doProfiling(i32 29)
  %34 = load i32** %33, align 8, !llfi_index !576
  call void @doProfiling(i32 27)
  %35 = bitcast %"class.std::vector"* %3 to %"struct.std::_Vector_base"*, !llfi_index !577
  call void @doProfiling(i32 44)
  %36 = getelementptr inbounds %"struct.std::_Vector_base"* %35, i32 0, i32 0, !llfi_index !578
  call void @doProfiling(i32 29)
  %37 = getelementptr inbounds %"struct.std::_Vector_base<int, std::allocator<int> >::_Vector_impl"* %36, i32 0, i32 1, !llfi_index !579
  call void @doProfiling(i32 29)
  %38 = load i32** %37, align 8, !llfi_index !580
  call void @doProfiling(i32 27)
  %39 = bitcast %"class.std::vector"* %3 to %"struct.std::_Vector_base"*, !llfi_index !581
  call void @doProfiling(i32 44)
  %40 = call %"class.std::allocator"* @_ZNSt12_Vector_baseIiSaIiEE19_M_get_Tp_allocatorEv(%"struct.std::_Vector_base"* %39) #0, !llfi_index !582
  call void @_ZSt8_DestroyIPiiEvT_S1_RSaIT0_E(i32* %34, i32* %38, %"class.std::allocator"* %40), !llfi_index !583
  %41 = bitcast %"class.std::vector"* %3 to %"struct.std::_Vector_base"*, !llfi_index !584
  call void @doProfiling(i32 44)
  %42 = bitcast %"class.std::vector"* %3 to %"struct.std::_Vector_base"*, !llfi_index !585
  call void @doProfiling(i32 44)
  %43 = getelementptr inbounds %"struct.std::_Vector_base"* %42, i32 0, i32 0, !llfi_index !586
  call void @doProfiling(i32 29)
  %44 = getelementptr inbounds %"struct.std::_Vector_base<int, std::allocator<int> >::_Vector_impl"* %43, i32 0, i32 0, !llfi_index !587
  call void @doProfiling(i32 29)
  %45 = load i32** %44, align 8, !llfi_index !588
  call void @doProfiling(i32 27)
  %46 = bitcast %"class.std::vector"* %3 to %"struct.std::_Vector_base"*, !llfi_index !589
  call void @doProfiling(i32 44)
  %47 = getelementptr inbounds %"struct.std::_Vector_base"* %46, i32 0, i32 0, !llfi_index !590
  call void @doProfiling(i32 29)
  %48 = getelementptr inbounds %"struct.std::_Vector_base<int, std::allocator<int> >::_Vector_impl"* %47, i32 0, i32 2, !llfi_index !591
  call void @doProfiling(i32 29)
  %49 = load i32** %48, align 8, !llfi_index !592
  call void @doProfiling(i32 27)
  %50 = bitcast %"class.std::vector"* %3 to %"struct.std::_Vector_base"*, !llfi_index !593
  call void @doProfiling(i32 44)
  %51 = getelementptr inbounds %"struct.std::_Vector_base"* %50, i32 0, i32 0, !llfi_index !594
  call void @doProfiling(i32 29)
  %52 = getelementptr inbounds %"struct.std::_Vector_base<int, std::allocator<int> >::_Vector_impl"* %51, i32 0, i32 0, !llfi_index !595
  call void @doProfiling(i32 29)
  %53 = load i32** %52, align 8, !llfi_index !596
  call void @doProfiling(i32 27)
  %54 = ptrtoint i32* %49 to i64, !llfi_index !597
  call void @doProfiling(i32 42)
  %55 = ptrtoint i32* %53 to i64, !llfi_index !598
  call void @doProfiling(i32 42)
  %56 = sub i64 %54, %55, !llfi_index !599
  call void @doProfiling(i32 10)
  %57 = sdiv exact i64 %56, 4, !llfi_index !600
  call void @doProfiling(i32 15)
  call void @_ZNSt12_Vector_baseIiSaIiEE13_M_deallocateEPim(%"struct.std::_Vector_base"* %41, i32* %45, i64 %57), !llfi_index !601
  %58 = load i32** %__new_start, align 8, !llfi_index !602
  call void @doProfiling(i32 27)
  %59 = bitcast %"class.std::vector"* %3 to %"struct.std::_Vector_base"*, !llfi_index !603
  call void @doProfiling(i32 44)
  %60 = getelementptr inbounds %"struct.std::_Vector_base"* %59, i32 0, i32 0, !llfi_index !604
  call void @doProfiling(i32 29)
  %61 = getelementptr inbounds %"struct.std::_Vector_base<int, std::allocator<int> >::_Vector_impl"* %60, i32 0, i32 0, !llfi_index !605
  call void @doProfiling(i32 29)
  store i32* %58, i32** %61, align 8, !llfi_index !606
  %62 = load i32** %__new_finish, align 8, !llfi_index !607
  call void @doProfiling(i32 27)
  %63 = bitcast %"class.std::vector"* %3 to %"struct.std::_Vector_base"*, !llfi_index !608
  call void @doProfiling(i32 44)
  %64 = getelementptr inbounds %"struct.std::_Vector_base"* %63, i32 0, i32 0, !llfi_index !609
  call void @doProfiling(i32 29)
  %65 = getelementptr inbounds %"struct.std::_Vector_base<int, std::allocator<int> >::_Vector_impl"* %64, i32 0, i32 1, !llfi_index !610
  call void @doProfiling(i32 29)
  store i32* %62, i32** %65, align 8, !llfi_index !611
  %66 = load i32** %__new_start, align 8, !llfi_index !612
  call void @doProfiling(i32 27)
  %67 = load i64* %__len, align 8, !llfi_index !613
  call void @doProfiling(i32 27)
  %68 = getelementptr inbounds i32* %66, i64 %67, !llfi_index !614
  call void @doProfiling(i32 29)
  %69 = bitcast %"class.std::vector"* %3 to %"struct.std::_Vector_base"*, !llfi_index !615
  call void @doProfiling(i32 44)
  %70 = getelementptr inbounds %"struct.std::_Vector_base"* %69, i32 0, i32 0, !llfi_index !616
  call void @doProfiling(i32 29)
  %71 = getelementptr inbounds %"struct.std::_Vector_base<int, std::allocator<int> >::_Vector_impl"* %70, i32 0, i32 2, !llfi_index !617
  call void @doProfiling(i32 29)
  store i32* %68, i32** %71, align 8, !llfi_index !618
  ret void, !llfi_index !619
}

; Function Attrs: nounwind uwtable
define linkonce_odr i64 @_ZNKSt6vectorIiSaIiEE12_M_check_lenEmPKc(%"class.std::vector"* %this, i64 %__n, i8* %__s) #3 align 2 {
  %1 = alloca %"class.std::vector"*, align 8, !llfi_index !620
  %2 = alloca i64, align 8, !llfi_index !621
  %3 = alloca i8*, align 8, !llfi_index !622
  %__len = alloca i64, align 8, !llfi_index !623
  %4 = alloca i64, align 8, !llfi_index !624
  store %"class.std::vector"* %this, %"class.std::vector"** %1, align 8, !llfi_index !625
  store i64 %__n, i64* %2, align 8, !llfi_index !626
  store i8* %__s, i8** %3, align 8, !llfi_index !627
  %5 = load %"class.std::vector"** %1, !llfi_index !628
  call void @doProfiling(i32 27)
  %6 = call i64 @_ZNKSt6vectorIiSaIiEE8max_sizeEv(%"class.std::vector"* %5) #0, !llfi_index !629
  %7 = call i64 @_ZNKSt6vectorIiSaIiEE4sizeEv(%"class.std::vector"* %5) #0, !llfi_index !630
  %8 = sub i64 %6, %7, !llfi_index !631
  call void @doProfiling(i32 10)
  %9 = load i64* %2, align 8, !llfi_index !632
  call void @doProfiling(i32 27)
  %10 = icmp ult i64 %8, %9, !llfi_index !633
  call void @doProfiling(i32 46)
  br i1 %10, label %11, label %13, !llfi_index !634

; <label>:11                                      ; preds = %0
  %12 = load i8** %3, align 8, !llfi_index !635
  call void @doProfiling(i32 27)
  call void @_ZSt20__throw_length_errorPKc(i8* %12) #9, !llfi_index !636
  unreachable, !llfi_index !637

; <label>:13                                      ; preds = %0
  %14 = call i64 @_ZNKSt6vectorIiSaIiEE4sizeEv(%"class.std::vector"* %5) #0, !llfi_index !638
  %15 = call i64 @_ZNKSt6vectorIiSaIiEE4sizeEv(%"class.std::vector"* %5) #0, !llfi_index !639
  store i64 %15, i64* %4, !llfi_index !640
  %16 = call i64* @_ZSt3maxImERKT_S2_S2_(i64* %4, i64* %2), !llfi_index !641
  %17 = load i64* %16, !llfi_index !642
  call void @doProfiling(i32 27)
  %18 = add i64 %14, %17, !llfi_index !643
  call void @doProfiling(i32 8)
  store i64 %18, i64* %__len, align 8, !llfi_index !644
  %19 = load i64* %__len, align 8, !llfi_index !645
  call void @doProfiling(i32 27)
  %20 = call i64 @_ZNKSt6vectorIiSaIiEE4sizeEv(%"class.std::vector"* %5) #0, !llfi_index !646
  %21 = icmp ult i64 %19, %20, !llfi_index !647
  call void @doProfiling(i32 46)
  br i1 %21, label %26, label %22, !llfi_index !648

; <label>:22                                      ; preds = %13
  %23 = load i64* %__len, align 8, !llfi_index !649
  call void @doProfiling(i32 27)
  %24 = call i64 @_ZNKSt6vectorIiSaIiEE8max_sizeEv(%"class.std::vector"* %5) #0, !llfi_index !650
  %25 = icmp ugt i64 %23, %24, !llfi_index !651
  call void @doProfiling(i32 46)
  br i1 %25, label %26, label %28, !llfi_index !652

; <label>:26                                      ; preds = %22, %13
  %27 = call i64 @_ZNKSt6vectorIiSaIiEE8max_sizeEv(%"class.std::vector"* %5) #0, !llfi_index !653
  br label %30, !llfi_index !654

; <label>:28                                      ; preds = %22
  %29 = load i64* %__len, align 8, !llfi_index !655
  call void @doProfiling(i32 27)
  br label %30, !llfi_index !656

; <label>:30                                      ; preds = %28, %26
  %31 = phi i64 [ %27, %26 ], [ %29, %28 ], !llfi_index !657
  ret i64 %31, !llfi_index !658
}

; Function Attrs: nounwind uwtable
define linkonce_odr i32* @_ZNSt12_Vector_baseIiSaIiEE11_M_allocateEm(%"struct.std::_Vector_base"* %this, i64 %__n) #3 align 2 {
  %1 = alloca %"struct.std::_Vector_base"*, align 8, !llfi_index !659
  %2 = alloca i64, align 8, !llfi_index !660
  store %"struct.std::_Vector_base"* %this, %"struct.std::_Vector_base"** %1, align 8, !llfi_index !661
  store i64 %__n, i64* %2, align 8, !llfi_index !662
  %3 = load %"struct.std::_Vector_base"** %1, !llfi_index !663
  call void @doProfiling(i32 27)
  %4 = load i64* %2, align 8, !llfi_index !664
  call void @doProfiling(i32 27)
  %5 = icmp ne i64 %4, 0, !llfi_index !665
  call void @doProfiling(i32 46)
  br i1 %5, label %6, label %11, !llfi_index !666

; <label>:6                                       ; preds = %0
  %7 = getelementptr inbounds %"struct.std::_Vector_base"* %3, i32 0, i32 0, !llfi_index !667
  call void @doProfiling(i32 29)
  %8 = bitcast %"struct.std::_Vector_base<int, std::allocator<int> >::_Vector_impl"* %7 to %"class.std::allocator"*, !llfi_index !668
  call void @doProfiling(i32 44)
  %9 = load i64* %2, align 8, !llfi_index !669
  call void @doProfiling(i32 27)
  %10 = call i32* @_ZNSt16allocator_traitsISaIiEE8allocateERS0_m(%"class.std::allocator"* %8, i64 %9), !llfi_index !670
  br label %12, !llfi_index !671

; <label>:11                                      ; preds = %0
  br label %12, !llfi_index !672

; <label>:12                                      ; preds = %11, %6
  %13 = phi i32* [ %10, %6 ], [ null, %11 ], !llfi_index !673
  ret i32* %13, !llfi_index !674
}

; Function Attrs: nounwind uwtable
define linkonce_odr i32* @_ZSt7forwardIRKiEOT_RNSt16remove_referenceIS2_E4typeE(i32* %__t) #3 {
  %1 = alloca i32*, align 8, !llfi_index !675
  store i32* %__t, i32** %1, align 8, !llfi_index !676
  %2 = load i32** %1, align 8, !llfi_index !677
  call void @doProfiling(i32 27)
  ret i32* %2, !llfi_index !678
}

; Function Attrs: inlinehint nounwind uwtable
define linkonce_odr i32* @_ZSt34__uninitialized_move_if_noexcept_aIPiS0_SaIiEET0_T_S3_S2_RT1_(i32* %__first, i32* %__last, i32* %__result, %"class.std::allocator"* %__alloc) #5 {
  %1 = alloca i32*, align 8, !llfi_index !679
  %2 = alloca i32*, align 8, !llfi_index !680
  %3 = alloca i32*, align 8, !llfi_index !681
  %4 = alloca %"class.std::allocator"*, align 8, !llfi_index !682
  %5 = alloca %"class.std::move_iterator", align 8, !llfi_index !683
  %6 = alloca %"class.std::move_iterator", align 8, !llfi_index !684
  store i32* %__first, i32** %1, align 8, !llfi_index !685
  store i32* %__last, i32** %2, align 8, !llfi_index !686
  store i32* %__result, i32** %3, align 8, !llfi_index !687
  store %"class.std::allocator"* %__alloc, %"class.std::allocator"** %4, align 8, !llfi_index !688
  %7 = load i32** %1, align 8, !llfi_index !689
  call void @doProfiling(i32 27)
  %8 = call i32* @_ZSt32__make_move_if_noexcept_iteratorIPiSt13move_iteratorIS0_EET0_T_(i32* %7), !llfi_index !690
  %9 = getelementptr %"class.std::move_iterator"* %5, i32 0, i32 0, !llfi_index !691
  call void @doProfiling(i32 29)
  store i32* %8, i32** %9, !llfi_index !692
  %10 = load i32** %2, align 8, !llfi_index !693
  call void @doProfiling(i32 27)
  %11 = call i32* @_ZSt32__make_move_if_noexcept_iteratorIPiSt13move_iteratorIS0_EET0_T_(i32* %10), !llfi_index !694
  %12 = getelementptr %"class.std::move_iterator"* %6, i32 0, i32 0, !llfi_index !695
  call void @doProfiling(i32 29)
  store i32* %11, i32** %12, !llfi_index !696
  %13 = load i32** %3, align 8, !llfi_index !697
  call void @doProfiling(i32 27)
  %14 = load %"class.std::allocator"** %4, align 8, !llfi_index !698
  call void @doProfiling(i32 27)
  %15 = getelementptr %"class.std::move_iterator"* %5, i32 0, i32 0, !llfi_index !699
  call void @doProfiling(i32 29)
  %16 = load i32** %15, !llfi_index !700
  call void @doProfiling(i32 27)
  %17 = getelementptr %"class.std::move_iterator"* %6, i32 0, i32 0, !llfi_index !701
  call void @doProfiling(i32 29)
  %18 = load i32** %17, !llfi_index !702
  call void @doProfiling(i32 27)
  %19 = call i32* @_ZSt22__uninitialized_copy_aISt13move_iteratorIPiES1_iET0_T_S4_S3_RSaIT1_E(i32* %16, i32* %18, i32* %13, %"class.std::allocator"* %14), !llfi_index !703
  ret i32* %19, !llfi_index !704
}

; Function Attrs: inlinehint nounwind uwtable
define linkonce_odr i32* @_ZSt22__uninitialized_copy_aISt13move_iteratorIPiES1_iET0_T_S4_S3_RSaIT1_E(i32* %__first.coerce, i32* %__last.coerce, i32* %__result, %"class.std::allocator"*) #5 {
  %__first = alloca %"class.std::move_iterator", align 8, !llfi_index !705
  %__last = alloca %"class.std::move_iterator", align 8, !llfi_index !706
  %2 = alloca i32*, align 8, !llfi_index !707
  %3 = alloca %"class.std::allocator"*, align 8, !llfi_index !708
  %4 = alloca %"class.std::move_iterator", align 8, !llfi_index !709
  %5 = alloca %"class.std::move_iterator", align 8, !llfi_index !710
  %6 = getelementptr %"class.std::move_iterator"* %__first, i32 0, i32 0, !llfi_index !711
  call void @doProfiling(i32 29)
  store i32* %__first.coerce, i32** %6, !llfi_index !712
  %7 = getelementptr %"class.std::move_iterator"* %__last, i32 0, i32 0, !llfi_index !713
  call void @doProfiling(i32 29)
  store i32* %__last.coerce, i32** %7, !llfi_index !714
  store i32* %__result, i32** %2, align 8, !llfi_index !715
  store %"class.std::allocator"* %0, %"class.std::allocator"** %3, align 8, !llfi_index !716
  %8 = bitcast %"class.std::move_iterator"* %4 to i8*, !llfi_index !717
  call void @doProfiling(i32 44)
  %9 = bitcast %"class.std::move_iterator"* %__first to i8*, !llfi_index !718
  call void @doProfiling(i32 44)
  call void @llvm.memcpy.p0i8.p0i8.i64(i8* %8, i8* %9, i64 8, i32 8, i1 false), !llfi_index !719
  %10 = bitcast %"class.std::move_iterator"* %5 to i8*, !llfi_index !720
  call void @doProfiling(i32 44)
  %11 = bitcast %"class.std::move_iterator"* %__last to i8*, !llfi_index !721
  call void @doProfiling(i32 44)
  call void @llvm.memcpy.p0i8.p0i8.i64(i8* %10, i8* %11, i64 8, i32 8, i1 false), !llfi_index !722
  %12 = load i32** %2, align 8, !llfi_index !723
  call void @doProfiling(i32 27)
  %13 = getelementptr %"class.std::move_iterator"* %4, i32 0, i32 0, !llfi_index !724
  call void @doProfiling(i32 29)
  %14 = load i32** %13, !llfi_index !725
  call void @doProfiling(i32 27)
  %15 = getelementptr %"class.std::move_iterator"* %5, i32 0, i32 0, !llfi_index !726
  call void @doProfiling(i32 29)
  %16 = load i32** %15, !llfi_index !727
  call void @doProfiling(i32 27)
  %17 = call i32* @_ZSt18uninitialized_copyISt13move_iteratorIPiES1_ET0_T_S4_S3_(i32* %14, i32* %16, i32* %12), !llfi_index !728
  ret i32* %17, !llfi_index !729
}

; Function Attrs: inlinehint nounwind uwtable
define linkonce_odr i32* @_ZSt32__make_move_if_noexcept_iteratorIPiSt13move_iteratorIS0_EET0_T_(i32* %__i) #5 {
  %1 = alloca %"class.std::move_iterator", align 8, !llfi_index !730
  %2 = alloca i32*, align 8, !llfi_index !731
  store i32* %__i, i32** %2, align 8, !llfi_index !732
  %3 = load i32** %2, align 8, !llfi_index !733
  call void @doProfiling(i32 27)
  call void @_ZNSt13move_iteratorIPiEC2ES0_(%"class.std::move_iterator"* %1, i32* %3), !llfi_index !734
  %4 = getelementptr %"class.std::move_iterator"* %1, i32 0, i32 0, !llfi_index !735
  call void @doProfiling(i32 29)
  %5 = load i32** %4, !llfi_index !736
  call void @doProfiling(i32 27)
  ret i32* %5, !llfi_index !737
}

; Function Attrs: nounwind uwtable
define linkonce_odr void @_ZNSt13move_iteratorIPiEC2ES0_(%"class.std::move_iterator"* %this, i32* %__i) unnamed_addr #3 align 2 {
  %1 = alloca %"class.std::move_iterator"*, align 8, !llfi_index !738
  %2 = alloca i32*, align 8, !llfi_index !739
  store %"class.std::move_iterator"* %this, %"class.std::move_iterator"** %1, align 8, !llfi_index !740
  store i32* %__i, i32** %2, align 8, !llfi_index !741
  %3 = load %"class.std::move_iterator"** %1, !llfi_index !742
  call void @doProfiling(i32 27)
  %4 = getelementptr inbounds %"class.std::move_iterator"* %3, i32 0, i32 0, !llfi_index !743
  call void @doProfiling(i32 29)
  %5 = load i32** %2, align 8, !llfi_index !744
  call void @doProfiling(i32 27)
  store i32* %5, i32** %4, align 8, !llfi_index !745
  ret void, !llfi_index !746
}

; Function Attrs: inlinehint nounwind uwtable
define linkonce_odr i32* @_ZSt18uninitialized_copyISt13move_iteratorIPiES1_ET0_T_S4_S3_(i32* %__first.coerce, i32* %__last.coerce, i32* %__result) #5 {
  %__first = alloca %"class.std::move_iterator", align 8, !llfi_index !747
  %__last = alloca %"class.std::move_iterator", align 8, !llfi_index !748
  %1 = alloca i32*, align 8, !llfi_index !749
  %__assignable = alloca i8, align 1, !llfi_index !750
  %2 = alloca %"class.std::move_iterator", align 8, !llfi_index !751
  %3 = alloca %"class.std::move_iterator", align 8, !llfi_index !752
  %4 = getelementptr %"class.std::move_iterator"* %__first, i32 0, i32 0, !llfi_index !753
  call void @doProfiling(i32 29)
  store i32* %__first.coerce, i32** %4, !llfi_index !754
  %5 = getelementptr %"class.std::move_iterator"* %__last, i32 0, i32 0, !llfi_index !755
  call void @doProfiling(i32 29)
  store i32* %__last.coerce, i32** %5, !llfi_index !756
  store i32* %__result, i32** %1, align 8, !llfi_index !757
  store i8 1, i8* %__assignable, align 1, !llfi_index !758
  %6 = bitcast %"class.std::move_iterator"* %2 to i8*, !llfi_index !759
  call void @doProfiling(i32 44)
  %7 = bitcast %"class.std::move_iterator"* %__first to i8*, !llfi_index !760
  call void @doProfiling(i32 44)
  call void @llvm.memcpy.p0i8.p0i8.i64(i8* %6, i8* %7, i64 8, i32 8, i1 false), !llfi_index !761
  %8 = bitcast %"class.std::move_iterator"* %3 to i8*, !llfi_index !762
  call void @doProfiling(i32 44)
  %9 = bitcast %"class.std::move_iterator"* %__last to i8*, !llfi_index !763
  call void @doProfiling(i32 44)
  call void @llvm.memcpy.p0i8.p0i8.i64(i8* %8, i8* %9, i64 8, i32 8, i1 false), !llfi_index !764
  %10 = load i32** %1, align 8, !llfi_index !765
  call void @doProfiling(i32 27)
  %11 = getelementptr %"class.std::move_iterator"* %2, i32 0, i32 0, !llfi_index !766
  call void @doProfiling(i32 29)
  %12 = load i32** %11, !llfi_index !767
  call void @doProfiling(i32 27)
  %13 = getelementptr %"class.std::move_iterator"* %3, i32 0, i32 0, !llfi_index !768
  call void @doProfiling(i32 29)
  %14 = load i32** %13, !llfi_index !769
  call void @doProfiling(i32 27)
  %15 = call i32* @_ZNSt20__uninitialized_copyILb1EE13__uninit_copyISt13move_iteratorIPiES3_EET0_T_S6_S5_(i32* %12, i32* %14, i32* %10), !llfi_index !770
  ret i32* %15, !llfi_index !771
}

; Function Attrs: nounwind
declare void @llvm.memcpy.p0i8.p0i8.i64(i8* nocapture, i8* nocapture readonly, i64, i32, i1) #0

; Function Attrs: nounwind uwtable
define linkonce_odr i32* @_ZNSt20__uninitialized_copyILb1EE13__uninit_copyISt13move_iteratorIPiES3_EET0_T_S6_S5_(i32* %__first.coerce, i32* %__last.coerce, i32* %__result) #3 align 2 {
  %__first = alloca %"class.std::move_iterator", align 8, !llfi_index !772
  %__last = alloca %"class.std::move_iterator", align 8, !llfi_index !773
  %1 = alloca i32*, align 8, !llfi_index !774
  %2 = alloca %"class.std::move_iterator", align 8, !llfi_index !775
  %3 = alloca %"class.std::move_iterator", align 8, !llfi_index !776
  %4 = getelementptr %"class.std::move_iterator"* %__first, i32 0, i32 0, !llfi_index !777
  call void @doProfiling(i32 29)
  store i32* %__first.coerce, i32** %4, !llfi_index !778
  %5 = getelementptr %"class.std::move_iterator"* %__last, i32 0, i32 0, !llfi_index !779
  call void @doProfiling(i32 29)
  store i32* %__last.coerce, i32** %5, !llfi_index !780
  store i32* %__result, i32** %1, align 8, !llfi_index !781
  %6 = bitcast %"class.std::move_iterator"* %2 to i8*, !llfi_index !782
  call void @doProfiling(i32 44)
  %7 = bitcast %"class.std::move_iterator"* %__first to i8*, !llfi_index !783
  call void @doProfiling(i32 44)
  call void @llvm.memcpy.p0i8.p0i8.i64(i8* %6, i8* %7, i64 8, i32 8, i1 false), !llfi_index !784
  %8 = bitcast %"class.std::move_iterator"* %3 to i8*, !llfi_index !785
  call void @doProfiling(i32 44)
  %9 = bitcast %"class.std::move_iterator"* %__last to i8*, !llfi_index !786
  call void @doProfiling(i32 44)
  call void @llvm.memcpy.p0i8.p0i8.i64(i8* %8, i8* %9, i64 8, i32 8, i1 false), !llfi_index !787
  %10 = load i32** %1, align 8, !llfi_index !788
  call void @doProfiling(i32 27)
  %11 = getelementptr %"class.std::move_iterator"* %2, i32 0, i32 0, !llfi_index !789
  call void @doProfiling(i32 29)
  %12 = load i32** %11, !llfi_index !790
  call void @doProfiling(i32 27)
  %13 = getelementptr %"class.std::move_iterator"* %3, i32 0, i32 0, !llfi_index !791
  call void @doProfiling(i32 29)
  %14 = load i32** %13, !llfi_index !792
  call void @doProfiling(i32 27)
  %15 = call i32* @_ZSt4copyISt13move_iteratorIPiES1_ET0_T_S4_S3_(i32* %12, i32* %14, i32* %10), !llfi_index !793
  ret i32* %15, !llfi_index !794
}

; Function Attrs: inlinehint nounwind uwtable
define linkonce_odr i32* @_ZSt4copyISt13move_iteratorIPiES1_ET0_T_S4_S3_(i32* %__first.coerce, i32* %__last.coerce, i32* %__result) #5 {
  %__first = alloca %"class.std::move_iterator", align 8, !llfi_index !795
  %__last = alloca %"class.std::move_iterator", align 8, !llfi_index !796
  %1 = alloca i32*, align 8, !llfi_index !797
  %2 = alloca %"class.std::move_iterator", align 8, !llfi_index !798
  %3 = alloca %"class.std::move_iterator", align 8, !llfi_index !799
  %4 = getelementptr %"class.std::move_iterator"* %__first, i32 0, i32 0, !llfi_index !800
  call void @doProfiling(i32 29)
  store i32* %__first.coerce, i32** %4, !llfi_index !801
  %5 = getelementptr %"class.std::move_iterator"* %__last, i32 0, i32 0, !llfi_index !802
  call void @doProfiling(i32 29)
  store i32* %__last.coerce, i32** %5, !llfi_index !803
  store i32* %__result, i32** %1, align 8, !llfi_index !804
  %6 = bitcast %"class.std::move_iterator"* %2 to i8*, !llfi_index !805
  call void @doProfiling(i32 44)
  %7 = bitcast %"class.std::move_iterator"* %__first to i8*, !llfi_index !806
  call void @doProfiling(i32 44)
  call void @llvm.memcpy.p0i8.p0i8.i64(i8* %6, i8* %7, i64 8, i32 8, i1 false), !llfi_index !807
  %8 = getelementptr %"class.std::move_iterator"* %2, i32 0, i32 0, !llfi_index !808
  call void @doProfiling(i32 29)
  %9 = load i32** %8, !llfi_index !809
  call void @doProfiling(i32 27)
  %10 = call i32* @_ZSt12__miter_baseISt13move_iteratorIPiEENSt11_Miter_baseIT_E13iterator_typeES4_(i32* %9), !llfi_index !810
  %11 = bitcast %"class.std::move_iterator"* %3 to i8*, !llfi_index !811
  call void @doProfiling(i32 44)
  %12 = bitcast %"class.std::move_iterator"* %__last to i8*, !llfi_index !812
  call void @doProfiling(i32 44)
  call void @llvm.memcpy.p0i8.p0i8.i64(i8* %11, i8* %12, i64 8, i32 8, i1 false), !llfi_index !813
  %13 = getelementptr %"class.std::move_iterator"* %3, i32 0, i32 0, !llfi_index !814
  call void @doProfiling(i32 29)
  %14 = load i32** %13, !llfi_index !815
  call void @doProfiling(i32 27)
  %15 = call i32* @_ZSt12__miter_baseISt13move_iteratorIPiEENSt11_Miter_baseIT_E13iterator_typeES4_(i32* %14), !llfi_index !816
  %16 = load i32** %1, align 8, !llfi_index !817
  call void @doProfiling(i32 27)
  %17 = call i32* @_ZSt14__copy_move_a2ILb1EPiS0_ET1_T0_S2_S1_(i32* %10, i32* %15, i32* %16), !llfi_index !818
  ret i32* %17, !llfi_index !819
}

; Function Attrs: inlinehint nounwind uwtable
define linkonce_odr i32* @_ZSt14__copy_move_a2ILb1EPiS0_ET1_T0_S2_S1_(i32* %__first, i32* %__last, i32* %__result) #5 {
  %1 = alloca i32*, align 8, !llfi_index !820
  %2 = alloca i32*, align 8, !llfi_index !821
  %3 = alloca i32*, align 8, !llfi_index !822
  store i32* %__first, i32** %1, align 8, !llfi_index !823
  store i32* %__last, i32** %2, align 8, !llfi_index !824
  store i32* %__result, i32** %3, align 8, !llfi_index !825
  %4 = load i32** %1, align 8, !llfi_index !826
  call void @doProfiling(i32 27)
  %5 = call i32* @_ZSt12__niter_baseIPiENSt11_Niter_baseIT_E13iterator_typeES2_(i32* %4), !llfi_index !827
  %6 = load i32** %2, align 8, !llfi_index !828
  call void @doProfiling(i32 27)
  %7 = call i32* @_ZSt12__niter_baseIPiENSt11_Niter_baseIT_E13iterator_typeES2_(i32* %6), !llfi_index !829
  %8 = load i32** %3, align 8, !llfi_index !830
  call void @doProfiling(i32 27)
  %9 = call i32* @_ZSt12__niter_baseIPiENSt11_Niter_baseIT_E13iterator_typeES2_(i32* %8), !llfi_index !831
  %10 = call i32* @_ZSt13__copy_move_aILb1EPiS0_ET1_T0_S2_S1_(i32* %5, i32* %7, i32* %9), !llfi_index !832
  ret i32* %10, !llfi_index !833
}

; Function Attrs: inlinehint nounwind uwtable
define linkonce_odr i32* @_ZSt12__miter_baseISt13move_iteratorIPiEENSt11_Miter_baseIT_E13iterator_typeES4_(i32* %__it.coerce) #5 {
  %__it = alloca %"class.std::move_iterator", align 8, !llfi_index !834
  %1 = alloca %"class.std::move_iterator", align 8, !llfi_index !835
  %2 = getelementptr %"class.std::move_iterator"* %__it, i32 0, i32 0, !llfi_index !836
  call void @doProfiling(i32 29)
  store i32* %__it.coerce, i32** %2, !llfi_index !837
  %3 = bitcast %"class.std::move_iterator"* %1 to i8*, !llfi_index !838
  call void @doProfiling(i32 44)
  %4 = bitcast %"class.std::move_iterator"* %__it to i8*, !llfi_index !839
  call void @doProfiling(i32 44)
  call void @llvm.memcpy.p0i8.p0i8.i64(i8* %3, i8* %4, i64 8, i32 8, i1 false), !llfi_index !840
  %5 = getelementptr %"class.std::move_iterator"* %1, i32 0, i32 0, !llfi_index !841
  call void @doProfiling(i32 29)
  %6 = load i32** %5, !llfi_index !842
  call void @doProfiling(i32 27)
  %7 = call i32* @_ZNSt10_Iter_baseISt13move_iteratorIPiELb1EE7_S_baseES2_(i32* %6), !llfi_index !843
  ret i32* %7, !llfi_index !844
}

; Function Attrs: nounwind uwtable
define linkonce_odr i32* @_ZNSt10_Iter_baseISt13move_iteratorIPiELb1EE7_S_baseES2_(i32* %__it.coerce) #3 align 2 {
  %__it = alloca %"class.std::move_iterator", align 8, !llfi_index !845
  %1 = getelementptr %"class.std::move_iterator"* %__it, i32 0, i32 0, !llfi_index !846
  call void @doProfiling(i32 29)
  store i32* %__it.coerce, i32** %1, !llfi_index !847
  %2 = call i32* @_ZNKSt13move_iteratorIPiE4baseEv(%"class.std::move_iterator"* %__it), !llfi_index !848
  ret i32* %2, !llfi_index !849
}

; Function Attrs: nounwind uwtable
define linkonce_odr i32* @_ZNKSt13move_iteratorIPiE4baseEv(%"class.std::move_iterator"* %this) #3 align 2 {
  %1 = alloca %"class.std::move_iterator"*, align 8, !llfi_index !850
  store %"class.std::move_iterator"* %this, %"class.std::move_iterator"** %1, align 8, !llfi_index !851
  %2 = load %"class.std::move_iterator"** %1, !llfi_index !852
  call void @doProfiling(i32 27)
  %3 = getelementptr inbounds %"class.std::move_iterator"* %2, i32 0, i32 0, !llfi_index !853
  call void @doProfiling(i32 29)
  %4 = load i32** %3, align 8, !llfi_index !854
  call void @doProfiling(i32 27)
  ret i32* %4, !llfi_index !855
}

; Function Attrs: inlinehint nounwind uwtable
define linkonce_odr i32* @_ZSt13__copy_move_aILb1EPiS0_ET1_T0_S2_S1_(i32* %__first, i32* %__last, i32* %__result) #5 {
  %1 = alloca i32*, align 8, !llfi_index !856
  %2 = alloca i32*, align 8, !llfi_index !857
  %3 = alloca i32*, align 8, !llfi_index !858
  %__simple = alloca i8, align 1, !llfi_index !859
  store i32* %__first, i32** %1, align 8, !llfi_index !860
  store i32* %__last, i32** %2, align 8, !llfi_index !861
  store i32* %__result, i32** %3, align 8, !llfi_index !862
  store i8 1, i8* %__simple, align 1, !llfi_index !863
  %4 = load i32** %1, align 8, !llfi_index !864
  call void @doProfiling(i32 27)
  %5 = load i32** %2, align 8, !llfi_index !865
  call void @doProfiling(i32 27)
  %6 = load i32** %3, align 8, !llfi_index !866
  call void @doProfiling(i32 27)
  %7 = call i32* @_ZNSt11__copy_moveILb1ELb1ESt26random_access_iterator_tagE8__copy_mIiEEPT_PKS3_S6_S4_(i32* %4, i32* %5, i32* %6), !llfi_index !867
  ret i32* %7, !llfi_index !868
}

; Function Attrs: inlinehint nounwind uwtable
define linkonce_odr i32* @_ZSt12__niter_baseIPiENSt11_Niter_baseIT_E13iterator_typeES2_(i32* %__it) #5 {
  %1 = alloca i32*, align 8, !llfi_index !869
  store i32* %__it, i32** %1, align 8, !llfi_index !870
  %2 = load i32** %1, align 8, !llfi_index !871
  call void @doProfiling(i32 27)
  %3 = call i32* @_ZNSt10_Iter_baseIPiLb0EE7_S_baseES0_(i32* %2), !llfi_index !872
  ret i32* %3, !llfi_index !873
}

; Function Attrs: nounwind uwtable
define linkonce_odr i32* @_ZNSt10_Iter_baseIPiLb0EE7_S_baseES0_(i32* %__it) #3 align 2 {
  %1 = alloca i32*, align 8, !llfi_index !874
  store i32* %__it, i32** %1, align 8, !llfi_index !875
  %2 = load i32** %1, align 8, !llfi_index !876
  call void @doProfiling(i32 27)
  ret i32* %2, !llfi_index !877
}

; Function Attrs: nounwind uwtable
define linkonce_odr i32* @_ZNSt11__copy_moveILb1ELb1ESt26random_access_iterator_tagE8__copy_mIiEEPT_PKS3_S6_S4_(i32* %__first, i32* %__last, i32* %__result) #3 align 2 {
  %1 = alloca i32*, align 8, !llfi_index !878
  %2 = alloca i32*, align 8, !llfi_index !879
  %3 = alloca i32*, align 8, !llfi_index !880
  %_Num = alloca i64, align 8, !llfi_index !881
  store i32* %__first, i32** %1, align 8, !llfi_index !882
  store i32* %__last, i32** %2, align 8, !llfi_index !883
  store i32* %__result, i32** %3, align 8, !llfi_index !884
  %4 = load i32** %2, align 8, !llfi_index !885
  call void @doProfiling(i32 27)
  %5 = load i32** %1, align 8, !llfi_index !886
  call void @doProfiling(i32 27)
  %6 = ptrtoint i32* %4 to i64, !llfi_index !887
  call void @doProfiling(i32 42)
  %7 = ptrtoint i32* %5 to i64, !llfi_index !888
  call void @doProfiling(i32 42)
  %8 = sub i64 %6, %7, !llfi_index !889
  call void @doProfiling(i32 10)
  %9 = sdiv exact i64 %8, 4, !llfi_index !890
  call void @doProfiling(i32 15)
  store i64 %9, i64* %_Num, align 8, !llfi_index !891
  %10 = load i64* %_Num, align 8, !llfi_index !892
  call void @doProfiling(i32 27)
  %11 = icmp ne i64 %10, 0, !llfi_index !893
  call void @doProfiling(i32 46)
  br i1 %11, label %12, label %19, !llfi_index !894

; <label>:12                                      ; preds = %0
  %13 = load i32** %3, align 8, !llfi_index !895
  call void @doProfiling(i32 27)
  %14 = bitcast i32* %13 to i8*, !llfi_index !896
  call void @doProfiling(i32 44)
  %15 = load i32** %1, align 8, !llfi_index !897
  call void @doProfiling(i32 27)
  %16 = bitcast i32* %15 to i8*, !llfi_index !898
  call void @doProfiling(i32 44)
  %17 = load i64* %_Num, align 8, !llfi_index !899
  call void @doProfiling(i32 27)
  %18 = mul i64 4, %17, !llfi_index !900
  call void @doProfiling(i32 12)
  call void @llvm.memmove.p0i8.p0i8.i64(i8* %14, i8* %16, i64 %18, i32 4, i1 false), !llfi_index !901
  br label %19, !llfi_index !902

; <label>:19                                      ; preds = %12, %0
  %20 = load i32** %3, align 8, !llfi_index !903
  call void @doProfiling(i32 27)
  %21 = load i64* %_Num, align 8, !llfi_index !904
  call void @doProfiling(i32 27)
  %22 = getelementptr inbounds i32* %20, i64 %21, !llfi_index !905
  call void @doProfiling(i32 29)
  ret i32* %22, !llfi_index !906
}

; Function Attrs: nounwind
declare void @llvm.memmove.p0i8.p0i8.i64(i8* nocapture, i8* nocapture readonly, i64, i32, i1) #0

; Function Attrs: nounwind uwtable
define linkonce_odr i32* @_ZNSt16allocator_traitsISaIiEE8allocateERS0_m(%"class.std::allocator"* %__a, i64 %__n) #3 align 2 {
  %1 = alloca %"class.std::allocator"*, align 8, !llfi_index !907
  %2 = alloca i64, align 8, !llfi_index !908
  store %"class.std::allocator"* %__a, %"class.std::allocator"** %1, align 8, !llfi_index !909
  store i64 %__n, i64* %2, align 8, !llfi_index !910
  %3 = load %"class.std::allocator"** %1, align 8, !llfi_index !911
  call void @doProfiling(i32 27)
  %4 = bitcast %"class.std::allocator"* %3 to %"class.__gnu_cxx::new_allocator"*, !llfi_index !912
  call void @doProfiling(i32 44)
  %5 = load i64* %2, align 8, !llfi_index !913
  call void @doProfiling(i32 27)
  %6 = call i32* @_ZN9__gnu_cxx13new_allocatorIiE8allocateEmPKv(%"class.__gnu_cxx::new_allocator"* %4, i64 %5, i8* null), !llfi_index !914
  ret i32* %6, !llfi_index !915
}

; Function Attrs: nounwind uwtable
define linkonce_odr i32* @_ZN9__gnu_cxx13new_allocatorIiE8allocateEmPKv(%"class.__gnu_cxx::new_allocator"* %this, i64 %__n, i8*) #3 align 2 {
  %2 = alloca %"class.__gnu_cxx::new_allocator"*, align 8, !llfi_index !916
  %3 = alloca i64, align 8, !llfi_index !917
  %4 = alloca i8*, align 8, !llfi_index !918
  store %"class.__gnu_cxx::new_allocator"* %this, %"class.__gnu_cxx::new_allocator"** %2, align 8, !llfi_index !919
  store i64 %__n, i64* %3, align 8, !llfi_index !920
  store i8* %0, i8** %4, align 8, !llfi_index !921
  %5 = load %"class.__gnu_cxx::new_allocator"** %2, !llfi_index !922
  call void @doProfiling(i32 27)
  %6 = load i64* %3, align 8, !llfi_index !923
  call void @doProfiling(i32 27)
  %7 = call i64 @_ZNK9__gnu_cxx13new_allocatorIiE8max_sizeEv(%"class.__gnu_cxx::new_allocator"* %5) #0, !llfi_index !924
  %8 = icmp ugt i64 %6, %7, !llfi_index !925
  call void @doProfiling(i32 46)
  br i1 %8, label %9, label %10, !llfi_index !926

; <label>:9                                       ; preds = %1
  call void @_ZSt17__throw_bad_allocv() #9, !llfi_index !927
  unreachable, !llfi_index !928

; <label>:10                                      ; preds = %1
  %11 = load i64* %3, align 8, !llfi_index !929
  call void @doProfiling(i32 27)
  %12 = mul i64 %11, 4, !llfi_index !930
  call void @doProfiling(i32 12)
  %13 = call noalias i8* @_Znwm(i64 %12), !llfi_index !931
  %14 = bitcast i8* %13 to i32*, !llfi_index !932
  call void @doProfiling(i32 44)
  ret i32* %14, !llfi_index !933
}

; Function Attrs: nounwind uwtable
define linkonce_odr i64 @_ZNK9__gnu_cxx13new_allocatorIiE8max_sizeEv(%"class.__gnu_cxx::new_allocator"* %this) #3 align 2 {
  %1 = alloca %"class.__gnu_cxx::new_allocator"*, align 8, !llfi_index !934
  store %"class.__gnu_cxx::new_allocator"* %this, %"class.__gnu_cxx::new_allocator"** %1, align 8, !llfi_index !935
  %2 = load %"class.__gnu_cxx::new_allocator"** %1, !llfi_index !936
  call void @doProfiling(i32 27)
  ret i64 4611686018427387903, !llfi_index !937
}

; Function Attrs: noreturn
declare void @_ZSt17__throw_bad_allocv() #7

; Function Attrs: nounwind uwtable
define linkonce_odr i64 @_ZNKSt6vectorIiSaIiEE8max_sizeEv(%"class.std::vector"* %this) #3 align 2 {
  %1 = alloca %"class.std::vector"*, align 8, !llfi_index !938
  store %"class.std::vector"* %this, %"class.std::vector"** %1, align 8, !llfi_index !939
  %2 = load %"class.std::vector"** %1, !llfi_index !940
  call void @doProfiling(i32 27)
  %3 = bitcast %"class.std::vector"* %2 to %"struct.std::_Vector_base"*, !llfi_index !941
  call void @doProfiling(i32 44)
  %4 = call %"class.std::allocator"* @_ZNKSt12_Vector_baseIiSaIiEE19_M_get_Tp_allocatorEv(%"struct.std::_Vector_base"* %3) #0, !llfi_index !942
  %5 = call i64 @_ZNSt16allocator_traitsISaIiEE8max_sizeERKS0_(%"class.std::allocator"* %4) #0, !llfi_index !943
  ret i64 %5, !llfi_index !944
}

; Function Attrs: noreturn
declare void @_ZSt20__throw_length_errorPKc(i8*) #7

; Function Attrs: inlinehint nounwind uwtable
define linkonce_odr i64* @_ZSt3maxImERKT_S2_S2_(i64* %__a, i64* %__b) #5 {
  %1 = alloca i64*, align 8, !llfi_index !945
  %2 = alloca i64*, align 8, !llfi_index !946
  %3 = alloca i64*, align 8, !llfi_index !947
  store i64* %__a, i64** %2, align 8, !llfi_index !948
  store i64* %__b, i64** %3, align 8, !llfi_index !949
  %4 = load i64** %2, align 8, !llfi_index !950
  call void @doProfiling(i32 27)
  %5 = load i64* %4, align 8, !llfi_index !951
  call void @doProfiling(i32 27)
  %6 = load i64** %3, align 8, !llfi_index !952
  call void @doProfiling(i32 27)
  %7 = load i64* %6, align 8, !llfi_index !953
  call void @doProfiling(i32 27)
  %8 = icmp ult i64 %5, %7, !llfi_index !954
  call void @doProfiling(i32 46)
  br i1 %8, label %9, label %11, !llfi_index !955

; <label>:9                                       ; preds = %0
  %10 = load i64** %3, align 8, !llfi_index !956
  call void @doProfiling(i32 27)
  store i64* %10, i64** %1, !llfi_index !957
  br label %13, !llfi_index !958

; <label>:11                                      ; preds = %0
  %12 = load i64** %2, align 8, !llfi_index !959
  call void @doProfiling(i32 27)
  store i64* %12, i64** %1, !llfi_index !960
  br label %13, !llfi_index !961

; <label>:13                                      ; preds = %11, %9
  %14 = load i64** %1, !llfi_index !962
  call void @doProfiling(i32 27)
  ret i64* %14, !llfi_index !963
}

; Function Attrs: nounwind uwtable
define linkonce_odr i64 @_ZNSt16allocator_traitsISaIiEE8max_sizeERKS0_(%"class.std::allocator"* %__a) #3 align 2 {
  %1 = alloca %"class.std::allocator"*, align 8, !llfi_index !964
  store %"class.std::allocator"* %__a, %"class.std::allocator"** %1, align 8, !llfi_index !965
  %2 = load %"class.std::allocator"** %1, align 8, !llfi_index !966
  call void @doProfiling(i32 27)
  %3 = bitcast %"class.std::allocator"* %2 to %"class.__gnu_cxx::new_allocator"*, !llfi_index !967
  call void @doProfiling(i32 44)
  %4 = call i64 @_ZNK9__gnu_cxx13new_allocatorIiE8max_sizeEv(%"class.__gnu_cxx::new_allocator"* %3) #0, !llfi_index !968
  ret i64 %4, !llfi_index !969
}

; Function Attrs: nounwind uwtable
define linkonce_odr %"class.std::allocator"* @_ZNKSt12_Vector_baseIiSaIiEE19_M_get_Tp_allocatorEv(%"struct.std::_Vector_base"* %this) #3 align 2 {
  %1 = alloca %"struct.std::_Vector_base"*, align 8, !llfi_index !970
  store %"struct.std::_Vector_base"* %this, %"struct.std::_Vector_base"** %1, align 8, !llfi_index !971
  %2 = load %"struct.std::_Vector_base"** %1, !llfi_index !972
  call void @doProfiling(i32 27)
  %3 = getelementptr inbounds %"struct.std::_Vector_base"* %2, i32 0, i32 0, !llfi_index !973
  call void @doProfiling(i32 29)
  %4 = bitcast %"struct.std::_Vector_base<int, std::allocator<int> >::_Vector_impl"* %3 to %"class.std::allocator"*, !llfi_index !974
  call void @doProfiling(i32 44)
  ret %"class.std::allocator"* %4, !llfi_index !975
}

; Function Attrs: nounwind uwtable
define linkonce_odr void @_ZN9__gnu_cxx13new_allocatorIiE9constructIiJRKiEEEvPT_DpOT0_(%"class.__gnu_cxx::new_allocator"* %this, i32* %__p, i32* %__args) #3 align 2 {
  %1 = alloca %"class.__gnu_cxx::new_allocator"*, align 8, !llfi_index !976
  %2 = alloca i32*, align 8, !llfi_index !977
  %3 = alloca i32*, align 8, !llfi_index !978
  store %"class.__gnu_cxx::new_allocator"* %this, %"class.__gnu_cxx::new_allocator"** %1, align 8, !llfi_index !979
  store i32* %__p, i32** %2, align 8, !llfi_index !980
  store i32* %__args, i32** %3, align 8, !llfi_index !981
  %4 = load %"class.__gnu_cxx::new_allocator"** %1, !llfi_index !982
  call void @doProfiling(i32 27)
  %5 = load i32** %2, align 8, !llfi_index !983
  call void @doProfiling(i32 27)
  %6 = bitcast i32* %5 to i8*, !llfi_index !984
  call void @doProfiling(i32 44)
  %7 = icmp eq i8* %6, null, !llfi_index !985
  call void @doProfiling(i32 46)
  br i1 %7, label %13, label %8, !llfi_index !986

; <label>:8                                       ; preds = %0
  %9 = bitcast i8* %6 to i32*, !llfi_index !987
  call void @doProfiling(i32 44)
  %10 = load i32** %3, align 8, !llfi_index !988
  call void @doProfiling(i32 27)
  %11 = call i32* @_ZSt7forwardIRKiEOT_RNSt16remove_referenceIS2_E4typeE(i32* %10) #0, !llfi_index !989
  %12 = load i32* %11, !llfi_index !990
  call void @doProfiling(i32 27)
  store i32 %12, i32* %9, align 4, !llfi_index !991
  br label %13, !llfi_index !992

; <label>:13                                      ; preds = %8, %0
  %14 = phi i32* [ %9, %8 ], [ null, %0 ], !llfi_index !993
  ret void, !llfi_index !994
}

; Function Attrs: nounwind
define internal void @_GLOBAL__I_a() #0 section ".text.startup" {
  call void @__cxx_global_var_init(), !llfi_index !995
  ret void, !llfi_index !996
}

declare void @doProfiling(i32)

declare void @endProfiling()

attributes #0 = { nounwind }
attributes #1 = { "less-precise-fpmad"="false" "no-frame-pointer-elim"="true" "no-frame-pointer-elim-non-leaf" "no-infs-fp-math"="false" "no-nans-fp-math"="false" "stack-protector-buffer-size"="8" "unsafe-fp-math"="false" "use-soft-float"="false" }
attributes #2 = { nounwind "less-precise-fpmad"="false" "no-frame-pointer-elim"="true" "no-frame-pointer-elim-non-leaf" "no-infs-fp-math"="false" "no-nans-fp-math"="false" "stack-protector-buffer-size"="8" "unsafe-fp-math"="false" "use-soft-float"="false" }
attributes #3 = { nounwind uwtable "less-precise-fpmad"="false" "no-frame-pointer-elim"="true" "no-frame-pointer-elim-non-leaf" "no-infs-fp-math"="false" "no-nans-fp-math"="false" "stack-protector-buffer-size"="8" "unsafe-fp-math"="false" "use-soft-float"="false" }
attributes #4 = { nobuiltin "less-precise-fpmad"="false" "no-frame-pointer-elim"="true" "no-frame-pointer-elim-non-leaf" "no-infs-fp-math"="false" "no-nans-fp-math"="false" "stack-protector-buffer-size"="8" "unsafe-fp-math"="false" "use-soft-float"="false" }
attributes #5 = { inlinehint nounwind uwtable "less-precise-fpmad"="false" "no-frame-pointer-elim"="true" "no-frame-pointer-elim-non-leaf" "no-infs-fp-math"="false" "no-nans-fp-math"="false" "stack-protector-buffer-size"="8" "unsafe-fp-math"="false" "use-soft-float"="false" }
attributes #6 = { nobuiltin nounwind "less-precise-fpmad"="false" "no-frame-pointer-elim"="true" "no-frame-pointer-elim-non-leaf" "no-infs-fp-math"="false" "no-nans-fp-math"="false" "stack-protector-buffer-size"="8" "unsafe-fp-math"="false" "use-soft-float"="false" }
attributes #7 = { noreturn "less-precise-fpmad"="false" "no-frame-pointer-elim"="true" "no-frame-pointer-elim-non-leaf" "no-infs-fp-math"="false" "no-nans-fp-math"="false" "stack-protector-buffer-size"="8" "unsafe-fp-math"="false" "use-soft-float"="false" }
attributes #8 = { builtin }
attributes #9 = { noreturn }

!llvm.ident = !{!0}

!0 = metadata !{metadata !"clang version 3.4 (tags/RELEASE_34/final)"}
!1 = metadata !{i64 1}
!2 = metadata !{i64 2}
!3 = metadata !{i64 3}
!4 = metadata !{i64 4}
!5 = metadata !{i64 5}
!6 = metadata !{i64 6}
!7 = metadata !{i64 7}
!8 = metadata !{i64 8}
!9 = metadata !{i64 9}
!10 = metadata !{i64 10}
!11 = metadata !{i64 11}
!12 = metadata !{i64 12}
!13 = metadata !{i64 13}
!14 = metadata !{i64 14}
!15 = metadata !{i64 15}
!16 = metadata !{i64 16}
!17 = metadata !{i64 17}
!18 = metadata !{i64 18}
!19 = metadata !{i64 19}
!20 = metadata !{i64 20}
!21 = metadata !{i64 21}
!22 = metadata !{i64 22}
!23 = metadata !{i64 23}
!24 = metadata !{i64 24}
!25 = metadata !{i64 25}
!26 = metadata !{i64 26}
!27 = metadata !{i64 27}
!28 = metadata !{i64 28}
!29 = metadata !{i64 29}
!30 = metadata !{i64 30}
!31 = metadata !{i64 31}
!32 = metadata !{i64 32}
!33 = metadata !{i64 33}
!34 = metadata !{i64 34}
!35 = metadata !{i64 35}
!36 = metadata !{i64 36}
!37 = metadata !{i64 37}
!38 = metadata !{i64 38}
!39 = metadata !{i64 39}
!40 = metadata !{i64 40}
!41 = metadata !{i64 41}
!42 = metadata !{i64 42}
!43 = metadata !{i64 43}
!44 = metadata !{i64 44}
!45 = metadata !{i64 45}
!46 = metadata !{i64 46}
!47 = metadata !{i64 47}
!48 = metadata !{i64 48}
!49 = metadata !{i64 49}
!50 = metadata !{i64 50}
!51 = metadata !{i64 51}
!52 = metadata !{i64 52}
!53 = metadata !{i64 53}
!54 = metadata !{i64 54}
!55 = metadata !{i64 55}
!56 = metadata !{i64 56}
!57 = metadata !{i64 57}
!58 = metadata !{i64 58}
!59 = metadata !{i64 59}
!60 = metadata !{i64 60}
!61 = metadata !{i64 61}
!62 = metadata !{i64 62}
!63 = metadata !{i64 63}
!64 = metadata !{i64 64}
!65 = metadata !{i64 65}
!66 = metadata !{i64 66}
!67 = metadata !{i64 67}
!68 = metadata !{i64 68}
!69 = metadata !{i64 69}
!70 = metadata !{i64 70}
!71 = metadata !{i64 71}
!72 = metadata !{i64 72}
!73 = metadata !{i64 73}
!74 = metadata !{i64 74}
!75 = metadata !{i64 75}
!76 = metadata !{i64 76}
!77 = metadata !{i64 77}
!78 = metadata !{i64 78}
!79 = metadata !{i64 79}
!80 = metadata !{i64 80}
!81 = metadata !{i64 81}
!82 = metadata !{i64 82}
!83 = metadata !{i64 83}
!84 = metadata !{i64 84}
!85 = metadata !{i64 85}
!86 = metadata !{i64 86}
!87 = metadata !{i64 87}
!88 = metadata !{i64 88}
!89 = metadata !{i64 89}
!90 = metadata !{i64 90}
!91 = metadata !{i64 91}
!92 = metadata !{i64 92}
!93 = metadata !{i64 93}
!94 = metadata !{i64 94}
!95 = metadata !{i64 95}
!96 = metadata !{i64 96}
!97 = metadata !{i64 97}
!98 = metadata !{i64 98}
!99 = metadata !{i64 99}
!100 = metadata !{i64 100}
!101 = metadata !{i64 101}
!102 = metadata !{i64 102}
!103 = metadata !{i64 103}
!104 = metadata !{i64 104}
!105 = metadata !{i64 105}
!106 = metadata !{i64 106}
!107 = metadata !{i64 107}
!108 = metadata !{i64 108}
!109 = metadata !{i64 109}
!110 = metadata !{i64 110}
!111 = metadata !{i64 111}
!112 = metadata !{i64 112}
!113 = metadata !{i64 113}
!114 = metadata !{i64 114}
!115 = metadata !{i64 115}
!116 = metadata !{i64 116}
!117 = metadata !{i64 117}
!118 = metadata !{i64 118}
!119 = metadata !{i64 119}
!120 = metadata !{i64 120}
!121 = metadata !{i64 121}
!122 = metadata !{i64 122}
!123 = metadata !{i64 123}
!124 = metadata !{i64 124}
!125 = metadata !{i64 125}
!126 = metadata !{i64 126}
!127 = metadata !{i64 127}
!128 = metadata !{i64 128}
!129 = metadata !{i64 129}
!130 = metadata !{i64 130}
!131 = metadata !{i64 131}
!132 = metadata !{i64 132}
!133 = metadata !{i64 133}
!134 = metadata !{i64 134}
!135 = metadata !{i64 135}
!136 = metadata !{i64 136}
!137 = metadata !{i64 137}
!138 = metadata !{i64 138}
!139 = metadata !{i64 139}
!140 = metadata !{i64 140}
!141 = metadata !{i64 141}
!142 = metadata !{i64 142}
!143 = metadata !{i64 143}
!144 = metadata !{i64 144}
!145 = metadata !{i64 145}
!146 = metadata !{i64 146}
!147 = metadata !{i64 147}
!148 = metadata !{i64 148}
!149 = metadata !{i64 149}
!150 = metadata !{i64 150}
!151 = metadata !{i64 151}
!152 = metadata !{i64 152}
!153 = metadata !{i64 153}
!154 = metadata !{i64 154}
!155 = metadata !{i64 155}
!156 = metadata !{i64 156}
!157 = metadata !{i64 157}
!158 = metadata !{i64 158}
!159 = metadata !{i64 159}
!160 = metadata !{i64 160}
!161 = metadata !{i64 161}
!162 = metadata !{i64 162}
!163 = metadata !{i64 163}
!164 = metadata !{i64 164}
!165 = metadata !{i64 165}
!166 = metadata !{i64 166}
!167 = metadata !{i64 167}
!168 = metadata !{i64 168}
!169 = metadata !{i64 169}
!170 = metadata !{i64 170}
!171 = metadata !{i64 171}
!172 = metadata !{i64 172}
!173 = metadata !{i64 173}
!174 = metadata !{i64 174}
!175 = metadata !{i64 175}
!176 = metadata !{i64 176}
!177 = metadata !{i64 177}
!178 = metadata !{i64 178}
!179 = metadata !{i64 179}
!180 = metadata !{i64 180}
!181 = metadata !{i64 181}
!182 = metadata !{i64 182}
!183 = metadata !{i64 183}
!184 = metadata !{i64 184}
!185 = metadata !{i64 185}
!186 = metadata !{i64 186}
!187 = metadata !{i64 187}
!188 = metadata !{i64 188}
!189 = metadata !{i64 189}
!190 = metadata !{i64 190}
!191 = metadata !{i64 191}
!192 = metadata !{i64 192}
!193 = metadata !{i64 193}
!194 = metadata !{i64 194}
!195 = metadata !{i64 195}
!196 = metadata !{i64 196}
!197 = metadata !{i64 197}
!198 = metadata !{i64 198}
!199 = metadata !{i64 199}
!200 = metadata !{i64 200}
!201 = metadata !{i64 201}
!202 = metadata !{i64 202}
!203 = metadata !{i64 203}
!204 = metadata !{i64 204}
!205 = metadata !{i64 205}
!206 = metadata !{i64 206}
!207 = metadata !{i64 207}
!208 = metadata !{i64 208}
!209 = metadata !{i64 209}
!210 = metadata !{i64 210}
!211 = metadata !{i64 211}
!212 = metadata !{i64 212}
!213 = metadata !{i64 213}
!214 = metadata !{i64 214}
!215 = metadata !{i64 215}
!216 = metadata !{i64 216}
!217 = metadata !{i64 217}
!218 = metadata !{i64 218}
!219 = metadata !{i64 219}
!220 = metadata !{i64 220}
!221 = metadata !{i64 221}
!222 = metadata !{i64 222}
!223 = metadata !{i64 223}
!224 = metadata !{i64 224}
!225 = metadata !{i64 225}
!226 = metadata !{i64 226}
!227 = metadata !{i64 227}
!228 = metadata !{i64 228}
!229 = metadata !{i64 229}
!230 = metadata !{i64 230}
!231 = metadata !{i64 231}
!232 = metadata !{i64 232}
!233 = metadata !{i64 233}
!234 = metadata !{i64 234}
!235 = metadata !{i64 235}
!236 = metadata !{i64 236}
!237 = metadata !{i64 237}
!238 = metadata !{i64 238}
!239 = metadata !{i64 239}
!240 = metadata !{i64 240}
!241 = metadata !{i64 241}
!242 = metadata !{i64 242}
!243 = metadata !{i64 243}
!244 = metadata !{i64 244}
!245 = metadata !{i64 245}
!246 = metadata !{i64 246}
!247 = metadata !{i64 247}
!248 = metadata !{i64 248}
!249 = metadata !{i64 249}
!250 = metadata !{i64 250}
!251 = metadata !{i64 251}
!252 = metadata !{i64 252}
!253 = metadata !{i64 253}
!254 = metadata !{i64 254}
!255 = metadata !{i64 255}
!256 = metadata !{i64 256}
!257 = metadata !{i64 257}
!258 = metadata !{i64 258}
!259 = metadata !{i64 259}
!260 = metadata !{i64 260}
!261 = metadata !{i64 261}
!262 = metadata !{i64 262}
!263 = metadata !{i64 263}
!264 = metadata !{i64 264}
!265 = metadata !{i64 265}
!266 = metadata !{i64 266}
!267 = metadata !{i64 267}
!268 = metadata !{i64 268}
!269 = metadata !{i64 269}
!270 = metadata !{i64 270}
!271 = metadata !{i64 271}
!272 = metadata !{i64 272}
!273 = metadata !{i64 273}
!274 = metadata !{i64 274}
!275 = metadata !{i64 275}
!276 = metadata !{i64 276}
!277 = metadata !{i64 277}
!278 = metadata !{i64 278}
!279 = metadata !{i64 279}
!280 = metadata !{i64 280}
!281 = metadata !{i64 281}
!282 = metadata !{i64 282}
!283 = metadata !{i64 283}
!284 = metadata !{i64 284}
!285 = metadata !{i64 285}
!286 = metadata !{i64 286}
!287 = metadata !{i64 287}
!288 = metadata !{i64 288}
!289 = metadata !{i64 289}
!290 = metadata !{i64 290}
!291 = metadata !{i64 291}
!292 = metadata !{i64 292}
!293 = metadata !{i64 293}
!294 = metadata !{i64 294}
!295 = metadata !{i64 295}
!296 = metadata !{i64 296}
!297 = metadata !{i64 297}
!298 = metadata !{i64 298}
!299 = metadata !{i64 299}
!300 = metadata !{i64 300}
!301 = metadata !{i64 301}
!302 = metadata !{i64 302}
!303 = metadata !{i64 303}
!304 = metadata !{i64 304}
!305 = metadata !{i64 305}
!306 = metadata !{i64 306}
!307 = metadata !{i64 307}
!308 = metadata !{i64 308}
!309 = metadata !{i64 309}
!310 = metadata !{i64 310}
!311 = metadata !{i64 311}
!312 = metadata !{i64 312}
!313 = metadata !{i64 313}
!314 = metadata !{i64 314}
!315 = metadata !{i64 315}
!316 = metadata !{i64 316}
!317 = metadata !{i64 317}
!318 = metadata !{i64 318}
!319 = metadata !{i64 319}
!320 = metadata !{i64 320}
!321 = metadata !{i64 321}
!322 = metadata !{i64 322}
!323 = metadata !{i64 323}
!324 = metadata !{i64 324}
!325 = metadata !{i64 325}
!326 = metadata !{i64 326}
!327 = metadata !{i64 327}
!328 = metadata !{i64 328}
!329 = metadata !{i64 329}
!330 = metadata !{i64 330}
!331 = metadata !{i64 331}
!332 = metadata !{i64 332}
!333 = metadata !{i64 333}
!334 = metadata !{i64 334}
!335 = metadata !{i64 335}
!336 = metadata !{i64 336}
!337 = metadata !{i64 337}
!338 = metadata !{i64 338}
!339 = metadata !{i64 339}
!340 = metadata !{i64 340}
!341 = metadata !{i64 341}
!342 = metadata !{i64 342}
!343 = metadata !{i64 343}
!344 = metadata !{i64 344}
!345 = metadata !{i64 345}
!346 = metadata !{i64 346}
!347 = metadata !{i64 347}
!348 = metadata !{i64 348}
!349 = metadata !{i64 349}
!350 = metadata !{i64 350}
!351 = metadata !{i64 351}
!352 = metadata !{i64 352}
!353 = metadata !{i64 353}
!354 = metadata !{i64 354}
!355 = metadata !{i64 355}
!356 = metadata !{i64 356}
!357 = metadata !{i64 357}
!358 = metadata !{i64 358}
!359 = metadata !{i64 359}
!360 = metadata !{i64 360}
!361 = metadata !{i64 361}
!362 = metadata !{i64 362}
!363 = metadata !{i64 363}
!364 = metadata !{i64 364}
!365 = metadata !{i64 365}
!366 = metadata !{i64 366}
!367 = metadata !{i64 367}
!368 = metadata !{i64 368}
!369 = metadata !{i64 369}
!370 = metadata !{i64 370}
!371 = metadata !{i64 371}
!372 = metadata !{i64 372}
!373 = metadata !{i64 373}
!374 = metadata !{i64 374}
!375 = metadata !{i64 375}
!376 = metadata !{i64 376}
!377 = metadata !{i64 377}
!378 = metadata !{i64 378}
!379 = metadata !{i64 379}
!380 = metadata !{i64 380}
!381 = metadata !{i64 381}
!382 = metadata !{i64 382}
!383 = metadata !{i64 383}
!384 = metadata !{i64 384}
!385 = metadata !{i64 385}
!386 = metadata !{i64 386}
!387 = metadata !{i64 387}
!388 = metadata !{i64 388}
!389 = metadata !{i64 389}
!390 = metadata !{i64 390}
!391 = metadata !{i64 391}
!392 = metadata !{i64 392}
!393 = metadata !{i64 393}
!394 = metadata !{i64 394}
!395 = metadata !{i64 395}
!396 = metadata !{i64 396}
!397 = metadata !{i64 397}
!398 = metadata !{i64 398}
!399 = metadata !{i64 399}
!400 = metadata !{i64 400}
!401 = metadata !{i64 401}
!402 = metadata !{i64 402}
!403 = metadata !{i64 403}
!404 = metadata !{i64 404}
!405 = metadata !{i64 405}
!406 = metadata !{i64 406}
!407 = metadata !{i64 407}
!408 = metadata !{i64 408}
!409 = metadata !{i64 409}
!410 = metadata !{i64 410}
!411 = metadata !{i64 411}
!412 = metadata !{i64 412}
!413 = metadata !{i64 413}
!414 = metadata !{i64 414}
!415 = metadata !{i64 415}
!416 = metadata !{i64 416}
!417 = metadata !{i64 417}
!418 = metadata !{i64 418}
!419 = metadata !{i64 419}
!420 = metadata !{i64 420}
!421 = metadata !{i64 421}
!422 = metadata !{i64 422}
!423 = metadata !{i64 423}
!424 = metadata !{i64 424}
!425 = metadata !{i64 425}
!426 = metadata !{i64 426}
!427 = metadata !{i64 427}
!428 = metadata !{i64 428}
!429 = metadata !{i64 429}
!430 = metadata !{i64 430}
!431 = metadata !{i64 431}
!432 = metadata !{i64 432}
!433 = metadata !{i64 433}
!434 = metadata !{i64 434}
!435 = metadata !{i64 435}
!436 = metadata !{i64 436}
!437 = metadata !{i64 437}
!438 = metadata !{i64 438}
!439 = metadata !{i64 439}
!440 = metadata !{i64 440}
!441 = metadata !{i64 441}
!442 = metadata !{i64 442}
!443 = metadata !{i64 443}
!444 = metadata !{i64 444}
!445 = metadata !{i64 445}
!446 = metadata !{i64 446}
!447 = metadata !{i64 447}
!448 = metadata !{i64 448}
!449 = metadata !{i64 449}
!450 = metadata !{i64 450}
!451 = metadata !{i64 451}
!452 = metadata !{i64 452}
!453 = metadata !{i64 453}
!454 = metadata !{i64 454}
!455 = metadata !{i64 455}
!456 = metadata !{i64 456}
!457 = metadata !{i64 457}
!458 = metadata !{i64 458}
!459 = metadata !{i64 459}
!460 = metadata !{i64 460}
!461 = metadata !{i64 461}
!462 = metadata !{i64 462}
!463 = metadata !{i64 463}
!464 = metadata !{i64 464}
!465 = metadata !{i64 465}
!466 = metadata !{i64 466}
!467 = metadata !{i64 467}
!468 = metadata !{i64 468}
!469 = metadata !{i64 469}
!470 = metadata !{i64 470}
!471 = metadata !{i64 471}
!472 = metadata !{i64 472}
!473 = metadata !{i64 473}
!474 = metadata !{i64 474}
!475 = metadata !{i64 475}
!476 = metadata !{i64 476}
!477 = metadata !{i64 477}
!478 = metadata !{i64 478}
!479 = metadata !{i64 479}
!480 = metadata !{i64 480}
!481 = metadata !{i64 481}
!482 = metadata !{i64 482}
!483 = metadata !{i64 483}
!484 = metadata !{i64 484}
!485 = metadata !{i64 485}
!486 = metadata !{i64 486}
!487 = metadata !{i64 487}
!488 = metadata !{i64 488}
!489 = metadata !{i64 489}
!490 = metadata !{i64 490}
!491 = metadata !{i64 491}
!492 = metadata !{i64 492}
!493 = metadata !{i64 493}
!494 = metadata !{i64 494}
!495 = metadata !{i64 495}
!496 = metadata !{i64 496}
!497 = metadata !{i64 497}
!498 = metadata !{i64 498}
!499 = metadata !{i64 499}
!500 = metadata !{i64 500}
!501 = metadata !{i64 501}
!502 = metadata !{i64 502}
!503 = metadata !{i64 503}
!504 = metadata !{i64 504}
!505 = metadata !{i64 505}
!506 = metadata !{i64 506}
!507 = metadata !{i64 507}
!508 = metadata !{i64 508}
!509 = metadata !{i64 509}
!510 = metadata !{i64 510}
!511 = metadata !{i64 511}
!512 = metadata !{i64 512}
!513 = metadata !{i64 513}
!514 = metadata !{i64 514}
!515 = metadata !{i64 515}
!516 = metadata !{i64 516}
!517 = metadata !{i64 517}
!518 = metadata !{i64 518}
!519 = metadata !{i64 519}
!520 = metadata !{i64 520}
!521 = metadata !{i64 521}
!522 = metadata !{i64 522}
!523 = metadata !{i64 523}
!524 = metadata !{i64 524}
!525 = metadata !{i64 525}
!526 = metadata !{i64 526}
!527 = metadata !{i64 527}
!528 = metadata !{i64 528}
!529 = metadata !{i64 529}
!530 = metadata !{i64 530}
!531 = metadata !{i64 531}
!532 = metadata !{i64 532}
!533 = metadata !{i64 533}
!534 = metadata !{i64 534}
!535 = metadata !{i64 535}
!536 = metadata !{i64 536}
!537 = metadata !{i64 537}
!538 = metadata !{i64 538}
!539 = metadata !{i64 539}
!540 = metadata !{i64 540}
!541 = metadata !{i64 541}
!542 = metadata !{i64 542}
!543 = metadata !{i64 543}
!544 = metadata !{i64 544}
!545 = metadata !{i64 545}
!546 = metadata !{i64 546}
!547 = metadata !{i64 547}
!548 = metadata !{i64 548}
!549 = metadata !{i64 549}
!550 = metadata !{i64 550}
!551 = metadata !{i64 551}
!552 = metadata !{i64 552}
!553 = metadata !{i64 553}
!554 = metadata !{i64 554}
!555 = metadata !{i64 555}
!556 = metadata !{i64 556}
!557 = metadata !{i64 557}
!558 = metadata !{i64 558}
!559 = metadata !{i64 559}
!560 = metadata !{i64 560}
!561 = metadata !{i64 561}
!562 = metadata !{i64 562}
!563 = metadata !{i64 563}
!564 = metadata !{i64 564}
!565 = metadata !{i64 565}
!566 = metadata !{i64 566}
!567 = metadata !{i64 567}
!568 = metadata !{i64 568}
!569 = metadata !{i64 569}
!570 = metadata !{i64 570}
!571 = metadata !{i64 571}
!572 = metadata !{i64 572}
!573 = metadata !{i64 573}
!574 = metadata !{i64 574}
!575 = metadata !{i64 575}
!576 = metadata !{i64 576}
!577 = metadata !{i64 577}
!578 = metadata !{i64 578}
!579 = metadata !{i64 579}
!580 = metadata !{i64 580}
!581 = metadata !{i64 581}
!582 = metadata !{i64 582}
!583 = metadata !{i64 583}
!584 = metadata !{i64 584}
!585 = metadata !{i64 585}
!586 = metadata !{i64 586}
!587 = metadata !{i64 587}
!588 = metadata !{i64 588}
!589 = metadata !{i64 589}
!590 = metadata !{i64 590}
!591 = metadata !{i64 591}
!592 = metadata !{i64 592}
!593 = metadata !{i64 593}
!594 = metadata !{i64 594}
!595 = metadata !{i64 595}
!596 = metadata !{i64 596}
!597 = metadata !{i64 597}
!598 = metadata !{i64 598}
!599 = metadata !{i64 599}
!600 = metadata !{i64 600}
!601 = metadata !{i64 601}
!602 = metadata !{i64 602}
!603 = metadata !{i64 603}
!604 = metadata !{i64 604}
!605 = metadata !{i64 605}
!606 = metadata !{i64 606}
!607 = metadata !{i64 607}
!608 = metadata !{i64 608}
!609 = metadata !{i64 609}
!610 = metadata !{i64 610}
!611 = metadata !{i64 611}
!612 = metadata !{i64 612}
!613 = metadata !{i64 613}
!614 = metadata !{i64 614}
!615 = metadata !{i64 615}
!616 = metadata !{i64 616}
!617 = metadata !{i64 617}
!618 = metadata !{i64 618}
!619 = metadata !{i64 619}
!620 = metadata !{i64 620}
!621 = metadata !{i64 621}
!622 = metadata !{i64 622}
!623 = metadata !{i64 623}
!624 = metadata !{i64 624}
!625 = metadata !{i64 625}
!626 = metadata !{i64 626}
!627 = metadata !{i64 627}
!628 = metadata !{i64 628}
!629 = metadata !{i64 629}
!630 = metadata !{i64 630}
!631 = metadata !{i64 631}
!632 = metadata !{i64 632}
!633 = metadata !{i64 633}
!634 = metadata !{i64 634}
!635 = metadata !{i64 635}
!636 = metadata !{i64 636}
!637 = metadata !{i64 637}
!638 = metadata !{i64 638}
!639 = metadata !{i64 639}
!640 = metadata !{i64 640}
!641 = metadata !{i64 641}
!642 = metadata !{i64 642}
!643 = metadata !{i64 643}
!644 = metadata !{i64 644}
!645 = metadata !{i64 645}
!646 = metadata !{i64 646}
!647 = metadata !{i64 647}
!648 = metadata !{i64 648}
!649 = metadata !{i64 649}
!650 = metadata !{i64 650}
!651 = metadata !{i64 651}
!652 = metadata !{i64 652}
!653 = metadata !{i64 653}
!654 = metadata !{i64 654}
!655 = metadata !{i64 655}
!656 = metadata !{i64 656}
!657 = metadata !{i64 657}
!658 = metadata !{i64 658}
!659 = metadata !{i64 659}
!660 = metadata !{i64 660}
!661 = metadata !{i64 661}
!662 = metadata !{i64 662}
!663 = metadata !{i64 663}
!664 = metadata !{i64 664}
!665 = metadata !{i64 665}
!666 = metadata !{i64 666}
!667 = metadata !{i64 667}
!668 = metadata !{i64 668}
!669 = metadata !{i64 669}
!670 = metadata !{i64 670}
!671 = metadata !{i64 671}
!672 = metadata !{i64 672}
!673 = metadata !{i64 673}
!674 = metadata !{i64 674}
!675 = metadata !{i64 675}
!676 = metadata !{i64 676}
!677 = metadata !{i64 677}
!678 = metadata !{i64 678}
!679 = metadata !{i64 679}
!680 = metadata !{i64 680}
!681 = metadata !{i64 681}
!682 = metadata !{i64 682}
!683 = metadata !{i64 683}
!684 = metadata !{i64 684}
!685 = metadata !{i64 685}
!686 = metadata !{i64 686}
!687 = metadata !{i64 687}
!688 = metadata !{i64 688}
!689 = metadata !{i64 689}
!690 = metadata !{i64 690}
!691 = metadata !{i64 691}
!692 = metadata !{i64 692}
!693 = metadata !{i64 693}
!694 = metadata !{i64 694}
!695 = metadata !{i64 695}
!696 = metadata !{i64 696}
!697 = metadata !{i64 697}
!698 = metadata !{i64 698}
!699 = metadata !{i64 699}
!700 = metadata !{i64 700}
!701 = metadata !{i64 701}
!702 = metadata !{i64 702}
!703 = metadata !{i64 703}
!704 = metadata !{i64 704}
!705 = metadata !{i64 705}
!706 = metadata !{i64 706}
!707 = metadata !{i64 707}
!708 = metadata !{i64 708}
!709 = metadata !{i64 709}
!710 = metadata !{i64 710}
!711 = metadata !{i64 711}
!712 = metadata !{i64 712}
!713 = metadata !{i64 713}
!714 = metadata !{i64 714}
!715 = metadata !{i64 715}
!716 = metadata !{i64 716}
!717 = metadata !{i64 717}
!718 = metadata !{i64 718}
!719 = metadata !{i64 719}
!720 = metadata !{i64 720}
!721 = metadata !{i64 721}
!722 = metadata !{i64 722}
!723 = metadata !{i64 723}
!724 = metadata !{i64 724}
!725 = metadata !{i64 725}
!726 = metadata !{i64 726}
!727 = metadata !{i64 727}
!728 = metadata !{i64 728}
!729 = metadata !{i64 729}
!730 = metadata !{i64 730}
!731 = metadata !{i64 731}
!732 = metadata !{i64 732}
!733 = metadata !{i64 733}
!734 = metadata !{i64 734}
!735 = metadata !{i64 735}
!736 = metadata !{i64 736}
!737 = metadata !{i64 737}
!738 = metadata !{i64 738}
!739 = metadata !{i64 739}
!740 = metadata !{i64 740}
!741 = metadata !{i64 741}
!742 = metadata !{i64 742}
!743 = metadata !{i64 743}
!744 = metadata !{i64 744}
!745 = metadata !{i64 745}
!746 = metadata !{i64 746}
!747 = metadata !{i64 747}
!748 = metadata !{i64 748}
!749 = metadata !{i64 749}
!750 = metadata !{i64 750}
!751 = metadata !{i64 751}
!752 = metadata !{i64 752}
!753 = metadata !{i64 753}
!754 = metadata !{i64 754}
!755 = metadata !{i64 755}
!756 = metadata !{i64 756}
!757 = metadata !{i64 757}
!758 = metadata !{i64 758}
!759 = metadata !{i64 759}
!760 = metadata !{i64 760}
!761 = metadata !{i64 761}
!762 = metadata !{i64 762}
!763 = metadata !{i64 763}
!764 = metadata !{i64 764}
!765 = metadata !{i64 765}
!766 = metadata !{i64 766}
!767 = metadata !{i64 767}
!768 = metadata !{i64 768}
!769 = metadata !{i64 769}
!770 = metadata !{i64 770}
!771 = metadata !{i64 771}
!772 = metadata !{i64 772}
!773 = metadata !{i64 773}
!774 = metadata !{i64 774}
!775 = metadata !{i64 775}
!776 = metadata !{i64 776}
!777 = metadata !{i64 777}
!778 = metadata !{i64 778}
!779 = metadata !{i64 779}
!780 = metadata !{i64 780}
!781 = metadata !{i64 781}
!782 = metadata !{i64 782}
!783 = metadata !{i64 783}
!784 = metadata !{i64 784}
!785 = metadata !{i64 785}
!786 = metadata !{i64 786}
!787 = metadata !{i64 787}
!788 = metadata !{i64 788}
!789 = metadata !{i64 789}
!790 = metadata !{i64 790}
!791 = metadata !{i64 791}
!792 = metadata !{i64 792}
!793 = metadata !{i64 793}
!794 = metadata !{i64 794}
!795 = metadata !{i64 795}
!796 = metadata !{i64 796}
!797 = metadata !{i64 797}
!798 = metadata !{i64 798}
!799 = metadata !{i64 799}
!800 = metadata !{i64 800}
!801 = metadata !{i64 801}
!802 = metadata !{i64 802}
!803 = metadata !{i64 803}
!804 = metadata !{i64 804}
!805 = metadata !{i64 805}
!806 = metadata !{i64 806}
!807 = metadata !{i64 807}
!808 = metadata !{i64 808}
!809 = metadata !{i64 809}
!810 = metadata !{i64 810}
!811 = metadata !{i64 811}
!812 = metadata !{i64 812}
!813 = metadata !{i64 813}
!814 = metadata !{i64 814}
!815 = metadata !{i64 815}
!816 = metadata !{i64 816}
!817 = metadata !{i64 817}
!818 = metadata !{i64 818}
!819 = metadata !{i64 819}
!820 = metadata !{i64 820}
!821 = metadata !{i64 821}
!822 = metadata !{i64 822}
!823 = metadata !{i64 823}
!824 = metadata !{i64 824}
!825 = metadata !{i64 825}
!826 = metadata !{i64 826}
!827 = metadata !{i64 827}
!828 = metadata !{i64 828}
!829 = metadata !{i64 829}
!830 = metadata !{i64 830}
!831 = metadata !{i64 831}
!832 = metadata !{i64 832}
!833 = metadata !{i64 833}
!834 = metadata !{i64 834}
!835 = metadata !{i64 835}
!836 = metadata !{i64 836}
!837 = metadata !{i64 837}
!838 = metadata !{i64 838}
!839 = metadata !{i64 839}
!840 = metadata !{i64 840}
!841 = metadata !{i64 841}
!842 = metadata !{i64 842}
!843 = metadata !{i64 843}
!844 = metadata !{i64 844}
!845 = metadata !{i64 845}
!846 = metadata !{i64 846}
!847 = metadata !{i64 847}
!848 = metadata !{i64 848}
!849 = metadata !{i64 849}
!850 = metadata !{i64 850}
!851 = metadata !{i64 851}
!852 = metadata !{i64 852}
!853 = metadata !{i64 853}
!854 = metadata !{i64 854}
!855 = metadata !{i64 855}
!856 = metadata !{i64 856}
!857 = metadata !{i64 857}
!858 = metadata !{i64 858}
!859 = metadata !{i64 859}
!860 = metadata !{i64 860}
!861 = metadata !{i64 861}
!862 = metadata !{i64 862}
!863 = metadata !{i64 863}
!864 = metadata !{i64 864}
!865 = metadata !{i64 865}
!866 = metadata !{i64 866}
!867 = metadata !{i64 867}
!868 = metadata !{i64 868}
!869 = metadata !{i64 869}
!870 = metadata !{i64 870}
!871 = metadata !{i64 871}
!872 = metadata !{i64 872}
!873 = metadata !{i64 873}
!874 = metadata !{i64 874}
!875 = metadata !{i64 875}
!876 = metadata !{i64 876}
!877 = metadata !{i64 877}
!878 = metadata !{i64 878}
!879 = metadata !{i64 879}
!880 = metadata !{i64 880}
!881 = metadata !{i64 881}
!882 = metadata !{i64 882}
!883 = metadata !{i64 883}
!884 = metadata !{i64 884}
!885 = metadata !{i64 885}
!886 = metadata !{i64 886}
!887 = metadata !{i64 887}
!888 = metadata !{i64 888}
!889 = metadata !{i64 889}
!890 = metadata !{i64 890}
!891 = metadata !{i64 891}
!892 = metadata !{i64 892}
!893 = metadata !{i64 893}
!894 = metadata !{i64 894}
!895 = metadata !{i64 895}
!896 = metadata !{i64 896}
!897 = metadata !{i64 897}
!898 = metadata !{i64 898}
!899 = metadata !{i64 899}
!900 = metadata !{i64 900}
!901 = metadata !{i64 901}
!902 = metadata !{i64 902}
!903 = metadata !{i64 903}
!904 = metadata !{i64 904}
!905 = metadata !{i64 905}
!906 = metadata !{i64 906}
!907 = metadata !{i64 907}
!908 = metadata !{i64 908}
!909 = metadata !{i64 909}
!910 = metadata !{i64 910}
!911 = metadata !{i64 911}
!912 = metadata !{i64 912}
!913 = metadata !{i64 913}
!914 = metadata !{i64 914}
!915 = metadata !{i64 915}
!916 = metadata !{i64 916}
!917 = metadata !{i64 917}
!918 = metadata !{i64 918}
!919 = metadata !{i64 919}
!920 = metadata !{i64 920}
!921 = metadata !{i64 921}
!922 = metadata !{i64 922}
!923 = metadata !{i64 923}
!924 = metadata !{i64 924}
!925 = metadata !{i64 925}
!926 = metadata !{i64 926}
!927 = metadata !{i64 927}
!928 = metadata !{i64 928}
!929 = metadata !{i64 929}
!930 = metadata !{i64 930}
!931 = metadata !{i64 931}
!932 = metadata !{i64 932}
!933 = metadata !{i64 933}
!934 = metadata !{i64 934}
!935 = metadata !{i64 935}
!936 = metadata !{i64 936}
!937 = metadata !{i64 937}
!938 = metadata !{i64 938}
!939 = metadata !{i64 939}
!940 = metadata !{i64 940}
!941 = metadata !{i64 941}
!942 = metadata !{i64 942}
!943 = metadata !{i64 943}
!944 = metadata !{i64 944}
!945 = metadata !{i64 945}
!946 = metadata !{i64 946}
!947 = metadata !{i64 947}
!948 = metadata !{i64 948}
!949 = metadata !{i64 949}
!950 = metadata !{i64 950}
!951 = metadata !{i64 951}
!952 = metadata !{i64 952}
!953 = metadata !{i64 953}
!954 = metadata !{i64 954}
!955 = metadata !{i64 955}
!956 = metadata !{i64 956}
!957 = metadata !{i64 957}
!958 = metadata !{i64 958}
!959 = metadata !{i64 959}
!960 = metadata !{i64 960}
!961 = metadata !{i64 961}
!962 = metadata !{i64 962}
!963 = metadata !{i64 963}
!964 = metadata !{i64 964}
!965 = metadata !{i64 965}
!966 = metadata !{i64 966}
!967 = metadata !{i64 967}
!968 = metadata !{i64 968}
!969 = metadata !{i64 969}
!970 = metadata !{i64 970}
!971 = metadata !{i64 971}
!972 = metadata !{i64 972}
!973 = metadata !{i64 973}
!974 = metadata !{i64 974}
!975 = metadata !{i64 975}
!976 = metadata !{i64 976}
!977 = metadata !{i64 977}
!978 = metadata !{i64 978}
!979 = metadata !{i64 979}
!980 = metadata !{i64 980}
!981 = metadata !{i64 981}
!982 = metadata !{i64 982}
!983 = metadata !{i64 983}
!984 = metadata !{i64 984}
!985 = metadata !{i64 985}
!986 = metadata !{i64 986}
!987 = metadata !{i64 987}
!988 = metadata !{i64 988}
!989 = metadata !{i64 989}
!990 = metadata !{i64 990}
!991 = metadata !{i64 991}
!992 = metadata !{i64 992}
!993 = metadata !{i64 993}
!994 = metadata !{i64 994}
!995 = metadata !{i64 995}
!996 = metadata !{i64 996}
