; ModuleID = 'InorderTraversals/in_05_array_implicit.cpp'
target datalayout = "e-p:64:64:64-i1:8:8-i8:8:8-i16:16:16-i32:32:32-i64:64:64-f32:32:32-f64:64:64-v64:64:64-v128:128:128-a0:0:64-s0:64:64-f80:128:128-n8:16:32:64-S128"
target triple = "x86_64-unknown-linux-gnu"

%"class.std::ios_base::Init" = type { i8 }
%struct.Node = type { i32, %struct.Node*, %struct.Node* }
%"class.std::__cxx11::basic_string" = type { %"struct.std::__cxx11::basic_string<char, std::char_traits<char>, std::allocator<char> >::_Alloc_hider", i64, %union.anon }
%"struct.std::__cxx11::basic_string<char, std::char_traits<char>, std::allocator<char> >::_Alloc_hider" = type { i8* }
%union.anon = type { i64, [8 x i8] }
%"class.std::allocator" = type { i8 }
%"class.std::basic_ifstream" = type { %"class.std::basic_istream.base", %"class.std::basic_filebuf", %"class.std::basic_ios" }
%"class.std::basic_istream.base" = type { i32 (...)**, i64 }
%"class.std::basic_filebuf" = type { %"class.std::basic_streambuf", %union.pthread_mutex_t, %"class.std::__basic_file", i32, %struct.__mbstate_t, %struct.__mbstate_t, %struct.__mbstate_t, i8*, i64, i8, i8, i8, i8, i8*, i8*, i8, %"class.std::codecvt"*, i8*, i64, i8*, i8* }
%"class.std::basic_streambuf" = type { i32 (...)**, i8*, i8*, i8*, i8*, i8*, i8*, %"class.std::locale" }
%"class.std::locale" = type { %"class.std::locale::_Impl"* }
%"class.std::locale::_Impl" = type { i32, %"class.std::locale::facet"**, i64, %"class.std::locale::facet"**, i8** }
%"class.std::locale::facet" = type { i32 (...)**, i32 }
%union.pthread_mutex_t = type { %"struct.<anonymous union>::__pthread_mutex_s" }
%"struct.<anonymous union>::__pthread_mutex_s" = type { i32, i32, i32, i32, i32, i16, i16, %struct.__pthread_internal_list }
%struct.__pthread_internal_list = type { %struct.__pthread_internal_list*, %struct.__pthread_internal_list* }
%"class.std::__basic_file" = type { %struct._IO_FILE*, i8 }
%struct._IO_FILE = type { i32, i8*, i8*, i8*, i8*, i8*, i8*, i8*, i8*, i8*, i8*, i8*, %struct._IO_marker*, %struct._IO_FILE*, i32, i32, i64, i16, i8, [1 x i8], i8*, i64, i8*, i8*, i8*, i8*, i64, i32, [20 x i8] }
%struct._IO_marker = type { %struct._IO_marker*, %struct._IO_FILE*, i32 }
%struct.__mbstate_t = type { i32, %union.anon.0 }
%union.anon.0 = type { i32 }
%"class.std::codecvt" = type { %"class.std::__codecvt_abstract_base", %struct.__locale_struct* }
%"class.std::__codecvt_abstract_base" = type { %"class.std::locale::facet" }
%struct.__locale_struct = type { [13 x %struct.__locale_data*], i16*, i32*, i32*, [13 x i8*] }
%struct.__locale_data = type opaque
%"class.std::basic_ios" = type { %"class.std::ios_base", %"class.std::basic_ostream"*, i8, i8, %"class.std::basic_streambuf"*, %"class.std::ctype"*, %"class.std::num_put"*, %"class.std::num_get"* }
%"class.std::ios_base" = type { i32 (...)**, i64, i64, i32, i32, i32, %"struct.std::ios_base::_Callback_list"*, %"struct.std::ios_base::_Words", [8 x %"struct.std::ios_base::_Words"], i32, %"struct.std::ios_base::_Words"*, %"class.std::locale" }
%"struct.std::ios_base::_Callback_list" = type { %"struct.std::ios_base::_Callback_list"*, void (i32, %"class.std::ios_base"*, i32)*, i32, i32 }
%"struct.std::ios_base::_Words" = type { i8*, i64 }
%"class.std::basic_ostream" = type { i32 (...)**, %"class.std::basic_ios" }
%"class.std::ctype" = type { %"class.std::locale::facet", %struct.__locale_struct*, i8, i32*, i32*, i16*, i8, [256 x i8], [256 x i8], i8 }
%"class.std::num_put" = type { %"class.std::locale::facet" }
%"class.std::num_get" = type { %"class.std::locale::facet" }
%"class.std::basic_istream" = type { i32 (...)**, i64, %"class.std::basic_ios" }

@_ZStL8__ioinit = internal global %"class.std::ios_base::Init" zeroinitializer, align 1
@__dso_handle = external global i8
@.str = private unnamed_addr constant [4 x i8] c"%d \00", align 1
@.str1 = private unnamed_addr constant [18 x i8] c"../../numbers.txt\00", align 1
@.str2 = private unnamed_addr constant [2 x i8] c"\0A\00", align 1
@llvm.global_ctors = appending global [1 x { i32, void ()* }] [{ i32, void ()* } { i32 65535, void ()* @_GLOBAL__I_a }]

; Function Attrs: nounwind
define internal void @__cxx_global_var_init() #0 section ".text.startup" {
  call void @_ZNSt8ios_base4InitC1Ev(%"class.std::ios_base::Init"* @_ZStL8__ioinit)
  %1 = call i32 @__cxa_atexit(void (i8*)* bitcast (void (%"class.std::ios_base::Init"*)* @_ZNSt8ios_base4InitD1Ev to void (i8*)*), i8* getelementptr inbounds (%"class.std::ios_base::Init"* @_ZStL8__ioinit, i32 0, i32 0), i8* @__dso_handle) #0
  ret void
}

declare void @_ZNSt8ios_base4InitC1Ev(%"class.std::ios_base::Init"*) #1

; Function Attrs: nounwind
declare void @_ZNSt8ios_base4InitD1Ev(%"class.std::ios_base::Init"*) #2

; Function Attrs: nounwind
declare i32 @__cxa_atexit(void (i8*)*, i8*, i8*) #0

; Function Attrs: nounwind uwtable
define %struct.Node* @_Z6insertP4Nodei(%struct.Node* %root, i32 %key) #3 {
  %1 = alloca %struct.Node*, align 8
  %2 = alloca %struct.Node*, align 8
  %3 = alloca i32, align 4
  store %struct.Node* %root, %struct.Node** %2, align 8
  store i32 %key, i32* %3, align 4
  %4 = load %struct.Node** %2, align 8
  %5 = icmp eq %struct.Node* %4, null
  br i1 %5, label %6, label %10

; <label>:6                                       ; preds = %0
  %7 = call noalias i8* @_Znwm(i64 24) #5
  %8 = bitcast i8* %7 to %struct.Node*
  %9 = load i32* %3, align 4
  call void @_ZN4NodeC2Ei(%struct.Node* %8, i32 %9)
  store %struct.Node* %8, %struct.Node** %1
  br label %34

; <label>:10                                      ; preds = %0
  %11 = load i32* %3, align 4
  %12 = load %struct.Node** %2, align 8
  %13 = getelementptr inbounds %struct.Node* %12, i32 0, i32 0
  %14 = load i32* %13, align 4
  %15 = icmp slt i32 %11, %14
  br i1 %15, label %16, label %24

; <label>:16                                      ; preds = %10
  %17 = load %struct.Node** %2, align 8
  %18 = getelementptr inbounds %struct.Node* %17, i32 0, i32 1
  %19 = load %struct.Node** %18, align 8
  %20 = load i32* %3, align 4
  %21 = call %struct.Node* @_Z6insertP4Nodei(%struct.Node* %19, i32 %20)
  %22 = load %struct.Node** %2, align 8
  %23 = getelementptr inbounds %struct.Node* %22, i32 0, i32 1
  store %struct.Node* %21, %struct.Node** %23, align 8
  br label %32

; <label>:24                                      ; preds = %10
  %25 = load %struct.Node** %2, align 8
  %26 = getelementptr inbounds %struct.Node* %25, i32 0, i32 2
  %27 = load %struct.Node** %26, align 8
  %28 = load i32* %3, align 4
  %29 = call %struct.Node* @_Z6insertP4Nodei(%struct.Node* %27, i32 %28)
  %30 = load %struct.Node** %2, align 8
  %31 = getelementptr inbounds %struct.Node* %30, i32 0, i32 2
  store %struct.Node* %29, %struct.Node** %31, align 8
  br label %32

; <label>:32                                      ; preds = %24, %16
  %33 = load %struct.Node** %2, align 8
  store %struct.Node* %33, %struct.Node** %1
  br label %34

; <label>:34                                      ; preds = %32, %6
  %35 = load %struct.Node** %1
  ret %struct.Node* %35
}

; Function Attrs: nobuiltin
declare noalias i8* @_Znwm(i64) #4

; Function Attrs: nounwind uwtable
define linkonce_odr void @_ZN4NodeC2Ei(%struct.Node* %this, i32 %v) unnamed_addr #3 align 2 {
  %1 = alloca %struct.Node*, align 8
  %2 = alloca i32, align 4
  store %struct.Node* %this, %struct.Node** %1, align 8
  store i32 %v, i32* %2, align 4
  %3 = load %struct.Node** %1
  %4 = getelementptr inbounds %struct.Node* %3, i32 0, i32 0
  %5 = load i32* %2, align 4
  store i32 %5, i32* %4, align 4
  %6 = getelementptr inbounds %struct.Node* %3, i32 0, i32 1
  store %struct.Node* null, %struct.Node** %6, align 8
  %7 = getelementptr inbounds %struct.Node* %3, i32 0, i32 2
  store %struct.Node* null, %struct.Node** %7, align 8
  ret void
}

; Function Attrs: nounwind uwtable
define void @_Z7inorderP4Node(%struct.Node* %root) #3 {
  %1 = alloca %struct.Node*, align 8
  store %struct.Node* %root, %struct.Node** %1, align 8
  %2 = load %struct.Node** %1, align 8
  %3 = icmp eq %struct.Node* %2, null
  br i1 %3, label %4, label %5

; <label>:4                                       ; preds = %0
  br label %16

; <label>:5                                       ; preds = %0
  %6 = load %struct.Node** %1, align 8
  %7 = getelementptr inbounds %struct.Node* %6, i32 0, i32 1
  %8 = load %struct.Node** %7, align 8
  call void @_Z7inorderP4Node(%struct.Node* %8)
  %9 = load %struct.Node** %1, align 8
  %10 = getelementptr inbounds %struct.Node* %9, i32 0, i32 0
  %11 = load i32* %10, align 4
  %12 = call i32 (i8*, ...)* @printf(i8* getelementptr inbounds ([4 x i8]* @.str, i32 0, i32 0), i32 %11)
  %13 = load %struct.Node** %1, align 8
  %14 = getelementptr inbounds %struct.Node* %13, i32 0, i32 2
  %15 = load %struct.Node** %14, align 8
  call void @_Z7inorderP4Node(%struct.Node* %15)
  br label %16

; <label>:16                                      ; preds = %5, %4
  ret void
}

declare i32 @printf(i8*, ...) #1

; Function Attrs: nounwind uwtable
define i32 @main(i32 %argc, i8** %argv) #3 {
  %1 = alloca i32, align 4
  %2 = alloca i32, align 4
  %3 = alloca i8**, align 8
  %filename = alloca %"class.std::__cxx11::basic_string", align 8
  %4 = alloca %"class.std::allocator", align 1
  %file = alloca %"class.std::basic_ifstream", align 8
  %num = alloca i32, align 4
  %root = alloca %struct.Node*, align 8
  %5 = alloca i32
  store i32 0, i32* %1
  store i32 %argc, i32* %2, align 4
  store i8** %argv, i8*** %3, align 8
  call void @_ZNSaIcEC1Ev(%"class.std::allocator"* %4) #0
  call void @_ZNSt7__cxx1112basic_stringIcSt11char_traitsIcESaIcEEC1EPKcRKS3_(%"class.std::__cxx11::basic_string"* %filename, i8* getelementptr inbounds ([18 x i8]* @.str1, i32 0, i32 0), %"class.std::allocator"* %4)
  call void @_ZNSaIcED1Ev(%"class.std::allocator"* %4) #0
  %6 = load i32* %2, align 4
  %7 = icmp sgt i32 %6, 1
  br i1 %7, label %8, label %13

; <label>:8                                       ; preds = %0
  %9 = load i8*** %3, align 8
  %10 = getelementptr inbounds i8** %9, i64 1
  %11 = load i8** %10, align 8
  %12 = call %"class.std::__cxx11::basic_string"* @_ZNSt7__cxx1112basic_stringIcSt11char_traitsIcESaIcEEaSEPKc(%"class.std::__cxx11::basic_string"* %filename, i8* %11)
  br label %13

; <label>:13                                      ; preds = %8, %0
  %14 = call i8* @_ZNKSt7__cxx1112basic_stringIcSt11char_traitsIcESaIcEE5c_strEv(%"class.std::__cxx11::basic_string"* %filename) #0
  call void @_ZNSt14basic_ifstreamIcSt11char_traitsIcEEC1EPKcSt13_Ios_Openmode(%"class.std::basic_ifstream"* %file, i8* %14, i32 8)
  store %struct.Node* null, %struct.Node** %root, align 8
  br label %15

; <label>:15                                      ; preds = %27, %13
  %16 = bitcast %"class.std::basic_ifstream"* %file to %"class.std::basic_istream"*
  %17 = call %"class.std::basic_istream"* @_ZNSirsERi(%"class.std::basic_istream"* %16, i32* %num)
  %18 = bitcast %"class.std::basic_istream"* %17 to i8**
  %19 = load i8** %18
  %20 = getelementptr i8* %19, i64 -24
  %21 = bitcast i8* %20 to i64*
  %22 = load i64* %21
  %23 = bitcast %"class.std::basic_istream"* %17 to i8*
  %24 = getelementptr inbounds i8* %23, i64 %22
  %25 = bitcast i8* %24 to %"class.std::basic_ios"*
  %26 = call zeroext i1 @_ZNKSt9basic_iosIcSt11char_traitsIcEEcvbEv(%"class.std::basic_ios"* %25)
  br i1 %26, label %27, label %31

; <label>:27                                      ; preds = %15
  %28 = load %struct.Node** %root, align 8
  %29 = load i32* %num, align 4
  %30 = call %struct.Node* @_Z6insertP4Nodei(%struct.Node* %28, i32 %29)
  store %struct.Node* %30, %struct.Node** %root, align 8
  br label %15

; <label>:31                                      ; preds = %15
  call void @_ZNSt14basic_ifstreamIcSt11char_traitsIcEE5closeEv(%"class.std::basic_ifstream"* %file)
  %32 = load %struct.Node** %root, align 8
  call void @_Z7inorderP4Node(%struct.Node* %32)
  %33 = call i32 (i8*, ...)* @printf(i8* getelementptr inbounds ([2 x i8]* @.str2, i32 0, i32 0))
  store i32 0, i32* %1
  store i32 1, i32* %5
  call void @_ZNSt14basic_ifstreamIcSt11char_traitsIcEED1Ev(%"class.std::basic_ifstream"* %file) #0
  call void @_ZNSt7__cxx1112basic_stringIcSt11char_traitsIcESaIcEED1Ev(%"class.std::__cxx11::basic_string"* %filename) #0
  %34 = load i32* %1
  ret i32 %34
}

declare void @_ZNSt7__cxx1112basic_stringIcSt11char_traitsIcESaIcEEC1EPKcRKS3_(%"class.std::__cxx11::basic_string"*, i8*, %"class.std::allocator"*) #1

; Function Attrs: nounwind
declare void @_ZNSaIcEC1Ev(%"class.std::allocator"*) #2

; Function Attrs: nounwind
declare void @_ZNSaIcED1Ev(%"class.std::allocator"*) #2

declare %"class.std::__cxx11::basic_string"* @_ZNSt7__cxx1112basic_stringIcSt11char_traitsIcESaIcEEaSEPKc(%"class.std::__cxx11::basic_string"*, i8*) #1

declare void @_ZNSt14basic_ifstreamIcSt11char_traitsIcEEC1EPKcSt13_Ios_Openmode(%"class.std::basic_ifstream"*, i8*, i32) #1

; Function Attrs: nounwind
declare i8* @_ZNKSt7__cxx1112basic_stringIcSt11char_traitsIcESaIcEE5c_strEv(%"class.std::__cxx11::basic_string"*) #2

declare %"class.std::basic_istream"* @_ZNSirsERi(%"class.std::basic_istream"*, i32*) #1

declare zeroext i1 @_ZNKSt9basic_iosIcSt11char_traitsIcEEcvbEv(%"class.std::basic_ios"*) #1

declare void @_ZNSt14basic_ifstreamIcSt11char_traitsIcEE5closeEv(%"class.std::basic_ifstream"*) #1

; Function Attrs: nounwind
declare void @_ZNSt14basic_ifstreamIcSt11char_traitsIcEED1Ev(%"class.std::basic_ifstream"*) #2

; Function Attrs: nounwind
declare void @_ZNSt7__cxx1112basic_stringIcSt11char_traitsIcESaIcEED1Ev(%"class.std::__cxx11::basic_string"*) #2

; Function Attrs: nounwind
define internal void @_GLOBAL__I_a() #0 section ".text.startup" {
  call void @__cxx_global_var_init()
  ret void
}

attributes #0 = { nounwind }
attributes #1 = { "less-precise-fpmad"="false" "no-frame-pointer-elim"="true" "no-frame-pointer-elim-non-leaf" "no-infs-fp-math"="false" "no-nans-fp-math"="false" "stack-protector-buffer-size"="8" "unsafe-fp-math"="false" "use-soft-float"="false" }
attributes #2 = { nounwind "less-precise-fpmad"="false" "no-frame-pointer-elim"="true" "no-frame-pointer-elim-non-leaf" "no-infs-fp-math"="false" "no-nans-fp-math"="false" "stack-protector-buffer-size"="8" "unsafe-fp-math"="false" "use-soft-float"="false" }
attributes #3 = { nounwind uwtable "less-precise-fpmad"="false" "no-frame-pointer-elim"="true" "no-frame-pointer-elim-non-leaf" "no-infs-fp-math"="false" "no-nans-fp-math"="false" "stack-protector-buffer-size"="8" "unsafe-fp-math"="false" "use-soft-float"="false" }
attributes #4 = { nobuiltin "less-precise-fpmad"="false" "no-frame-pointer-elim"="true" "no-frame-pointer-elim-non-leaf" "no-infs-fp-math"="false" "no-nans-fp-math"="false" "stack-protector-buffer-size"="8" "unsafe-fp-math"="false" "use-soft-float"="false" }
attributes #5 = { builtin }

!llvm.ident = !{!0}

!0 = metadata !{metadata !"clang version 3.4 (tags/RELEASE_34/final)"}
