; ModuleID = 'po_20_struct_of_arrays.cpp'
target datalayout = "e-p:64:64:64-i1:8:8-i8:8:8-i16:16:16-i32:32:32-i64:64:64-f32:32:32-f64:64:64-v64:64:64-v128:128:128-a0:0:64-s0:64:64-f80:128:128-n8:16:32:64-S128"
target triple = "x86_64-unknown-linux-gnu"

%"class.std::ios_base::Init" = type { i8 }
%struct._IO_FILE = type { i32, i8*, i8*, i8*, i8*, i8*, i8*, i8*, i8*, i8*, i8*, i8*, %struct._IO_marker*, %struct._IO_FILE*, i32, i32, i64, i16, i8, [1 x i8], i8*, i64, i8*, i8*, i8*, i8*, i64, i32, [20 x i8] }
%struct._IO_marker = type { %struct._IO_marker*, %struct._IO_FILE*, i32 }
%"class.std::basic_ostream" = type { i32 (...)**, %"class.std::basic_ios" }
%"class.std::basic_ios" = type { %"class.std::ios_base", %"class.std::basic_ostream"*, i8, i8, %"class.std::basic_streambuf"*, %"class.std::ctype"*, %"class.std::num_put"*, %"class.std::num_get"* }
%"class.std::ios_base" = type { i32 (...)**, i64, i64, i32, i32, i32, %"struct.std::ios_base::_Callback_list"*, %"struct.std::ios_base::_Words", [8 x %"struct.std::ios_base::_Words"], i32, %"struct.std::ios_base::_Words"*, %"class.std::locale" }
%"struct.std::ios_base::_Callback_list" = type { %"struct.std::ios_base::_Callback_list"*, void (i32, %"class.std::ios_base"*, i32)*, i32, i32 }
%"struct.std::ios_base::_Words" = type { i8*, i64 }
%"class.std::locale" = type { %"class.std::locale::_Impl"* }
%"class.std::locale::_Impl" = type { i32, %"class.std::locale::facet"**, i64, %"class.std::locale::facet"**, i8** }
%"class.std::locale::facet" = type { i32 (...)**, i32 }
%"class.std::basic_streambuf" = type { i32 (...)**, i8*, i8*, i8*, i8*, i8*, i8*, %"class.std::locale" }
%"class.std::ctype" = type { %"class.std::locale::facet", %struct.__locale_struct*, i8, i32*, i32*, i16*, i8, [256 x i8], [256 x i8], i8 }
%struct.__locale_struct = type { [13 x %struct.__locale_data*], i16*, i32*, i32*, [13 x i8*] }
%struct.__locale_data = type opaque
%"class.std::num_put" = type { %"class.std::locale::facet" }
%"class.std::num_get" = type { %"class.std::locale::facet" }
%class.Solution = type { i8 }
%"class.std::vector" = type { %"struct.std::_Vector_base" }
%"struct.std::_Vector_base" = type { %"struct.std::_Vector_base<int, std::allocator<int> >::_Vector_impl" }
%"struct.std::_Vector_base<int, std::allocator<int> >::_Vector_impl" = type { i32*, i32*, i32* }
%"class.std::stack" = type { %"class.std::deque" }
%"class.std::deque" = type { %"class.std::_Deque_base" }
%"class.std::_Deque_base" = type { %"struct.std::_Deque_base<int, std::allocator<int> >::_Deque_impl" }
%"struct.std::_Deque_base<int, std::allocator<int> >::_Deque_impl" = type { i32**, i64, %"struct.std::_Deque_iterator", %"struct.std::_Deque_iterator" }
%"struct.std::_Deque_iterator" = type { i32*, i32*, i32*, i32** }
%"class.std::allocator" = type { i8 }
%"class.__gnu_cxx::new_allocator" = type { i8 }
%"class.__gnu_cxx::__normal_iterator" = type { i32* }
%"class.std::allocator.0" = type { i8 }
%"class.__gnu_cxx::new_allocator.1" = type { i8 }
%"struct.std::_Deque_iterator.3" = type { i32*, i32*, i32*, i32** }

@_ZStL8__ioinit = internal global %"class.std::ios_base::Init" zeroinitializer, align 1
@__dso_handle = external global i8
@val = global [50000 x i32] zeroinitializer, align 16
@left_child = global [50000 x i32] zeroinitializer, align 16
@right_child = global [50000 x i32] zeroinitializer, align 16
@free_idx = global i32 0, align 4
@.str = private unnamed_addr constant [18 x i8] c"../../numbers.txt\00", align 1
@.str1 = private unnamed_addr constant [2 x i8] c"r\00", align 1
@.str2 = private unnamed_addr constant [12 x i8] c"numbers.txt\00", align 1
@stderr = external global %struct._IO_FILE*
@.str3 = private unnamed_addr constant [28 x i8] c"Error: cannot open file %s\0A\00", align 1
@.str4 = private unnamed_addr constant [3 x i8] c"%d\00", align 1
@_ZSt4cout = external global %"class.std::basic_ostream"
@.str5 = private unnamed_addr constant [2 x i8] c" \00", align 1
@.str6 = private unnamed_addr constant [22 x i8] c"vector::_M_insert_aux\00", align 1
@llvm.global_ctors = appending global [1 x { i32, void ()* }] [{ i32, void ()* } { i32 65535, void ()* @_GLOBAL__I_a }]

; Function Attrs: nounwind
define internal void @__cxx_global_var_init() #0 section ".text.startup" {
  call void @_ZNSt8ios_base4InitC1Ev(%"class.std::ios_base::Init"* @_ZStL8__ioinit)
  %1 = call i32 @__cxa_atexit(void (i8*)* bitcast (void (%"class.std::ios_base::Init"*)* @_ZNSt8ios_base4InitD1Ev to void (i8*)*), i8* getelementptr inbounds (%"class.std::ios_base::Init"* @_ZStL8__ioinit, i32 0, i32 0), i8* @__dso_handle) #0
  ret void
}

declare void @_ZNSt8ios_base4InitC1Ev(%"class.std::ios_base::Init"*) #1

declare void @_ZNSt8ios_base4InitD1Ev(%"class.std::ios_base::Init"*) #1

; Function Attrs: nounwind
declare i32 @__cxa_atexit(void (i8*)*, i8*, i8*) #0

; Function Attrs: nounwind uwtable
define void @_Z10initMemoryv() #2 {
  %i = alloca i32, align 4
  store i32 0, i32* @free_idx, align 4
  store i32 0, i32* %i, align 4
  br label %1

; <label>:1                                       ; preds = %14, %0
  %2 = load i32* %i, align 4
  %3 = icmp slt i32 %2, 50000
  br i1 %3, label %4, label %17

; <label>:4                                       ; preds = %1
  %5 = load i32* %i, align 4
  %6 = sext i32 %5 to i64
  %7 = getelementptr inbounds [50000 x i32]* @left_child, i32 0, i64 %6
  store i32 -1, i32* %7, align 4
  %8 = load i32* %i, align 4
  %9 = sext i32 %8 to i64
  %10 = getelementptr inbounds [50000 x i32]* @right_child, i32 0, i64 %9
  store i32 -1, i32* %10, align 4
  %11 = load i32* %i, align 4
  %12 = sext i32 %11 to i64
  %13 = getelementptr inbounds [50000 x i32]* @val, i32 0, i64 %12
  store i32 0, i32* %13, align 4
  br label %14

; <label>:14                                      ; preds = %4
  %15 = load i32* %i, align 4
  %16 = add nsw i32 %15, 1
  store i32 %16, i32* %i, align 4
  br label %1

; <label>:17                                      ; preds = %1
  ret void
}

; Function Attrs: nounwind uwtable
define i32 @_Z11insertArrayii(i32 %rootIdx, i32 %value) #2 {
  %1 = alloca i32, align 4
  %2 = alloca i32, align 4
  %3 = alloca i32, align 4
  %newIdx = alloca i32, align 4
  %curr = alloca i32, align 4
  %newIdx1 = alloca i32, align 4
  %newIdx2 = alloca i32, align 4
  store i32 %rootIdx, i32* %2, align 4
  store i32 %value, i32* %3, align 4
  %4 = load i32* %2, align 4
  %5 = icmp eq i32 %4, -1
  br i1 %5, label %6, label %14

; <label>:6                                       ; preds = %0
  %7 = load i32* @free_idx, align 4
  %8 = add nsw i32 %7, 1
  store i32 %8, i32* @free_idx, align 4
  store i32 %7, i32* %newIdx, align 4
  %9 = load i32* %3, align 4
  %10 = load i32* %newIdx, align 4
  %11 = sext i32 %10 to i64
  %12 = getelementptr inbounds [50000 x i32]* @val, i32 0, i64 %11
  store i32 %9, i32* %12, align 4
  %13 = load i32* %newIdx, align 4
  store i32 %13, i32* %1
  br label %72

; <label>:14                                      ; preds = %0
  %15 = load i32* %2, align 4
  store i32 %15, i32* %curr, align 4
  br label %16

; <label>:16                                      ; preds = %14, %69
  %17 = load i32* %3, align 4
  %18 = load i32* %curr, align 4
  %19 = sext i32 %18 to i64
  %20 = getelementptr inbounds [50000 x i32]* @val, i32 0, i64 %19
  %21 = load i32* %20, align 4
  %22 = icmp slt i32 %17, %21
  br i1 %22, label %23, label %46

; <label>:23                                      ; preds = %16
  %24 = load i32* %curr, align 4
  %25 = sext i32 %24 to i64
  %26 = getelementptr inbounds [50000 x i32]* @left_child, i32 0, i64 %25
  %27 = load i32* %26, align 4
  %28 = icmp eq i32 %27, -1
  br i1 %28, label %29, label %40

; <label>:29                                      ; preds = %23
  %30 = load i32* @free_idx, align 4
  %31 = add nsw i32 %30, 1
  store i32 %31, i32* @free_idx, align 4
  store i32 %30, i32* %newIdx1, align 4
  %32 = load i32* %3, align 4
  %33 = load i32* %newIdx1, align 4
  %34 = sext i32 %33 to i64
  %35 = getelementptr inbounds [50000 x i32]* @val, i32 0, i64 %34
  store i32 %32, i32* %35, align 4
  %36 = load i32* %newIdx1, align 4
  %37 = load i32* %curr, align 4
  %38 = sext i32 %37 to i64
  %39 = getelementptr inbounds [50000 x i32]* @left_child, i32 0, i64 %38
  store i32 %36, i32* %39, align 4
  br label %70

; <label>:40                                      ; preds = %23
  %41 = load i32* %curr, align 4
  %42 = sext i32 %41 to i64
  %43 = getelementptr inbounds [50000 x i32]* @left_child, i32 0, i64 %42
  %44 = load i32* %43, align 4
  store i32 %44, i32* %curr, align 4
  br label %45

; <label>:45                                      ; preds = %40
  br label %69

; <label>:46                                      ; preds = %16
  %47 = load i32* %curr, align 4
  %48 = sext i32 %47 to i64
  %49 = getelementptr inbounds [50000 x i32]* @right_child, i32 0, i64 %48
  %50 = load i32* %49, align 4
  %51 = icmp eq i32 %50, -1
  br i1 %51, label %52, label %63

; <label>:52                                      ; preds = %46
  %53 = load i32* @free_idx, align 4
  %54 = add nsw i32 %53, 1
  store i32 %54, i32* @free_idx, align 4
  store i32 %53, i32* %newIdx2, align 4
  %55 = load i32* %3, align 4
  %56 = load i32* %newIdx2, align 4
  %57 = sext i32 %56 to i64
  %58 = getelementptr inbounds [50000 x i32]* @val, i32 0, i64 %57
  store i32 %55, i32* %58, align 4
  %59 = load i32* %newIdx2, align 4
  %60 = load i32* %curr, align 4
  %61 = sext i32 %60 to i64
  %62 = getelementptr inbounds [50000 x i32]* @right_child, i32 0, i64 %61
  store i32 %59, i32* %62, align 4
  br label %70

; <label>:63                                      ; preds = %46
  %64 = load i32* %curr, align 4
  %65 = sext i32 %64 to i64
  %66 = getelementptr inbounds [50000 x i32]* @right_child, i32 0, i64 %65
  %67 = load i32* %66, align 4
  store i32 %67, i32* %curr, align 4
  br label %68

; <label>:68                                      ; preds = %63
  br label %69

; <label>:69                                      ; preds = %68, %45
  br label %16

; <label>:70                                      ; preds = %52, %29
  %71 = load i32* %2, align 4
  store i32 %71, i32* %1
  br label %72

; <label>:72                                      ; preds = %70, %6
  %73 = load i32* %1
  ret i32 %73
}

; Function Attrs: nounwind uwtable
define i32 @main(i32 %argc, i8** %argv) #2 {
  %1 = alloca i32, align 4
  %2 = alloca i32, align 4
  %3 = alloca i8**, align 8
  %filename = alloca i8*, align 8
  %fp = alloca %struct._IO_FILE*, align 8
  %num = alloca i32, align 4
  %array_root_idx = alloca i32, align 4
  %sol = alloca %class.Solution, align 1
  %result = alloca %"class.std::vector", align 8
  %i = alloca i64, align 8
  %4 = alloca i32
  store i32 0, i32* %1
  store i32 %argc, i32* %2, align 4
  store i8** %argv, i8*** %3, align 8
  store i8* getelementptr inbounds ([18 x i8]* @.str, i32 0, i32 0), i8** %filename, align 8
  %5 = load i32* %2, align 4
  %6 = icmp sgt i32 %5, 1
  br i1 %6, label %7, label %11

; <label>:7                                       ; preds = %0
  %8 = load i8*** %3, align 8
  %9 = getelementptr inbounds i8** %8, i64 1
  %10 = load i8** %9, align 8
  store i8* %10, i8** %filename, align 8
  br label %11

; <label>:11                                      ; preds = %7, %0
  %12 = load i8** %filename, align 8
  %13 = call %struct._IO_FILE* @fopen(i8* %12, i8* getelementptr inbounds ([2 x i8]* @.str1, i32 0, i32 0))
  store %struct._IO_FILE* %13, %struct._IO_FILE** %fp, align 8
  %14 = load %struct._IO_FILE** %fp, align 8
  %15 = icmp ne %struct._IO_FILE* %14, null
  br i1 %15, label %19, label %16

; <label>:16                                      ; preds = %11
  store i8* getelementptr inbounds ([12 x i8]* @.str2, i32 0, i32 0), i8** %filename, align 8
  %17 = load i8** %filename, align 8
  %18 = call %struct._IO_FILE* @fopen(i8* %17, i8* getelementptr inbounds ([2 x i8]* @.str1, i32 0, i32 0))
  store %struct._IO_FILE* %18, %struct._IO_FILE** %fp, align 8
  br label %19

; <label>:19                                      ; preds = %16, %11
  %20 = load %struct._IO_FILE** %fp, align 8
  %21 = icmp ne %struct._IO_FILE* %20, null
  br i1 %21, label %26, label %22

; <label>:22                                      ; preds = %19
  %23 = load %struct._IO_FILE** @stderr, align 8
  %24 = load i8** %filename, align 8
  %25 = call i32 (%struct._IO_FILE*, i8*, ...)* @fprintf(%struct._IO_FILE* %23, i8* getelementptr inbounds ([28 x i8]* @.str3, i32 0, i32 0), i8* %24)
  store i32 1, i32* %1
  br label %54

; <label>:26                                      ; preds = %19
  call void @_Z10initMemoryv()
  store i32 -1, i32* %array_root_idx, align 4
  br label %27

; <label>:27                                      ; preds = %31, %26
  %28 = load %struct._IO_FILE** %fp, align 8
  %29 = call i32 (%struct._IO_FILE*, i8*, ...)* @fscanf(%struct._IO_FILE* %28, i8* getelementptr inbounds ([3 x i8]* @.str4, i32 0, i32 0), i32* %num)
  %30 = icmp eq i32 %29, 1
  br i1 %30, label %31, label %35

; <label>:31                                      ; preds = %27
  %32 = load i32* %array_root_idx, align 4
  %33 = load i32* %num, align 4
  %34 = call i32 @_Z11insertArrayii(i32 %32, i32 %33)
  store i32 %34, i32* %array_root_idx, align 4
  br label %27

; <label>:35                                      ; preds = %27
  %36 = load %struct._IO_FILE** %fp, align 8
  %37 = call i32 @fclose(%struct._IO_FILE* %36)
  %38 = load i32* %array_root_idx, align 4
  call void @_ZN8Solution18postorderTraversalEi(%"class.std::vector"* sret %result, %class.Solution* %sol, i32 %38)
  store i64 0, i64* %i, align 8
  br label %39

; <label>:39                                      ; preds = %49, %35
  %40 = load i64* %i, align 8
  %41 = call i64 @_ZNKSt6vectorIiSaIiEE4sizeEv(%"class.std::vector"* %result)
  %42 = icmp ult i64 %40, %41
  br i1 %42, label %43, label %52

; <label>:43                                      ; preds = %39
  %44 = load i64* %i, align 8
  %45 = call i32* @_ZNSt6vectorIiSaIiEEixEm(%"class.std::vector"* %result, i64 %44)
  %46 = load i32* %45
  %47 = call %"class.std::basic_ostream"* @_ZNSolsEi(%"class.std::basic_ostream"* @_ZSt4cout, i32 %46)
  %48 = call %"class.std::basic_ostream"* @_ZStlsISt11char_traitsIcEERSt13basic_ostreamIcT_ES5_PKc(%"class.std::basic_ostream"* %47, i8* getelementptr inbounds ([2 x i8]* @.str5, i32 0, i32 0))
  br label %49

; <label>:49                                      ; preds = %43
  %50 = load i64* %i, align 8
  %51 = add i64 %50, 1
  store i64 %51, i64* %i, align 8
  br label %39

; <label>:52                                      ; preds = %39
  %53 = call %"class.std::basic_ostream"* @_ZNSolsEPFRSoS_E(%"class.std::basic_ostream"* @_ZSt4cout, %"class.std::basic_ostream"* (%"class.std::basic_ostream"*)* @_ZSt4endlIcSt11char_traitsIcEERSt13basic_ostreamIT_T0_ES6_)
  store i32 0, i32* %1
  store i32 1, i32* %4
  call void @_ZNSt6vectorIiSaIiEED2Ev(%"class.std::vector"* %result)
  br label %54

; <label>:54                                      ; preds = %52, %22
  %55 = load i32* %1
  ret i32 %55
}

declare %struct._IO_FILE* @fopen(i8*, i8*) #1

declare i32 @fprintf(%struct._IO_FILE*, i8*, ...) #1

declare i32 @fscanf(%struct._IO_FILE*, i8*, ...) #1

declare i32 @fclose(%struct._IO_FILE*) #1

; Function Attrs: nounwind uwtable
define linkonce_odr void @_ZN8Solution18postorderTraversalEi(%"class.std::vector"* noalias sret %agg.result, %class.Solution* %this, i32 %rootIndex) #2 align 2 {
  %1 = alloca %class.Solution*, align 8
  %2 = alloca i32, align 4
  %3 = alloca i1
  %4 = alloca i32
  %s1 = alloca %"class.std::stack", align 8
  %5 = alloca %"class.std::deque", align 8
  %s2 = alloca %"class.std::stack", align 8
  %6 = alloca %"class.std::deque", align 8
  %idx = alloca i32, align 4
  %idx1 = alloca i32, align 4
  store %class.Solution* %this, %class.Solution** %1, align 8
  store i32 %rootIndex, i32* %2, align 4
  %7 = load %class.Solution** %1
  store i1 false, i1* %3
  call void @_ZNSt6vectorIiSaIiEEC2Ev(%"class.std::vector"* %agg.result)
  %8 = load i32* %2, align 4
  %9 = icmp eq i32 %8, -1
  br i1 %9, label %10, label %11

; <label>:10                                      ; preds = %0
  store i1 true, i1* %3
  store i32 1, i32* %4
  br label %49

; <label>:11                                      ; preds = %0
  call void @_ZNSt5dequeIiSaIiEEC2Ev(%"class.std::deque"* %5)
  call void @_ZNSt5stackIiSt5dequeIiSaIiEEEC2ERKS2_(%"class.std::stack"* %s1, %"class.std::deque"* %5)
  call void @_ZNSt5dequeIiSaIiEED2Ev(%"class.std::deque"* %5)
  call void @_ZNSt5dequeIiSaIiEEC2Ev(%"class.std::deque"* %6)
  call void @_ZNSt5stackIiSt5dequeIiSaIiEEEC2ERKS2_(%"class.std::stack"* %s2, %"class.std::deque"* %6)
  call void @_ZNSt5dequeIiSaIiEED2Ev(%"class.std::deque"* %6)
  call void @_ZNSt5stackIiSt5dequeIiSaIiEEE4pushERKi(%"class.std::stack"* %s1, i32* %2)
  br label %12

; <label>:12                                      ; preds = %37, %11
  %13 = call zeroext i1 @_ZNKSt5stackIiSt5dequeIiSaIiEEE5emptyEv(%"class.std::stack"* %s1)
  %14 = xor i1 %13, true
  br i1 %14, label %15, label %38

; <label>:15                                      ; preds = %12
  %16 = call i32* @_ZNSt5stackIiSt5dequeIiSaIiEEE3topEv(%"class.std::stack"* %s1)
  %17 = load i32* %16
  store i32 %17, i32* %idx, align 4
  call void @_ZNSt5stackIiSt5dequeIiSaIiEEE3popEv(%"class.std::stack"* %s1)
  call void @_ZNSt5stackIiSt5dequeIiSaIiEEE4pushERKi(%"class.std::stack"* %s2, i32* %idx)
  %18 = load i32* %idx, align 4
  %19 = sext i32 %18 to i64
  %20 = getelementptr inbounds [50000 x i32]* @left_child, i32 0, i64 %19
  %21 = load i32* %20, align 4
  %22 = icmp ne i32 %21, -1
  br i1 %22, label %23, label %27

; <label>:23                                      ; preds = %15
  %24 = load i32* %idx, align 4
  %25 = sext i32 %24 to i64
  %26 = getelementptr inbounds [50000 x i32]* @left_child, i32 0, i64 %25
  call void @_ZNSt5stackIiSt5dequeIiSaIiEEE4pushERKi(%"class.std::stack"* %s1, i32* %26)
  br label %27

; <label>:27                                      ; preds = %23, %15
  %28 = load i32* %idx, align 4
  %29 = sext i32 %28 to i64
  %30 = getelementptr inbounds [50000 x i32]* @right_child, i32 0, i64 %29
  %31 = load i32* %30, align 4
  %32 = icmp ne i32 %31, -1
  br i1 %32, label %33, label %37

; <label>:33                                      ; preds = %27
  %34 = load i32* %idx, align 4
  %35 = sext i32 %34 to i64
  %36 = getelementptr inbounds [50000 x i32]* @right_child, i32 0, i64 %35
  call void @_ZNSt5stackIiSt5dequeIiSaIiEEE4pushERKi(%"class.std::stack"* %s1, i32* %36)
  br label %37

; <label>:37                                      ; preds = %33, %27
  br label %12

; <label>:38                                      ; preds = %12
  br label %39

; <label>:39                                      ; preds = %42, %38
  %40 = call zeroext i1 @_ZNKSt5stackIiSt5dequeIiSaIiEEE5emptyEv(%"class.std::stack"* %s2)
  %41 = xor i1 %40, true
  br i1 %41, label %42, label %48

; <label>:42                                      ; preds = %39
  %43 = call i32* @_ZNSt5stackIiSt5dequeIiSaIiEEE3topEv(%"class.std::stack"* %s2)
  %44 = load i32* %43
  store i32 %44, i32* %idx1, align 4
  call void @_ZNSt5stackIiSt5dequeIiSaIiEEE3popEv(%"class.std::stack"* %s2)
  %45 = load i32* %idx1, align 4
  %46 = sext i32 %45 to i64
  %47 = getelementptr inbounds [50000 x i32]* @val, i32 0, i64 %46
  call void @_ZNSt6vectorIiSaIiEE9push_backERKi(%"class.std::vector"* %agg.result, i32* %47)
  br label %39

; <label>:48                                      ; preds = %39
  store i1 true, i1* %3
  store i32 1, i32* %4
  call void @_ZNSt5stackIiSt5dequeIiSaIiEEED2Ev(%"class.std::stack"* %s2)
  call void @_ZNSt5stackIiSt5dequeIiSaIiEEED2Ev(%"class.std::stack"* %s1)
  br label %49

; <label>:49                                      ; preds = %48, %10
  %50 = load i1* %3
  br i1 %50, label %52, label %51

; <label>:51                                      ; preds = %49
  call void @_ZNSt6vectorIiSaIiEED2Ev(%"class.std::vector"* %agg.result)
  br label %52

; <label>:52                                      ; preds = %51, %49
  ret void
}

; Function Attrs: nounwind uwtable
define linkonce_odr i64 @_ZNKSt6vectorIiSaIiEE4sizeEv(%"class.std::vector"* %this) #2 align 2 {
  %1 = alloca %"class.std::vector"*, align 8
  store %"class.std::vector"* %this, %"class.std::vector"** %1, align 8
  %2 = load %"class.std::vector"** %1
  %3 = bitcast %"class.std::vector"* %2 to %"struct.std::_Vector_base"*
  %4 = getelementptr inbounds %"struct.std::_Vector_base"* %3, i32 0, i32 0
  %5 = getelementptr inbounds %"struct.std::_Vector_base<int, std::allocator<int> >::_Vector_impl"* %4, i32 0, i32 1
  %6 = load i32** %5, align 8
  %7 = bitcast %"class.std::vector"* %2 to %"struct.std::_Vector_base"*
  %8 = getelementptr inbounds %"struct.std::_Vector_base"* %7, i32 0, i32 0
  %9 = getelementptr inbounds %"struct.std::_Vector_base<int, std::allocator<int> >::_Vector_impl"* %8, i32 0, i32 0
  %10 = load i32** %9, align 8
  %11 = ptrtoint i32* %6 to i64
  %12 = ptrtoint i32* %10 to i64
  %13 = sub i64 %11, %12
  %14 = sdiv exact i64 %13, 4
  ret i64 %14
}

declare %"class.std::basic_ostream"* @_ZStlsISt11char_traitsIcEERSt13basic_ostreamIcT_ES5_PKc(%"class.std::basic_ostream"*, i8*) #1

declare %"class.std::basic_ostream"* @_ZNSolsEi(%"class.std::basic_ostream"*, i32) #1

; Function Attrs: nounwind uwtable
define linkonce_odr i32* @_ZNSt6vectorIiSaIiEEixEm(%"class.std::vector"* %this, i64 %__n) #2 align 2 {
  %1 = alloca %"class.std::vector"*, align 8
  %2 = alloca i64, align 8
  store %"class.std::vector"* %this, %"class.std::vector"** %1, align 8
  store i64 %__n, i64* %2, align 8
  %3 = load %"class.std::vector"** %1
  %4 = bitcast %"class.std::vector"* %3 to %"struct.std::_Vector_base"*
  %5 = getelementptr inbounds %"struct.std::_Vector_base"* %4, i32 0, i32 0
  %6 = getelementptr inbounds %"struct.std::_Vector_base<int, std::allocator<int> >::_Vector_impl"* %5, i32 0, i32 0
  %7 = load i32** %6, align 8
  %8 = load i64* %2, align 8
  %9 = getelementptr inbounds i32* %7, i64 %8
  ret i32* %9
}

declare %"class.std::basic_ostream"* @_ZNSolsEPFRSoS_E(%"class.std::basic_ostream"*, %"class.std::basic_ostream"* (%"class.std::basic_ostream"*)*) #1

declare %"class.std::basic_ostream"* @_ZSt4endlIcSt11char_traitsIcEERSt13basic_ostreamIT_T0_ES6_(%"class.std::basic_ostream"*) #1

; Function Attrs: nounwind uwtable
define linkonce_odr void @_ZNSt6vectorIiSaIiEED2Ev(%"class.std::vector"* %this) unnamed_addr #2 align 2 {
  %1 = alloca %"class.std::vector"*, align 8
  store %"class.std::vector"* %this, %"class.std::vector"** %1, align 8
  %2 = load %"class.std::vector"** %1
  %3 = bitcast %"class.std::vector"* %2 to %"struct.std::_Vector_base"*
  %4 = getelementptr inbounds %"struct.std::_Vector_base"* %3, i32 0, i32 0
  %5 = getelementptr inbounds %"struct.std::_Vector_base<int, std::allocator<int> >::_Vector_impl"* %4, i32 0, i32 0
  %6 = load i32** %5, align 8
  %7 = bitcast %"class.std::vector"* %2 to %"struct.std::_Vector_base"*
  %8 = getelementptr inbounds %"struct.std::_Vector_base"* %7, i32 0, i32 0
  %9 = getelementptr inbounds %"struct.std::_Vector_base<int, std::allocator<int> >::_Vector_impl"* %8, i32 0, i32 1
  %10 = load i32** %9, align 8
  %11 = bitcast %"class.std::vector"* %2 to %"struct.std::_Vector_base"*
  %12 = call %"class.std::allocator"* @_ZNSt12_Vector_baseIiSaIiEE19_M_get_Tp_allocatorEv(%"struct.std::_Vector_base"* %11)
  call void @_ZSt8_DestroyIPiiEvT_S1_RSaIT0_E(i32* %6, i32* %10, %"class.std::allocator"* %12)
  %13 = bitcast %"class.std::vector"* %2 to %"struct.std::_Vector_base"*
  call void @_ZNSt12_Vector_baseIiSaIiEED2Ev(%"struct.std::_Vector_base"* %13)
  ret void
}

; Function Attrs: inlinehint nounwind uwtable
define linkonce_odr void @_ZSt8_DestroyIPiiEvT_S1_RSaIT0_E(i32* %__first, i32* %__last, %"class.std::allocator"*) #3 {
  %2 = alloca i32*, align 8
  %3 = alloca i32*, align 8
  %4 = alloca %"class.std::allocator"*, align 8
  store i32* %__first, i32** %2, align 8
  store i32* %__last, i32** %3, align 8
  store %"class.std::allocator"* %0, %"class.std::allocator"** %4, align 8
  %5 = load i32** %2, align 8
  %6 = load i32** %3, align 8
  call void @_ZSt8_DestroyIPiEvT_S1_(i32* %5, i32* %6)
  ret void
}

; Function Attrs: nounwind uwtable
define linkonce_odr %"class.std::allocator"* @_ZNSt12_Vector_baseIiSaIiEE19_M_get_Tp_allocatorEv(%"struct.std::_Vector_base"* %this) #2 align 2 {
  %1 = alloca %"struct.std::_Vector_base"*, align 8
  store %"struct.std::_Vector_base"* %this, %"struct.std::_Vector_base"** %1, align 8
  %2 = load %"struct.std::_Vector_base"** %1
  %3 = getelementptr inbounds %"struct.std::_Vector_base"* %2, i32 0, i32 0
  %4 = bitcast %"struct.std::_Vector_base<int, std::allocator<int> >::_Vector_impl"* %3 to %"class.std::allocator"*
  ret %"class.std::allocator"* %4
}

; Function Attrs: nounwind uwtable
define linkonce_odr void @_ZNSt12_Vector_baseIiSaIiEED2Ev(%"struct.std::_Vector_base"* %this) unnamed_addr #2 align 2 {
  %1 = alloca %"struct.std::_Vector_base"*, align 8
  store %"struct.std::_Vector_base"* %this, %"struct.std::_Vector_base"** %1, align 8
  %2 = load %"struct.std::_Vector_base"** %1
  %3 = getelementptr inbounds %"struct.std::_Vector_base"* %2, i32 0, i32 0
  %4 = getelementptr inbounds %"struct.std::_Vector_base<int, std::allocator<int> >::_Vector_impl"* %3, i32 0, i32 0
  %5 = load i32** %4, align 8
  %6 = getelementptr inbounds %"struct.std::_Vector_base"* %2, i32 0, i32 0
  %7 = getelementptr inbounds %"struct.std::_Vector_base<int, std::allocator<int> >::_Vector_impl"* %6, i32 0, i32 2
  %8 = load i32** %7, align 8
  %9 = getelementptr inbounds %"struct.std::_Vector_base"* %2, i32 0, i32 0
  %10 = getelementptr inbounds %"struct.std::_Vector_base<int, std::allocator<int> >::_Vector_impl"* %9, i32 0, i32 0
  %11 = load i32** %10, align 8
  %12 = ptrtoint i32* %8 to i64
  %13 = ptrtoint i32* %11 to i64
  %14 = sub i64 %12, %13
  %15 = sdiv exact i64 %14, 4
  call void @_ZNSt12_Vector_baseIiSaIiEE13_M_deallocateEPim(%"struct.std::_Vector_base"* %2, i32* %5, i64 %15)
  %16 = getelementptr inbounds %"struct.std::_Vector_base"* %2, i32 0, i32 0
  call void @_ZNSt12_Vector_baseIiSaIiEE12_Vector_implD2Ev(%"struct.std::_Vector_base<int, std::allocator<int> >::_Vector_impl"* %16) #0
  ret void
}

; Function Attrs: nounwind uwtable
define linkonce_odr void @_ZNSt12_Vector_baseIiSaIiEE13_M_deallocateEPim(%"struct.std::_Vector_base"* %this, i32* %__p, i64 %__n) #2 align 2 {
  %1 = alloca %"struct.std::_Vector_base"*, align 8
  %2 = alloca i32*, align 8
  %3 = alloca i64, align 8
  store %"struct.std::_Vector_base"* %this, %"struct.std::_Vector_base"** %1, align 8
  store i32* %__p, i32** %2, align 8
  store i64 %__n, i64* %3, align 8
  %4 = load %"struct.std::_Vector_base"** %1
  %5 = load i32** %2, align 8
  %6 = icmp ne i32* %5, null
  br i1 %6, label %7, label %12

; <label>:7                                       ; preds = %0
  %8 = getelementptr inbounds %"struct.std::_Vector_base"* %4, i32 0, i32 0
  %9 = bitcast %"struct.std::_Vector_base<int, std::allocator<int> >::_Vector_impl"* %8 to %"class.std::allocator"*
  %10 = load i32** %2, align 8
  %11 = load i64* %3, align 8
  call void @_ZN9__gnu_cxx14__alloc_traitsISaIiEE10deallocateERS1_Pim(%"class.std::allocator"* %9, i32* %10, i64 %11)
  br label %12

; <label>:12                                      ; preds = %7, %0
  ret void
}

; Function Attrs: inlinehint nounwind uwtable
define linkonce_odr void @_ZNSt12_Vector_baseIiSaIiEE12_Vector_implD2Ev(%"struct.std::_Vector_base<int, std::allocator<int> >::_Vector_impl"* %this) unnamed_addr #3 align 2 {
  %1 = alloca %"struct.std::_Vector_base<int, std::allocator<int> >::_Vector_impl"*, align 8
  store %"struct.std::_Vector_base<int, std::allocator<int> >::_Vector_impl"* %this, %"struct.std::_Vector_base<int, std::allocator<int> >::_Vector_impl"** %1, align 8
  %2 = load %"struct.std::_Vector_base<int, std::allocator<int> >::_Vector_impl"** %1
  %3 = bitcast %"struct.std::_Vector_base<int, std::allocator<int> >::_Vector_impl"* %2 to %"class.std::allocator"*
  call void @_ZNSaIiED2Ev(%"class.std::allocator"* %3) #0
  ret void
}

; Function Attrs: nounwind uwtable
define linkonce_odr void @_ZNSaIiED2Ev(%"class.std::allocator"* %this) unnamed_addr #2 align 2 {
  %1 = alloca %"class.std::allocator"*, align 8
  store %"class.std::allocator"* %this, %"class.std::allocator"** %1, align 8
  %2 = load %"class.std::allocator"** %1
  %3 = bitcast %"class.std::allocator"* %2 to %"class.__gnu_cxx::new_allocator"*
  call void @_ZN9__gnu_cxx13new_allocatorIiED2Ev(%"class.__gnu_cxx::new_allocator"* %3) #0
  ret void
}

; Function Attrs: nounwind uwtable
define linkonce_odr void @_ZN9__gnu_cxx13new_allocatorIiED2Ev(%"class.__gnu_cxx::new_allocator"* %this) unnamed_addr #2 align 2 {
  %1 = alloca %"class.__gnu_cxx::new_allocator"*, align 8
  store %"class.__gnu_cxx::new_allocator"* %this, %"class.__gnu_cxx::new_allocator"** %1, align 8
  %2 = load %"class.__gnu_cxx::new_allocator"** %1
  ret void
}

; Function Attrs: nounwind uwtable
define linkonce_odr void @_ZN9__gnu_cxx14__alloc_traitsISaIiEE10deallocateERS1_Pim(%"class.std::allocator"* %__a, i32* %__p, i64 %__n) #2 align 2 {
  %1 = alloca %"class.std::allocator"*, align 8
  %2 = alloca i32*, align 8
  %3 = alloca i64, align 8
  store %"class.std::allocator"* %__a, %"class.std::allocator"** %1, align 8
  store i32* %__p, i32** %2, align 8
  store i64 %__n, i64* %3, align 8
  %4 = load %"class.std::allocator"** %1, align 8
  %5 = bitcast %"class.std::allocator"* %4 to %"class.__gnu_cxx::new_allocator"*
  %6 = load i32** %2, align 8
  %7 = load i64* %3, align 8
  call void @_ZN9__gnu_cxx13new_allocatorIiE10deallocateEPim(%"class.__gnu_cxx::new_allocator"* %5, i32* %6, i64 %7)
  ret void
}

; Function Attrs: nounwind uwtable
define linkonce_odr void @_ZN9__gnu_cxx13new_allocatorIiE10deallocateEPim(%"class.__gnu_cxx::new_allocator"* %this, i32* %__p, i64) #2 align 2 {
  %2 = alloca %"class.__gnu_cxx::new_allocator"*, align 8
  %3 = alloca i32*, align 8
  %4 = alloca i64, align 8
  store %"class.__gnu_cxx::new_allocator"* %this, %"class.__gnu_cxx::new_allocator"** %2, align 8
  store i32* %__p, i32** %3, align 8
  store i64 %0, i64* %4, align 8
  %5 = load %"class.__gnu_cxx::new_allocator"** %2
  %6 = load i32** %3, align 8
  %7 = bitcast i32* %6 to i8*
  call void @_ZdlPv(i8* %7) #0
  ret void
}

; Function Attrs: nobuiltin nounwind
declare void @_ZdlPv(i8*) #4

; Function Attrs: inlinehint nounwind uwtable
define linkonce_odr void @_ZSt8_DestroyIPiEvT_S1_(i32* %__first, i32* %__last) #3 {
  %1 = alloca i32*, align 8
  %2 = alloca i32*, align 8
  store i32* %__first, i32** %1, align 8
  store i32* %__last, i32** %2, align 8
  %3 = load i32** %1, align 8
  %4 = load i32** %2, align 8
  call void @_ZNSt12_Destroy_auxILb1EE9__destroyIPiEEvT_S3_(i32* %3, i32* %4)
  ret void
}

; Function Attrs: nounwind uwtable
define linkonce_odr void @_ZNSt12_Destroy_auxILb1EE9__destroyIPiEEvT_S3_(i32*, i32*) #2 align 2 {
  %3 = alloca i32*, align 8
  %4 = alloca i32*, align 8
  store i32* %0, i32** %3, align 8
  store i32* %1, i32** %4, align 8
  ret void
}

; Function Attrs: nounwind uwtable
define linkonce_odr void @_ZNSt6vectorIiSaIiEEC2Ev(%"class.std::vector"* %this) unnamed_addr #2 align 2 {
  %1 = alloca %"class.std::vector"*, align 8
  store %"class.std::vector"* %this, %"class.std::vector"** %1, align 8
  %2 = load %"class.std::vector"** %1
  %3 = bitcast %"class.std::vector"* %2 to %"struct.std::_Vector_base"*
  call void @_ZNSt12_Vector_baseIiSaIiEEC2Ev(%"struct.std::_Vector_base"* %3)
  ret void
}

; Function Attrs: nounwind uwtable
define linkonce_odr void @_ZNSt5stackIiSt5dequeIiSaIiEEEC2ERKS2_(%"class.std::stack"* %this, %"class.std::deque"* %__c) unnamed_addr #2 align 2 {
  %1 = alloca %"class.std::stack"*, align 8
  %2 = alloca %"class.std::deque"*, align 8
  store %"class.std::stack"* %this, %"class.std::stack"** %1, align 8
  store %"class.std::deque"* %__c, %"class.std::deque"** %2, align 8
  %3 = load %"class.std::stack"** %1
  %4 = getelementptr inbounds %"class.std::stack"* %3, i32 0, i32 0
  %5 = load %"class.std::deque"** %2, align 8
  call void @_ZNSt5dequeIiSaIiEEC2ERKS1_(%"class.std::deque"* %4, %"class.std::deque"* %5)
  ret void
}

; Function Attrs: nounwind uwtable
define linkonce_odr void @_ZNSt5dequeIiSaIiEEC2Ev(%"class.std::deque"* %this) unnamed_addr #2 align 2 {
  %1 = alloca %"class.std::deque"*, align 8
  store %"class.std::deque"* %this, %"class.std::deque"** %1, align 8
  %2 = load %"class.std::deque"** %1
  %3 = bitcast %"class.std::deque"* %2 to %"class.std::_Deque_base"*
  call void @_ZNSt11_Deque_baseIiSaIiEEC2Ev(%"class.std::_Deque_base"* %3)
  ret void
}

; Function Attrs: nounwind uwtable
define linkonce_odr void @_ZNSt5dequeIiSaIiEED2Ev(%"class.std::deque"* %this) unnamed_addr #2 align 2 {
  %1 = alloca %"class.std::deque"*, align 8
  %2 = alloca %"struct.std::_Deque_iterator", align 8
  %3 = alloca %"struct.std::_Deque_iterator", align 8
  store %"class.std::deque"* %this, %"class.std::deque"** %1, align 8
  %4 = load %"class.std::deque"** %1
  call void @_ZNSt5dequeIiSaIiEE5beginEv(%"struct.std::_Deque_iterator"* sret %2, %"class.std::deque"* %4)
  call void @_ZNSt5dequeIiSaIiEE3endEv(%"struct.std::_Deque_iterator"* sret %3, %"class.std::deque"* %4)
  %5 = bitcast %"class.std::deque"* %4 to %"class.std::_Deque_base"*
  %6 = call %"class.std::allocator"* @_ZNSt11_Deque_baseIiSaIiEE19_M_get_Tp_allocatorEv(%"class.std::_Deque_base"* %5)
  call void @_ZNSt5dequeIiSaIiEE15_M_destroy_dataESt15_Deque_iteratorIiRiPiES5_RKS0_(%"class.std::deque"* %4, %"struct.std::_Deque_iterator"* %2, %"struct.std::_Deque_iterator"* %3, %"class.std::allocator"* %6)
  %7 = bitcast %"class.std::deque"* %4 to %"class.std::_Deque_base"*
  call void @_ZNSt11_Deque_baseIiSaIiEED2Ev(%"class.std::_Deque_base"* %7)
  ret void
}

; Function Attrs: nounwind uwtable
define linkonce_odr void @_ZNSt5stackIiSt5dequeIiSaIiEEE4pushERKi(%"class.std::stack"* %this, i32* %__x) #2 align 2 {
  %1 = alloca %"class.std::stack"*, align 8
  %2 = alloca i32*, align 8
  store %"class.std::stack"* %this, %"class.std::stack"** %1, align 8
  store i32* %__x, i32** %2, align 8
  %3 = load %"class.std::stack"** %1
  %4 = getelementptr inbounds %"class.std::stack"* %3, i32 0, i32 0
  %5 = load i32** %2, align 8
  call void @_ZNSt5dequeIiSaIiEE9push_backERKi(%"class.std::deque"* %4, i32* %5)
  ret void
}

; Function Attrs: nounwind uwtable
define linkonce_odr zeroext i1 @_ZNKSt5stackIiSt5dequeIiSaIiEEE5emptyEv(%"class.std::stack"* %this) #2 align 2 {
  %1 = alloca %"class.std::stack"*, align 8
  store %"class.std::stack"* %this, %"class.std::stack"** %1, align 8
  %2 = load %"class.std::stack"** %1
  %3 = getelementptr inbounds %"class.std::stack"* %2, i32 0, i32 0
  %4 = call zeroext i1 @_ZNKSt5dequeIiSaIiEE5emptyEv(%"class.std::deque"* %3)
  ret i1 %4
}

; Function Attrs: nounwind uwtable
define linkonce_odr i32* @_ZNSt5stackIiSt5dequeIiSaIiEEE3topEv(%"class.std::stack"* %this) #2 align 2 {
  %1 = alloca %"class.std::stack"*, align 8
  store %"class.std::stack"* %this, %"class.std::stack"** %1, align 8
  %2 = load %"class.std::stack"** %1
  %3 = getelementptr inbounds %"class.std::stack"* %2, i32 0, i32 0
  %4 = call i32* @_ZNSt5dequeIiSaIiEE4backEv(%"class.std::deque"* %3)
  ret i32* %4
}

; Function Attrs: nounwind uwtable
define linkonce_odr void @_ZNSt5stackIiSt5dequeIiSaIiEEE3popEv(%"class.std::stack"* %this) #2 align 2 {
  %1 = alloca %"class.std::stack"*, align 8
  store %"class.std::stack"* %this, %"class.std::stack"** %1, align 8
  %2 = load %"class.std::stack"** %1
  %3 = getelementptr inbounds %"class.std::stack"* %2, i32 0, i32 0
  call void @_ZNSt5dequeIiSaIiEE8pop_backEv(%"class.std::deque"* %3)
  ret void
}

; Function Attrs: nounwind uwtable
define linkonce_odr void @_ZNSt6vectorIiSaIiEE9push_backERKi(%"class.std::vector"* %this, i32* %__x) #2 align 2 {
  %1 = alloca %"class.std::vector"*, align 8
  %2 = alloca i32*, align 8
  %3 = alloca %"class.__gnu_cxx::__normal_iterator", align 8
  store %"class.std::vector"* %this, %"class.std::vector"** %1, align 8
  store i32* %__x, i32** %2, align 8
  %4 = load %"class.std::vector"** %1
  %5 = bitcast %"class.std::vector"* %4 to %"struct.std::_Vector_base"*
  %6 = getelementptr inbounds %"struct.std::_Vector_base"* %5, i32 0, i32 0
  %7 = getelementptr inbounds %"struct.std::_Vector_base<int, std::allocator<int> >::_Vector_impl"* %6, i32 0, i32 1
  %8 = load i32** %7, align 8
  %9 = bitcast %"class.std::vector"* %4 to %"struct.std::_Vector_base"*
  %10 = getelementptr inbounds %"struct.std::_Vector_base"* %9, i32 0, i32 0
  %11 = getelementptr inbounds %"struct.std::_Vector_base<int, std::allocator<int> >::_Vector_impl"* %10, i32 0, i32 2
  %12 = load i32** %11, align 8
  %13 = icmp ne i32* %8, %12
  br i1 %13, label %14, label %28

; <label>:14                                      ; preds = %0
  %15 = bitcast %"class.std::vector"* %4 to %"struct.std::_Vector_base"*
  %16 = getelementptr inbounds %"struct.std::_Vector_base"* %15, i32 0, i32 0
  %17 = bitcast %"struct.std::_Vector_base<int, std::allocator<int> >::_Vector_impl"* %16 to %"class.std::allocator"*
  %18 = bitcast %"class.std::vector"* %4 to %"struct.std::_Vector_base"*
  %19 = getelementptr inbounds %"struct.std::_Vector_base"* %18, i32 0, i32 0
  %20 = getelementptr inbounds %"struct.std::_Vector_base<int, std::allocator<int> >::_Vector_impl"* %19, i32 0, i32 1
  %21 = load i32** %20, align 8
  %22 = load i32** %2, align 8
  call void @_ZN9__gnu_cxx14__alloc_traitsISaIiEE9constructIiEEvRS1_PiRKT_(%"class.std::allocator"* %17, i32* %21, i32* %22)
  %23 = bitcast %"class.std::vector"* %4 to %"struct.std::_Vector_base"*
  %24 = getelementptr inbounds %"struct.std::_Vector_base"* %23, i32 0, i32 0
  %25 = getelementptr inbounds %"struct.std::_Vector_base<int, std::allocator<int> >::_Vector_impl"* %24, i32 0, i32 1
  %26 = load i32** %25, align 8
  %27 = getelementptr inbounds i32* %26, i32 1
  store i32* %27, i32** %25, align 8
  br label %34

; <label>:28                                      ; preds = %0
  %29 = call i32* @_ZNSt6vectorIiSaIiEE3endEv(%"class.std::vector"* %4)
  %30 = getelementptr %"class.__gnu_cxx::__normal_iterator"* %3, i32 0, i32 0
  store i32* %29, i32** %30
  %31 = load i32** %2, align 8
  %32 = getelementptr %"class.__gnu_cxx::__normal_iterator"* %3, i32 0, i32 0
  %33 = load i32** %32
  call void @_ZNSt6vectorIiSaIiEE13_M_insert_auxEN9__gnu_cxx17__normal_iteratorIPiS1_EERKi(%"class.std::vector"* %4, i32* %33, i32* %31)
  br label %34

; <label>:34                                      ; preds = %28, %14
  ret void
}

; Function Attrs: inlinehint nounwind uwtable
define linkonce_odr void @_ZNSt5stackIiSt5dequeIiSaIiEEED2Ev(%"class.std::stack"* %this) unnamed_addr #3 align 2 {
  %1 = alloca %"class.std::stack"*, align 8
  store %"class.std::stack"* %this, %"class.std::stack"** %1, align 8
  %2 = load %"class.std::stack"** %1
  %3 = getelementptr inbounds %"class.std::stack"* %2, i32 0, i32 0
  call void @_ZNSt5dequeIiSaIiEED2Ev(%"class.std::deque"* %3)
  ret void
}

; Function Attrs: nounwind uwtable
define linkonce_odr void @_ZN9__gnu_cxx14__alloc_traitsISaIiEE9constructIiEEvRS1_PiRKT_(%"class.std::allocator"* %__a, i32* %__p, i32* %__arg) #2 align 2 {
  %1 = alloca %"class.std::allocator"*, align 8
  %2 = alloca i32*, align 8
  %3 = alloca i32*, align 8
  store %"class.std::allocator"* %__a, %"class.std::allocator"** %1, align 8
  store i32* %__p, i32** %2, align 8
  store i32* %__arg, i32** %3, align 8
  %4 = load %"class.std::allocator"** %1, align 8
  %5 = bitcast %"class.std::allocator"* %4 to %"class.__gnu_cxx::new_allocator"*
  %6 = load i32** %2, align 8
  %7 = load i32** %3, align 8
  call void @_ZN9__gnu_cxx13new_allocatorIiE9constructEPiRKi(%"class.__gnu_cxx::new_allocator"* %5, i32* %6, i32* %7)
  ret void
}

; Function Attrs: nounwind uwtable
define linkonce_odr void @_ZNSt6vectorIiSaIiEE13_M_insert_auxEN9__gnu_cxx17__normal_iteratorIPiS1_EERKi(%"class.std::vector"* %this, i32* %__position.coerce, i32* %__x) #2 align 2 {
  %1 = alloca %"class.std::vector"*, align 8
  %__position = alloca %"class.__gnu_cxx::__normal_iterator", align 8
  %2 = alloca i32*, align 8
  %__x_copy = alloca i32, align 4
  %__len = alloca i64, align 8
  %__elems_before = alloca i64, align 8
  %3 = alloca %"class.__gnu_cxx::__normal_iterator", align 8
  %__new_start = alloca i32*, align 8
  %__new_finish = alloca i32*, align 8
  store %"class.std::vector"* %this, %"class.std::vector"** %1, align 8
  %4 = getelementptr %"class.__gnu_cxx::__normal_iterator"* %__position, i32 0, i32 0
  store i32* %__position.coerce, i32** %4
  store i32* %__x, i32** %2, align 8
  %5 = load %"class.std::vector"** %1
  %6 = bitcast %"class.std::vector"* %5 to %"struct.std::_Vector_base"*
  %7 = getelementptr inbounds %"struct.std::_Vector_base"* %6, i32 0, i32 0
  %8 = getelementptr inbounds %"struct.std::_Vector_base<int, std::allocator<int> >::_Vector_impl"* %7, i32 0, i32 1
  %9 = load i32** %8, align 8
  %10 = bitcast %"class.std::vector"* %5 to %"struct.std::_Vector_base"*
  %11 = getelementptr inbounds %"struct.std::_Vector_base"* %10, i32 0, i32 0
  %12 = getelementptr inbounds %"struct.std::_Vector_base<int, std::allocator<int> >::_Vector_impl"* %11, i32 0, i32 2
  %13 = load i32** %12, align 8
  %14 = icmp ne i32* %9, %13
  br i1 %14, label %15, label %50

; <label>:15                                      ; preds = %0
  %16 = bitcast %"class.std::vector"* %5 to %"struct.std::_Vector_base"*
  %17 = getelementptr inbounds %"struct.std::_Vector_base"* %16, i32 0, i32 0
  %18 = bitcast %"struct.std::_Vector_base<int, std::allocator<int> >::_Vector_impl"* %17 to %"class.std::allocator"*
  %19 = bitcast %"class.std::vector"* %5 to %"struct.std::_Vector_base"*
  %20 = getelementptr inbounds %"struct.std::_Vector_base"* %19, i32 0, i32 0
  %21 = getelementptr inbounds %"struct.std::_Vector_base<int, std::allocator<int> >::_Vector_impl"* %20, i32 0, i32 1
  %22 = load i32** %21, align 8
  %23 = bitcast %"class.std::vector"* %5 to %"struct.std::_Vector_base"*
  %24 = getelementptr inbounds %"struct.std::_Vector_base"* %23, i32 0, i32 0
  %25 = getelementptr inbounds %"struct.std::_Vector_base<int, std::allocator<int> >::_Vector_impl"* %24, i32 0, i32 1
  %26 = load i32** %25, align 8
  %27 = getelementptr inbounds i32* %26, i64 -1
  call void @_ZN9__gnu_cxx14__alloc_traitsISaIiEE9constructIiEEvRS1_PiRKT_(%"class.std::allocator"* %18, i32* %22, i32* %27)
  %28 = bitcast %"class.std::vector"* %5 to %"struct.std::_Vector_base"*
  %29 = getelementptr inbounds %"struct.std::_Vector_base"* %28, i32 0, i32 0
  %30 = getelementptr inbounds %"struct.std::_Vector_base<int, std::allocator<int> >::_Vector_impl"* %29, i32 0, i32 1
  %31 = load i32** %30, align 8
  %32 = getelementptr inbounds i32* %31, i32 1
  store i32* %32, i32** %30, align 8
  %33 = load i32** %2, align 8
  %34 = load i32* %33, align 4
  store i32 %34, i32* %__x_copy, align 4
  %35 = call i32** @_ZNK9__gnu_cxx17__normal_iteratorIPiSt6vectorIiSaIiEEE4baseEv(%"class.__gnu_cxx::__normal_iterator"* %__position)
  %36 = load i32** %35
  %37 = bitcast %"class.std::vector"* %5 to %"struct.std::_Vector_base"*
  %38 = getelementptr inbounds %"struct.std::_Vector_base"* %37, i32 0, i32 0
  %39 = getelementptr inbounds %"struct.std::_Vector_base<int, std::allocator<int> >::_Vector_impl"* %38, i32 0, i32 1
  %40 = load i32** %39, align 8
  %41 = getelementptr inbounds i32* %40, i64 -2
  %42 = bitcast %"class.std::vector"* %5 to %"struct.std::_Vector_base"*
  %43 = getelementptr inbounds %"struct.std::_Vector_base"* %42, i32 0, i32 0
  %44 = getelementptr inbounds %"struct.std::_Vector_base<int, std::allocator<int> >::_Vector_impl"* %43, i32 0, i32 1
  %45 = load i32** %44, align 8
  %46 = getelementptr inbounds i32* %45, i64 -1
  %47 = call i32* @_ZSt13copy_backwardIPiS0_ET0_T_S2_S1_(i32* %36, i32* %41, i32* %46)
  %48 = load i32* %__x_copy, align 4
  %49 = call i32* @_ZNK9__gnu_cxx17__normal_iteratorIPiSt6vectorIiSaIiEEEdeEv(%"class.__gnu_cxx::__normal_iterator"* %__position)
  store i32 %48, i32* %49
  br label %129

; <label>:50                                      ; preds = %0
  %51 = call i64 @_ZNKSt6vectorIiSaIiEE12_M_check_lenEmPKc(%"class.std::vector"* %5, i64 1, i8* getelementptr inbounds ([22 x i8]* @.str6, i32 0, i32 0))
  store i64 %51, i64* %__len, align 8
  %52 = call i32* @_ZNSt6vectorIiSaIiEE5beginEv(%"class.std::vector"* %5)
  %53 = getelementptr %"class.__gnu_cxx::__normal_iterator"* %3, i32 0, i32 0
  store i32* %52, i32** %53
  %54 = call i64 @_ZN9__gnu_cxxmiIPiSt6vectorIiSaIiEEEENS_17__normal_iteratorIT_T0_E15difference_typeERKS8_SB_(%"class.__gnu_cxx::__normal_iterator"* %__position, %"class.__gnu_cxx::__normal_iterator"* %3)
  store i64 %54, i64* %__elems_before, align 8
  %55 = bitcast %"class.std::vector"* %5 to %"struct.std::_Vector_base"*
  %56 = load i64* %__len, align 8
  %57 = call i32* @_ZNSt12_Vector_baseIiSaIiEE11_M_allocateEm(%"struct.std::_Vector_base"* %55, i64 %56)
  store i32* %57, i32** %__new_start, align 8
  %58 = load i32** %__new_start, align 8
  store i32* %58, i32** %__new_finish, align 8
  %59 = bitcast %"class.std::vector"* %5 to %"struct.std::_Vector_base"*
  %60 = getelementptr inbounds %"struct.std::_Vector_base"* %59, i32 0, i32 0
  %61 = bitcast %"struct.std::_Vector_base<int, std::allocator<int> >::_Vector_impl"* %60 to %"class.std::allocator"*
  %62 = load i32** %__new_start, align 8
  %63 = load i64* %__elems_before, align 8
  %64 = getelementptr inbounds i32* %62, i64 %63
  %65 = load i32** %2, align 8
  call void @_ZN9__gnu_cxx14__alloc_traitsISaIiEE9constructIiEEvRS1_PiRKT_(%"class.std::allocator"* %61, i32* %64, i32* %65)
  store i32* null, i32** %__new_finish, align 8
  %66 = bitcast %"class.std::vector"* %5 to %"struct.std::_Vector_base"*
  %67 = getelementptr inbounds %"struct.std::_Vector_base"* %66, i32 0, i32 0
  %68 = getelementptr inbounds %"struct.std::_Vector_base<int, std::allocator<int> >::_Vector_impl"* %67, i32 0, i32 0
  %69 = load i32** %68, align 8
  %70 = call i32** @_ZNK9__gnu_cxx17__normal_iteratorIPiSt6vectorIiSaIiEEE4baseEv(%"class.__gnu_cxx::__normal_iterator"* %__position)
  %71 = load i32** %70
  %72 = load i32** %__new_start, align 8
  %73 = bitcast %"class.std::vector"* %5 to %"struct.std::_Vector_base"*
  %74 = call %"class.std::allocator"* @_ZNSt12_Vector_baseIiSaIiEE19_M_get_Tp_allocatorEv(%"struct.std::_Vector_base"* %73)
  %75 = call i32* @_ZSt34__uninitialized_move_if_noexcept_aIPiS0_SaIiEET0_T_S3_S2_RT1_(i32* %69, i32* %71, i32* %72, %"class.std::allocator"* %74)
  store i32* %75, i32** %__new_finish, align 8
  %76 = load i32** %__new_finish, align 8
  %77 = getelementptr inbounds i32* %76, i32 1
  store i32* %77, i32** %__new_finish, align 8
  %78 = call i32** @_ZNK9__gnu_cxx17__normal_iteratorIPiSt6vectorIiSaIiEEE4baseEv(%"class.__gnu_cxx::__normal_iterator"* %__position)
  %79 = load i32** %78
  %80 = bitcast %"class.std::vector"* %5 to %"struct.std::_Vector_base"*
  %81 = getelementptr inbounds %"struct.std::_Vector_base"* %80, i32 0, i32 0
  %82 = getelementptr inbounds %"struct.std::_Vector_base<int, std::allocator<int> >::_Vector_impl"* %81, i32 0, i32 1
  %83 = load i32** %82, align 8
  %84 = load i32** %__new_finish, align 8
  %85 = bitcast %"class.std::vector"* %5 to %"struct.std::_Vector_base"*
  %86 = call %"class.std::allocator"* @_ZNSt12_Vector_baseIiSaIiEE19_M_get_Tp_allocatorEv(%"struct.std::_Vector_base"* %85)
  %87 = call i32* @_ZSt34__uninitialized_move_if_noexcept_aIPiS0_SaIiEET0_T_S3_S2_RT1_(i32* %79, i32* %83, i32* %84, %"class.std::allocator"* %86)
  store i32* %87, i32** %__new_finish, align 8
  %88 = bitcast %"class.std::vector"* %5 to %"struct.std::_Vector_base"*
  %89 = getelementptr inbounds %"struct.std::_Vector_base"* %88, i32 0, i32 0
  %90 = getelementptr inbounds %"struct.std::_Vector_base<int, std::allocator<int> >::_Vector_impl"* %89, i32 0, i32 0
  %91 = load i32** %90, align 8
  %92 = bitcast %"class.std::vector"* %5 to %"struct.std::_Vector_base"*
  %93 = getelementptr inbounds %"struct.std::_Vector_base"* %92, i32 0, i32 0
  %94 = getelementptr inbounds %"struct.std::_Vector_base<int, std::allocator<int> >::_Vector_impl"* %93, i32 0, i32 1
  %95 = load i32** %94, align 8
  %96 = bitcast %"class.std::vector"* %5 to %"struct.std::_Vector_base"*
  %97 = call %"class.std::allocator"* @_ZNSt12_Vector_baseIiSaIiEE19_M_get_Tp_allocatorEv(%"struct.std::_Vector_base"* %96)
  call void @_ZSt8_DestroyIPiiEvT_S1_RSaIT0_E(i32* %91, i32* %95, %"class.std::allocator"* %97)
  %98 = bitcast %"class.std::vector"* %5 to %"struct.std::_Vector_base"*
  %99 = bitcast %"class.std::vector"* %5 to %"struct.std::_Vector_base"*
  %100 = getelementptr inbounds %"struct.std::_Vector_base"* %99, i32 0, i32 0
  %101 = getelementptr inbounds %"struct.std::_Vector_base<int, std::allocator<int> >::_Vector_impl"* %100, i32 0, i32 0
  %102 = load i32** %101, align 8
  %103 = bitcast %"class.std::vector"* %5 to %"struct.std::_Vector_base"*
  %104 = getelementptr inbounds %"struct.std::_Vector_base"* %103, i32 0, i32 0
  %105 = getelementptr inbounds %"struct.std::_Vector_base<int, std::allocator<int> >::_Vector_impl"* %104, i32 0, i32 2
  %106 = load i32** %105, align 8
  %107 = bitcast %"class.std::vector"* %5 to %"struct.std::_Vector_base"*
  %108 = getelementptr inbounds %"struct.std::_Vector_base"* %107, i32 0, i32 0
  %109 = getelementptr inbounds %"struct.std::_Vector_base<int, std::allocator<int> >::_Vector_impl"* %108, i32 0, i32 0
  %110 = load i32** %109, align 8
  %111 = ptrtoint i32* %106 to i64
  %112 = ptrtoint i32* %110 to i64
  %113 = sub i64 %111, %112
  %114 = sdiv exact i64 %113, 4
  call void @_ZNSt12_Vector_baseIiSaIiEE13_M_deallocateEPim(%"struct.std::_Vector_base"* %98, i32* %102, i64 %114)
  %115 = load i32** %__new_start, align 8
  %116 = bitcast %"class.std::vector"* %5 to %"struct.std::_Vector_base"*
  %117 = getelementptr inbounds %"struct.std::_Vector_base"* %116, i32 0, i32 0
  %118 = getelementptr inbounds %"struct.std::_Vector_base<int, std::allocator<int> >::_Vector_impl"* %117, i32 0, i32 0
  store i32* %115, i32** %118, align 8
  %119 = load i32** %__new_finish, align 8
  %120 = bitcast %"class.std::vector"* %5 to %"struct.std::_Vector_base"*
  %121 = getelementptr inbounds %"struct.std::_Vector_base"* %120, i32 0, i32 0
  %122 = getelementptr inbounds %"struct.std::_Vector_base<int, std::allocator<int> >::_Vector_impl"* %121, i32 0, i32 1
  store i32* %119, i32** %122, align 8
  %123 = load i32** %__new_start, align 8
  %124 = load i64* %__len, align 8
  %125 = getelementptr inbounds i32* %123, i64 %124
  %126 = bitcast %"class.std::vector"* %5 to %"struct.std::_Vector_base"*
  %127 = getelementptr inbounds %"struct.std::_Vector_base"* %126, i32 0, i32 0
  %128 = getelementptr inbounds %"struct.std::_Vector_base<int, std::allocator<int> >::_Vector_impl"* %127, i32 0, i32 2
  store i32* %125, i32** %128, align 8
  br label %129

; <label>:129                                     ; preds = %50, %15
  ret void
}

; Function Attrs: nounwind uwtable
define linkonce_odr i32* @_ZNSt6vectorIiSaIiEE3endEv(%"class.std::vector"* %this) #2 align 2 {
  %1 = alloca %"class.__gnu_cxx::__normal_iterator", align 8
  %2 = alloca %"class.std::vector"*, align 8
  store %"class.std::vector"* %this, %"class.std::vector"** %2, align 8
  %3 = load %"class.std::vector"** %2
  %4 = bitcast %"class.std::vector"* %3 to %"struct.std::_Vector_base"*
  %5 = getelementptr inbounds %"struct.std::_Vector_base"* %4, i32 0, i32 0
  %6 = getelementptr inbounds %"struct.std::_Vector_base<int, std::allocator<int> >::_Vector_impl"* %5, i32 0, i32 1
  call void @_ZN9__gnu_cxx17__normal_iteratorIPiSt6vectorIiSaIiEEEC2ERKS1_(%"class.__gnu_cxx::__normal_iterator"* %1, i32** %6)
  %7 = getelementptr %"class.__gnu_cxx::__normal_iterator"* %1, i32 0, i32 0
  %8 = load i32** %7
  ret i32* %8
}

; Function Attrs: nounwind uwtable
define linkonce_odr void @_ZN9__gnu_cxx17__normal_iteratorIPiSt6vectorIiSaIiEEEC2ERKS1_(%"class.__gnu_cxx::__normal_iterator"* %this, i32** %__i) unnamed_addr #2 align 2 {
  %1 = alloca %"class.__gnu_cxx::__normal_iterator"*, align 8
  %2 = alloca i32**, align 8
  store %"class.__gnu_cxx::__normal_iterator"* %this, %"class.__gnu_cxx::__normal_iterator"** %1, align 8
  store i32** %__i, i32*** %2, align 8
  %3 = load %"class.__gnu_cxx::__normal_iterator"** %1
  %4 = getelementptr inbounds %"class.__gnu_cxx::__normal_iterator"* %3, i32 0, i32 0
  %5 = load i32*** %2, align 8
  %6 = load i32** %5, align 8
  store i32* %6, i32** %4, align 8
  ret void
}

; Function Attrs: inlinehint nounwind uwtable
define linkonce_odr i32* @_ZSt13copy_backwardIPiS0_ET0_T_S2_S1_(i32* %__first, i32* %__last, i32* %__result) #3 {
  %1 = alloca i32*, align 8
  %2 = alloca i32*, align 8
  %3 = alloca i32*, align 8
  store i32* %__first, i32** %1, align 8
  store i32* %__last, i32** %2, align 8
  store i32* %__result, i32** %3, align 8
  %4 = load i32** %1, align 8
  %5 = call i32* @_ZSt12__miter_baseIPiENSt11_Miter_baseIT_E13iterator_typeES2_(i32* %4)
  %6 = load i32** %2, align 8
  %7 = call i32* @_ZSt12__miter_baseIPiENSt11_Miter_baseIT_E13iterator_typeES2_(i32* %6)
  %8 = load i32** %3, align 8
  %9 = call i32* @_ZSt23__copy_move_backward_a2ILb0EPiS0_ET1_T0_S2_S1_(i32* %5, i32* %7, i32* %8)
  ret i32* %9
}

; Function Attrs: nounwind uwtable
define linkonce_odr i32** @_ZNK9__gnu_cxx17__normal_iteratorIPiSt6vectorIiSaIiEEE4baseEv(%"class.__gnu_cxx::__normal_iterator"* %this) #2 align 2 {
  %1 = alloca %"class.__gnu_cxx::__normal_iterator"*, align 8
  store %"class.__gnu_cxx::__normal_iterator"* %this, %"class.__gnu_cxx::__normal_iterator"** %1, align 8
  %2 = load %"class.__gnu_cxx::__normal_iterator"** %1
  %3 = getelementptr inbounds %"class.__gnu_cxx::__normal_iterator"* %2, i32 0, i32 0
  ret i32** %3
}

; Function Attrs: nounwind uwtable
define linkonce_odr i32* @_ZNK9__gnu_cxx17__normal_iteratorIPiSt6vectorIiSaIiEEEdeEv(%"class.__gnu_cxx::__normal_iterator"* %this) #2 align 2 {
  %1 = alloca %"class.__gnu_cxx::__normal_iterator"*, align 8
  store %"class.__gnu_cxx::__normal_iterator"* %this, %"class.__gnu_cxx::__normal_iterator"** %1, align 8
  %2 = load %"class.__gnu_cxx::__normal_iterator"** %1
  %3 = getelementptr inbounds %"class.__gnu_cxx::__normal_iterator"* %2, i32 0, i32 0
  %4 = load i32** %3, align 8
  ret i32* %4
}

; Function Attrs: nounwind uwtable
define linkonce_odr i64 @_ZNKSt6vectorIiSaIiEE12_M_check_lenEmPKc(%"class.std::vector"* %this, i64 %__n, i8* %__s) #2 align 2 {
  %1 = alloca %"class.std::vector"*, align 8
  %2 = alloca i64, align 8
  %3 = alloca i8*, align 8
  %__len = alloca i64, align 8
  %4 = alloca i64, align 8
  store %"class.std::vector"* %this, %"class.std::vector"** %1, align 8
  store i64 %__n, i64* %2, align 8
  store i8* %__s, i8** %3, align 8
  %5 = load %"class.std::vector"** %1
  %6 = call i64 @_ZNKSt6vectorIiSaIiEE8max_sizeEv(%"class.std::vector"* %5)
  %7 = call i64 @_ZNKSt6vectorIiSaIiEE4sizeEv(%"class.std::vector"* %5)
  %8 = sub i64 %6, %7
  %9 = load i64* %2, align 8
  %10 = icmp ult i64 %8, %9
  br i1 %10, label %11, label %13

; <label>:11                                      ; preds = %0
  %12 = load i8** %3, align 8
  call void @_ZSt20__throw_length_errorPKc(i8* %12) #7
  unreachable

; <label>:13                                      ; preds = %0
  %14 = call i64 @_ZNKSt6vectorIiSaIiEE4sizeEv(%"class.std::vector"* %5)
  %15 = call i64 @_ZNKSt6vectorIiSaIiEE4sizeEv(%"class.std::vector"* %5)
  store i64 %15, i64* %4
  %16 = call i64* @_ZSt3maxImERKT_S2_S2_(i64* %4, i64* %2)
  %17 = load i64* %16
  %18 = add i64 %14, %17
  store i64 %18, i64* %__len, align 8
  %19 = load i64* %__len, align 8
  %20 = call i64 @_ZNKSt6vectorIiSaIiEE4sizeEv(%"class.std::vector"* %5)
  %21 = icmp ult i64 %19, %20
  br i1 %21, label %26, label %22

; <label>:22                                      ; preds = %13
  %23 = load i64* %__len, align 8
  %24 = call i64 @_ZNKSt6vectorIiSaIiEE8max_sizeEv(%"class.std::vector"* %5)
  %25 = icmp ugt i64 %23, %24
  br i1 %25, label %26, label %28

; <label>:26                                      ; preds = %22, %13
  %27 = call i64 @_ZNKSt6vectorIiSaIiEE8max_sizeEv(%"class.std::vector"* %5)
  br label %30

; <label>:28                                      ; preds = %22
  %29 = load i64* %__len, align 8
  br label %30

; <label>:30                                      ; preds = %28, %26
  %31 = phi i64 [ %27, %26 ], [ %29, %28 ]
  ret i64 %31
}

; Function Attrs: inlinehint nounwind uwtable
define linkonce_odr i64 @_ZN9__gnu_cxxmiIPiSt6vectorIiSaIiEEEENS_17__normal_iteratorIT_T0_E15difference_typeERKS8_SB_(%"class.__gnu_cxx::__normal_iterator"* %__lhs, %"class.__gnu_cxx::__normal_iterator"* %__rhs) #3 {
  %1 = alloca %"class.__gnu_cxx::__normal_iterator"*, align 8
  %2 = alloca %"class.__gnu_cxx::__normal_iterator"*, align 8
  store %"class.__gnu_cxx::__normal_iterator"* %__lhs, %"class.__gnu_cxx::__normal_iterator"** %1, align 8
  store %"class.__gnu_cxx::__normal_iterator"* %__rhs, %"class.__gnu_cxx::__normal_iterator"** %2, align 8
  %3 = load %"class.__gnu_cxx::__normal_iterator"** %1, align 8
  %4 = call i32** @_ZNK9__gnu_cxx17__normal_iteratorIPiSt6vectorIiSaIiEEE4baseEv(%"class.__gnu_cxx::__normal_iterator"* %3)
  %5 = load i32** %4
  %6 = load %"class.__gnu_cxx::__normal_iterator"** %2, align 8
  %7 = call i32** @_ZNK9__gnu_cxx17__normal_iteratorIPiSt6vectorIiSaIiEEE4baseEv(%"class.__gnu_cxx::__normal_iterator"* %6)
  %8 = load i32** %7
  %9 = ptrtoint i32* %5 to i64
  %10 = ptrtoint i32* %8 to i64
  %11 = sub i64 %9, %10
  %12 = sdiv exact i64 %11, 4
  ret i64 %12
}

; Function Attrs: nounwind uwtable
define linkonce_odr i32* @_ZNSt6vectorIiSaIiEE5beginEv(%"class.std::vector"* %this) #2 align 2 {
  %1 = alloca %"class.__gnu_cxx::__normal_iterator", align 8
  %2 = alloca %"class.std::vector"*, align 8
  store %"class.std::vector"* %this, %"class.std::vector"** %2, align 8
  %3 = load %"class.std::vector"** %2
  %4 = bitcast %"class.std::vector"* %3 to %"struct.std::_Vector_base"*
  %5 = getelementptr inbounds %"struct.std::_Vector_base"* %4, i32 0, i32 0
  %6 = getelementptr inbounds %"struct.std::_Vector_base<int, std::allocator<int> >::_Vector_impl"* %5, i32 0, i32 0
  call void @_ZN9__gnu_cxx17__normal_iteratorIPiSt6vectorIiSaIiEEEC2ERKS1_(%"class.__gnu_cxx::__normal_iterator"* %1, i32** %6)
  %7 = getelementptr %"class.__gnu_cxx::__normal_iterator"* %1, i32 0, i32 0
  %8 = load i32** %7
  ret i32* %8
}

; Function Attrs: nounwind uwtable
define linkonce_odr i32* @_ZNSt12_Vector_baseIiSaIiEE11_M_allocateEm(%"struct.std::_Vector_base"* %this, i64 %__n) #2 align 2 {
  %1 = alloca %"struct.std::_Vector_base"*, align 8
  %2 = alloca i64, align 8
  store %"struct.std::_Vector_base"* %this, %"struct.std::_Vector_base"** %1, align 8
  store i64 %__n, i64* %2, align 8
  %3 = load %"struct.std::_Vector_base"** %1
  %4 = load i64* %2, align 8
  %5 = icmp ne i64 %4, 0
  br i1 %5, label %6, label %11

; <label>:6                                       ; preds = %0
  %7 = getelementptr inbounds %"struct.std::_Vector_base"* %3, i32 0, i32 0
  %8 = bitcast %"struct.std::_Vector_base<int, std::allocator<int> >::_Vector_impl"* %7 to %"class.std::allocator"*
  %9 = load i64* %2, align 8
  %10 = call i32* @_ZN9__gnu_cxx14__alloc_traitsISaIiEE8allocateERS1_m(%"class.std::allocator"* %8, i64 %9)
  br label %12

; <label>:11                                      ; preds = %0
  br label %12

; <label>:12                                      ; preds = %11, %6
  %13 = phi i32* [ %10, %6 ], [ null, %11 ]
  ret i32* %13
}

; Function Attrs: inlinehint nounwind uwtable
define linkonce_odr i32* @_ZSt34__uninitialized_move_if_noexcept_aIPiS0_SaIiEET0_T_S3_S2_RT1_(i32* %__first, i32* %__last, i32* %__result, %"class.std::allocator"* %__alloc) #3 {
  %1 = alloca i32*, align 8
  %2 = alloca i32*, align 8
  %3 = alloca i32*, align 8
  %4 = alloca %"class.std::allocator"*, align 8
  store i32* %__first, i32** %1, align 8
  store i32* %__last, i32** %2, align 8
  store i32* %__result, i32** %3, align 8
  store %"class.std::allocator"* %__alloc, %"class.std::allocator"** %4, align 8
  %5 = load i32** %1, align 8
  %6 = load i32** %2, align 8
  %7 = load i32** %3, align 8
  %8 = load %"class.std::allocator"** %4, align 8
  %9 = call i32* @_ZSt22__uninitialized_copy_aIPiS0_iET0_T_S2_S1_RSaIT1_E(i32* %5, i32* %6, i32* %7, %"class.std::allocator"* %8)
  ret i32* %9
}

; Function Attrs: inlinehint nounwind uwtable
define linkonce_odr i32* @_ZSt22__uninitialized_copy_aIPiS0_iET0_T_S2_S1_RSaIT1_E(i32* %__first, i32* %__last, i32* %__result, %"class.std::allocator"*) #3 {
  %2 = alloca i32*, align 8
  %3 = alloca i32*, align 8
  %4 = alloca i32*, align 8
  %5 = alloca %"class.std::allocator"*, align 8
  store i32* %__first, i32** %2, align 8
  store i32* %__last, i32** %3, align 8
  store i32* %__result, i32** %4, align 8
  store %"class.std::allocator"* %0, %"class.std::allocator"** %5, align 8
  %6 = load i32** %2, align 8
  %7 = load i32** %3, align 8
  %8 = load i32** %4, align 8
  %9 = call i32* @_ZSt18uninitialized_copyIPiS0_ET0_T_S2_S1_(i32* %6, i32* %7, i32* %8)
  ret i32* %9
}

; Function Attrs: inlinehint nounwind uwtable
define linkonce_odr i32* @_ZSt18uninitialized_copyIPiS0_ET0_T_S2_S1_(i32* %__first, i32* %__last, i32* %__result) #3 {
  %1 = alloca i32*, align 8
  %2 = alloca i32*, align 8
  %3 = alloca i32*, align 8
  %__assignable = alloca i8, align 1
  store i32* %__first, i32** %1, align 8
  store i32* %__last, i32** %2, align 8
  store i32* %__result, i32** %3, align 8
  store i8 1, i8* %__assignable, align 1
  %4 = load i32** %1, align 8
  %5 = load i32** %2, align 8
  %6 = load i32** %3, align 8
  %7 = call i32* @_ZNSt20__uninitialized_copyILb1EE13__uninit_copyIPiS2_EET0_T_S4_S3_(i32* %4, i32* %5, i32* %6)
  ret i32* %7
}

; Function Attrs: nounwind uwtable
define linkonce_odr i32* @_ZNSt20__uninitialized_copyILb1EE13__uninit_copyIPiS2_EET0_T_S4_S3_(i32* %__first, i32* %__last, i32* %__result) #2 align 2 {
  %1 = alloca i32*, align 8
  %2 = alloca i32*, align 8
  %3 = alloca i32*, align 8
  store i32* %__first, i32** %1, align 8
  store i32* %__last, i32** %2, align 8
  store i32* %__result, i32** %3, align 8
  %4 = load i32** %1, align 8
  %5 = load i32** %2, align 8
  %6 = load i32** %3, align 8
  %7 = call i32* @_ZSt4copyIPiS0_ET0_T_S2_S1_(i32* %4, i32* %5, i32* %6)
  ret i32* %7
}

; Function Attrs: inlinehint nounwind uwtable
define linkonce_odr i32* @_ZSt4copyIPiS0_ET0_T_S2_S1_(i32* %__first, i32* %__last, i32* %__result) #3 {
  %1 = alloca i32*, align 8
  %2 = alloca i32*, align 8
  %3 = alloca i32*, align 8
  store i32* %__first, i32** %1, align 8
  store i32* %__last, i32** %2, align 8
  store i32* %__result, i32** %3, align 8
  %4 = load i32** %1, align 8
  %5 = call i32* @_ZSt12__miter_baseIPiENSt11_Miter_baseIT_E13iterator_typeES2_(i32* %4)
  %6 = load i32** %2, align 8
  %7 = call i32* @_ZSt12__miter_baseIPiENSt11_Miter_baseIT_E13iterator_typeES2_(i32* %6)
  %8 = load i32** %3, align 8
  %9 = call i32* @_ZSt14__copy_move_a2ILb0EPiS0_ET1_T0_S2_S1_(i32* %5, i32* %7, i32* %8)
  ret i32* %9
}

; Function Attrs: inlinehint nounwind uwtable
define linkonce_odr i32* @_ZSt14__copy_move_a2ILb0EPiS0_ET1_T0_S2_S1_(i32* %__first, i32* %__last, i32* %__result) #3 {
  %1 = alloca i32*, align 8
  %2 = alloca i32*, align 8
  %3 = alloca i32*, align 8
  store i32* %__first, i32** %1, align 8
  store i32* %__last, i32** %2, align 8
  store i32* %__result, i32** %3, align 8
  %4 = load i32** %1, align 8
  %5 = call i32* @_ZSt12__niter_baseIPiENSt11_Niter_baseIT_E13iterator_typeES2_(i32* %4)
  %6 = load i32** %2, align 8
  %7 = call i32* @_ZSt12__niter_baseIPiENSt11_Niter_baseIT_E13iterator_typeES2_(i32* %6)
  %8 = load i32** %3, align 8
  %9 = call i32* @_ZSt12__niter_baseIPiENSt11_Niter_baseIT_E13iterator_typeES2_(i32* %8)
  %10 = call i32* @_ZSt13__copy_move_aILb0EPiS0_ET1_T0_S2_S1_(i32* %5, i32* %7, i32* %9)
  ret i32* %10
}

; Function Attrs: inlinehint nounwind uwtable
define linkonce_odr i32* @_ZSt12__miter_baseIPiENSt11_Miter_baseIT_E13iterator_typeES2_(i32* %__it) #3 {
  %1 = alloca i32*, align 8
  store i32* %__it, i32** %1, align 8
  %2 = load i32** %1, align 8
  %3 = call i32* @_ZNSt10_Iter_baseIPiLb0EE7_S_baseES0_(i32* %2)
  ret i32* %3
}

; Function Attrs: nounwind uwtable
define linkonce_odr i32* @_ZNSt10_Iter_baseIPiLb0EE7_S_baseES0_(i32* %__it) #2 align 2 {
  %1 = alloca i32*, align 8
  store i32* %__it, i32** %1, align 8
  %2 = load i32** %1, align 8
  ret i32* %2
}

; Function Attrs: inlinehint nounwind uwtable
define linkonce_odr i32* @_ZSt13__copy_move_aILb0EPiS0_ET1_T0_S2_S1_(i32* %__first, i32* %__last, i32* %__result) #3 {
  %1 = alloca i32*, align 8
  %2 = alloca i32*, align 8
  %3 = alloca i32*, align 8
  %__simple = alloca i8, align 1
  store i32* %__first, i32** %1, align 8
  store i32* %__last, i32** %2, align 8
  store i32* %__result, i32** %3, align 8
  store i8 1, i8* %__simple, align 1
  %4 = load i32** %1, align 8
  %5 = load i32** %2, align 8
  %6 = load i32** %3, align 8
  %7 = call i32* @_ZNSt11__copy_moveILb0ELb1ESt26random_access_iterator_tagE8__copy_mIiEEPT_PKS3_S6_S4_(i32* %4, i32* %5, i32* %6)
  ret i32* %7
}

; Function Attrs: inlinehint nounwind uwtable
define linkonce_odr i32* @_ZSt12__niter_baseIPiENSt11_Niter_baseIT_E13iterator_typeES2_(i32* %__it) #3 {
  %1 = alloca i32*, align 8
  store i32* %__it, i32** %1, align 8
  %2 = load i32** %1, align 8
  %3 = call i32* @_ZNSt10_Iter_baseIPiLb0EE7_S_baseES0_(i32* %2)
  ret i32* %3
}

; Function Attrs: nounwind uwtable
define linkonce_odr i32* @_ZNSt11__copy_moveILb0ELb1ESt26random_access_iterator_tagE8__copy_mIiEEPT_PKS3_S6_S4_(i32* %__first, i32* %__last, i32* %__result) #2 align 2 {
  %1 = alloca i32*, align 8
  %2 = alloca i32*, align 8
  %3 = alloca i32*, align 8
  %_Num = alloca i64, align 8
  store i32* %__first, i32** %1, align 8
  store i32* %__last, i32** %2, align 8
  store i32* %__result, i32** %3, align 8
  %4 = load i32** %2, align 8
  %5 = load i32** %1, align 8
  %6 = ptrtoint i32* %4 to i64
  %7 = ptrtoint i32* %5 to i64
  %8 = sub i64 %6, %7
  %9 = sdiv exact i64 %8, 4
  store i64 %9, i64* %_Num, align 8
  %10 = load i64* %_Num, align 8
  %11 = icmp ne i64 %10, 0
  br i1 %11, label %12, label %19

; <label>:12                                      ; preds = %0
  %13 = load i32** %3, align 8
  %14 = bitcast i32* %13 to i8*
  %15 = load i32** %1, align 8
  %16 = bitcast i32* %15 to i8*
  %17 = load i64* %_Num, align 8
  %18 = mul i64 4, %17
  call void @llvm.memmove.p0i8.p0i8.i64(i8* %14, i8* %16, i64 %18, i32 4, i1 false)
  br label %19

; <label>:19                                      ; preds = %12, %0
  %20 = load i32** %3, align 8
  %21 = load i64* %_Num, align 8
  %22 = getelementptr inbounds i32* %20, i64 %21
  ret i32* %22
}

; Function Attrs: nounwind
declare void @llvm.memmove.p0i8.p0i8.i64(i8* nocapture, i8* nocapture readonly, i64, i32, i1) #0

; Function Attrs: nounwind uwtable
define linkonce_odr i32* @_ZN9__gnu_cxx14__alloc_traitsISaIiEE8allocateERS1_m(%"class.std::allocator"* %__a, i64 %__n) #2 align 2 {
  %1 = alloca %"class.std::allocator"*, align 8
  %2 = alloca i64, align 8
  store %"class.std::allocator"* %__a, %"class.std::allocator"** %1, align 8
  store i64 %__n, i64* %2, align 8
  %3 = load %"class.std::allocator"** %1, align 8
  %4 = bitcast %"class.std::allocator"* %3 to %"class.__gnu_cxx::new_allocator"*
  %5 = load i64* %2, align 8
  %6 = call i32* @_ZN9__gnu_cxx13new_allocatorIiE8allocateEmPKv(%"class.__gnu_cxx::new_allocator"* %4, i64 %5, i8* null)
  ret i32* %6
}

; Function Attrs: nounwind uwtable
define linkonce_odr i32* @_ZN9__gnu_cxx13new_allocatorIiE8allocateEmPKv(%"class.__gnu_cxx::new_allocator"* %this, i64 %__n, i8*) #2 align 2 {
  %2 = alloca %"class.__gnu_cxx::new_allocator"*, align 8
  %3 = alloca i64, align 8
  %4 = alloca i8*, align 8
  store %"class.__gnu_cxx::new_allocator"* %this, %"class.__gnu_cxx::new_allocator"** %2, align 8
  store i64 %__n, i64* %3, align 8
  store i8* %0, i8** %4, align 8
  %5 = load %"class.__gnu_cxx::new_allocator"** %2
  %6 = load i64* %3, align 8
  %7 = call i64 @_ZNK9__gnu_cxx13new_allocatorIiE8max_sizeEv(%"class.__gnu_cxx::new_allocator"* %5) #0
  %8 = icmp ugt i64 %6, %7
  br i1 %8, label %9, label %10

; <label>:9                                       ; preds = %1
  call void @_ZSt17__throw_bad_allocv() #7
  unreachable

; <label>:10                                      ; preds = %1
  %11 = load i64* %3, align 8
  %12 = mul i64 %11, 4
  %13 = call noalias i8* @_Znwm(i64 %12)
  %14 = bitcast i8* %13 to i32*
  ret i32* %14
}

; Function Attrs: nounwind uwtable
define linkonce_odr i64 @_ZNK9__gnu_cxx13new_allocatorIiE8max_sizeEv(%"class.__gnu_cxx::new_allocator"* %this) #2 align 2 {
  %1 = alloca %"class.__gnu_cxx::new_allocator"*, align 8
  store %"class.__gnu_cxx::new_allocator"* %this, %"class.__gnu_cxx::new_allocator"** %1, align 8
  %2 = load %"class.__gnu_cxx::new_allocator"** %1
  ret i64 4611686018427387903
}

; Function Attrs: noreturn
declare void @_ZSt17__throw_bad_allocv() #5

; Function Attrs: nobuiltin
declare noalias i8* @_Znwm(i64) #6

; Function Attrs: nounwind uwtable
define linkonce_odr i64 @_ZNKSt6vectorIiSaIiEE8max_sizeEv(%"class.std::vector"* %this) #2 align 2 {
  %1 = alloca %"class.std::vector"*, align 8
  store %"class.std::vector"* %this, %"class.std::vector"** %1, align 8
  %2 = load %"class.std::vector"** %1
  %3 = bitcast %"class.std::vector"* %2 to %"struct.std::_Vector_base"*
  %4 = call %"class.std::allocator"* @_ZNKSt12_Vector_baseIiSaIiEE19_M_get_Tp_allocatorEv(%"struct.std::_Vector_base"* %3)
  %5 = call i64 @_ZN9__gnu_cxx14__alloc_traitsISaIiEE8max_sizeERKS1_(%"class.std::allocator"* %4)
  ret i64 %5
}

; Function Attrs: noreturn
declare void @_ZSt20__throw_length_errorPKc(i8*) #5

; Function Attrs: inlinehint nounwind uwtable
define linkonce_odr i64* @_ZSt3maxImERKT_S2_S2_(i64* %__a, i64* %__b) #3 {
  %1 = alloca i64*, align 8
  %2 = alloca i64*, align 8
  %3 = alloca i64*, align 8
  store i64* %__a, i64** %2, align 8
  store i64* %__b, i64** %3, align 8
  %4 = load i64** %2, align 8
  %5 = load i64* %4, align 8
  %6 = load i64** %3, align 8
  %7 = load i64* %6, align 8
  %8 = icmp ult i64 %5, %7
  br i1 %8, label %9, label %11

; <label>:9                                       ; preds = %0
  %10 = load i64** %3, align 8
  store i64* %10, i64** %1
  br label %13

; <label>:11                                      ; preds = %0
  %12 = load i64** %2, align 8
  store i64* %12, i64** %1
  br label %13

; <label>:13                                      ; preds = %11, %9
  %14 = load i64** %1
  ret i64* %14
}

; Function Attrs: nounwind uwtable
define linkonce_odr i64 @_ZN9__gnu_cxx14__alloc_traitsISaIiEE8max_sizeERKS1_(%"class.std::allocator"* %__a) #2 align 2 {
  %1 = alloca %"class.std::allocator"*, align 8
  store %"class.std::allocator"* %__a, %"class.std::allocator"** %1, align 8
  %2 = load %"class.std::allocator"** %1, align 8
  %3 = bitcast %"class.std::allocator"* %2 to %"class.__gnu_cxx::new_allocator"*
  %4 = call i64 @_ZNK9__gnu_cxx13new_allocatorIiE8max_sizeEv(%"class.__gnu_cxx::new_allocator"* %3) #0
  ret i64 %4
}

; Function Attrs: nounwind uwtable
define linkonce_odr %"class.std::allocator"* @_ZNKSt12_Vector_baseIiSaIiEE19_M_get_Tp_allocatorEv(%"struct.std::_Vector_base"* %this) #2 align 2 {
  %1 = alloca %"struct.std::_Vector_base"*, align 8
  store %"struct.std::_Vector_base"* %this, %"struct.std::_Vector_base"** %1, align 8
  %2 = load %"struct.std::_Vector_base"** %1
  %3 = getelementptr inbounds %"struct.std::_Vector_base"* %2, i32 0, i32 0
  %4 = bitcast %"struct.std::_Vector_base<int, std::allocator<int> >::_Vector_impl"* %3 to %"class.std::allocator"*
  ret %"class.std::allocator"* %4
}

; Function Attrs: inlinehint nounwind uwtable
define linkonce_odr i32* @_ZSt23__copy_move_backward_a2ILb0EPiS0_ET1_T0_S2_S1_(i32* %__first, i32* %__last, i32* %__result) #3 {
  %1 = alloca i32*, align 8
  %2 = alloca i32*, align 8
  %3 = alloca i32*, align 8
  store i32* %__first, i32** %1, align 8
  store i32* %__last, i32** %2, align 8
  store i32* %__result, i32** %3, align 8
  %4 = load i32** %1, align 8
  %5 = call i32* @_ZSt12__niter_baseIPiENSt11_Niter_baseIT_E13iterator_typeES2_(i32* %4)
  %6 = load i32** %2, align 8
  %7 = call i32* @_ZSt12__niter_baseIPiENSt11_Niter_baseIT_E13iterator_typeES2_(i32* %6)
  %8 = load i32** %3, align 8
  %9 = call i32* @_ZSt12__niter_baseIPiENSt11_Niter_baseIT_E13iterator_typeES2_(i32* %8)
  %10 = call i32* @_ZSt22__copy_move_backward_aILb0EPiS0_ET1_T0_S2_S1_(i32* %5, i32* %7, i32* %9)
  ret i32* %10
}

; Function Attrs: inlinehint nounwind uwtable
define linkonce_odr i32* @_ZSt22__copy_move_backward_aILb0EPiS0_ET1_T0_S2_S1_(i32* %__first, i32* %__last, i32* %__result) #3 {
  %1 = alloca i32*, align 8
  %2 = alloca i32*, align 8
  %3 = alloca i32*, align 8
  %__simple = alloca i8, align 1
  store i32* %__first, i32** %1, align 8
  store i32* %__last, i32** %2, align 8
  store i32* %__result, i32** %3, align 8
  store i8 1, i8* %__simple, align 1
  %4 = load i32** %1, align 8
  %5 = load i32** %2, align 8
  %6 = load i32** %3, align 8
  %7 = call i32* @_ZNSt20__copy_move_backwardILb0ELb1ESt26random_access_iterator_tagE13__copy_move_bIiEEPT_PKS3_S6_S4_(i32* %4, i32* %5, i32* %6)
  ret i32* %7
}

; Function Attrs: nounwind uwtable
define linkonce_odr i32* @_ZNSt20__copy_move_backwardILb0ELb1ESt26random_access_iterator_tagE13__copy_move_bIiEEPT_PKS3_S6_S4_(i32* %__first, i32* %__last, i32* %__result) #2 align 2 {
  %1 = alloca i32*, align 8
  %2 = alloca i32*, align 8
  %3 = alloca i32*, align 8
  %_Num = alloca i64, align 8
  store i32* %__first, i32** %1, align 8
  store i32* %__last, i32** %2, align 8
  store i32* %__result, i32** %3, align 8
  %4 = load i32** %2, align 8
  %5 = load i32** %1, align 8
  %6 = ptrtoint i32* %4 to i64
  %7 = ptrtoint i32* %5 to i64
  %8 = sub i64 %6, %7
  %9 = sdiv exact i64 %8, 4
  store i64 %9, i64* %_Num, align 8
  %10 = load i64* %_Num, align 8
  %11 = icmp ne i64 %10, 0
  br i1 %11, label %12, label %22

; <label>:12                                      ; preds = %0
  %13 = load i32** %3, align 8
  %14 = load i64* %_Num, align 8
  %15 = sub i64 0, %14
  %16 = getelementptr inbounds i32* %13, i64 %15
  %17 = bitcast i32* %16 to i8*
  %18 = load i32** %1, align 8
  %19 = bitcast i32* %18 to i8*
  %20 = load i64* %_Num, align 8
  %21 = mul i64 4, %20
  call void @llvm.memmove.p0i8.p0i8.i64(i8* %17, i8* %19, i64 %21, i32 4, i1 false)
  br label %22

; <label>:22                                      ; preds = %12, %0
  %23 = load i32** %3, align 8
  %24 = load i64* %_Num, align 8
  %25 = sub i64 0, %24
  %26 = getelementptr inbounds i32* %23, i64 %25
  ret i32* %26
}

; Function Attrs: nounwind uwtable
define linkonce_odr void @_ZN9__gnu_cxx13new_allocatorIiE9constructEPiRKi(%"class.__gnu_cxx::new_allocator"* %this, i32* %__p, i32* %__val) #2 align 2 {
  %1 = alloca %"class.__gnu_cxx::new_allocator"*, align 8
  %2 = alloca i32*, align 8
  %3 = alloca i32*, align 8
  store %"class.__gnu_cxx::new_allocator"* %this, %"class.__gnu_cxx::new_allocator"** %1, align 8
  store i32* %__p, i32** %2, align 8
  store i32* %__val, i32** %3, align 8
  %4 = load %"class.__gnu_cxx::new_allocator"** %1
  %5 = load i32** %2, align 8
  %6 = bitcast i32* %5 to i8*
  %7 = icmp eq i8* %6, null
  br i1 %7, label %12, label %8

; <label>:8                                       ; preds = %0
  %9 = bitcast i8* %6 to i32*
  %10 = load i32** %3, align 8
  %11 = load i32* %10, align 4
  store i32 %11, i32* %9, align 4
  br label %12

; <label>:12                                      ; preds = %8, %0
  %13 = phi i32* [ %9, %8 ], [ null, %0 ]
  ret void
}

; Function Attrs: nounwind uwtable
define linkonce_odr void @_ZNSt5dequeIiSaIiEE8pop_backEv(%"class.std::deque"* %this) #2 align 2 {
  %1 = alloca %"class.std::deque"*, align 8
  store %"class.std::deque"* %this, %"class.std::deque"** %1, align 8
  %2 = load %"class.std::deque"** %1
  %3 = bitcast %"class.std::deque"* %2 to %"class.std::_Deque_base"*
  %4 = getelementptr inbounds %"class.std::_Deque_base"* %3, i32 0, i32 0
  %5 = getelementptr inbounds %"struct.std::_Deque_base<int, std::allocator<int> >::_Deque_impl"* %4, i32 0, i32 3
  %6 = getelementptr inbounds %"struct.std::_Deque_iterator"* %5, i32 0, i32 0
  %7 = load i32** %6, align 8
  %8 = bitcast %"class.std::deque"* %2 to %"class.std::_Deque_base"*
  %9 = getelementptr inbounds %"class.std::_Deque_base"* %8, i32 0, i32 0
  %10 = getelementptr inbounds %"struct.std::_Deque_base<int, std::allocator<int> >::_Deque_impl"* %9, i32 0, i32 3
  %11 = getelementptr inbounds %"struct.std::_Deque_iterator"* %10, i32 0, i32 1
  %12 = load i32** %11, align 8
  %13 = icmp ne i32* %7, %12
  br i1 %13, label %14, label %29

; <label>:14                                      ; preds = %0
  %15 = bitcast %"class.std::deque"* %2 to %"class.std::_Deque_base"*
  %16 = getelementptr inbounds %"class.std::_Deque_base"* %15, i32 0, i32 0
  %17 = getelementptr inbounds %"struct.std::_Deque_base<int, std::allocator<int> >::_Deque_impl"* %16, i32 0, i32 3
  %18 = getelementptr inbounds %"struct.std::_Deque_iterator"* %17, i32 0, i32 0
  %19 = load i32** %18, align 8
  %20 = getelementptr inbounds i32* %19, i32 -1
  store i32* %20, i32** %18, align 8
  %21 = bitcast %"class.std::deque"* %2 to %"class.std::_Deque_base"*
  %22 = getelementptr inbounds %"class.std::_Deque_base"* %21, i32 0, i32 0
  %23 = bitcast %"struct.std::_Deque_base<int, std::allocator<int> >::_Deque_impl"* %22 to %"class.std::allocator"*
  %24 = bitcast %"class.std::deque"* %2 to %"class.std::_Deque_base"*
  %25 = getelementptr inbounds %"class.std::_Deque_base"* %24, i32 0, i32 0
  %26 = getelementptr inbounds %"struct.std::_Deque_base<int, std::allocator<int> >::_Deque_impl"* %25, i32 0, i32 3
  %27 = getelementptr inbounds %"struct.std::_Deque_iterator"* %26, i32 0, i32 0
  %28 = load i32** %27, align 8
  call void @_ZN9__gnu_cxx14__alloc_traitsISaIiEE7destroyERS1_Pi(%"class.std::allocator"* %23, i32* %28)
  br label %30

; <label>:29                                      ; preds = %0
  call void @_ZNSt5dequeIiSaIiEE15_M_pop_back_auxEv(%"class.std::deque"* %2)
  br label %30

; <label>:30                                      ; preds = %29, %14
  ret void
}

; Function Attrs: nounwind uwtable
define linkonce_odr void @_ZN9__gnu_cxx14__alloc_traitsISaIiEE7destroyERS1_Pi(%"class.std::allocator"* %__a, i32* %__p) #2 align 2 {
  %1 = alloca %"class.std::allocator"*, align 8
  %2 = alloca i32*, align 8
  store %"class.std::allocator"* %__a, %"class.std::allocator"** %1, align 8
  store i32* %__p, i32** %2, align 8
  %3 = load %"class.std::allocator"** %1, align 8
  %4 = bitcast %"class.std::allocator"* %3 to %"class.__gnu_cxx::new_allocator"*
  %5 = load i32** %2, align 8
  call void @_ZN9__gnu_cxx13new_allocatorIiE7destroyEPi(%"class.__gnu_cxx::new_allocator"* %4, i32* %5)
  ret void
}

; Function Attrs: nounwind uwtable
define linkonce_odr void @_ZNSt5dequeIiSaIiEE15_M_pop_back_auxEv(%"class.std::deque"* %this) #2 align 2 {
  %1 = alloca %"class.std::deque"*, align 8
  store %"class.std::deque"* %this, %"class.std::deque"** %1, align 8
  %2 = load %"class.std::deque"** %1
  %3 = bitcast %"class.std::deque"* %2 to %"class.std::_Deque_base"*
  %4 = bitcast %"class.std::deque"* %2 to %"class.std::_Deque_base"*
  %5 = getelementptr inbounds %"class.std::_Deque_base"* %4, i32 0, i32 0
  %6 = getelementptr inbounds %"struct.std::_Deque_base<int, std::allocator<int> >::_Deque_impl"* %5, i32 0, i32 3
  %7 = getelementptr inbounds %"struct.std::_Deque_iterator"* %6, i32 0, i32 1
  %8 = load i32** %7, align 8
  call void @_ZNSt11_Deque_baseIiSaIiEE18_M_deallocate_nodeEPi(%"class.std::_Deque_base"* %3, i32* %8)
  %9 = bitcast %"class.std::deque"* %2 to %"class.std::_Deque_base"*
  %10 = getelementptr inbounds %"class.std::_Deque_base"* %9, i32 0, i32 0
  %11 = getelementptr inbounds %"struct.std::_Deque_base<int, std::allocator<int> >::_Deque_impl"* %10, i32 0, i32 3
  %12 = bitcast %"class.std::deque"* %2 to %"class.std::_Deque_base"*
  %13 = getelementptr inbounds %"class.std::_Deque_base"* %12, i32 0, i32 0
  %14 = getelementptr inbounds %"struct.std::_Deque_base<int, std::allocator<int> >::_Deque_impl"* %13, i32 0, i32 3
  %15 = getelementptr inbounds %"struct.std::_Deque_iterator"* %14, i32 0, i32 3
  %16 = load i32*** %15, align 8
  %17 = getelementptr inbounds i32** %16, i64 -1
  call void @_ZNSt15_Deque_iteratorIiRiPiE11_M_set_nodeEPS1_(%"struct.std::_Deque_iterator"* %11, i32** %17)
  %18 = bitcast %"class.std::deque"* %2 to %"class.std::_Deque_base"*
  %19 = getelementptr inbounds %"class.std::_Deque_base"* %18, i32 0, i32 0
  %20 = getelementptr inbounds %"struct.std::_Deque_base<int, std::allocator<int> >::_Deque_impl"* %19, i32 0, i32 3
  %21 = getelementptr inbounds %"struct.std::_Deque_iterator"* %20, i32 0, i32 2
  %22 = load i32** %21, align 8
  %23 = getelementptr inbounds i32* %22, i64 -1
  %24 = bitcast %"class.std::deque"* %2 to %"class.std::_Deque_base"*
  %25 = getelementptr inbounds %"class.std::_Deque_base"* %24, i32 0, i32 0
  %26 = getelementptr inbounds %"struct.std::_Deque_base<int, std::allocator<int> >::_Deque_impl"* %25, i32 0, i32 3
  %27 = getelementptr inbounds %"struct.std::_Deque_iterator"* %26, i32 0, i32 0
  store i32* %23, i32** %27, align 8
  %28 = bitcast %"class.std::deque"* %2 to %"class.std::_Deque_base"*
  %29 = call %"class.std::allocator"* @_ZNSt11_Deque_baseIiSaIiEE19_M_get_Tp_allocatorEv(%"class.std::_Deque_base"* %28)
  %30 = bitcast %"class.std::deque"* %2 to %"class.std::_Deque_base"*
  %31 = getelementptr inbounds %"class.std::_Deque_base"* %30, i32 0, i32 0
  %32 = getelementptr inbounds %"struct.std::_Deque_base<int, std::allocator<int> >::_Deque_impl"* %31, i32 0, i32 3
  %33 = getelementptr inbounds %"struct.std::_Deque_iterator"* %32, i32 0, i32 0
  %34 = load i32** %33, align 8
  call void @_ZN9__gnu_cxx14__alloc_traitsISaIiEE7destroyERS1_Pi(%"class.std::allocator"* %29, i32* %34)
  ret void
}

; Function Attrs: nounwind uwtable
define linkonce_odr void @_ZNSt11_Deque_baseIiSaIiEE18_M_deallocate_nodeEPi(%"class.std::_Deque_base"* %this, i32* %__p) #2 align 2 {
  %1 = alloca %"class.std::_Deque_base"*, align 8
  %2 = alloca i32*, align 8
  store %"class.std::_Deque_base"* %this, %"class.std::_Deque_base"** %1, align 8
  store i32* %__p, i32** %2, align 8
  %3 = load %"class.std::_Deque_base"** %1
  %4 = getelementptr inbounds %"class.std::_Deque_base"* %3, i32 0, i32 0
  %5 = bitcast %"struct.std::_Deque_base<int, std::allocator<int> >::_Deque_impl"* %4 to %"class.std::allocator"*
  %6 = load i32** %2, align 8
  %7 = call i64 @_ZSt16__deque_buf_sizem(i64 4)
  call void @_ZN9__gnu_cxx14__alloc_traitsISaIiEE10deallocateERS1_Pim(%"class.std::allocator"* %5, i32* %6, i64 %7)
  ret void
}

; Function Attrs: nounwind uwtable
define linkonce_odr void @_ZNSt15_Deque_iteratorIiRiPiE11_M_set_nodeEPS1_(%"struct.std::_Deque_iterator"* %this, i32** %__new_node) #2 align 2 {
  %1 = alloca %"struct.std::_Deque_iterator"*, align 8
  %2 = alloca i32**, align 8
  store %"struct.std::_Deque_iterator"* %this, %"struct.std::_Deque_iterator"** %1, align 8
  store i32** %__new_node, i32*** %2, align 8
  %3 = load %"struct.std::_Deque_iterator"** %1
  %4 = load i32*** %2, align 8
  %5 = getelementptr inbounds %"struct.std::_Deque_iterator"* %3, i32 0, i32 3
  store i32** %4, i32*** %5, align 8
  %6 = load i32*** %2, align 8
  %7 = load i32** %6, align 8
  %8 = getelementptr inbounds %"struct.std::_Deque_iterator"* %3, i32 0, i32 1
  store i32* %7, i32** %8, align 8
  %9 = getelementptr inbounds %"struct.std::_Deque_iterator"* %3, i32 0, i32 1
  %10 = load i32** %9, align 8
  %11 = call i64 @_ZNSt15_Deque_iteratorIiRiPiE14_S_buffer_sizeEv()
  %12 = getelementptr inbounds i32* %10, i64 %11
  %13 = getelementptr inbounds %"struct.std::_Deque_iterator"* %3, i32 0, i32 2
  store i32* %12, i32** %13, align 8
  ret void
}

; Function Attrs: nounwind uwtable
define linkonce_odr %"class.std::allocator"* @_ZNSt11_Deque_baseIiSaIiEE19_M_get_Tp_allocatorEv(%"class.std::_Deque_base"* %this) #2 align 2 {
  %1 = alloca %"class.std::_Deque_base"*, align 8
  store %"class.std::_Deque_base"* %this, %"class.std::_Deque_base"** %1, align 8
  %2 = load %"class.std::_Deque_base"** %1
  %3 = getelementptr inbounds %"class.std::_Deque_base"* %2, i32 0, i32 0
  %4 = bitcast %"struct.std::_Deque_base<int, std::allocator<int> >::_Deque_impl"* %3 to %"class.std::allocator"*
  ret %"class.std::allocator"* %4
}

; Function Attrs: nounwind uwtable
define linkonce_odr i64 @_ZNSt15_Deque_iteratorIiRiPiE14_S_buffer_sizeEv() #2 align 2 {
  %1 = call i64 @_ZSt16__deque_buf_sizem(i64 4)
  ret i64 %1
}

; Function Attrs: inlinehint nounwind uwtable
define linkonce_odr i64 @_ZSt16__deque_buf_sizem(i64 %__size) #3 {
  %1 = alloca i64, align 8
  store i64 %__size, i64* %1, align 8
  %2 = load i64* %1, align 8
  %3 = icmp ult i64 %2, 512
  br i1 %3, label %4, label %7

; <label>:4                                       ; preds = %0
  %5 = load i64* %1, align 8
  %6 = udiv i64 512, %5
  br label %8

; <label>:7                                       ; preds = %0
  br label %8

; <label>:8                                       ; preds = %7, %4
  %9 = phi i64 [ %6, %4 ], [ 1, %7 ]
  ret i64 %9
}

; Function Attrs: nounwind uwtable
define linkonce_odr void @_ZN9__gnu_cxx13new_allocatorIiE7destroyEPi(%"class.__gnu_cxx::new_allocator"* %this, i32* %__p) #2 align 2 {
  %1 = alloca %"class.__gnu_cxx::new_allocator"*, align 8
  %2 = alloca i32*, align 8
  store %"class.__gnu_cxx::new_allocator"* %this, %"class.__gnu_cxx::new_allocator"** %1, align 8
  store i32* %__p, i32** %2, align 8
  %3 = load %"class.__gnu_cxx::new_allocator"** %1
  %4 = load i32** %2, align 8
  ret void
}

; Function Attrs: nounwind uwtable
define linkonce_odr i32* @_ZNSt5dequeIiSaIiEE4backEv(%"class.std::deque"* %this) #2 align 2 {
  %1 = alloca %"class.std::deque"*, align 8
  %__tmp = alloca %"struct.std::_Deque_iterator", align 8
  store %"class.std::deque"* %this, %"class.std::deque"** %1, align 8
  %2 = load %"class.std::deque"** %1
  call void @_ZNSt5dequeIiSaIiEE3endEv(%"struct.std::_Deque_iterator"* sret %__tmp, %"class.std::deque"* %2)
  %3 = call %"struct.std::_Deque_iterator"* @_ZNSt15_Deque_iteratorIiRiPiEmmEv(%"struct.std::_Deque_iterator"* %__tmp)
  %4 = call i32* @_ZNKSt15_Deque_iteratorIiRiPiEdeEv(%"struct.std::_Deque_iterator"* %__tmp)
  ret i32* %4
}

; Function Attrs: nounwind uwtable
define linkonce_odr void @_ZNSt5dequeIiSaIiEE3endEv(%"struct.std::_Deque_iterator"* noalias sret %agg.result, %"class.std::deque"* %this) #2 align 2 {
  %1 = alloca %"class.std::deque"*, align 8
  store %"class.std::deque"* %this, %"class.std::deque"** %1, align 8
  %2 = load %"class.std::deque"** %1
  %3 = bitcast %"class.std::deque"* %2 to %"class.std::_Deque_base"*
  %4 = getelementptr inbounds %"class.std::_Deque_base"* %3, i32 0, i32 0
  %5 = getelementptr inbounds %"struct.std::_Deque_base<int, std::allocator<int> >::_Deque_impl"* %4, i32 0, i32 3
  call void @_ZNSt15_Deque_iteratorIiRiPiEC2ERKS2_(%"struct.std::_Deque_iterator"* %agg.result, %"struct.std::_Deque_iterator"* %5)
  ret void
}

; Function Attrs: nounwind uwtable
define linkonce_odr %"struct.std::_Deque_iterator"* @_ZNSt15_Deque_iteratorIiRiPiEmmEv(%"struct.std::_Deque_iterator"* %this) #2 align 2 {
  %1 = alloca %"struct.std::_Deque_iterator"*, align 8
  store %"struct.std::_Deque_iterator"* %this, %"struct.std::_Deque_iterator"** %1, align 8
  %2 = load %"struct.std::_Deque_iterator"** %1
  %3 = getelementptr inbounds %"struct.std::_Deque_iterator"* %2, i32 0, i32 0
  %4 = load i32** %3, align 8
  %5 = getelementptr inbounds %"struct.std::_Deque_iterator"* %2, i32 0, i32 1
  %6 = load i32** %5, align 8
  %7 = icmp eq i32* %4, %6
  br i1 %7, label %8, label %15

; <label>:8                                       ; preds = %0
  %9 = getelementptr inbounds %"struct.std::_Deque_iterator"* %2, i32 0, i32 3
  %10 = load i32*** %9, align 8
  %11 = getelementptr inbounds i32** %10, i64 -1
  call void @_ZNSt15_Deque_iteratorIiRiPiE11_M_set_nodeEPS1_(%"struct.std::_Deque_iterator"* %2, i32** %11)
  %12 = getelementptr inbounds %"struct.std::_Deque_iterator"* %2, i32 0, i32 2
  %13 = load i32** %12, align 8
  %14 = getelementptr inbounds %"struct.std::_Deque_iterator"* %2, i32 0, i32 0
  store i32* %13, i32** %14, align 8
  br label %15

; <label>:15                                      ; preds = %8, %0
  %16 = getelementptr inbounds %"struct.std::_Deque_iterator"* %2, i32 0, i32 0
  %17 = load i32** %16, align 8
  %18 = getelementptr inbounds i32* %17, i32 -1
  store i32* %18, i32** %16, align 8
  ret %"struct.std::_Deque_iterator"* %2
}

; Function Attrs: nounwind uwtable
define linkonce_odr i32* @_ZNKSt15_Deque_iteratorIiRiPiEdeEv(%"struct.std::_Deque_iterator"* %this) #2 align 2 {
  %1 = alloca %"struct.std::_Deque_iterator"*, align 8
  store %"struct.std::_Deque_iterator"* %this, %"struct.std::_Deque_iterator"** %1, align 8
  %2 = load %"struct.std::_Deque_iterator"** %1
  %3 = getelementptr inbounds %"struct.std::_Deque_iterator"* %2, i32 0, i32 0
  %4 = load i32** %3, align 8
  ret i32* %4
}

; Function Attrs: nounwind uwtable
define linkonce_odr void @_ZNSt15_Deque_iteratorIiRiPiEC2ERKS2_(%"struct.std::_Deque_iterator"* %this, %"struct.std::_Deque_iterator"* %__x) unnamed_addr #2 align 2 {
  %1 = alloca %"struct.std::_Deque_iterator"*, align 8
  %2 = alloca %"struct.std::_Deque_iterator"*, align 8
  store %"struct.std::_Deque_iterator"* %this, %"struct.std::_Deque_iterator"** %1, align 8
  store %"struct.std::_Deque_iterator"* %__x, %"struct.std::_Deque_iterator"** %2, align 8
  %3 = load %"struct.std::_Deque_iterator"** %1
  %4 = getelementptr inbounds %"struct.std::_Deque_iterator"* %3, i32 0, i32 0
  %5 = load %"struct.std::_Deque_iterator"** %2, align 8
  %6 = getelementptr inbounds %"struct.std::_Deque_iterator"* %5, i32 0, i32 0
  %7 = load i32** %6, align 8
  store i32* %7, i32** %4, align 8
  %8 = getelementptr inbounds %"struct.std::_Deque_iterator"* %3, i32 0, i32 1
  %9 = load %"struct.std::_Deque_iterator"** %2, align 8
  %10 = getelementptr inbounds %"struct.std::_Deque_iterator"* %9, i32 0, i32 1
  %11 = load i32** %10, align 8
  store i32* %11, i32** %8, align 8
  %12 = getelementptr inbounds %"struct.std::_Deque_iterator"* %3, i32 0, i32 2
  %13 = load %"struct.std::_Deque_iterator"** %2, align 8
  %14 = getelementptr inbounds %"struct.std::_Deque_iterator"* %13, i32 0, i32 2
  %15 = load i32** %14, align 8
  store i32* %15, i32** %12, align 8
  %16 = getelementptr inbounds %"struct.std::_Deque_iterator"* %3, i32 0, i32 3
  %17 = load %"struct.std::_Deque_iterator"** %2, align 8
  %18 = getelementptr inbounds %"struct.std::_Deque_iterator"* %17, i32 0, i32 3
  %19 = load i32*** %18, align 8
  store i32** %19, i32*** %16, align 8
  ret void
}

; Function Attrs: nounwind uwtable
define linkonce_odr zeroext i1 @_ZNKSt5dequeIiSaIiEE5emptyEv(%"class.std::deque"* %this) #2 align 2 {
  %1 = alloca %"class.std::deque"*, align 8
  store %"class.std::deque"* %this, %"class.std::deque"** %1, align 8
  %2 = load %"class.std::deque"** %1
  %3 = bitcast %"class.std::deque"* %2 to %"class.std::_Deque_base"*
  %4 = getelementptr inbounds %"class.std::_Deque_base"* %3, i32 0, i32 0
  %5 = getelementptr inbounds %"struct.std::_Deque_base<int, std::allocator<int> >::_Deque_impl"* %4, i32 0, i32 3
  %6 = bitcast %"class.std::deque"* %2 to %"class.std::_Deque_base"*
  %7 = getelementptr inbounds %"class.std::_Deque_base"* %6, i32 0, i32 0
  %8 = getelementptr inbounds %"struct.std::_Deque_base<int, std::allocator<int> >::_Deque_impl"* %7, i32 0, i32 2
  %9 = call zeroext i1 @_ZSteqIiRiPiEbRKSt15_Deque_iteratorIT_T0_T1_ES8_(%"struct.std::_Deque_iterator"* %5, %"struct.std::_Deque_iterator"* %8)
  ret i1 %9
}

; Function Attrs: inlinehint nounwind uwtable
define linkonce_odr zeroext i1 @_ZSteqIiRiPiEbRKSt15_Deque_iteratorIT_T0_T1_ES8_(%"struct.std::_Deque_iterator"* %__x, %"struct.std::_Deque_iterator"* %__y) #3 {
  %1 = alloca %"struct.std::_Deque_iterator"*, align 8
  %2 = alloca %"struct.std::_Deque_iterator"*, align 8
  store %"struct.std::_Deque_iterator"* %__x, %"struct.std::_Deque_iterator"** %1, align 8
  store %"struct.std::_Deque_iterator"* %__y, %"struct.std::_Deque_iterator"** %2, align 8
  %3 = load %"struct.std::_Deque_iterator"** %1, align 8
  %4 = getelementptr inbounds %"struct.std::_Deque_iterator"* %3, i32 0, i32 0
  %5 = load i32** %4, align 8
  %6 = load %"struct.std::_Deque_iterator"** %2, align 8
  %7 = getelementptr inbounds %"struct.std::_Deque_iterator"* %6, i32 0, i32 0
  %8 = load i32** %7, align 8
  %9 = icmp eq i32* %5, %8
  ret i1 %9
}

; Function Attrs: nounwind uwtable
define linkonce_odr void @_ZNSt5dequeIiSaIiEE9push_backERKi(%"class.std::deque"* %this, i32* %__x) #2 align 2 {
  %1 = alloca %"class.std::deque"*, align 8
  %2 = alloca i32*, align 8
  store %"class.std::deque"* %this, %"class.std::deque"** %1, align 8
  store i32* %__x, i32** %2, align 8
  %3 = load %"class.std::deque"** %1
  %4 = bitcast %"class.std::deque"* %3 to %"class.std::_Deque_base"*
  %5 = getelementptr inbounds %"class.std::_Deque_base"* %4, i32 0, i32 0
  %6 = getelementptr inbounds %"struct.std::_Deque_base<int, std::allocator<int> >::_Deque_impl"* %5, i32 0, i32 3
  %7 = getelementptr inbounds %"struct.std::_Deque_iterator"* %6, i32 0, i32 0
  %8 = load i32** %7, align 8
  %9 = bitcast %"class.std::deque"* %3 to %"class.std::_Deque_base"*
  %10 = getelementptr inbounds %"class.std::_Deque_base"* %9, i32 0, i32 0
  %11 = getelementptr inbounds %"struct.std::_Deque_base<int, std::allocator<int> >::_Deque_impl"* %10, i32 0, i32 3
  %12 = getelementptr inbounds %"struct.std::_Deque_iterator"* %11, i32 0, i32 2
  %13 = load i32** %12, align 8
  %14 = getelementptr inbounds i32* %13, i64 -1
  %15 = icmp ne i32* %8, %14
  br i1 %15, label %16, label %32

; <label>:16                                      ; preds = %0
  %17 = bitcast %"class.std::deque"* %3 to %"class.std::_Deque_base"*
  %18 = getelementptr inbounds %"class.std::_Deque_base"* %17, i32 0, i32 0
  %19 = bitcast %"struct.std::_Deque_base<int, std::allocator<int> >::_Deque_impl"* %18 to %"class.std::allocator"*
  %20 = bitcast %"class.std::deque"* %3 to %"class.std::_Deque_base"*
  %21 = getelementptr inbounds %"class.std::_Deque_base"* %20, i32 0, i32 0
  %22 = getelementptr inbounds %"struct.std::_Deque_base<int, std::allocator<int> >::_Deque_impl"* %21, i32 0, i32 3
  %23 = getelementptr inbounds %"struct.std::_Deque_iterator"* %22, i32 0, i32 0
  %24 = load i32** %23, align 8
  %25 = load i32** %2, align 8
  call void @_ZN9__gnu_cxx14__alloc_traitsISaIiEE9constructIiEEvRS1_PiRKT_(%"class.std::allocator"* %19, i32* %24, i32* %25)
  %26 = bitcast %"class.std::deque"* %3 to %"class.std::_Deque_base"*
  %27 = getelementptr inbounds %"class.std::_Deque_base"* %26, i32 0, i32 0
  %28 = getelementptr inbounds %"struct.std::_Deque_base<int, std::allocator<int> >::_Deque_impl"* %27, i32 0, i32 3
  %29 = getelementptr inbounds %"struct.std::_Deque_iterator"* %28, i32 0, i32 0
  %30 = load i32** %29, align 8
  %31 = getelementptr inbounds i32* %30, i32 1
  store i32* %31, i32** %29, align 8
  br label %34

; <label>:32                                      ; preds = %0
  %33 = load i32** %2, align 8
  call void @_ZNSt5dequeIiSaIiEE16_M_push_back_auxERKi(%"class.std::deque"* %3, i32* %33)
  br label %34

; <label>:34                                      ; preds = %32, %16
  ret void
}

; Function Attrs: nounwind uwtable
define linkonce_odr void @_ZNSt5dequeIiSaIiEE16_M_push_back_auxERKi(%"class.std::deque"* %this, i32* %__t) #2 align 2 {
  %1 = alloca %"class.std::deque"*, align 8
  %2 = alloca i32*, align 8
  store %"class.std::deque"* %this, %"class.std::deque"** %1, align 8
  store i32* %__t, i32** %2, align 8
  %3 = load %"class.std::deque"** %1
  call void @_ZNSt5dequeIiSaIiEE22_M_reserve_map_at_backEm(%"class.std::deque"* %3, i64 1)
  %4 = bitcast %"class.std::deque"* %3 to %"class.std::_Deque_base"*
  %5 = call i32* @_ZNSt11_Deque_baseIiSaIiEE16_M_allocate_nodeEv(%"class.std::_Deque_base"* %4)
  %6 = bitcast %"class.std::deque"* %3 to %"class.std::_Deque_base"*
  %7 = getelementptr inbounds %"class.std::_Deque_base"* %6, i32 0, i32 0
  %8 = getelementptr inbounds %"struct.std::_Deque_base<int, std::allocator<int> >::_Deque_impl"* %7, i32 0, i32 3
  %9 = getelementptr inbounds %"struct.std::_Deque_iterator"* %8, i32 0, i32 3
  %10 = load i32*** %9, align 8
  %11 = getelementptr inbounds i32** %10, i64 1
  store i32* %5, i32** %11, align 8
  %12 = bitcast %"class.std::deque"* %3 to %"class.std::_Deque_base"*
  %13 = getelementptr inbounds %"class.std::_Deque_base"* %12, i32 0, i32 0
  %14 = bitcast %"struct.std::_Deque_base<int, std::allocator<int> >::_Deque_impl"* %13 to %"class.__gnu_cxx::new_allocator"*
  %15 = bitcast %"class.std::deque"* %3 to %"class.std::_Deque_base"*
  %16 = getelementptr inbounds %"class.std::_Deque_base"* %15, i32 0, i32 0
  %17 = getelementptr inbounds %"struct.std::_Deque_base<int, std::allocator<int> >::_Deque_impl"* %16, i32 0, i32 3
  %18 = getelementptr inbounds %"struct.std::_Deque_iterator"* %17, i32 0, i32 0
  %19 = load i32** %18, align 8
  %20 = load i32** %2, align 8
  call void @_ZN9__gnu_cxx13new_allocatorIiE9constructEPiRKi(%"class.__gnu_cxx::new_allocator"* %14, i32* %19, i32* %20)
  %21 = bitcast %"class.std::deque"* %3 to %"class.std::_Deque_base"*
  %22 = getelementptr inbounds %"class.std::_Deque_base"* %21, i32 0, i32 0
  %23 = getelementptr inbounds %"struct.std::_Deque_base<int, std::allocator<int> >::_Deque_impl"* %22, i32 0, i32 3
  %24 = bitcast %"class.std::deque"* %3 to %"class.std::_Deque_base"*
  %25 = getelementptr inbounds %"class.std::_Deque_base"* %24, i32 0, i32 0
  %26 = getelementptr inbounds %"struct.std::_Deque_base<int, std::allocator<int> >::_Deque_impl"* %25, i32 0, i32 3
  %27 = getelementptr inbounds %"struct.std::_Deque_iterator"* %26, i32 0, i32 3
  %28 = load i32*** %27, align 8
  %29 = getelementptr inbounds i32** %28, i64 1
  call void @_ZNSt15_Deque_iteratorIiRiPiE11_M_set_nodeEPS1_(%"struct.std::_Deque_iterator"* %23, i32** %29)
  %30 = bitcast %"class.std::deque"* %3 to %"class.std::_Deque_base"*
  %31 = getelementptr inbounds %"class.std::_Deque_base"* %30, i32 0, i32 0
  %32 = getelementptr inbounds %"struct.std::_Deque_base<int, std::allocator<int> >::_Deque_impl"* %31, i32 0, i32 3
  %33 = getelementptr inbounds %"struct.std::_Deque_iterator"* %32, i32 0, i32 1
  %34 = load i32** %33, align 8
  %35 = bitcast %"class.std::deque"* %3 to %"class.std::_Deque_base"*
  %36 = getelementptr inbounds %"class.std::_Deque_base"* %35, i32 0, i32 0
  %37 = getelementptr inbounds %"struct.std::_Deque_base<int, std::allocator<int> >::_Deque_impl"* %36, i32 0, i32 3
  %38 = getelementptr inbounds %"struct.std::_Deque_iterator"* %37, i32 0, i32 0
  store i32* %34, i32** %38, align 8
  ret void
}

; Function Attrs: nounwind uwtable
define linkonce_odr void @_ZNSt5dequeIiSaIiEE22_M_reserve_map_at_backEm(%"class.std::deque"* %this, i64 %__nodes_to_add) #2 align 2 {
  %1 = alloca %"class.std::deque"*, align 8
  %2 = alloca i64, align 8
  store %"class.std::deque"* %this, %"class.std::deque"** %1, align 8
  store i64 %__nodes_to_add, i64* %2, align 8
  %3 = load %"class.std::deque"** %1
  %4 = load i64* %2, align 8
  %5 = add i64 %4, 1
  %6 = bitcast %"class.std::deque"* %3 to %"class.std::_Deque_base"*
  %7 = getelementptr inbounds %"class.std::_Deque_base"* %6, i32 0, i32 0
  %8 = getelementptr inbounds %"struct.std::_Deque_base<int, std::allocator<int> >::_Deque_impl"* %7, i32 0, i32 1
  %9 = load i64* %8, align 8
  %10 = bitcast %"class.std::deque"* %3 to %"class.std::_Deque_base"*
  %11 = getelementptr inbounds %"class.std::_Deque_base"* %10, i32 0, i32 0
  %12 = getelementptr inbounds %"struct.std::_Deque_base<int, std::allocator<int> >::_Deque_impl"* %11, i32 0, i32 3
  %13 = getelementptr inbounds %"struct.std::_Deque_iterator"* %12, i32 0, i32 3
  %14 = load i32*** %13, align 8
  %15 = bitcast %"class.std::deque"* %3 to %"class.std::_Deque_base"*
  %16 = getelementptr inbounds %"class.std::_Deque_base"* %15, i32 0, i32 0
  %17 = getelementptr inbounds %"struct.std::_Deque_base<int, std::allocator<int> >::_Deque_impl"* %16, i32 0, i32 0
  %18 = load i32*** %17, align 8
  %19 = ptrtoint i32** %14 to i64
  %20 = ptrtoint i32** %18 to i64
  %21 = sub i64 %19, %20
  %22 = sdiv exact i64 %21, 8
  %23 = sub i64 %9, %22
  %24 = icmp ugt i64 %5, %23
  br i1 %24, label %25, label %27

; <label>:25                                      ; preds = %0
  %26 = load i64* %2, align 8
  call void @_ZNSt5dequeIiSaIiEE17_M_reallocate_mapEmb(%"class.std::deque"* %3, i64 %26, i1 zeroext false)
  br label %27

; <label>:27                                      ; preds = %25, %0
  ret void
}

; Function Attrs: nounwind uwtable
define linkonce_odr i32* @_ZNSt11_Deque_baseIiSaIiEE16_M_allocate_nodeEv(%"class.std::_Deque_base"* %this) #2 align 2 {
  %1 = alloca %"class.std::_Deque_base"*, align 8
  store %"class.std::_Deque_base"* %this, %"class.std::_Deque_base"** %1, align 8
  %2 = load %"class.std::_Deque_base"** %1
  %3 = getelementptr inbounds %"class.std::_Deque_base"* %2, i32 0, i32 0
  %4 = bitcast %"struct.std::_Deque_base<int, std::allocator<int> >::_Deque_impl"* %3 to %"class.std::allocator"*
  %5 = call i64 @_ZSt16__deque_buf_sizem(i64 4)
  %6 = call i32* @_ZN9__gnu_cxx14__alloc_traitsISaIiEE8allocateERS1_m(%"class.std::allocator"* %4, i64 %5)
  ret i32* %6
}

; Function Attrs: nounwind uwtable
define linkonce_odr void @_ZNSt5dequeIiSaIiEE17_M_reallocate_mapEmb(%"class.std::deque"* %this, i64 %__nodes_to_add, i1 zeroext %__add_at_front) #2 align 2 {
  %1 = alloca %"class.std::deque"*, align 8
  %2 = alloca i64, align 8
  %3 = alloca i8, align 1
  %__old_num_nodes = alloca i64, align 8
  %__new_num_nodes = alloca i64, align 8
  %__new_nstart = alloca i32**, align 8
  %__new_map_size = alloca i64, align 8
  %__new_map = alloca i32**, align 8
  store %"class.std::deque"* %this, %"class.std::deque"** %1, align 8
  store i64 %__nodes_to_add, i64* %2, align 8
  %4 = zext i1 %__add_at_front to i8
  store i8 %4, i8* %3, align 1
  %5 = load %"class.std::deque"** %1
  %6 = bitcast %"class.std::deque"* %5 to %"class.std::_Deque_base"*
  %7 = getelementptr inbounds %"class.std::_Deque_base"* %6, i32 0, i32 0
  %8 = getelementptr inbounds %"struct.std::_Deque_base<int, std::allocator<int> >::_Deque_impl"* %7, i32 0, i32 3
  %9 = getelementptr inbounds %"struct.std::_Deque_iterator"* %8, i32 0, i32 3
  %10 = load i32*** %9, align 8
  %11 = bitcast %"class.std::deque"* %5 to %"class.std::_Deque_base"*
  %12 = getelementptr inbounds %"class.std::_Deque_base"* %11, i32 0, i32 0
  %13 = getelementptr inbounds %"struct.std::_Deque_base<int, std::allocator<int> >::_Deque_impl"* %12, i32 0, i32 2
  %14 = getelementptr inbounds %"struct.std::_Deque_iterator"* %13, i32 0, i32 3
  %15 = load i32*** %14, align 8
  %16 = ptrtoint i32** %10 to i64
  %17 = ptrtoint i32** %15 to i64
  %18 = sub i64 %16, %17
  %19 = sdiv exact i64 %18, 8
  %20 = add nsw i64 %19, 1
  store i64 %20, i64* %__old_num_nodes, align 8
  %21 = load i64* %__old_num_nodes, align 8
  %22 = load i64* %2, align 8
  %23 = add i64 %21, %22
  store i64 %23, i64* %__new_num_nodes, align 8
  %24 = bitcast %"class.std::deque"* %5 to %"class.std::_Deque_base"*
  %25 = getelementptr inbounds %"class.std::_Deque_base"* %24, i32 0, i32 0
  %26 = getelementptr inbounds %"struct.std::_Deque_base<int, std::allocator<int> >::_Deque_impl"* %25, i32 0, i32 1
  %27 = load i64* %26, align 8
  %28 = load i64* %__new_num_nodes, align 8
  %29 = mul i64 2, %28
  %30 = icmp ugt i64 %27, %29
  br i1 %30, label %31, label %90

; <label>:31                                      ; preds = %0
  %32 = bitcast %"class.std::deque"* %5 to %"class.std::_Deque_base"*
  %33 = getelementptr inbounds %"class.std::_Deque_base"* %32, i32 0, i32 0
  %34 = getelementptr inbounds %"struct.std::_Deque_base<int, std::allocator<int> >::_Deque_impl"* %33, i32 0, i32 0
  %35 = load i32*** %34, align 8
  %36 = bitcast %"class.std::deque"* %5 to %"class.std::_Deque_base"*
  %37 = getelementptr inbounds %"class.std::_Deque_base"* %36, i32 0, i32 0
  %38 = getelementptr inbounds %"struct.std::_Deque_base<int, std::allocator<int> >::_Deque_impl"* %37, i32 0, i32 1
  %39 = load i64* %38, align 8
  %40 = load i64* %__new_num_nodes, align 8
  %41 = sub i64 %39, %40
  %42 = udiv i64 %41, 2
  %43 = getelementptr inbounds i32** %35, i64 %42
  %44 = load i8* %3, align 1
  %45 = trunc i8 %44 to i1
  br i1 %45, label %46, label %48

; <label>:46                                      ; preds = %31
  %47 = load i64* %2, align 8
  br label %49

; <label>:48                                      ; preds = %31
  br label %49

; <label>:49                                      ; preds = %48, %46
  %50 = phi i64 [ %47, %46 ], [ 0, %48 ]
  %51 = getelementptr inbounds i32** %43, i64 %50
  store i32** %51, i32*** %__new_nstart, align 8
  %52 = load i32*** %__new_nstart, align 8
  %53 = bitcast %"class.std::deque"* %5 to %"class.std::_Deque_base"*
  %54 = getelementptr inbounds %"class.std::_Deque_base"* %53, i32 0, i32 0
  %55 = getelementptr inbounds %"struct.std::_Deque_base<int, std::allocator<int> >::_Deque_impl"* %54, i32 0, i32 2
  %56 = getelementptr inbounds %"struct.std::_Deque_iterator"* %55, i32 0, i32 3
  %57 = load i32*** %56, align 8
  %58 = icmp ult i32** %52, %57
  br i1 %58, label %59, label %73

; <label>:59                                      ; preds = %49
  %60 = bitcast %"class.std::deque"* %5 to %"class.std::_Deque_base"*
  %61 = getelementptr inbounds %"class.std::_Deque_base"* %60, i32 0, i32 0
  %62 = getelementptr inbounds %"struct.std::_Deque_base<int, std::allocator<int> >::_Deque_impl"* %61, i32 0, i32 2
  %63 = getelementptr inbounds %"struct.std::_Deque_iterator"* %62, i32 0, i32 3
  %64 = load i32*** %63, align 8
  %65 = bitcast %"class.std::deque"* %5 to %"class.std::_Deque_base"*
  %66 = getelementptr inbounds %"class.std::_Deque_base"* %65, i32 0, i32 0
  %67 = getelementptr inbounds %"struct.std::_Deque_base<int, std::allocator<int> >::_Deque_impl"* %66, i32 0, i32 3
  %68 = getelementptr inbounds %"struct.std::_Deque_iterator"* %67, i32 0, i32 3
  %69 = load i32*** %68, align 8
  %70 = getelementptr inbounds i32** %69, i64 1
  %71 = load i32*** %__new_nstart, align 8
  %72 = call i32** @_ZSt4copyIPPiS1_ET0_T_S3_S2_(i32** %64, i32** %70, i32** %71)
  br label %89

; <label>:73                                      ; preds = %49
  %74 = bitcast %"class.std::deque"* %5 to %"class.std::_Deque_base"*
  %75 = getelementptr inbounds %"class.std::_Deque_base"* %74, i32 0, i32 0
  %76 = getelementptr inbounds %"struct.std::_Deque_base<int, std::allocator<int> >::_Deque_impl"* %75, i32 0, i32 2
  %77 = getelementptr inbounds %"struct.std::_Deque_iterator"* %76, i32 0, i32 3
  %78 = load i32*** %77, align 8
  %79 = bitcast %"class.std::deque"* %5 to %"class.std::_Deque_base"*
  %80 = getelementptr inbounds %"class.std::_Deque_base"* %79, i32 0, i32 0
  %81 = getelementptr inbounds %"struct.std::_Deque_base<int, std::allocator<int> >::_Deque_impl"* %80, i32 0, i32 3
  %82 = getelementptr inbounds %"struct.std::_Deque_iterator"* %81, i32 0, i32 3
  %83 = load i32*** %82, align 8
  %84 = getelementptr inbounds i32** %83, i64 1
  %85 = load i32*** %__new_nstart, align 8
  %86 = load i64* %__old_num_nodes, align 8
  %87 = getelementptr inbounds i32** %85, i64 %86
  %88 = call i32** @_ZSt13copy_backwardIPPiS1_ET0_T_S3_S2_(i32** %78, i32** %84, i32** %87)
  br label %89

; <label>:89                                      ; preds = %73, %59
  br label %149

; <label>:90                                      ; preds = %0
  %91 = bitcast %"class.std::deque"* %5 to %"class.std::_Deque_base"*
  %92 = getelementptr inbounds %"class.std::_Deque_base"* %91, i32 0, i32 0
  %93 = getelementptr inbounds %"struct.std::_Deque_base<int, std::allocator<int> >::_Deque_impl"* %92, i32 0, i32 1
  %94 = load i64* %93, align 8
  %95 = bitcast %"class.std::deque"* %5 to %"class.std::_Deque_base"*
  %96 = getelementptr inbounds %"class.std::_Deque_base"* %95, i32 0, i32 0
  %97 = getelementptr inbounds %"struct.std::_Deque_base<int, std::allocator<int> >::_Deque_impl"* %96, i32 0, i32 1
  %98 = call i64* @_ZSt3maxImERKT_S2_S2_(i64* %97, i64* %2)
  %99 = load i64* %98
  %100 = add i64 %94, %99
  %101 = add i64 %100, 2
  store i64 %101, i64* %__new_map_size, align 8
  %102 = bitcast %"class.std::deque"* %5 to %"class.std::_Deque_base"*
  %103 = load i64* %__new_map_size, align 8
  %104 = call i32** @_ZNSt11_Deque_baseIiSaIiEE15_M_allocate_mapEm(%"class.std::_Deque_base"* %102, i64 %103)
  store i32** %104, i32*** %__new_map, align 8
  %105 = load i32*** %__new_map, align 8
  %106 = load i64* %__new_map_size, align 8
  %107 = load i64* %__new_num_nodes, align 8
  %108 = sub i64 %106, %107
  %109 = udiv i64 %108, 2
  %110 = getelementptr inbounds i32** %105, i64 %109
  %111 = load i8* %3, align 1
  %112 = trunc i8 %111 to i1
  br i1 %112, label %113, label %115

; <label>:113                                     ; preds = %90
  %114 = load i64* %2, align 8
  br label %116

; <label>:115                                     ; preds = %90
  br label %116

; <label>:116                                     ; preds = %115, %113
  %117 = phi i64 [ %114, %113 ], [ 0, %115 ]
  %118 = getelementptr inbounds i32** %110, i64 %117
  store i32** %118, i32*** %__new_nstart, align 8
  %119 = bitcast %"class.std::deque"* %5 to %"class.std::_Deque_base"*
  %120 = getelementptr inbounds %"class.std::_Deque_base"* %119, i32 0, i32 0
  %121 = getelementptr inbounds %"struct.std::_Deque_base<int, std::allocator<int> >::_Deque_impl"* %120, i32 0, i32 2
  %122 = getelementptr inbounds %"struct.std::_Deque_iterator"* %121, i32 0, i32 3
  %123 = load i32*** %122, align 8
  %124 = bitcast %"class.std::deque"* %5 to %"class.std::_Deque_base"*
  %125 = getelementptr inbounds %"class.std::_Deque_base"* %124, i32 0, i32 0
  %126 = getelementptr inbounds %"struct.std::_Deque_base<int, std::allocator<int> >::_Deque_impl"* %125, i32 0, i32 3
  %127 = getelementptr inbounds %"struct.std::_Deque_iterator"* %126, i32 0, i32 3
  %128 = load i32*** %127, align 8
  %129 = getelementptr inbounds i32** %128, i64 1
  %130 = load i32*** %__new_nstart, align 8
  %131 = call i32** @_ZSt4copyIPPiS1_ET0_T_S3_S2_(i32** %123, i32** %129, i32** %130)
  %132 = bitcast %"class.std::deque"* %5 to %"class.std::_Deque_base"*
  %133 = bitcast %"class.std::deque"* %5 to %"class.std::_Deque_base"*
  %134 = getelementptr inbounds %"class.std::_Deque_base"* %133, i32 0, i32 0
  %135 = getelementptr inbounds %"struct.std::_Deque_base<int, std::allocator<int> >::_Deque_impl"* %134, i32 0, i32 0
  %136 = load i32*** %135, align 8
  %137 = bitcast %"class.std::deque"* %5 to %"class.std::_Deque_base"*
  %138 = getelementptr inbounds %"class.std::_Deque_base"* %137, i32 0, i32 0
  %139 = getelementptr inbounds %"struct.std::_Deque_base<int, std::allocator<int> >::_Deque_impl"* %138, i32 0, i32 1
  %140 = load i64* %139, align 8
  call void @_ZNSt11_Deque_baseIiSaIiEE17_M_deallocate_mapEPPim(%"class.std::_Deque_base"* %132, i32** %136, i64 %140)
  %141 = load i32*** %__new_map, align 8
  %142 = bitcast %"class.std::deque"* %5 to %"class.std::_Deque_base"*
  %143 = getelementptr inbounds %"class.std::_Deque_base"* %142, i32 0, i32 0
  %144 = getelementptr inbounds %"struct.std::_Deque_base<int, std::allocator<int> >::_Deque_impl"* %143, i32 0, i32 0
  store i32** %141, i32*** %144, align 8
  %145 = load i64* %__new_map_size, align 8
  %146 = bitcast %"class.std::deque"* %5 to %"class.std::_Deque_base"*
  %147 = getelementptr inbounds %"class.std::_Deque_base"* %146, i32 0, i32 0
  %148 = getelementptr inbounds %"struct.std::_Deque_base<int, std::allocator<int> >::_Deque_impl"* %147, i32 0, i32 1
  store i64 %145, i64* %148, align 8
  br label %149

; <label>:149                                     ; preds = %116, %89
  %150 = bitcast %"class.std::deque"* %5 to %"class.std::_Deque_base"*
  %151 = getelementptr inbounds %"class.std::_Deque_base"* %150, i32 0, i32 0
  %152 = getelementptr inbounds %"struct.std::_Deque_base<int, std::allocator<int> >::_Deque_impl"* %151, i32 0, i32 2
  %153 = load i32*** %__new_nstart, align 8
  call void @_ZNSt15_Deque_iteratorIiRiPiE11_M_set_nodeEPS1_(%"struct.std::_Deque_iterator"* %152, i32** %153)
  %154 = bitcast %"class.std::deque"* %5 to %"class.std::_Deque_base"*
  %155 = getelementptr inbounds %"class.std::_Deque_base"* %154, i32 0, i32 0
  %156 = getelementptr inbounds %"struct.std::_Deque_base<int, std::allocator<int> >::_Deque_impl"* %155, i32 0, i32 3
  %157 = load i32*** %__new_nstart, align 8
  %158 = load i64* %__old_num_nodes, align 8
  %159 = getelementptr inbounds i32** %157, i64 %158
  %160 = getelementptr inbounds i32** %159, i64 -1
  call void @_ZNSt15_Deque_iteratorIiRiPiE11_M_set_nodeEPS1_(%"struct.std::_Deque_iterator"* %156, i32** %160)
  ret void
}

; Function Attrs: inlinehint nounwind uwtable
define linkonce_odr i32** @_ZSt4copyIPPiS1_ET0_T_S3_S2_(i32** %__first, i32** %__last, i32** %__result) #3 {
  %1 = alloca i32**, align 8
  %2 = alloca i32**, align 8
  %3 = alloca i32**, align 8
  store i32** %__first, i32*** %1, align 8
  store i32** %__last, i32*** %2, align 8
  store i32** %__result, i32*** %3, align 8
  %4 = load i32*** %1, align 8
  %5 = call i32** @_ZSt12__miter_baseIPPiENSt11_Miter_baseIT_E13iterator_typeES3_(i32** %4)
  %6 = load i32*** %2, align 8
  %7 = call i32** @_ZSt12__miter_baseIPPiENSt11_Miter_baseIT_E13iterator_typeES3_(i32** %6)
  %8 = load i32*** %3, align 8
  %9 = call i32** @_ZSt14__copy_move_a2ILb0EPPiS1_ET1_T0_S3_S2_(i32** %5, i32** %7, i32** %8)
  ret i32** %9
}

; Function Attrs: inlinehint nounwind uwtable
define linkonce_odr i32** @_ZSt13copy_backwardIPPiS1_ET0_T_S3_S2_(i32** %__first, i32** %__last, i32** %__result) #3 {
  %1 = alloca i32**, align 8
  %2 = alloca i32**, align 8
  %3 = alloca i32**, align 8
  store i32** %__first, i32*** %1, align 8
  store i32** %__last, i32*** %2, align 8
  store i32** %__result, i32*** %3, align 8
  %4 = load i32*** %1, align 8
  %5 = call i32** @_ZSt12__miter_baseIPPiENSt11_Miter_baseIT_E13iterator_typeES3_(i32** %4)
  %6 = load i32*** %2, align 8
  %7 = call i32** @_ZSt12__miter_baseIPPiENSt11_Miter_baseIT_E13iterator_typeES3_(i32** %6)
  %8 = load i32*** %3, align 8
  %9 = call i32** @_ZSt23__copy_move_backward_a2ILb0EPPiS1_ET1_T0_S3_S2_(i32** %5, i32** %7, i32** %8)
  ret i32** %9
}

; Function Attrs: nounwind uwtable
define linkonce_odr i32** @_ZNSt11_Deque_baseIiSaIiEE15_M_allocate_mapEm(%"class.std::_Deque_base"* %this, i64 %__n) #2 align 2 {
  %1 = alloca %"class.std::_Deque_base"*, align 8
  %2 = alloca i64, align 8
  %__map_alloc = alloca %"class.std::allocator.0", align 1
  %3 = alloca i32
  store %"class.std::_Deque_base"* %this, %"class.std::_Deque_base"** %1, align 8
  store i64 %__n, i64* %2, align 8
  %4 = load %"class.std::_Deque_base"** %1
  call void @_ZNKSt11_Deque_baseIiSaIiEE20_M_get_map_allocatorEv(%"class.std::allocator.0"* sret %__map_alloc, %"class.std::_Deque_base"* %4)
  %5 = load i64* %2, align 8
  %6 = call i32** @_ZN9__gnu_cxx14__alloc_traitsISaIPiEE8allocateERS2_m(%"class.std::allocator.0"* %__map_alloc, i64 %5)
  store i32 1, i32* %3
  call void @_ZNSaIPiED2Ev(%"class.std::allocator.0"* %__map_alloc) #0
  ret i32** %6
}

; Function Attrs: nounwind uwtable
define linkonce_odr void @_ZNSt11_Deque_baseIiSaIiEE17_M_deallocate_mapEPPim(%"class.std::_Deque_base"* %this, i32** %__p, i64 %__n) #2 align 2 {
  %1 = alloca %"class.std::_Deque_base"*, align 8
  %2 = alloca i32**, align 8
  %3 = alloca i64, align 8
  %__map_alloc = alloca %"class.std::allocator.0", align 1
  store %"class.std::_Deque_base"* %this, %"class.std::_Deque_base"** %1, align 8
  store i32** %__p, i32*** %2, align 8
  store i64 %__n, i64* %3, align 8
  %4 = load %"class.std::_Deque_base"** %1
  call void @_ZNKSt11_Deque_baseIiSaIiEE20_M_get_map_allocatorEv(%"class.std::allocator.0"* sret %__map_alloc, %"class.std::_Deque_base"* %4)
  %5 = load i32*** %2, align 8
  %6 = load i64* %3, align 8
  call void @_ZN9__gnu_cxx14__alloc_traitsISaIPiEE10deallocateERS2_PS1_m(%"class.std::allocator.0"* %__map_alloc, i32** %5, i64 %6)
  call void @_ZNSaIPiED2Ev(%"class.std::allocator.0"* %__map_alloc) #0
  ret void
}

; Function Attrs: nounwind uwtable
define linkonce_odr void @_ZNKSt11_Deque_baseIiSaIiEE20_M_get_map_allocatorEv(%"class.std::allocator.0"* noalias sret %agg.result, %"class.std::_Deque_base"* %this) #2 align 2 {
  %1 = alloca %"class.std::_Deque_base"*, align 8
  store %"class.std::_Deque_base"* %this, %"class.std::_Deque_base"** %1, align 8
  %2 = load %"class.std::_Deque_base"** %1
  %3 = call %"class.std::allocator"* @_ZNKSt11_Deque_baseIiSaIiEE19_M_get_Tp_allocatorEv(%"class.std::_Deque_base"* %2)
  call void @_ZNSaIPiEC2IiEERKSaIT_E(%"class.std::allocator.0"* %agg.result, %"class.std::allocator"* %3) #0
  ret void
}

; Function Attrs: nounwind uwtable
define linkonce_odr void @_ZN9__gnu_cxx14__alloc_traitsISaIPiEE10deallocateERS2_PS1_m(%"class.std::allocator.0"* %__a, i32** %__p, i64 %__n) #2 align 2 {
  %1 = alloca %"class.std::allocator.0"*, align 8
  %2 = alloca i32**, align 8
  %3 = alloca i64, align 8
  store %"class.std::allocator.0"* %__a, %"class.std::allocator.0"** %1, align 8
  store i32** %__p, i32*** %2, align 8
  store i64 %__n, i64* %3, align 8
  %4 = load %"class.std::allocator.0"** %1, align 8
  %5 = bitcast %"class.std::allocator.0"* %4 to %"class.__gnu_cxx::new_allocator.1"*
  %6 = load i32*** %2, align 8
  %7 = load i64* %3, align 8
  call void @_ZN9__gnu_cxx13new_allocatorIPiE10deallocateEPS1_m(%"class.__gnu_cxx::new_allocator.1"* %5, i32** %6, i64 %7)
  ret void
}

; Function Attrs: nounwind uwtable
define linkonce_odr void @_ZNSaIPiED2Ev(%"class.std::allocator.0"* %this) unnamed_addr #2 align 2 {
  %1 = alloca %"class.std::allocator.0"*, align 8
  store %"class.std::allocator.0"* %this, %"class.std::allocator.0"** %1, align 8
  %2 = load %"class.std::allocator.0"** %1
  %3 = bitcast %"class.std::allocator.0"* %2 to %"class.__gnu_cxx::new_allocator.1"*
  call void @_ZN9__gnu_cxx13new_allocatorIPiED2Ev(%"class.__gnu_cxx::new_allocator.1"* %3) #0
  ret void
}

; Function Attrs: nounwind uwtable
define linkonce_odr void @_ZN9__gnu_cxx13new_allocatorIPiED2Ev(%"class.__gnu_cxx::new_allocator.1"* %this) unnamed_addr #2 align 2 {
  %1 = alloca %"class.__gnu_cxx::new_allocator.1"*, align 8
  store %"class.__gnu_cxx::new_allocator.1"* %this, %"class.__gnu_cxx::new_allocator.1"** %1, align 8
  %2 = load %"class.__gnu_cxx::new_allocator.1"** %1
  ret void
}

; Function Attrs: nounwind uwtable
define linkonce_odr void @_ZN9__gnu_cxx13new_allocatorIPiE10deallocateEPS1_m(%"class.__gnu_cxx::new_allocator.1"* %this, i32** %__p, i64) #2 align 2 {
  %2 = alloca %"class.__gnu_cxx::new_allocator.1"*, align 8
  %3 = alloca i32**, align 8
  %4 = alloca i64, align 8
  store %"class.__gnu_cxx::new_allocator.1"* %this, %"class.__gnu_cxx::new_allocator.1"** %2, align 8
  store i32** %__p, i32*** %3, align 8
  store i64 %0, i64* %4, align 8
  %5 = load %"class.__gnu_cxx::new_allocator.1"** %2
  %6 = load i32*** %3, align 8
  %7 = bitcast i32** %6 to i8*
  call void @_ZdlPv(i8* %7) #0
  ret void
}

; Function Attrs: nounwind uwtable
define linkonce_odr void @_ZNSaIPiEC2IiEERKSaIT_E(%"class.std::allocator.0"* %this, %"class.std::allocator"*) unnamed_addr #2 align 2 {
  %2 = alloca %"class.std::allocator.0"*, align 8
  %3 = alloca %"class.std::allocator"*, align 8
  store %"class.std::allocator.0"* %this, %"class.std::allocator.0"** %2, align 8
  store %"class.std::allocator"* %0, %"class.std::allocator"** %3, align 8
  %4 = load %"class.std::allocator.0"** %2
  %5 = bitcast %"class.std::allocator.0"* %4 to %"class.__gnu_cxx::new_allocator.1"*
  call void @_ZN9__gnu_cxx13new_allocatorIPiEC2Ev(%"class.__gnu_cxx::new_allocator.1"* %5) #0
  ret void
}

; Function Attrs: nounwind uwtable
define linkonce_odr %"class.std::allocator"* @_ZNKSt11_Deque_baseIiSaIiEE19_M_get_Tp_allocatorEv(%"class.std::_Deque_base"* %this) #2 align 2 {
  %1 = alloca %"class.std::_Deque_base"*, align 8
  store %"class.std::_Deque_base"* %this, %"class.std::_Deque_base"** %1, align 8
  %2 = load %"class.std::_Deque_base"** %1
  %3 = getelementptr inbounds %"class.std::_Deque_base"* %2, i32 0, i32 0
  %4 = bitcast %"struct.std::_Deque_base<int, std::allocator<int> >::_Deque_impl"* %3 to %"class.std::allocator"*
  ret %"class.std::allocator"* %4
}

; Function Attrs: nounwind uwtable
define linkonce_odr void @_ZN9__gnu_cxx13new_allocatorIPiEC2Ev(%"class.__gnu_cxx::new_allocator.1"* %this) unnamed_addr #2 align 2 {
  %1 = alloca %"class.__gnu_cxx::new_allocator.1"*, align 8
  store %"class.__gnu_cxx::new_allocator.1"* %this, %"class.__gnu_cxx::new_allocator.1"** %1, align 8
  %2 = load %"class.__gnu_cxx::new_allocator.1"** %1
  ret void
}

; Function Attrs: nounwind uwtable
define linkonce_odr i32** @_ZN9__gnu_cxx14__alloc_traitsISaIPiEE8allocateERS2_m(%"class.std::allocator.0"* %__a, i64 %__n) #2 align 2 {
  %1 = alloca %"class.std::allocator.0"*, align 8
  %2 = alloca i64, align 8
  store %"class.std::allocator.0"* %__a, %"class.std::allocator.0"** %1, align 8
  store i64 %__n, i64* %2, align 8
  %3 = load %"class.std::allocator.0"** %1, align 8
  %4 = bitcast %"class.std::allocator.0"* %3 to %"class.__gnu_cxx::new_allocator.1"*
  %5 = load i64* %2, align 8
  %6 = call i32** @_ZN9__gnu_cxx13new_allocatorIPiE8allocateEmPKv(%"class.__gnu_cxx::new_allocator.1"* %4, i64 %5, i8* null)
  ret i32** %6
}

; Function Attrs: nounwind uwtable
define linkonce_odr i32** @_ZN9__gnu_cxx13new_allocatorIPiE8allocateEmPKv(%"class.__gnu_cxx::new_allocator.1"* %this, i64 %__n, i8*) #2 align 2 {
  %2 = alloca %"class.__gnu_cxx::new_allocator.1"*, align 8
  %3 = alloca i64, align 8
  %4 = alloca i8*, align 8
  store %"class.__gnu_cxx::new_allocator.1"* %this, %"class.__gnu_cxx::new_allocator.1"** %2, align 8
  store i64 %__n, i64* %3, align 8
  store i8* %0, i8** %4, align 8
  %5 = load %"class.__gnu_cxx::new_allocator.1"** %2
  %6 = load i64* %3, align 8
  %7 = call i64 @_ZNK9__gnu_cxx13new_allocatorIPiE8max_sizeEv(%"class.__gnu_cxx::new_allocator.1"* %5) #0
  %8 = icmp ugt i64 %6, %7
  br i1 %8, label %9, label %10

; <label>:9                                       ; preds = %1
  call void @_ZSt17__throw_bad_allocv() #7
  unreachable

; <label>:10                                      ; preds = %1
  %11 = load i64* %3, align 8
  %12 = mul i64 %11, 8
  %13 = call noalias i8* @_Znwm(i64 %12)
  %14 = bitcast i8* %13 to i32**
  ret i32** %14
}

; Function Attrs: nounwind uwtable
define linkonce_odr i64 @_ZNK9__gnu_cxx13new_allocatorIPiE8max_sizeEv(%"class.__gnu_cxx::new_allocator.1"* %this) #2 align 2 {
  %1 = alloca %"class.__gnu_cxx::new_allocator.1"*, align 8
  store %"class.__gnu_cxx::new_allocator.1"* %this, %"class.__gnu_cxx::new_allocator.1"** %1, align 8
  %2 = load %"class.__gnu_cxx::new_allocator.1"** %1
  ret i64 2305843009213693951
}

; Function Attrs: inlinehint nounwind uwtable
define linkonce_odr i32** @_ZSt23__copy_move_backward_a2ILb0EPPiS1_ET1_T0_S3_S2_(i32** %__first, i32** %__last, i32** %__result) #3 {
  %1 = alloca i32**, align 8
  %2 = alloca i32**, align 8
  %3 = alloca i32**, align 8
  store i32** %__first, i32*** %1, align 8
  store i32** %__last, i32*** %2, align 8
  store i32** %__result, i32*** %3, align 8
  %4 = load i32*** %1, align 8
  %5 = call i32** @_ZSt12__niter_baseIPPiENSt11_Niter_baseIT_E13iterator_typeES3_(i32** %4)
  %6 = load i32*** %2, align 8
  %7 = call i32** @_ZSt12__niter_baseIPPiENSt11_Niter_baseIT_E13iterator_typeES3_(i32** %6)
  %8 = load i32*** %3, align 8
  %9 = call i32** @_ZSt12__niter_baseIPPiENSt11_Niter_baseIT_E13iterator_typeES3_(i32** %8)
  %10 = call i32** @_ZSt22__copy_move_backward_aILb0EPPiS1_ET1_T0_S3_S2_(i32** %5, i32** %7, i32** %9)
  ret i32** %10
}

; Function Attrs: inlinehint nounwind uwtable
define linkonce_odr i32** @_ZSt12__miter_baseIPPiENSt11_Miter_baseIT_E13iterator_typeES3_(i32** %__it) #3 {
  %1 = alloca i32**, align 8
  store i32** %__it, i32*** %1, align 8
  %2 = load i32*** %1, align 8
  %3 = call i32** @_ZNSt10_Iter_baseIPPiLb0EE7_S_baseES1_(i32** %2)
  ret i32** %3
}

; Function Attrs: nounwind uwtable
define linkonce_odr i32** @_ZNSt10_Iter_baseIPPiLb0EE7_S_baseES1_(i32** %__it) #2 align 2 {
  %1 = alloca i32**, align 8
  store i32** %__it, i32*** %1, align 8
  %2 = load i32*** %1, align 8
  ret i32** %2
}

; Function Attrs: inlinehint nounwind uwtable
define linkonce_odr i32** @_ZSt22__copy_move_backward_aILb0EPPiS1_ET1_T0_S3_S2_(i32** %__first, i32** %__last, i32** %__result) #3 {
  %1 = alloca i32**, align 8
  %2 = alloca i32**, align 8
  %3 = alloca i32**, align 8
  %__simple = alloca i8, align 1
  store i32** %__first, i32*** %1, align 8
  store i32** %__last, i32*** %2, align 8
  store i32** %__result, i32*** %3, align 8
  store i8 1, i8* %__simple, align 1
  %4 = load i32*** %1, align 8
  %5 = load i32*** %2, align 8
  %6 = load i32*** %3, align 8
  %7 = call i32** @_ZNSt20__copy_move_backwardILb0ELb1ESt26random_access_iterator_tagE13__copy_move_bIPiEEPT_PKS4_S7_S5_(i32** %4, i32** %5, i32** %6)
  ret i32** %7
}

; Function Attrs: inlinehint nounwind uwtable
define linkonce_odr i32** @_ZSt12__niter_baseIPPiENSt11_Niter_baseIT_E13iterator_typeES3_(i32** %__it) #3 {
  %1 = alloca i32**, align 8
  store i32** %__it, i32*** %1, align 8
  %2 = load i32*** %1, align 8
  %3 = call i32** @_ZNSt10_Iter_baseIPPiLb0EE7_S_baseES1_(i32** %2)
  ret i32** %3
}

; Function Attrs: nounwind uwtable
define linkonce_odr i32** @_ZNSt20__copy_move_backwardILb0ELb1ESt26random_access_iterator_tagE13__copy_move_bIPiEEPT_PKS4_S7_S5_(i32** %__first, i32** %__last, i32** %__result) #2 align 2 {
  %1 = alloca i32**, align 8
  %2 = alloca i32**, align 8
  %3 = alloca i32**, align 8
  %_Num = alloca i64, align 8
  store i32** %__first, i32*** %1, align 8
  store i32** %__last, i32*** %2, align 8
  store i32** %__result, i32*** %3, align 8
  %4 = load i32*** %2, align 8
  %5 = load i32*** %1, align 8
  %6 = ptrtoint i32** %4 to i64
  %7 = ptrtoint i32** %5 to i64
  %8 = sub i64 %6, %7
  %9 = sdiv exact i64 %8, 8
  store i64 %9, i64* %_Num, align 8
  %10 = load i64* %_Num, align 8
  %11 = icmp ne i64 %10, 0
  br i1 %11, label %12, label %22

; <label>:12                                      ; preds = %0
  %13 = load i32*** %3, align 8
  %14 = load i64* %_Num, align 8
  %15 = sub i64 0, %14
  %16 = getelementptr inbounds i32** %13, i64 %15
  %17 = bitcast i32** %16 to i8*
  %18 = load i32*** %1, align 8
  %19 = bitcast i32** %18 to i8*
  %20 = load i64* %_Num, align 8
  %21 = mul i64 8, %20
  call void @llvm.memmove.p0i8.p0i8.i64(i8* %17, i8* %19, i64 %21, i32 8, i1 false)
  br label %22

; <label>:22                                      ; preds = %12, %0
  %23 = load i32*** %3, align 8
  %24 = load i64* %_Num, align 8
  %25 = sub i64 0, %24
  %26 = getelementptr inbounds i32** %23, i64 %25
  ret i32** %26
}

; Function Attrs: inlinehint nounwind uwtable
define linkonce_odr i32** @_ZSt14__copy_move_a2ILb0EPPiS1_ET1_T0_S3_S2_(i32** %__first, i32** %__last, i32** %__result) #3 {
  %1 = alloca i32**, align 8
  %2 = alloca i32**, align 8
  %3 = alloca i32**, align 8
  store i32** %__first, i32*** %1, align 8
  store i32** %__last, i32*** %2, align 8
  store i32** %__result, i32*** %3, align 8
  %4 = load i32*** %1, align 8
  %5 = call i32** @_ZSt12__niter_baseIPPiENSt11_Niter_baseIT_E13iterator_typeES3_(i32** %4)
  %6 = load i32*** %2, align 8
  %7 = call i32** @_ZSt12__niter_baseIPPiENSt11_Niter_baseIT_E13iterator_typeES3_(i32** %6)
  %8 = load i32*** %3, align 8
  %9 = call i32** @_ZSt12__niter_baseIPPiENSt11_Niter_baseIT_E13iterator_typeES3_(i32** %8)
  %10 = call i32** @_ZSt13__copy_move_aILb0EPPiS1_ET1_T0_S3_S2_(i32** %5, i32** %7, i32** %9)
  ret i32** %10
}

; Function Attrs: inlinehint nounwind uwtable
define linkonce_odr i32** @_ZSt13__copy_move_aILb0EPPiS1_ET1_T0_S3_S2_(i32** %__first, i32** %__last, i32** %__result) #3 {
  %1 = alloca i32**, align 8
  %2 = alloca i32**, align 8
  %3 = alloca i32**, align 8
  %__simple = alloca i8, align 1
  store i32** %__first, i32*** %1, align 8
  store i32** %__last, i32*** %2, align 8
  store i32** %__result, i32*** %3, align 8
  store i8 1, i8* %__simple, align 1
  %4 = load i32*** %1, align 8
  %5 = load i32*** %2, align 8
  %6 = load i32*** %3, align 8
  %7 = call i32** @_ZNSt11__copy_moveILb0ELb1ESt26random_access_iterator_tagE8__copy_mIPiEEPT_PKS4_S7_S5_(i32** %4, i32** %5, i32** %6)
  ret i32** %7
}

; Function Attrs: nounwind uwtable
define linkonce_odr i32** @_ZNSt11__copy_moveILb0ELb1ESt26random_access_iterator_tagE8__copy_mIPiEEPT_PKS4_S7_S5_(i32** %__first, i32** %__last, i32** %__result) #2 align 2 {
  %1 = alloca i32**, align 8
  %2 = alloca i32**, align 8
  %3 = alloca i32**, align 8
  %_Num = alloca i64, align 8
  store i32** %__first, i32*** %1, align 8
  store i32** %__last, i32*** %2, align 8
  store i32** %__result, i32*** %3, align 8
  %4 = load i32*** %2, align 8
  %5 = load i32*** %1, align 8
  %6 = ptrtoint i32** %4 to i64
  %7 = ptrtoint i32** %5 to i64
  %8 = sub i64 %6, %7
  %9 = sdiv exact i64 %8, 8
  store i64 %9, i64* %_Num, align 8
  %10 = load i64* %_Num, align 8
  %11 = icmp ne i64 %10, 0
  br i1 %11, label %12, label %19

; <label>:12                                      ; preds = %0
  %13 = load i32*** %3, align 8
  %14 = bitcast i32** %13 to i8*
  %15 = load i32*** %1, align 8
  %16 = bitcast i32** %15 to i8*
  %17 = load i64* %_Num, align 8
  %18 = mul i64 8, %17
  call void @llvm.memmove.p0i8.p0i8.i64(i8* %14, i8* %16, i64 %18, i32 8, i1 false)
  br label %19

; <label>:19                                      ; preds = %12, %0
  %20 = load i32*** %3, align 8
  %21 = load i64* %_Num, align 8
  %22 = getelementptr inbounds i32** %20, i64 %21
  ret i32** %22
}

; Function Attrs: nounwind uwtable
define linkonce_odr void @_ZNSt5dequeIiSaIiEE15_M_destroy_dataESt15_Deque_iteratorIiRiPiES5_RKS0_(%"class.std::deque"* %this, %"struct.std::_Deque_iterator"* %__first, %"struct.std::_Deque_iterator"* %__last, %"class.std::allocator"*) #2 align 2 {
  %2 = alloca %"class.std::deque"*, align 8
  %3 = alloca %"class.std::allocator"*, align 8
  store %"class.std::deque"* %this, %"class.std::deque"** %2, align 8
  store %"class.std::allocator"* %0, %"class.std::allocator"** %3, align 8
  %4 = load %"class.std::deque"** %2
  ret void
}

; Function Attrs: nounwind uwtable
define linkonce_odr void @_ZNSt5dequeIiSaIiEE5beginEv(%"struct.std::_Deque_iterator"* noalias sret %agg.result, %"class.std::deque"* %this) #2 align 2 {
  %1 = alloca %"class.std::deque"*, align 8
  store %"class.std::deque"* %this, %"class.std::deque"** %1, align 8
  %2 = load %"class.std::deque"** %1
  %3 = bitcast %"class.std::deque"* %2 to %"class.std::_Deque_base"*
  %4 = getelementptr inbounds %"class.std::_Deque_base"* %3, i32 0, i32 0
  %5 = getelementptr inbounds %"struct.std::_Deque_base<int, std::allocator<int> >::_Deque_impl"* %4, i32 0, i32 2
  call void @_ZNSt15_Deque_iteratorIiRiPiEC2ERKS2_(%"struct.std::_Deque_iterator"* %agg.result, %"struct.std::_Deque_iterator"* %5)
  ret void
}

; Function Attrs: nounwind uwtable
define linkonce_odr void @_ZNSt11_Deque_baseIiSaIiEED2Ev(%"class.std::_Deque_base"* %this) unnamed_addr #2 align 2 {
  %1 = alloca %"class.std::_Deque_base"*, align 8
  store %"class.std::_Deque_base"* %this, %"class.std::_Deque_base"** %1, align 8
  %2 = load %"class.std::_Deque_base"** %1
  %3 = getelementptr inbounds %"class.std::_Deque_base"* %2, i32 0, i32 0
  %4 = getelementptr inbounds %"struct.std::_Deque_base<int, std::allocator<int> >::_Deque_impl"* %3, i32 0, i32 0
  %5 = load i32*** %4, align 8
  %6 = icmp ne i32** %5, null
  br i1 %6, label %7, label %23

; <label>:7                                       ; preds = %0
  %8 = getelementptr inbounds %"class.std::_Deque_base"* %2, i32 0, i32 0
  %9 = getelementptr inbounds %"struct.std::_Deque_base<int, std::allocator<int> >::_Deque_impl"* %8, i32 0, i32 2
  %10 = getelementptr inbounds %"struct.std::_Deque_iterator"* %9, i32 0, i32 3
  %11 = load i32*** %10, align 8
  %12 = getelementptr inbounds %"class.std::_Deque_base"* %2, i32 0, i32 0
  %13 = getelementptr inbounds %"struct.std::_Deque_base<int, std::allocator<int> >::_Deque_impl"* %12, i32 0, i32 3
  %14 = getelementptr inbounds %"struct.std::_Deque_iterator"* %13, i32 0, i32 3
  %15 = load i32*** %14, align 8
  %16 = getelementptr inbounds i32** %15, i64 1
  call void @_ZNSt11_Deque_baseIiSaIiEE16_M_destroy_nodesEPPiS3_(%"class.std::_Deque_base"* %2, i32** %11, i32** %16)
  %17 = getelementptr inbounds %"class.std::_Deque_base"* %2, i32 0, i32 0
  %18 = getelementptr inbounds %"struct.std::_Deque_base<int, std::allocator<int> >::_Deque_impl"* %17, i32 0, i32 0
  %19 = load i32*** %18, align 8
  %20 = getelementptr inbounds %"class.std::_Deque_base"* %2, i32 0, i32 0
  %21 = getelementptr inbounds %"struct.std::_Deque_base<int, std::allocator<int> >::_Deque_impl"* %20, i32 0, i32 1
  %22 = load i64* %21, align 8
  call void @_ZNSt11_Deque_baseIiSaIiEE17_M_deallocate_mapEPPim(%"class.std::_Deque_base"* %2, i32** %19, i64 %22)
  br label %23

; <label>:23                                      ; preds = %7, %0
  %24 = getelementptr inbounds %"class.std::_Deque_base"* %2, i32 0, i32 0
  call void @_ZNSt11_Deque_baseIiSaIiEE11_Deque_implD2Ev(%"struct.std::_Deque_base<int, std::allocator<int> >::_Deque_impl"* %24) #0
  ret void
}

; Function Attrs: nounwind uwtable
define linkonce_odr void @_ZNSt11_Deque_baseIiSaIiEE16_M_destroy_nodesEPPiS3_(%"class.std::_Deque_base"* %this, i32** %__nstart, i32** %__nfinish) #2 align 2 {
  %1 = alloca %"class.std::_Deque_base"*, align 8
  %2 = alloca i32**, align 8
  %3 = alloca i32**, align 8
  %__n = alloca i32**, align 8
  store %"class.std::_Deque_base"* %this, %"class.std::_Deque_base"** %1, align 8
  store i32** %__nstart, i32*** %2, align 8
  store i32** %__nfinish, i32*** %3, align 8
  %4 = load %"class.std::_Deque_base"** %1
  %5 = load i32*** %2, align 8
  store i32** %5, i32*** %__n, align 8
  br label %6

; <label>:6                                       ; preds = %13, %0
  %7 = load i32*** %__n, align 8
  %8 = load i32*** %3, align 8
  %9 = icmp ult i32** %7, %8
  br i1 %9, label %10, label %16

; <label>:10                                      ; preds = %6
  %11 = load i32*** %__n, align 8
  %12 = load i32** %11, align 8
  call void @_ZNSt11_Deque_baseIiSaIiEE18_M_deallocate_nodeEPi(%"class.std::_Deque_base"* %4, i32* %12)
  br label %13

; <label>:13                                      ; preds = %10
  %14 = load i32*** %__n, align 8
  %15 = getelementptr inbounds i32** %14, i32 1
  store i32** %15, i32*** %__n, align 8
  br label %6

; <label>:16                                      ; preds = %6
  ret void
}

; Function Attrs: inlinehint nounwind uwtable
define linkonce_odr void @_ZNSt11_Deque_baseIiSaIiEE11_Deque_implD2Ev(%"struct.std::_Deque_base<int, std::allocator<int> >::_Deque_impl"* %this) unnamed_addr #3 align 2 {
  %1 = alloca %"struct.std::_Deque_base<int, std::allocator<int> >::_Deque_impl"*, align 8
  store %"struct.std::_Deque_base<int, std::allocator<int> >::_Deque_impl"* %this, %"struct.std::_Deque_base<int, std::allocator<int> >::_Deque_impl"** %1, align 8
  %2 = load %"struct.std::_Deque_base<int, std::allocator<int> >::_Deque_impl"** %1
  %3 = bitcast %"struct.std::_Deque_base<int, std::allocator<int> >::_Deque_impl"* %2 to %"class.std::allocator"*
  call void @_ZNSaIiED2Ev(%"class.std::allocator"* %3) #0
  ret void
}

; Function Attrs: nounwind uwtable
define linkonce_odr void @_ZNSt11_Deque_baseIiSaIiEEC2Ev(%"class.std::_Deque_base"* %this) unnamed_addr #2 align 2 {
  %1 = alloca %"class.std::_Deque_base"*, align 8
  store %"class.std::_Deque_base"* %this, %"class.std::_Deque_base"** %1, align 8
  %2 = load %"class.std::_Deque_base"** %1
  %3 = getelementptr inbounds %"class.std::_Deque_base"* %2, i32 0, i32 0
  call void @_ZNSt11_Deque_baseIiSaIiEE11_Deque_implC2Ev(%"struct.std::_Deque_base<int, std::allocator<int> >::_Deque_impl"* %3)
  call void @_ZNSt11_Deque_baseIiSaIiEE17_M_initialize_mapEm(%"class.std::_Deque_base"* %2, i64 0)
  ret void
}

; Function Attrs: nounwind uwtable
define linkonce_odr void @_ZNSt11_Deque_baseIiSaIiEE11_Deque_implC2Ev(%"struct.std::_Deque_base<int, std::allocator<int> >::_Deque_impl"* %this) unnamed_addr #2 align 2 {
  %1 = alloca %"struct.std::_Deque_base<int, std::allocator<int> >::_Deque_impl"*, align 8
  store %"struct.std::_Deque_base<int, std::allocator<int> >::_Deque_impl"* %this, %"struct.std::_Deque_base<int, std::allocator<int> >::_Deque_impl"** %1, align 8
  %2 = load %"struct.std::_Deque_base<int, std::allocator<int> >::_Deque_impl"** %1
  %3 = bitcast %"struct.std::_Deque_base<int, std::allocator<int> >::_Deque_impl"* %2 to %"class.std::allocator"*
  call void @_ZNSaIiEC2Ev(%"class.std::allocator"* %3) #0
  %4 = getelementptr inbounds %"struct.std::_Deque_base<int, std::allocator<int> >::_Deque_impl"* %2, i32 0, i32 0
  store i32** null, i32*** %4, align 8
  %5 = getelementptr inbounds %"struct.std::_Deque_base<int, std::allocator<int> >::_Deque_impl"* %2, i32 0, i32 1
  store i64 0, i64* %5, align 8
  %6 = getelementptr inbounds %"struct.std::_Deque_base<int, std::allocator<int> >::_Deque_impl"* %2, i32 0, i32 2
  call void @_ZNSt15_Deque_iteratorIiRiPiEC2Ev(%"struct.std::_Deque_iterator"* %6)
  %7 = getelementptr inbounds %"struct.std::_Deque_base<int, std::allocator<int> >::_Deque_impl"* %2, i32 0, i32 3
  call void @_ZNSt15_Deque_iteratorIiRiPiEC2Ev(%"struct.std::_Deque_iterator"* %7)
  ret void
}

; Function Attrs: nounwind uwtable
define linkonce_odr void @_ZNSt11_Deque_baseIiSaIiEE17_M_initialize_mapEm(%"class.std::_Deque_base"* %this, i64 %__num_elements) #2 align 2 {
  %1 = alloca %"class.std::_Deque_base"*, align 8
  %2 = alloca i64, align 8
  %__num_nodes = alloca i64, align 8
  %3 = alloca i64, align 8
  %4 = alloca i64, align 8
  %__nstart = alloca i32**, align 8
  %__nfinish = alloca i32**, align 8
  store %"class.std::_Deque_base"* %this, %"class.std::_Deque_base"** %1, align 8
  store i64 %__num_elements, i64* %2, align 8
  %5 = load %"class.std::_Deque_base"** %1
  %6 = load i64* %2, align 8
  %7 = call i64 @_ZSt16__deque_buf_sizem(i64 4)
  %8 = udiv i64 %6, %7
  %9 = add i64 %8, 1
  store i64 %9, i64* %__num_nodes, align 8
  store i64 8, i64* %3
  %10 = load i64* %__num_nodes, align 8
  %11 = add i64 %10, 2
  store i64 %11, i64* %4
  %12 = call i64* @_ZSt3maxImERKT_S2_S2_(i64* %3, i64* %4)
  %13 = load i64* %12
  %14 = getelementptr inbounds %"class.std::_Deque_base"* %5, i32 0, i32 0
  %15 = getelementptr inbounds %"struct.std::_Deque_base<int, std::allocator<int> >::_Deque_impl"* %14, i32 0, i32 1
  store i64 %13, i64* %15, align 8
  %16 = getelementptr inbounds %"class.std::_Deque_base"* %5, i32 0, i32 0
  %17 = getelementptr inbounds %"struct.std::_Deque_base<int, std::allocator<int> >::_Deque_impl"* %16, i32 0, i32 1
  %18 = load i64* %17, align 8
  %19 = call i32** @_ZNSt11_Deque_baseIiSaIiEE15_M_allocate_mapEm(%"class.std::_Deque_base"* %5, i64 %18)
  %20 = getelementptr inbounds %"class.std::_Deque_base"* %5, i32 0, i32 0
  %21 = getelementptr inbounds %"struct.std::_Deque_base<int, std::allocator<int> >::_Deque_impl"* %20, i32 0, i32 0
  store i32** %19, i32*** %21, align 8
  %22 = getelementptr inbounds %"class.std::_Deque_base"* %5, i32 0, i32 0
  %23 = getelementptr inbounds %"struct.std::_Deque_base<int, std::allocator<int> >::_Deque_impl"* %22, i32 0, i32 0
  %24 = load i32*** %23, align 8
  %25 = getelementptr inbounds %"class.std::_Deque_base"* %5, i32 0, i32 0
  %26 = getelementptr inbounds %"struct.std::_Deque_base<int, std::allocator<int> >::_Deque_impl"* %25, i32 0, i32 1
  %27 = load i64* %26, align 8
  %28 = load i64* %__num_nodes, align 8
  %29 = sub i64 %27, %28
  %30 = udiv i64 %29, 2
  %31 = getelementptr inbounds i32** %24, i64 %30
  store i32** %31, i32*** %__nstart, align 8
  %32 = load i32*** %__nstart, align 8
  %33 = load i64* %__num_nodes, align 8
  %34 = getelementptr inbounds i32** %32, i64 %33
  store i32** %34, i32*** %__nfinish, align 8
  %35 = load i32*** %__nstart, align 8
  %36 = load i32*** %__nfinish, align 8
  call void @_ZNSt11_Deque_baseIiSaIiEE15_M_create_nodesEPPiS3_(%"class.std::_Deque_base"* %5, i32** %35, i32** %36)
  %37 = getelementptr inbounds %"class.std::_Deque_base"* %5, i32 0, i32 0
  %38 = getelementptr inbounds %"struct.std::_Deque_base<int, std::allocator<int> >::_Deque_impl"* %37, i32 0, i32 2
  %39 = load i32*** %__nstart, align 8
  call void @_ZNSt15_Deque_iteratorIiRiPiE11_M_set_nodeEPS1_(%"struct.std::_Deque_iterator"* %38, i32** %39)
  %40 = getelementptr inbounds %"class.std::_Deque_base"* %5, i32 0, i32 0
  %41 = getelementptr inbounds %"struct.std::_Deque_base<int, std::allocator<int> >::_Deque_impl"* %40, i32 0, i32 3
  %42 = load i32*** %__nfinish, align 8
  %43 = getelementptr inbounds i32** %42, i64 -1
  call void @_ZNSt15_Deque_iteratorIiRiPiE11_M_set_nodeEPS1_(%"struct.std::_Deque_iterator"* %41, i32** %43)
  %44 = getelementptr inbounds %"class.std::_Deque_base"* %5, i32 0, i32 0
  %45 = getelementptr inbounds %"struct.std::_Deque_base<int, std::allocator<int> >::_Deque_impl"* %44, i32 0, i32 2
  %46 = getelementptr inbounds %"struct.std::_Deque_iterator"* %45, i32 0, i32 1
  %47 = load i32** %46, align 8
  %48 = getelementptr inbounds %"class.std::_Deque_base"* %5, i32 0, i32 0
  %49 = getelementptr inbounds %"struct.std::_Deque_base<int, std::allocator<int> >::_Deque_impl"* %48, i32 0, i32 2
  %50 = getelementptr inbounds %"struct.std::_Deque_iterator"* %49, i32 0, i32 0
  store i32* %47, i32** %50, align 8
  %51 = getelementptr inbounds %"class.std::_Deque_base"* %5, i32 0, i32 0
  %52 = getelementptr inbounds %"struct.std::_Deque_base<int, std::allocator<int> >::_Deque_impl"* %51, i32 0, i32 3
  %53 = getelementptr inbounds %"struct.std::_Deque_iterator"* %52, i32 0, i32 1
  %54 = load i32** %53, align 8
  %55 = load i64* %2, align 8
  %56 = call i64 @_ZSt16__deque_buf_sizem(i64 4)
  %57 = urem i64 %55, %56
  %58 = getelementptr inbounds i32* %54, i64 %57
  %59 = getelementptr inbounds %"class.std::_Deque_base"* %5, i32 0, i32 0
  %60 = getelementptr inbounds %"struct.std::_Deque_base<int, std::allocator<int> >::_Deque_impl"* %59, i32 0, i32 3
  %61 = getelementptr inbounds %"struct.std::_Deque_iterator"* %60, i32 0, i32 0
  store i32* %58, i32** %61, align 8
  ret void
}

; Function Attrs: nounwind uwtable
define linkonce_odr void @_ZNSt11_Deque_baseIiSaIiEE15_M_create_nodesEPPiS3_(%"class.std::_Deque_base"* %this, i32** %__nstart, i32** %__nfinish) #2 align 2 {
  %1 = alloca %"class.std::_Deque_base"*, align 8
  %2 = alloca i32**, align 8
  %3 = alloca i32**, align 8
  %__cur = alloca i32**, align 8
  store %"class.std::_Deque_base"* %this, %"class.std::_Deque_base"** %1, align 8
  store i32** %__nstart, i32*** %2, align 8
  store i32** %__nfinish, i32*** %3, align 8
  %4 = load %"class.std::_Deque_base"** %1
  %5 = load i32*** %2, align 8
  store i32** %5, i32*** %__cur, align 8
  br label %6

; <label>:6                                       ; preds = %13, %0
  %7 = load i32*** %__cur, align 8
  %8 = load i32*** %3, align 8
  %9 = icmp ult i32** %7, %8
  br i1 %9, label %10, label %16

; <label>:10                                      ; preds = %6
  %11 = call i32* @_ZNSt11_Deque_baseIiSaIiEE16_M_allocate_nodeEv(%"class.std::_Deque_base"* %4)
  %12 = load i32*** %__cur, align 8
  store i32* %11, i32** %12, align 8
  br label %13

; <label>:13                                      ; preds = %10
  %14 = load i32*** %__cur, align 8
  %15 = getelementptr inbounds i32** %14, i32 1
  store i32** %15, i32*** %__cur, align 8
  br label %6

; <label>:16                                      ; preds = %6
  ret void
}

; Function Attrs: nounwind uwtable
define linkonce_odr void @_ZNSaIiEC2Ev(%"class.std::allocator"* %this) unnamed_addr #2 align 2 {
  %1 = alloca %"class.std::allocator"*, align 8
  store %"class.std::allocator"* %this, %"class.std::allocator"** %1, align 8
  %2 = load %"class.std::allocator"** %1
  %3 = bitcast %"class.std::allocator"* %2 to %"class.__gnu_cxx::new_allocator"*
  call void @_ZN9__gnu_cxx13new_allocatorIiEC2Ev(%"class.__gnu_cxx::new_allocator"* %3) #0
  ret void
}

; Function Attrs: nounwind uwtable
define linkonce_odr void @_ZNSt15_Deque_iteratorIiRiPiEC2Ev(%"struct.std::_Deque_iterator"* %this) unnamed_addr #2 align 2 {
  %1 = alloca %"struct.std::_Deque_iterator"*, align 8
  store %"struct.std::_Deque_iterator"* %this, %"struct.std::_Deque_iterator"** %1, align 8
  %2 = load %"struct.std::_Deque_iterator"** %1
  %3 = getelementptr inbounds %"struct.std::_Deque_iterator"* %2, i32 0, i32 0
  store i32* null, i32** %3, align 8
  %4 = getelementptr inbounds %"struct.std::_Deque_iterator"* %2, i32 0, i32 1
  store i32* null, i32** %4, align 8
  %5 = getelementptr inbounds %"struct.std::_Deque_iterator"* %2, i32 0, i32 2
  store i32* null, i32** %5, align 8
  %6 = getelementptr inbounds %"struct.std::_Deque_iterator"* %2, i32 0, i32 3
  store i32** null, i32*** %6, align 8
  ret void
}

; Function Attrs: nounwind uwtable
define linkonce_odr void @_ZN9__gnu_cxx13new_allocatorIiEC2Ev(%"class.__gnu_cxx::new_allocator"* %this) unnamed_addr #2 align 2 {
  %1 = alloca %"class.__gnu_cxx::new_allocator"*, align 8
  store %"class.__gnu_cxx::new_allocator"* %this, %"class.__gnu_cxx::new_allocator"** %1, align 8
  %2 = load %"class.__gnu_cxx::new_allocator"** %1
  ret void
}

; Function Attrs: nounwind uwtable
define linkonce_odr void @_ZNSt5dequeIiSaIiEEC2ERKS1_(%"class.std::deque"* %this, %"class.std::deque"* %__x) unnamed_addr #2 align 2 {
  %1 = alloca %"class.std::deque"*, align 8
  %2 = alloca %"class.std::deque"*, align 8
  %3 = alloca %"struct.std::_Deque_iterator.3", align 8
  %4 = alloca %"struct.std::_Deque_iterator.3", align 8
  %5 = alloca %"struct.std::_Deque_iterator", align 8
  %6 = alloca %"struct.std::_Deque_iterator", align 8
  store %"class.std::deque"* %this, %"class.std::deque"** %1, align 8
  store %"class.std::deque"* %__x, %"class.std::deque"** %2, align 8
  %7 = load %"class.std::deque"** %1
  %8 = bitcast %"class.std::deque"* %7 to %"class.std::_Deque_base"*
  %9 = load %"class.std::deque"** %2, align 8
  %10 = bitcast %"class.std::deque"* %9 to %"class.std::_Deque_base"*
  %11 = call %"class.std::allocator"* @_ZNKSt11_Deque_baseIiSaIiEE19_M_get_Tp_allocatorEv(%"class.std::_Deque_base"* %10)
  %12 = call %"class.std::allocator"* @_ZN9__gnu_cxx14__alloc_traitsISaIiEE17_S_select_on_copyERKS1_(%"class.std::allocator"* %11)
  %13 = load %"class.std::deque"** %2, align 8
  %14 = call i64 @_ZNKSt5dequeIiSaIiEE4sizeEv(%"class.std::deque"* %13)
  call void @_ZNSt11_Deque_baseIiSaIiEEC2ERKS0_m(%"class.std::_Deque_base"* %8, %"class.std::allocator"* %12, i64 %14)
  %15 = load %"class.std::deque"** %2, align 8
  call void @_ZNKSt5dequeIiSaIiEE5beginEv(%"struct.std::_Deque_iterator.3"* sret %3, %"class.std::deque"* %15)
  %16 = load %"class.std::deque"** %2, align 8
  call void @_ZNKSt5dequeIiSaIiEE3endEv(%"struct.std::_Deque_iterator.3"* sret %4, %"class.std::deque"* %16)
  %17 = bitcast %"class.std::deque"* %7 to %"class.std::_Deque_base"*
  %18 = getelementptr inbounds %"class.std::_Deque_base"* %17, i32 0, i32 0
  %19 = getelementptr inbounds %"struct.std::_Deque_base<int, std::allocator<int> >::_Deque_impl"* %18, i32 0, i32 2
  call void @_ZNSt15_Deque_iteratorIiRiPiEC2ERKS2_(%"struct.std::_Deque_iterator"* %5, %"struct.std::_Deque_iterator"* %19)
  %20 = bitcast %"class.std::deque"* %7 to %"class.std::_Deque_base"*
  %21 = call %"class.std::allocator"* @_ZNSt11_Deque_baseIiSaIiEE19_M_get_Tp_allocatorEv(%"class.std::_Deque_base"* %20)
  call void @_ZSt22__uninitialized_copy_aISt15_Deque_iteratorIiRKiPS1_ES0_IiRiPiEiET0_T_S9_S8_RSaIT1_E(%"struct.std::_Deque_iterator"* sret %6, %"struct.std::_Deque_iterator.3"* byval align 8 %3, %"struct.std::_Deque_iterator.3"* byval align 8 %4, %"struct.std::_Deque_iterator"* %5, %"class.std::allocator"* %21)
  ret void
}

; Function Attrs: nounwind uwtable
define linkonce_odr void @_ZNSt11_Deque_baseIiSaIiEEC2ERKS0_m(%"class.std::_Deque_base"* %this, %"class.std::allocator"* %__a, i64 %__num_elements) unnamed_addr #2 align 2 {
  %1 = alloca %"class.std::_Deque_base"*, align 8
  %2 = alloca %"class.std::allocator"*, align 8
  %3 = alloca i64, align 8
  store %"class.std::_Deque_base"* %this, %"class.std::_Deque_base"** %1, align 8
  store %"class.std::allocator"* %__a, %"class.std::allocator"** %2, align 8
  store i64 %__num_elements, i64* %3, align 8
  %4 = load %"class.std::_Deque_base"** %1
  %5 = getelementptr inbounds %"class.std::_Deque_base"* %4, i32 0, i32 0
  %6 = load %"class.std::allocator"** %2, align 8
  call void @_ZNSt11_Deque_baseIiSaIiEE11_Deque_implC2ERKS0_(%"struct.std::_Deque_base<int, std::allocator<int> >::_Deque_impl"* %5, %"class.std::allocator"* %6)
  %7 = load i64* %3, align 8
  call void @_ZNSt11_Deque_baseIiSaIiEE17_M_initialize_mapEm(%"class.std::_Deque_base"* %4, i64 %7)
  ret void
}

; Function Attrs: nounwind uwtable
define linkonce_odr %"class.std::allocator"* @_ZN9__gnu_cxx14__alloc_traitsISaIiEE17_S_select_on_copyERKS1_(%"class.std::allocator"* %__a) #2 align 2 {
  %1 = alloca %"class.std::allocator"*, align 8
  store %"class.std::allocator"* %__a, %"class.std::allocator"** %1, align 8
  %2 = load %"class.std::allocator"** %1, align 8
  ret %"class.std::allocator"* %2
}

; Function Attrs: nounwind uwtable
define linkonce_odr i64 @_ZNKSt5dequeIiSaIiEE4sizeEv(%"class.std::deque"* %this) #2 align 2 {
  %1 = alloca %"class.std::deque"*, align 8
  store %"class.std::deque"* %this, %"class.std::deque"** %1, align 8
  %2 = load %"class.std::deque"** %1
  %3 = bitcast %"class.std::deque"* %2 to %"class.std::_Deque_base"*
  %4 = getelementptr inbounds %"class.std::_Deque_base"* %3, i32 0, i32 0
  %5 = getelementptr inbounds %"struct.std::_Deque_base<int, std::allocator<int> >::_Deque_impl"* %4, i32 0, i32 3
  %6 = bitcast %"class.std::deque"* %2 to %"class.std::_Deque_base"*
  %7 = getelementptr inbounds %"class.std::_Deque_base"* %6, i32 0, i32 0
  %8 = getelementptr inbounds %"struct.std::_Deque_base<int, std::allocator<int> >::_Deque_impl"* %7, i32 0, i32 2
  %9 = call i64 @_ZStmiIiRiPiENSt15_Deque_iteratorIT_T0_T1_E15difference_typeERKS6_S9_(%"struct.std::_Deque_iterator"* %5, %"struct.std::_Deque_iterator"* %8)
  ret i64 %9
}

; Function Attrs: inlinehint nounwind uwtable
define linkonce_odr void @_ZSt22__uninitialized_copy_aISt15_Deque_iteratorIiRKiPS1_ES0_IiRiPiEiET0_T_S9_S8_RSaIT1_E(%"struct.std::_Deque_iterator"* noalias sret %agg.result, %"struct.std::_Deque_iterator.3"* byval align 8 %__first, %"struct.std::_Deque_iterator.3"* byval align 8 %__last, %"struct.std::_Deque_iterator"* %__result, %"class.std::allocator"*) #3 {
  %2 = alloca %"class.std::allocator"*, align 8
  %3 = alloca %"struct.std::_Deque_iterator.3", align 8
  %4 = alloca %"struct.std::_Deque_iterator.3", align 8
  %5 = alloca %"struct.std::_Deque_iterator", align 8
  store %"class.std::allocator"* %0, %"class.std::allocator"** %2, align 8
  %6 = bitcast %"struct.std::_Deque_iterator.3"* %3 to i8*
  %7 = bitcast %"struct.std::_Deque_iterator.3"* %__first to i8*
  call void @llvm.memcpy.p0i8.p0i8.i64(i8* %6, i8* %7, i64 32, i32 8, i1 false)
  %8 = bitcast %"struct.std::_Deque_iterator.3"* %4 to i8*
  %9 = bitcast %"struct.std::_Deque_iterator.3"* %__last to i8*
  call void @llvm.memcpy.p0i8.p0i8.i64(i8* %8, i8* %9, i64 32, i32 8, i1 false)
  call void @_ZNSt15_Deque_iteratorIiRiPiEC2ERKS2_(%"struct.std::_Deque_iterator"* %5, %"struct.std::_Deque_iterator"* %__result)
  call void @_ZSt18uninitialized_copyISt15_Deque_iteratorIiRKiPS1_ES0_IiRiPiEET0_T_S9_S8_(%"struct.std::_Deque_iterator"* sret %agg.result, %"struct.std::_Deque_iterator.3"* byval align 8 %3, %"struct.std::_Deque_iterator.3"* byval align 8 %4, %"struct.std::_Deque_iterator"* %5)
  ret void
}

; Function Attrs: nounwind uwtable
define linkonce_odr void @_ZNKSt5dequeIiSaIiEE5beginEv(%"struct.std::_Deque_iterator.3"* noalias sret %agg.result, %"class.std::deque"* %this) #2 align 2 {
  %1 = alloca %"class.std::deque"*, align 8
  store %"class.std::deque"* %this, %"class.std::deque"** %1, align 8
  %2 = load %"class.std::deque"** %1
  %3 = bitcast %"class.std::deque"* %2 to %"class.std::_Deque_base"*
  %4 = getelementptr inbounds %"class.std::_Deque_base"* %3, i32 0, i32 0
  %5 = getelementptr inbounds %"struct.std::_Deque_base<int, std::allocator<int> >::_Deque_impl"* %4, i32 0, i32 2
  call void @_ZNSt15_Deque_iteratorIiRKiPS0_EC2ERKS_IiRiPiE(%"struct.std::_Deque_iterator.3"* %agg.result, %"struct.std::_Deque_iterator"* %5)
  ret void
}

; Function Attrs: nounwind uwtable
define linkonce_odr void @_ZNKSt5dequeIiSaIiEE3endEv(%"struct.std::_Deque_iterator.3"* noalias sret %agg.result, %"class.std::deque"* %this) #2 align 2 {
  %1 = alloca %"class.std::deque"*, align 8
  store %"class.std::deque"* %this, %"class.std::deque"** %1, align 8
  %2 = load %"class.std::deque"** %1
  %3 = bitcast %"class.std::deque"* %2 to %"class.std::_Deque_base"*
  %4 = getelementptr inbounds %"class.std::_Deque_base"* %3, i32 0, i32 0
  %5 = getelementptr inbounds %"struct.std::_Deque_base<int, std::allocator<int> >::_Deque_impl"* %4, i32 0, i32 3
  call void @_ZNSt15_Deque_iteratorIiRKiPS0_EC2ERKS_IiRiPiE(%"struct.std::_Deque_iterator.3"* %agg.result, %"struct.std::_Deque_iterator"* %5)
  ret void
}

; Function Attrs: nounwind uwtable
define linkonce_odr void @_ZNSt15_Deque_iteratorIiRKiPS0_EC2ERKS_IiRiPiE(%"struct.std::_Deque_iterator.3"* %this, %"struct.std::_Deque_iterator"* %__x) unnamed_addr #2 align 2 {
  %1 = alloca %"struct.std::_Deque_iterator.3"*, align 8
  %2 = alloca %"struct.std::_Deque_iterator"*, align 8
  store %"struct.std::_Deque_iterator.3"* %this, %"struct.std::_Deque_iterator.3"** %1, align 8
  store %"struct.std::_Deque_iterator"* %__x, %"struct.std::_Deque_iterator"** %2, align 8
  %3 = load %"struct.std::_Deque_iterator.3"** %1
  %4 = getelementptr inbounds %"struct.std::_Deque_iterator.3"* %3, i32 0, i32 0
  %5 = load %"struct.std::_Deque_iterator"** %2, align 8
  %6 = getelementptr inbounds %"struct.std::_Deque_iterator"* %5, i32 0, i32 0
  %7 = load i32** %6, align 8
  store i32* %7, i32** %4, align 8
  %8 = getelementptr inbounds %"struct.std::_Deque_iterator.3"* %3, i32 0, i32 1
  %9 = load %"struct.std::_Deque_iterator"** %2, align 8
  %10 = getelementptr inbounds %"struct.std::_Deque_iterator"* %9, i32 0, i32 1
  %11 = load i32** %10, align 8
  store i32* %11, i32** %8, align 8
  %12 = getelementptr inbounds %"struct.std::_Deque_iterator.3"* %3, i32 0, i32 2
  %13 = load %"struct.std::_Deque_iterator"** %2, align 8
  %14 = getelementptr inbounds %"struct.std::_Deque_iterator"* %13, i32 0, i32 2
  %15 = load i32** %14, align 8
  store i32* %15, i32** %12, align 8
  %16 = getelementptr inbounds %"struct.std::_Deque_iterator.3"* %3, i32 0, i32 3
  %17 = load %"struct.std::_Deque_iterator"** %2, align 8
  %18 = getelementptr inbounds %"struct.std::_Deque_iterator"* %17, i32 0, i32 3
  %19 = load i32*** %18, align 8
  store i32** %19, i32*** %16, align 8
  ret void
}

; Function Attrs: inlinehint nounwind uwtable
define linkonce_odr void @_ZSt18uninitialized_copyISt15_Deque_iteratorIiRKiPS1_ES0_IiRiPiEET0_T_S9_S8_(%"struct.std::_Deque_iterator"* noalias sret %agg.result, %"struct.std::_Deque_iterator.3"* byval align 8 %__first, %"struct.std::_Deque_iterator.3"* byval align 8 %__last, %"struct.std::_Deque_iterator"* %__result) #3 {
  %__assignable = alloca i8, align 1
  %1 = alloca %"struct.std::_Deque_iterator.3", align 8
  %2 = alloca %"struct.std::_Deque_iterator.3", align 8
  %3 = alloca %"struct.std::_Deque_iterator", align 8
  store i8 1, i8* %__assignable, align 1
  %4 = bitcast %"struct.std::_Deque_iterator.3"* %1 to i8*
  %5 = bitcast %"struct.std::_Deque_iterator.3"* %__first to i8*
  call void @llvm.memcpy.p0i8.p0i8.i64(i8* %4, i8* %5, i64 32, i32 8, i1 false)
  %6 = bitcast %"struct.std::_Deque_iterator.3"* %2 to i8*
  %7 = bitcast %"struct.std::_Deque_iterator.3"* %__last to i8*
  call void @llvm.memcpy.p0i8.p0i8.i64(i8* %6, i8* %7, i64 32, i32 8, i1 false)
  call void @_ZNSt15_Deque_iteratorIiRiPiEC2ERKS2_(%"struct.std::_Deque_iterator"* %3, %"struct.std::_Deque_iterator"* %__result)
  call void @_ZNSt20__uninitialized_copyILb1EE13__uninit_copyISt15_Deque_iteratorIiRKiPS3_ES2_IiRiPiEEET0_T_SB_SA_(%"struct.std::_Deque_iterator"* sret %agg.result, %"struct.std::_Deque_iterator.3"* byval align 8 %1, %"struct.std::_Deque_iterator.3"* byval align 8 %2, %"struct.std::_Deque_iterator"* %3)
  ret void
}

; Function Attrs: nounwind
declare void @llvm.memcpy.p0i8.p0i8.i64(i8* nocapture, i8* nocapture readonly, i64, i32, i1) #0

; Function Attrs: nounwind uwtable
define linkonce_odr void @_ZNSt20__uninitialized_copyILb1EE13__uninit_copyISt15_Deque_iteratorIiRKiPS3_ES2_IiRiPiEEET0_T_SB_SA_(%"struct.std::_Deque_iterator"* noalias sret %agg.result, %"struct.std::_Deque_iterator.3"* byval align 8 %__first, %"struct.std::_Deque_iterator.3"* byval align 8 %__last, %"struct.std::_Deque_iterator"* %__result) #2 align 2 {
  %1 = alloca %"struct.std::_Deque_iterator.3", align 8
  %2 = alloca %"struct.std::_Deque_iterator.3", align 8
  %3 = alloca %"struct.std::_Deque_iterator", align 8
  %4 = bitcast %"struct.std::_Deque_iterator.3"* %1 to i8*
  %5 = bitcast %"struct.std::_Deque_iterator.3"* %__first to i8*
  call void @llvm.memcpy.p0i8.p0i8.i64(i8* %4, i8* %5, i64 32, i32 8, i1 false)
  %6 = bitcast %"struct.std::_Deque_iterator.3"* %2 to i8*
  %7 = bitcast %"struct.std::_Deque_iterator.3"* %__last to i8*
  call void @llvm.memcpy.p0i8.p0i8.i64(i8* %6, i8* %7, i64 32, i32 8, i1 false)
  call void @_ZNSt15_Deque_iteratorIiRiPiEC2ERKS2_(%"struct.std::_Deque_iterator"* %3, %"struct.std::_Deque_iterator"* %__result)
  call void @_ZSt4copyISt15_Deque_iteratorIiRKiPS1_ES0_IiRiPiEET0_T_S9_S8_(%"struct.std::_Deque_iterator"* sret %agg.result, %"struct.std::_Deque_iterator.3"* byval align 8 %1, %"struct.std::_Deque_iterator.3"* byval align 8 %2, %"struct.std::_Deque_iterator"* %3)
  ret void
}

; Function Attrs: inlinehint nounwind uwtable
define linkonce_odr void @_ZSt4copyISt15_Deque_iteratorIiRKiPS1_ES0_IiRiPiEET0_T_S9_S8_(%"struct.std::_Deque_iterator"* noalias sret %agg.result, %"struct.std::_Deque_iterator.3"* byval align 8 %__first, %"struct.std::_Deque_iterator.3"* byval align 8 %__last, %"struct.std::_Deque_iterator"* %__result) #3 {
  %1 = alloca %"struct.std::_Deque_iterator.3", align 8
  %2 = alloca %"struct.std::_Deque_iterator.3", align 8
  %3 = alloca %"struct.std::_Deque_iterator.3", align 8
  %4 = alloca %"struct.std::_Deque_iterator.3", align 8
  %5 = alloca %"struct.std::_Deque_iterator", align 8
  %6 = bitcast %"struct.std::_Deque_iterator.3"* %2 to i8*
  %7 = bitcast %"struct.std::_Deque_iterator.3"* %__first to i8*
  call void @llvm.memcpy.p0i8.p0i8.i64(i8* %6, i8* %7, i64 32, i32 8, i1 false)
  call void @_ZSt12__miter_baseISt15_Deque_iteratorIiRKiPS1_EENSt11_Miter_baseIT_E13iterator_typeES6_(%"struct.std::_Deque_iterator.3"* sret %1, %"struct.std::_Deque_iterator.3"* byval align 8 %2)
  %8 = bitcast %"struct.std::_Deque_iterator.3"* %4 to i8*
  %9 = bitcast %"struct.std::_Deque_iterator.3"* %__last to i8*
  call void @llvm.memcpy.p0i8.p0i8.i64(i8* %8, i8* %9, i64 32, i32 8, i1 false)
  call void @_ZSt12__miter_baseISt15_Deque_iteratorIiRKiPS1_EENSt11_Miter_baseIT_E13iterator_typeES6_(%"struct.std::_Deque_iterator.3"* sret %3, %"struct.std::_Deque_iterator.3"* byval align 8 %4)
  call void @_ZNSt15_Deque_iteratorIiRiPiEC2ERKS2_(%"struct.std::_Deque_iterator"* %5, %"struct.std::_Deque_iterator"* %__result)
  call void @_ZSt14__copy_move_a2ILb0ESt15_Deque_iteratorIiRKiPS1_ES0_IiRiPiEET1_T0_S9_S8_(%"struct.std::_Deque_iterator"* sret %agg.result, %"struct.std::_Deque_iterator.3"* byval align 8 %1, %"struct.std::_Deque_iterator.3"* byval align 8 %3, %"struct.std::_Deque_iterator"* %5)
  ret void
}

; Function Attrs: inlinehint nounwind uwtable
define linkonce_odr void @_ZSt14__copy_move_a2ILb0ESt15_Deque_iteratorIiRKiPS1_ES0_IiRiPiEET1_T0_S9_S8_(%"struct.std::_Deque_iterator"* noalias sret %agg.result, %"struct.std::_Deque_iterator.3"* byval align 8 %__first, %"struct.std::_Deque_iterator.3"* byval align 8 %__last, %"struct.std::_Deque_iterator"* %__result) #3 {
  %1 = alloca %"struct.std::_Deque_iterator.3", align 8
  %2 = alloca %"struct.std::_Deque_iterator.3", align 8
  %3 = alloca %"struct.std::_Deque_iterator.3", align 8
  %4 = alloca %"struct.std::_Deque_iterator.3", align 8
  %5 = alloca %"struct.std::_Deque_iterator", align 8
  %6 = alloca %"struct.std::_Deque_iterator", align 8
  %7 = bitcast %"struct.std::_Deque_iterator.3"* %2 to i8*
  %8 = bitcast %"struct.std::_Deque_iterator.3"* %__first to i8*
  call void @llvm.memcpy.p0i8.p0i8.i64(i8* %7, i8* %8, i64 32, i32 8, i1 false)
  call void @_ZSt12__niter_baseISt15_Deque_iteratorIiRKiPS1_EENSt11_Niter_baseIT_E13iterator_typeES6_(%"struct.std::_Deque_iterator.3"* sret %1, %"struct.std::_Deque_iterator.3"* byval align 8 %2)
  %9 = bitcast %"struct.std::_Deque_iterator.3"* %4 to i8*
  %10 = bitcast %"struct.std::_Deque_iterator.3"* %__last to i8*
  call void @llvm.memcpy.p0i8.p0i8.i64(i8* %9, i8* %10, i64 32, i32 8, i1 false)
  call void @_ZSt12__niter_baseISt15_Deque_iteratorIiRKiPS1_EENSt11_Niter_baseIT_E13iterator_typeES6_(%"struct.std::_Deque_iterator.3"* sret %3, %"struct.std::_Deque_iterator.3"* byval align 8 %4)
  call void @_ZNSt15_Deque_iteratorIiRiPiEC2ERKS2_(%"struct.std::_Deque_iterator"* %6, %"struct.std::_Deque_iterator"* %__result)
  call void @_ZSt12__niter_baseISt15_Deque_iteratorIiRiPiEENSt11_Niter_baseIT_E13iterator_typeES5_(%"struct.std::_Deque_iterator"* sret %5, %"struct.std::_Deque_iterator"* %6)
  call void @_ZSt13__copy_move_aILb0ESt15_Deque_iteratorIiRKiPS1_ES0_IiRiPiEET1_T0_S9_S8_(%"struct.std::_Deque_iterator"* sret %agg.result, %"struct.std::_Deque_iterator.3"* byval align 8 %1, %"struct.std::_Deque_iterator.3"* byval align 8 %3, %"struct.std::_Deque_iterator"* %5)
  ret void
}

; Function Attrs: inlinehint nounwind uwtable
define linkonce_odr void @_ZSt12__miter_baseISt15_Deque_iteratorIiRKiPS1_EENSt11_Miter_baseIT_E13iterator_typeES6_(%"struct.std::_Deque_iterator.3"* noalias sret %agg.result, %"struct.std::_Deque_iterator.3"* byval align 8 %__it) #3 {
  %1 = alloca %"struct.std::_Deque_iterator.3", align 8
  %2 = bitcast %"struct.std::_Deque_iterator.3"* %1 to i8*
  %3 = bitcast %"struct.std::_Deque_iterator.3"* %__it to i8*
  call void @llvm.memcpy.p0i8.p0i8.i64(i8* %2, i8* %3, i64 32, i32 8, i1 false)
  call void @_ZNSt10_Iter_baseISt15_Deque_iteratorIiRKiPS1_ELb0EE7_S_baseES4_(%"struct.std::_Deque_iterator.3"* sret %agg.result, %"struct.std::_Deque_iterator.3"* byval align 8 %1)
  ret void
}

; Function Attrs: nounwind uwtable
define linkonce_odr void @_ZNSt10_Iter_baseISt15_Deque_iteratorIiRKiPS1_ELb0EE7_S_baseES4_(%"struct.std::_Deque_iterator.3"* noalias sret %agg.result, %"struct.std::_Deque_iterator.3"* byval align 8 %__it) #2 align 2 {
  %1 = bitcast %"struct.std::_Deque_iterator.3"* %agg.result to i8*
  %2 = bitcast %"struct.std::_Deque_iterator.3"* %__it to i8*
  call void @llvm.memcpy.p0i8.p0i8.i64(i8* %1, i8* %2, i64 32, i32 8, i1 false)
  ret void
}

; Function Attrs: inlinehint nounwind uwtable
define linkonce_odr void @_ZSt13__copy_move_aILb0ESt15_Deque_iteratorIiRKiPS1_ES0_IiRiPiEET1_T0_S9_S8_(%"struct.std::_Deque_iterator"* noalias sret %agg.result, %"struct.std::_Deque_iterator.3"* byval align 8 %__first, %"struct.std::_Deque_iterator.3"* byval align 8 %__last, %"struct.std::_Deque_iterator"* %__result) #3 {
  %__simple = alloca i8, align 1
  %1 = alloca %"struct.std::_Deque_iterator.3", align 8
  %2 = alloca %"struct.std::_Deque_iterator.3", align 8
  %3 = alloca %"struct.std::_Deque_iterator", align 8
  store i8 0, i8* %__simple, align 1
  %4 = bitcast %"struct.std::_Deque_iterator.3"* %1 to i8*
  %5 = bitcast %"struct.std::_Deque_iterator.3"* %__first to i8*
  call void @llvm.memcpy.p0i8.p0i8.i64(i8* %4, i8* %5, i64 32, i32 8, i1 false)
  %6 = bitcast %"struct.std::_Deque_iterator.3"* %2 to i8*
  %7 = bitcast %"struct.std::_Deque_iterator.3"* %__last to i8*
  call void @llvm.memcpy.p0i8.p0i8.i64(i8* %6, i8* %7, i64 32, i32 8, i1 false)
  call void @_ZNSt15_Deque_iteratorIiRiPiEC2ERKS2_(%"struct.std::_Deque_iterator"* %3, %"struct.std::_Deque_iterator"* %__result)
  call void @_ZNSt11__copy_moveILb0ELb0ESt26random_access_iterator_tagE8__copy_mISt15_Deque_iteratorIiRKiPS4_ES3_IiRiPiEEET0_T_SC_SB_(%"struct.std::_Deque_iterator"* sret %agg.result, %"struct.std::_Deque_iterator.3"* byval align 8 %1, %"struct.std::_Deque_iterator.3"* byval align 8 %2, %"struct.std::_Deque_iterator"* %3)
  ret void
}

; Function Attrs: inlinehint nounwind uwtable
define linkonce_odr void @_ZSt12__niter_baseISt15_Deque_iteratorIiRKiPS1_EENSt11_Niter_baseIT_E13iterator_typeES6_(%"struct.std::_Deque_iterator.3"* noalias sret %agg.result, %"struct.std::_Deque_iterator.3"* byval align 8 %__it) #3 {
  %1 = alloca %"struct.std::_Deque_iterator.3", align 8
  %2 = bitcast %"struct.std::_Deque_iterator.3"* %1 to i8*
  %3 = bitcast %"struct.std::_Deque_iterator.3"* %__it to i8*
  call void @llvm.memcpy.p0i8.p0i8.i64(i8* %2, i8* %3, i64 32, i32 8, i1 false)
  call void @_ZNSt10_Iter_baseISt15_Deque_iteratorIiRKiPS1_ELb0EE7_S_baseES4_(%"struct.std::_Deque_iterator.3"* sret %agg.result, %"struct.std::_Deque_iterator.3"* byval align 8 %1)
  ret void
}

; Function Attrs: inlinehint nounwind uwtable
define linkonce_odr void @_ZSt12__niter_baseISt15_Deque_iteratorIiRiPiEENSt11_Niter_baseIT_E13iterator_typeES5_(%"struct.std::_Deque_iterator"* noalias sret %agg.result, %"struct.std::_Deque_iterator"* %__it) #3 {
  %1 = alloca %"struct.std::_Deque_iterator", align 8
  call void @_ZNSt15_Deque_iteratorIiRiPiEC2ERKS2_(%"struct.std::_Deque_iterator"* %1, %"struct.std::_Deque_iterator"* %__it)
  call void @_ZNSt10_Iter_baseISt15_Deque_iteratorIiRiPiELb0EE7_S_baseES3_(%"struct.std::_Deque_iterator"* sret %agg.result, %"struct.std::_Deque_iterator"* %1)
  ret void
}

; Function Attrs: nounwind uwtable
define linkonce_odr void @_ZNSt10_Iter_baseISt15_Deque_iteratorIiRiPiELb0EE7_S_baseES3_(%"struct.std::_Deque_iterator"* noalias sret %agg.result, %"struct.std::_Deque_iterator"* %__it) #2 align 2 {
  call void @_ZNSt15_Deque_iteratorIiRiPiEC2ERKS2_(%"struct.std::_Deque_iterator"* %agg.result, %"struct.std::_Deque_iterator"* %__it)
  ret void
}

; Function Attrs: nounwind uwtable
define linkonce_odr void @_ZNSt11__copy_moveILb0ELb0ESt26random_access_iterator_tagE8__copy_mISt15_Deque_iteratorIiRKiPS4_ES3_IiRiPiEEET0_T_SC_SB_(%"struct.std::_Deque_iterator"* noalias sret %agg.result, %"struct.std::_Deque_iterator.3"* byval align 8 %__first, %"struct.std::_Deque_iterator.3"* byval align 8 %__last, %"struct.std::_Deque_iterator"* %__result) #2 align 2 {
  %__n = alloca i64, align 8
  %1 = call i64 @_ZStmiIiRKiPS0_ENSt15_Deque_iteratorIT_T0_T1_E15difference_typeERKS7_SA_(%"struct.std::_Deque_iterator.3"* %__last, %"struct.std::_Deque_iterator.3"* %__first)
  store i64 %1, i64* %__n, align 8
  br label %2

; <label>:2                                       ; preds = %11, %0
  %3 = load i64* %__n, align 8
  %4 = icmp sgt i64 %3, 0
  br i1 %4, label %5, label %14

; <label>:5                                       ; preds = %2
  %6 = call i32* @_ZNKSt15_Deque_iteratorIiRKiPS0_EdeEv(%"struct.std::_Deque_iterator.3"* %__first)
  %7 = load i32* %6
  %8 = call i32* @_ZNKSt15_Deque_iteratorIiRiPiEdeEv(%"struct.std::_Deque_iterator"* %__result)
  store i32 %7, i32* %8
  %9 = call %"struct.std::_Deque_iterator.3"* @_ZNSt15_Deque_iteratorIiRKiPS0_EppEv(%"struct.std::_Deque_iterator.3"* %__first)
  %10 = call %"struct.std::_Deque_iterator"* @_ZNSt15_Deque_iteratorIiRiPiEppEv(%"struct.std::_Deque_iterator"* %__result)
  br label %11

; <label>:11                                      ; preds = %5
  %12 = load i64* %__n, align 8
  %13 = add nsw i64 %12, -1
  store i64 %13, i64* %__n, align 8
  br label %2

; <label>:14                                      ; preds = %2
  call void @_ZNSt15_Deque_iteratorIiRiPiEC2ERKS2_(%"struct.std::_Deque_iterator"* %agg.result, %"struct.std::_Deque_iterator"* %__result)
  ret void
}

; Function Attrs: inlinehint nounwind uwtable
define linkonce_odr i64 @_ZStmiIiRKiPS0_ENSt15_Deque_iteratorIT_T0_T1_E15difference_typeERKS7_SA_(%"struct.std::_Deque_iterator.3"* %__x, %"struct.std::_Deque_iterator.3"* %__y) #3 {
  %1 = alloca %"struct.std::_Deque_iterator.3"*, align 8
  %2 = alloca %"struct.std::_Deque_iterator.3"*, align 8
  store %"struct.std::_Deque_iterator.3"* %__x, %"struct.std::_Deque_iterator.3"** %1, align 8
  store %"struct.std::_Deque_iterator.3"* %__y, %"struct.std::_Deque_iterator.3"** %2, align 8
  %3 = call i64 @_ZNSt15_Deque_iteratorIiRKiPS0_E14_S_buffer_sizeEv()
  %4 = load %"struct.std::_Deque_iterator.3"** %1, align 8
  %5 = getelementptr inbounds %"struct.std::_Deque_iterator.3"* %4, i32 0, i32 3
  %6 = load i32*** %5, align 8
  %7 = load %"struct.std::_Deque_iterator.3"** %2, align 8
  %8 = getelementptr inbounds %"struct.std::_Deque_iterator.3"* %7, i32 0, i32 3
  %9 = load i32*** %8, align 8
  %10 = ptrtoint i32** %6 to i64
  %11 = ptrtoint i32** %9 to i64
  %12 = sub i64 %10, %11
  %13 = sdiv exact i64 %12, 8
  %14 = sub nsw i64 %13, 1
  %15 = mul nsw i64 %3, %14
  %16 = load %"struct.std::_Deque_iterator.3"** %1, align 8
  %17 = getelementptr inbounds %"struct.std::_Deque_iterator.3"* %16, i32 0, i32 0
  %18 = load i32** %17, align 8
  %19 = load %"struct.std::_Deque_iterator.3"** %1, align 8
  %20 = getelementptr inbounds %"struct.std::_Deque_iterator.3"* %19, i32 0, i32 1
  %21 = load i32** %20, align 8
  %22 = ptrtoint i32* %18 to i64
  %23 = ptrtoint i32* %21 to i64
  %24 = sub i64 %22, %23
  %25 = sdiv exact i64 %24, 4
  %26 = add nsw i64 %15, %25
  %27 = load %"struct.std::_Deque_iterator.3"** %2, align 8
  %28 = getelementptr inbounds %"struct.std::_Deque_iterator.3"* %27, i32 0, i32 2
  %29 = load i32** %28, align 8
  %30 = load %"struct.std::_Deque_iterator.3"** %2, align 8
  %31 = getelementptr inbounds %"struct.std::_Deque_iterator.3"* %30, i32 0, i32 0
  %32 = load i32** %31, align 8
  %33 = ptrtoint i32* %29 to i64
  %34 = ptrtoint i32* %32 to i64
  %35 = sub i64 %33, %34
  %36 = sdiv exact i64 %35, 4
  %37 = add nsw i64 %26, %36
  ret i64 %37
}

; Function Attrs: nounwind uwtable
define linkonce_odr i32* @_ZNKSt15_Deque_iteratorIiRKiPS0_EdeEv(%"struct.std::_Deque_iterator.3"* %this) #2 align 2 {
  %1 = alloca %"struct.std::_Deque_iterator.3"*, align 8
  store %"struct.std::_Deque_iterator.3"* %this, %"struct.std::_Deque_iterator.3"** %1, align 8
  %2 = load %"struct.std::_Deque_iterator.3"** %1
  %3 = getelementptr inbounds %"struct.std::_Deque_iterator.3"* %2, i32 0, i32 0
  %4 = load i32** %3, align 8
  ret i32* %4
}

; Function Attrs: nounwind uwtable
define linkonce_odr %"struct.std::_Deque_iterator.3"* @_ZNSt15_Deque_iteratorIiRKiPS0_EppEv(%"struct.std::_Deque_iterator.3"* %this) #2 align 2 {
  %1 = alloca %"struct.std::_Deque_iterator.3"*, align 8
  store %"struct.std::_Deque_iterator.3"* %this, %"struct.std::_Deque_iterator.3"** %1, align 8
  %2 = load %"struct.std::_Deque_iterator.3"** %1
  %3 = getelementptr inbounds %"struct.std::_Deque_iterator.3"* %2, i32 0, i32 0
  %4 = load i32** %3, align 8
  %5 = getelementptr inbounds i32* %4, i32 1
  store i32* %5, i32** %3, align 8
  %6 = getelementptr inbounds %"struct.std::_Deque_iterator.3"* %2, i32 0, i32 0
  %7 = load i32** %6, align 8
  %8 = getelementptr inbounds %"struct.std::_Deque_iterator.3"* %2, i32 0, i32 2
  %9 = load i32** %8, align 8
  %10 = icmp eq i32* %7, %9
  br i1 %10, label %11, label %18

; <label>:11                                      ; preds = %0
  %12 = getelementptr inbounds %"struct.std::_Deque_iterator.3"* %2, i32 0, i32 3
  %13 = load i32*** %12, align 8
  %14 = getelementptr inbounds i32** %13, i64 1
  call void @_ZNSt15_Deque_iteratorIiRKiPS0_E11_M_set_nodeEPPi(%"struct.std::_Deque_iterator.3"* %2, i32** %14)
  %15 = getelementptr inbounds %"struct.std::_Deque_iterator.3"* %2, i32 0, i32 1
  %16 = load i32** %15, align 8
  %17 = getelementptr inbounds %"struct.std::_Deque_iterator.3"* %2, i32 0, i32 0
  store i32* %16, i32** %17, align 8
  br label %18

; <label>:18                                      ; preds = %11, %0
  ret %"struct.std::_Deque_iterator.3"* %2
}

; Function Attrs: nounwind uwtable
define linkonce_odr %"struct.std::_Deque_iterator"* @_ZNSt15_Deque_iteratorIiRiPiEppEv(%"struct.std::_Deque_iterator"* %this) #2 align 2 {
  %1 = alloca %"struct.std::_Deque_iterator"*, align 8
  store %"struct.std::_Deque_iterator"* %this, %"struct.std::_Deque_iterator"** %1, align 8
  %2 = load %"struct.std::_Deque_iterator"** %1
  %3 = getelementptr inbounds %"struct.std::_Deque_iterator"* %2, i32 0, i32 0
  %4 = load i32** %3, align 8
  %5 = getelementptr inbounds i32* %4, i32 1
  store i32* %5, i32** %3, align 8
  %6 = getelementptr inbounds %"struct.std::_Deque_iterator"* %2, i32 0, i32 0
  %7 = load i32** %6, align 8
  %8 = getelementptr inbounds %"struct.std::_Deque_iterator"* %2, i32 0, i32 2
  %9 = load i32** %8, align 8
  %10 = icmp eq i32* %7, %9
  br i1 %10, label %11, label %18

; <label>:11                                      ; preds = %0
  %12 = getelementptr inbounds %"struct.std::_Deque_iterator"* %2, i32 0, i32 3
  %13 = load i32*** %12, align 8
  %14 = getelementptr inbounds i32** %13, i64 1
  call void @_ZNSt15_Deque_iteratorIiRiPiE11_M_set_nodeEPS1_(%"struct.std::_Deque_iterator"* %2, i32** %14)
  %15 = getelementptr inbounds %"struct.std::_Deque_iterator"* %2, i32 0, i32 1
  %16 = load i32** %15, align 8
  %17 = getelementptr inbounds %"struct.std::_Deque_iterator"* %2, i32 0, i32 0
  store i32* %16, i32** %17, align 8
  br label %18

; <label>:18                                      ; preds = %11, %0
  ret %"struct.std::_Deque_iterator"* %2
}

; Function Attrs: nounwind uwtable
define linkonce_odr void @_ZNSt15_Deque_iteratorIiRKiPS0_E11_M_set_nodeEPPi(%"struct.std::_Deque_iterator.3"* %this, i32** %__new_node) #2 align 2 {
  %1 = alloca %"struct.std::_Deque_iterator.3"*, align 8
  %2 = alloca i32**, align 8
  store %"struct.std::_Deque_iterator.3"* %this, %"struct.std::_Deque_iterator.3"** %1, align 8
  store i32** %__new_node, i32*** %2, align 8
  %3 = load %"struct.std::_Deque_iterator.3"** %1
  %4 = load i32*** %2, align 8
  %5 = getelementptr inbounds %"struct.std::_Deque_iterator.3"* %3, i32 0, i32 3
  store i32** %4, i32*** %5, align 8
  %6 = load i32*** %2, align 8
  %7 = load i32** %6, align 8
  %8 = getelementptr inbounds %"struct.std::_Deque_iterator.3"* %3, i32 0, i32 1
  store i32* %7, i32** %8, align 8
  %9 = getelementptr inbounds %"struct.std::_Deque_iterator.3"* %3, i32 0, i32 1
  %10 = load i32** %9, align 8
  %11 = call i64 @_ZNSt15_Deque_iteratorIiRKiPS0_E14_S_buffer_sizeEv()
  %12 = getelementptr inbounds i32* %10, i64 %11
  %13 = getelementptr inbounds %"struct.std::_Deque_iterator.3"* %3, i32 0, i32 2
  store i32* %12, i32** %13, align 8
  ret void
}

; Function Attrs: nounwind uwtable
define linkonce_odr i64 @_ZNSt15_Deque_iteratorIiRKiPS0_E14_S_buffer_sizeEv() #2 align 2 {
  %1 = call i64 @_ZSt16__deque_buf_sizem(i64 4)
  ret i64 %1
}

; Function Attrs: inlinehint nounwind uwtable
define linkonce_odr i64 @_ZStmiIiRiPiENSt15_Deque_iteratorIT_T0_T1_E15difference_typeERKS6_S9_(%"struct.std::_Deque_iterator"* %__x, %"struct.std::_Deque_iterator"* %__y) #3 {
  %1 = alloca %"struct.std::_Deque_iterator"*, align 8
  %2 = alloca %"struct.std::_Deque_iterator"*, align 8
  store %"struct.std::_Deque_iterator"* %__x, %"struct.std::_Deque_iterator"** %1, align 8
  store %"struct.std::_Deque_iterator"* %__y, %"struct.std::_Deque_iterator"** %2, align 8
  %3 = call i64 @_ZNSt15_Deque_iteratorIiRiPiE14_S_buffer_sizeEv()
  %4 = load %"struct.std::_Deque_iterator"** %1, align 8
  %5 = getelementptr inbounds %"struct.std::_Deque_iterator"* %4, i32 0, i32 3
  %6 = load i32*** %5, align 8
  %7 = load %"struct.std::_Deque_iterator"** %2, align 8
  %8 = getelementptr inbounds %"struct.std::_Deque_iterator"* %7, i32 0, i32 3
  %9 = load i32*** %8, align 8
  %10 = ptrtoint i32** %6 to i64
  %11 = ptrtoint i32** %9 to i64
  %12 = sub i64 %10, %11
  %13 = sdiv exact i64 %12, 8
  %14 = sub nsw i64 %13, 1
  %15 = mul nsw i64 %3, %14
  %16 = load %"struct.std::_Deque_iterator"** %1, align 8
  %17 = getelementptr inbounds %"struct.std::_Deque_iterator"* %16, i32 0, i32 0
  %18 = load i32** %17, align 8
  %19 = load %"struct.std::_Deque_iterator"** %1, align 8
  %20 = getelementptr inbounds %"struct.std::_Deque_iterator"* %19, i32 0, i32 1
  %21 = load i32** %20, align 8
  %22 = ptrtoint i32* %18 to i64
  %23 = ptrtoint i32* %21 to i64
  %24 = sub i64 %22, %23
  %25 = sdiv exact i64 %24, 4
  %26 = add nsw i64 %15, %25
  %27 = load %"struct.std::_Deque_iterator"** %2, align 8
  %28 = getelementptr inbounds %"struct.std::_Deque_iterator"* %27, i32 0, i32 2
  %29 = load i32** %28, align 8
  %30 = load %"struct.std::_Deque_iterator"** %2, align 8
  %31 = getelementptr inbounds %"struct.std::_Deque_iterator"* %30, i32 0, i32 0
  %32 = load i32** %31, align 8
  %33 = ptrtoint i32* %29 to i64
  %34 = ptrtoint i32* %32 to i64
  %35 = sub i64 %33, %34
  %36 = sdiv exact i64 %35, 4
  %37 = add nsw i64 %26, %36
  ret i64 %37
}

; Function Attrs: nounwind uwtable
define linkonce_odr void @_ZNSt11_Deque_baseIiSaIiEE11_Deque_implC2ERKS0_(%"struct.std::_Deque_base<int, std::allocator<int> >::_Deque_impl"* %this, %"class.std::allocator"* %__a) unnamed_addr #2 align 2 {
  %1 = alloca %"struct.std::_Deque_base<int, std::allocator<int> >::_Deque_impl"*, align 8
  %2 = alloca %"class.std::allocator"*, align 8
  store %"struct.std::_Deque_base<int, std::allocator<int> >::_Deque_impl"* %this, %"struct.std::_Deque_base<int, std::allocator<int> >::_Deque_impl"** %1, align 8
  store %"class.std::allocator"* %__a, %"class.std::allocator"** %2, align 8
  %3 = load %"struct.std::_Deque_base<int, std::allocator<int> >::_Deque_impl"** %1
  %4 = bitcast %"struct.std::_Deque_base<int, std::allocator<int> >::_Deque_impl"* %3 to %"class.std::allocator"*
  %5 = load %"class.std::allocator"** %2, align 8
  call void @_ZNSaIiEC2ERKS_(%"class.std::allocator"* %4, %"class.std::allocator"* %5) #0
  %6 = getelementptr inbounds %"struct.std::_Deque_base<int, std::allocator<int> >::_Deque_impl"* %3, i32 0, i32 0
  store i32** null, i32*** %6, align 8
  %7 = getelementptr inbounds %"struct.std::_Deque_base<int, std::allocator<int> >::_Deque_impl"* %3, i32 0, i32 1
  store i64 0, i64* %7, align 8
  %8 = getelementptr inbounds %"struct.std::_Deque_base<int, std::allocator<int> >::_Deque_impl"* %3, i32 0, i32 2
  call void @_ZNSt15_Deque_iteratorIiRiPiEC2Ev(%"struct.std::_Deque_iterator"* %8)
  %9 = getelementptr inbounds %"struct.std::_Deque_base<int, std::allocator<int> >::_Deque_impl"* %3, i32 0, i32 3
  call void @_ZNSt15_Deque_iteratorIiRiPiEC2Ev(%"struct.std::_Deque_iterator"* %9)
  ret void
}

; Function Attrs: nounwind uwtable
define linkonce_odr void @_ZNSaIiEC2ERKS_(%"class.std::allocator"* %this, %"class.std::allocator"* %__a) unnamed_addr #2 align 2 {
  %1 = alloca %"class.std::allocator"*, align 8
  %2 = alloca %"class.std::allocator"*, align 8
  store %"class.std::allocator"* %this, %"class.std::allocator"** %1, align 8
  store %"class.std::allocator"* %__a, %"class.std::allocator"** %2, align 8
  %3 = load %"class.std::allocator"** %1
  %4 = bitcast %"class.std::allocator"* %3 to %"class.__gnu_cxx::new_allocator"*
  %5 = load %"class.std::allocator"** %2, align 8
  %6 = bitcast %"class.std::allocator"* %5 to %"class.__gnu_cxx::new_allocator"*
  call void @_ZN9__gnu_cxx13new_allocatorIiEC2ERKS1_(%"class.__gnu_cxx::new_allocator"* %4, %"class.__gnu_cxx::new_allocator"* %6) #0
  ret void
}

; Function Attrs: nounwind uwtable
define linkonce_odr void @_ZN9__gnu_cxx13new_allocatorIiEC2ERKS1_(%"class.__gnu_cxx::new_allocator"* %this, %"class.__gnu_cxx::new_allocator"*) unnamed_addr #2 align 2 {
  %2 = alloca %"class.__gnu_cxx::new_allocator"*, align 8
  %3 = alloca %"class.__gnu_cxx::new_allocator"*, align 8
  store %"class.__gnu_cxx::new_allocator"* %this, %"class.__gnu_cxx::new_allocator"** %2, align 8
  store %"class.__gnu_cxx::new_allocator"* %0, %"class.__gnu_cxx::new_allocator"** %3, align 8
  %4 = load %"class.__gnu_cxx::new_allocator"** %2
  ret void
}

; Function Attrs: nounwind uwtable
define linkonce_odr void @_ZNSt12_Vector_baseIiSaIiEEC2Ev(%"struct.std::_Vector_base"* %this) unnamed_addr #2 align 2 {
  %1 = alloca %"struct.std::_Vector_base"*, align 8
  store %"struct.std::_Vector_base"* %this, %"struct.std::_Vector_base"** %1, align 8
  %2 = load %"struct.std::_Vector_base"** %1
  %3 = getelementptr inbounds %"struct.std::_Vector_base"* %2, i32 0, i32 0
  call void @_ZNSt12_Vector_baseIiSaIiEE12_Vector_implC2Ev(%"struct.std::_Vector_base<int, std::allocator<int> >::_Vector_impl"* %3)
  ret void
}

; Function Attrs: nounwind uwtable
define linkonce_odr void @_ZNSt12_Vector_baseIiSaIiEE12_Vector_implC2Ev(%"struct.std::_Vector_base<int, std::allocator<int> >::_Vector_impl"* %this) unnamed_addr #2 align 2 {
  %1 = alloca %"struct.std::_Vector_base<int, std::allocator<int> >::_Vector_impl"*, align 8
  store %"struct.std::_Vector_base<int, std::allocator<int> >::_Vector_impl"* %this, %"struct.std::_Vector_base<int, std::allocator<int> >::_Vector_impl"** %1, align 8
  %2 = load %"struct.std::_Vector_base<int, std::allocator<int> >::_Vector_impl"** %1
  %3 = bitcast %"struct.std::_Vector_base<int, std::allocator<int> >::_Vector_impl"* %2 to %"class.std::allocator"*
  call void @_ZNSaIiEC2Ev(%"class.std::allocator"* %3) #0
  %4 = getelementptr inbounds %"struct.std::_Vector_base<int, std::allocator<int> >::_Vector_impl"* %2, i32 0, i32 0
  store i32* null, i32** %4, align 8
  %5 = getelementptr inbounds %"struct.std::_Vector_base<int, std::allocator<int> >::_Vector_impl"* %2, i32 0, i32 1
  store i32* null, i32** %5, align 8
  %6 = getelementptr inbounds %"struct.std::_Vector_base<int, std::allocator<int> >::_Vector_impl"* %2, i32 0, i32 2
  store i32* null, i32** %6, align 8
  ret void
}

; Function Attrs: nounwind
define internal void @_GLOBAL__I_a() #0 section ".text.startup" {
  call void @__cxx_global_var_init()
  ret void
}

attributes #0 = { nounwind }
attributes #1 = { "less-precise-fpmad"="false" "no-frame-pointer-elim"="true" "no-frame-pointer-elim-non-leaf" "no-infs-fp-math"="false" "no-nans-fp-math"="false" "stack-protector-buffer-size"="8" "unsafe-fp-math"="false" "use-soft-float"="false" }
attributes #2 = { nounwind uwtable "less-precise-fpmad"="false" "no-frame-pointer-elim"="true" "no-frame-pointer-elim-non-leaf" "no-infs-fp-math"="false" "no-nans-fp-math"="false" "stack-protector-buffer-size"="8" "unsafe-fp-math"="false" "use-soft-float"="false" }
attributes #3 = { inlinehint nounwind uwtable "less-precise-fpmad"="false" "no-frame-pointer-elim"="true" "no-frame-pointer-elim-non-leaf" "no-infs-fp-math"="false" "no-nans-fp-math"="false" "stack-protector-buffer-size"="8" "unsafe-fp-math"="false" "use-soft-float"="false" }
attributes #4 = { nobuiltin nounwind "less-precise-fpmad"="false" "no-frame-pointer-elim"="true" "no-frame-pointer-elim-non-leaf" "no-infs-fp-math"="false" "no-nans-fp-math"="false" "stack-protector-buffer-size"="8" "unsafe-fp-math"="false" "use-soft-float"="false" }
attributes #5 = { noreturn "less-precise-fpmad"="false" "no-frame-pointer-elim"="true" "no-frame-pointer-elim-non-leaf" "no-infs-fp-math"="false" "no-nans-fp-math"="false" "stack-protector-buffer-size"="8" "unsafe-fp-math"="false" "use-soft-float"="false" }
attributes #6 = { nobuiltin "less-precise-fpmad"="false" "no-frame-pointer-elim"="true" "no-frame-pointer-elim-non-leaf" "no-infs-fp-math"="false" "no-nans-fp-math"="false" "stack-protector-buffer-size"="8" "unsafe-fp-math"="false" "use-soft-float"="false" }
attributes #7 = { noreturn }

!llvm.ident = !{!0}

!0 = metadata !{metadata !"clang version 3.4 (tags/RELEASE_34/final)"}
