; ModuleID = '/home/foo/ResearchAlgorithms/llfi/bfs_08_set-llfi_index.ll'
target datalayout = "e-p:64:64:64-i1:8:8-i8:8:8-i16:16:16-i32:32:32-i64:64:64-f32:32:32-f64:64:64-v64:64:64-v128:128:128-a0:0:64-s0:64:64-f80:128:128-n8:16:32:64-S128"
target triple = "x86_64-unknown-linux-gnu"

%"class.std::ios_base::Init" = type { i8 }
%"class.std::basic_ostream" = type { i32 (...)**, %"class.std::basic_ios" }
%"class.std::basic_ios" = type { %"class.std::ios_base", %"class.std::basic_ostream"*, i8, i8, %"class.std::basic_streambuf"*, %"class.std::ctype"*, %"class.std::num_put"*, %"class.std::num_get"* }
%"class.std::ios_base" = type { i32 (...)**, i64, i64, i32, i32, i32, %"struct.std::ios_base::_Callback_list"*, %"struct.std::ios_base::_Words", [8 x %"struct.std::ios_base::_Words"], i32, %"struct.std::ios_base::_Words"*, %"class.std::locale" }
%"struct.std::ios_base::_Callback_list" = type { %"struct.std::ios_base::_Callback_list"*, void (i32, %"class.std::ios_base"*, i32)*, i32, i32 }
%"struct.std::ios_base::_Words" = type { i8*, i64 }
%"class.std::locale" = type { %"class.std::locale::_Impl"* }
%"class.std::locale::_Impl" = type { i32, %"class.std::locale::facet"**, i64, %"class.std::locale::facet"**, i8** }
%"class.std::locale::facet" = type { i32 (...)**, i32 }
%"class.std::basic_streambuf" = type { i32 (...)**, i8*, i8*, i8*, i8*, i8*, i8*, %"class.std::locale" }
%"class.std::ctype" = type { %"class.std::locale::facet", %struct.__locale_struct*, i8, i32*, i32*, i16*, i8, [256 x i8], [256 x i8], i8 }
%struct.__locale_struct = type { [13 x %struct.__locale_data*], i16*, i32*, i32*, [13 x i8*] }
%struct.__locale_data = type opaque
%"class.std::num_put" = type { %"class.std::locale::facet" }
%"class.std::num_get" = type { %"class.std::locale::facet" }
%struct.Node = type { i32, %struct.Node*, %struct.Node*, %struct.Node* }
%"class.std::vector" = type { %"struct.std::_Vector_base" }
%"struct.std::_Vector_base" = type { %"struct.std::_Vector_base<int, std::allocator<int> >::_Vector_impl" }
%"struct.std::_Vector_base<int, std::allocator<int> >::_Vector_impl" = type { i32*, i32*, i32* }
%"class.std::set" = type { %"class.std::_Rb_tree" }
%"class.std::_Rb_tree" = type { %"struct.std::_Rb_tree<Node *, Node *, std::_Identity<Node *>, std::less<Node *>, std::allocator<Node *> >::_Rb_tree_impl" }
%"struct.std::_Rb_tree<Node *, Node *, std::_Identity<Node *>, std::less<Node *>, std::allocator<Node *> >::_Rb_tree_impl" = type { %"struct.std::less", %"struct.std::_Rb_tree_node_base", i64 }
%"struct.std::less" = type { i8 }
%"struct.std::_Rb_tree_node_base" = type { i32, %"struct.std::_Rb_tree_node_base"*, %"struct.std::_Rb_tree_node_base"*, %"struct.std::_Rb_tree_node_base"* }
%"struct.std::pair" = type { %"struct.std::_Rb_tree_const_iterator", i8 }
%"struct.std::_Rb_tree_const_iterator" = type { %"struct.std::_Rb_tree_node_base"* }
%"struct.std::pair.7" = type { %"struct.std::_Rb_tree_iterator", i8 }
%"struct.std::_Rb_tree_iterator" = type { %"struct.std::_Rb_tree_node_base"* }
%"struct.std::_Rb_tree_node" = type { %"struct.std::_Rb_tree_node_base", %"struct.__gnu_cxx::__aligned_membuf" }
%"struct.__gnu_cxx::__aligned_membuf" = type { [8 x i8] }
%"class.std::allocator" = type { i8 }
%"class.std::__cxx11::basic_string" = type { %"struct.std::__cxx11::basic_string<char, std::char_traits<char>, std::allocator<char> >::_Alloc_hider", i64, %union.anon }
%"struct.std::__cxx11::basic_string<char, std::char_traits<char>, std::allocator<char> >::_Alloc_hider" = type { i8* }
%union.anon = type { i64, [8 x i8] }
%"class.std::allocator.3" = type { i8 }
%"class.std::basic_ifstream" = type { %"class.std::basic_istream.base", %"class.std::basic_filebuf", %"class.std::basic_ios" }
%"class.std::basic_istream.base" = type { i32 (...)**, i64 }
%"class.std::basic_filebuf" = type { %"class.std::basic_streambuf", %union.pthread_mutex_t, %"class.std::__basic_file", i32, %struct.__mbstate_t, %struct.__mbstate_t, %struct.__mbstate_t, i8*, i64, i8, i8, i8, i8, i8*, i8*, i8, %"class.std::codecvt"*, i8*, i64, i8*, i8* }
%union.pthread_mutex_t = type { %"struct.<anonymous union>::__pthread_mutex_s" }
%"struct.<anonymous union>::__pthread_mutex_s" = type { i32, i32, i32, i32, i32, i16, i16, %struct.__pthread_internal_list }
%struct.__pthread_internal_list = type { %struct.__pthread_internal_list*, %struct.__pthread_internal_list* }
%"class.std::__basic_file" = type { %struct._IO_FILE*, i8 }
%struct._IO_FILE = type { i32, i8*, i8*, i8*, i8*, i8*, i8*, i8*, i8*, i8*, i8*, i8*, %struct._IO_marker*, %struct._IO_FILE*, i32, i32, i64, i16, i8, [1 x i8], i8*, i64, i8*, i8*, i8*, i8*, i64, i32, [20 x i8] }
%struct._IO_marker = type { %struct._IO_marker*, %struct._IO_FILE*, i32 }
%struct.__mbstate_t = type { i32, %union.anon.6 }
%union.anon.6 = type { i32 }
%"class.std::codecvt" = type { %"class.std::__codecvt_abstract_base", %struct.__locale_struct* }
%"class.std::__codecvt_abstract_base" = type { %"class.std::locale::facet" }
%"class.std::basic_istream" = type { i32 (...)**, i64, %"class.std::basic_ios" }
%"class.__gnu_cxx::new_allocator" = type { i8 }
%"struct.std::_Rb_tree<Node *, Node *, std::_Identity<Node *>, std::less<Node *>, std::allocator<Node *> >::_Reuse_or_alloc_node" = type { %"struct.std::_Rb_tree_node_base"*, %"struct.std::_Rb_tree_node_base"*, %"class.std::_Rb_tree"* }
%"class.std::allocator.0" = type { i8 }
%"class.__gnu_cxx::new_allocator.1" = type { i8 }
%"struct.std::_Identity" = type { i8 }
%"class.std::move_iterator" = type { i32* }
%"struct.std::pair.8" = type { %"struct.std::_Rb_tree_node_base"*, %"struct.std::_Rb_tree_node_base"* }
%"struct.std::_Rb_tree<Node *, Node *, std::_Identity<Node *>, std::less<Node *>, std::allocator<Node *> >::_Alloc_node" = type { %"class.std::_Rb_tree"* }

@_ZStL8__ioinit = internal global %"class.std::ios_base::Init" zeroinitializer, align 1
@__dso_handle = external global i8
@.str = private unnamed_addr constant [12 x i8] c"numbers.txt\00", align 1
@_ZSt4cerr = external global %"class.std::basic_ostream"
@.str1 = private unnamed_addr constant [23 x i8] c"Error: Could not open \00", align 1
@_ZSt4cout = external global %"class.std::basic_ostream"
@.str2 = private unnamed_addr constant [1 x i8] zeroinitializer, align 1
@.str3 = private unnamed_addr constant [2 x i8] c" \00", align 1
@.str4 = private unnamed_addr constant [28 x i8] c"vector::_M_emplace_back_aux\00", align 1
@llvm.global_ctors = appending global [1 x { i32, void ()* }] [{ i32, void ()* } { i32 65535, void ()* @_GLOBAL__I_a }]
@load_namestr = internal constant [5 x i8] c"load\00"
@icmp_namestr = internal constant [5 x i8] c"icmp\00"
@bitcast_namestr = internal constant [8 x i8] c"bitcast\00"
@getelementptr_namestr = internal constant [14 x i8] c"getelementptr\00"
@extractvalue_namestr = internal constant [13 x i8] c"extractvalue\00"
@xor_namestr = internal constant [4 x i8] c"xor\00"
@sext_namestr = internal constant [5 x i8] c"sext\00"
@add_namestr = internal constant [4 x i8] c"add\00"
@sub_namestr = internal constant [4 x i8] c"sub\00"
@select_namestr = internal constant [7 x i8] c"select\00"
@ptrtoint_namestr = internal constant [9 x i8] c"ptrtoint\00"
@sdiv_namestr = internal constant [5 x i8] c"sdiv\00"
@mul_namestr = internal constant [4 x i8] c"mul\00"
@trunc_namestr = internal constant [6 x i8] c"trunc\00"
@zext_namestr = internal constant [5 x i8] c"zext\00"

; Function Attrs: nounwind
define internal void @__cxx_global_var_init() #0 section ".text.startup" {
  call void @_ZNSt8ios_base4InitC1Ev(%"class.std::ios_base::Init"* @_ZStL8__ioinit), !llfi_index !1
  %1 = call i32 @__cxa_atexit(void (i8*)* bitcast (void (%"class.std::ios_base::Init"*)* @_ZNSt8ios_base4InitD1Ev to void (i8*)*), i8* getelementptr inbounds (%"class.std::ios_base::Init"* @_ZStL8__ioinit, i32 0, i32 0), i8* @__dso_handle) #0, !llfi_index !2
  ret void, !llfi_index !3
}

declare void @_ZNSt8ios_base4InitC1Ev(%"class.std::ios_base::Init"*) #1

; Function Attrs: nounwind
declare void @_ZNSt8ios_base4InitD1Ev(%"class.std::ios_base::Init"*) #2

; Function Attrs: nounwind
declare i32 @__cxa_atexit(void (i8*)*, i8*, i8*) #0

; Function Attrs: nounwind uwtable
define void @_Z7bfs_setP4NodeRSt6vectorIiSaIiEE(%struct.Node* %root, %"class.std::vector"* %result) #3 {
  %1 = alloca %struct.Node*, align 8, !llfi_index !4
  %2 = alloca %"class.std::vector"*, align 8, !llfi_index !5
  %visited = alloca %"class.std::set", align 8, !llfi_index !6
  %frontier = alloca %"class.std::set", align 8, !llfi_index !7
  %3 = alloca %"struct.std::pair", align 8, !llfi_index !8
  %4 = alloca %"struct.std::pair", align 8, !llfi_index !9
  %next_frontier = alloca %"class.std::set", align 8, !llfi_index !10
  %__range = alloca %"class.std::set"*, align 8, !llfi_index !11
  %__begin = alloca %"struct.std::_Rb_tree_const_iterator", align 8, !llfi_index !12
  %__end = alloca %"struct.std::_Rb_tree_const_iterator", align 8, !llfi_index !13
  %u = alloca %struct.Node*, align 8, !llfi_index !14
  %neighbors = alloca [2 x %struct.Node*], align 16, !llfi_index !15
  %i = alloca i32, align 4, !llfi_index !16
  %v = alloca %struct.Node*, align 8, !llfi_index !17
  %5 = alloca %"struct.std::_Rb_tree_const_iterator", align 8, !llfi_index !18
  %6 = alloca %"struct.std::_Rb_tree_const_iterator", align 8, !llfi_index !19
  %7 = alloca %"struct.std::pair", align 8, !llfi_index !20
  %8 = alloca %"struct.std::pair", align 8, !llfi_index !21
  store %struct.Node* %root, %struct.Node** %1, align 8, !llfi_index !22
  store %"class.std::vector"* %result, %"class.std::vector"** %2, align 8, !llfi_index !23
  %9 = load %struct.Node** %1, align 8, !llfi_index !24
  %fi1 = call %struct.Node* @injectFault2(i64 24, %struct.Node* %9, i32 27, i32 0, i32 1, i32 0, i8* getelementptr inbounds ([5 x i8]* @load_namestr, i32 0, i32 0)), !llfi_injectfault !25
  %10 = icmp ne %struct.Node* %fi1, null, !llfi_index !26
  %fi2 = call i1 @injectFault3(i64 25, i1 %10, i32 46, i32 0, i32 1, i32 0, i8* getelementptr inbounds ([5 x i8]* @icmp_namestr, i32 0, i32 0)), !llfi_injectfault !25
  br i1 %fi2, label %12, label %11, !llfi_index !27

; <label>:11                                      ; preds = %0
  br label %90, !llfi_index !28

; <label>:12                                      ; preds = %0
  call void @_ZNSt3setIP4NodeSt4lessIS1_ESaIS1_EEC2Ev(%"class.std::set"* %visited) #0, !llfi_index !29
  call void @_ZNSt3setIP4NodeSt4lessIS1_ESaIS1_EEC2Ev(%"class.std::set"* %frontier) #0, !llfi_index !30
  %13 = call { %"struct.std::_Rb_tree_node_base"*, i8 } @_ZNSt3setIP4NodeSt4lessIS1_ESaIS1_EE6insertERKS1_(%"class.std::set"* %frontier, %struct.Node** %1), !llfi_index !31
  %14 = bitcast %"struct.std::pair"* %3 to { %"struct.std::_Rb_tree_node_base"*, i8 }*, !llfi_index !32
  %fi3 = call { %"struct.std::_Rb_tree_node_base"*, i8 }* @injectFault4(i64 31, { %"struct.std::_Rb_tree_node_base"*, i8 }* %14, i32 44, i32 0, i32 1, i32 0, i8* getelementptr inbounds ([8 x i8]* @bitcast_namestr, i32 0, i32 0)), !llfi_injectfault !25
  %15 = getelementptr { %"struct.std::_Rb_tree_node_base"*, i8 }* %fi3, i32 0, i32 0, !llfi_index !33
  %fi4 = call %"struct.std::_Rb_tree_node_base"** @injectFault5(i64 32, %"struct.std::_Rb_tree_node_base"** %15, i32 29, i32 0, i32 1, i32 0, i8* getelementptr inbounds ([14 x i8]* @getelementptr_namestr, i32 0, i32 0)), !llfi_injectfault !25
  %16 = extractvalue { %"struct.std::_Rb_tree_node_base"*, i8 } %13, 0, !llfi_index !34
  %fi5 = call %"struct.std::_Rb_tree_node_base"* @injectFault6(i64 33, %"struct.std::_Rb_tree_node_base"* %16, i32 57, i32 0, i32 1, i32 0, i8* getelementptr inbounds ([13 x i8]* @extractvalue_namestr, i32 0, i32 0)), !llfi_injectfault !25
  store %"struct.std::_Rb_tree_node_base"* %fi5, %"struct.std::_Rb_tree_node_base"** %fi4, align 1, !llfi_index !35
  %17 = getelementptr { %"struct.std::_Rb_tree_node_base"*, i8 }* %fi3, i32 0, i32 1, !llfi_index !36
  %fi6 = call i8* @injectFault7(i64 35, i8* %17, i32 29, i32 0, i32 1, i32 0, i8* getelementptr inbounds ([14 x i8]* @getelementptr_namestr, i32 0, i32 0)), !llfi_injectfault !25
  %18 = extractvalue { %"struct.std::_Rb_tree_node_base"*, i8 } %13, 1, !llfi_index !37
  %fi7 = call i8 @injectFault8(i64 36, i8 %18, i32 57, i32 0, i32 1, i32 0, i8* getelementptr inbounds ([13 x i8]* @extractvalue_namestr, i32 0, i32 0)), !llfi_injectfault !25
  store i8 %fi7, i8* %fi6, align 1, !llfi_index !38
  %19 = call { %"struct.std::_Rb_tree_node_base"*, i8 } @_ZNSt3setIP4NodeSt4lessIS1_ESaIS1_EE6insertERKS1_(%"class.std::set"* %visited, %struct.Node** %1), !llfi_index !39
  %20 = bitcast %"struct.std::pair"* %4 to { %"struct.std::_Rb_tree_node_base"*, i8 }*, !llfi_index !40
  %fi8 = call { %"struct.std::_Rb_tree_node_base"*, i8 }* @injectFault4(i64 39, { %"struct.std::_Rb_tree_node_base"*, i8 }* %20, i32 44, i32 0, i32 1, i32 0, i8* getelementptr inbounds ([8 x i8]* @bitcast_namestr, i32 0, i32 0)), !llfi_injectfault !25
  %21 = getelementptr { %"struct.std::_Rb_tree_node_base"*, i8 }* %fi8, i32 0, i32 0, !llfi_index !41
  %fi9 = call %"struct.std::_Rb_tree_node_base"** @injectFault5(i64 40, %"struct.std::_Rb_tree_node_base"** %21, i32 29, i32 0, i32 1, i32 0, i8* getelementptr inbounds ([14 x i8]* @getelementptr_namestr, i32 0, i32 0)), !llfi_injectfault !25
  %22 = extractvalue { %"struct.std::_Rb_tree_node_base"*, i8 } %19, 0, !llfi_index !42
  %fi10 = call %"struct.std::_Rb_tree_node_base"* @injectFault6(i64 41, %"struct.std::_Rb_tree_node_base"* %22, i32 57, i32 0, i32 1, i32 0, i8* getelementptr inbounds ([13 x i8]* @extractvalue_namestr, i32 0, i32 0)), !llfi_injectfault !25
  store %"struct.std::_Rb_tree_node_base"* %fi10, %"struct.std::_Rb_tree_node_base"** %fi9, align 1, !llfi_index !43
  %23 = getelementptr { %"struct.std::_Rb_tree_node_base"*, i8 }* %fi8, i32 0, i32 1, !llfi_index !44
  %fi11 = call i8* @injectFault7(i64 43, i8* %23, i32 29, i32 0, i32 1, i32 0, i8* getelementptr inbounds ([14 x i8]* @getelementptr_namestr, i32 0, i32 0)), !llfi_injectfault !25
  %24 = extractvalue { %"struct.std::_Rb_tree_node_base"*, i8 } %19, 1, !llfi_index !45
  %fi12 = call i8 @injectFault8(i64 44, i8 %24, i32 57, i32 0, i32 1, i32 0, i8* getelementptr inbounds ([13 x i8]* @extractvalue_namestr, i32 0, i32 0)), !llfi_injectfault !25
  store i8 %fi12, i8* %fi11, align 1, !llfi_index !46
  br label %25, !llfi_index !47

; <label>:25                                      ; preds = %87, %12
  %26 = call zeroext i1 @_ZNKSt3setIP4NodeSt4lessIS1_ESaIS1_EE5emptyEv(%"class.std::set"* %frontier) #0, !llfi_index !48
  %27 = xor i1 %26, true, !llfi_index !49
  %fi13 = call i1 @injectFault3(i64 48, i1 %27, i32 25, i32 0, i32 1, i32 0, i8* getelementptr inbounds ([4 x i8]* @xor_namestr, i32 0, i32 0)), !llfi_injectfault !25
  br i1 %fi13, label %28, label %89, !llfi_index !50

; <label>:28                                      ; preds = %25
  call void @_ZNSt3setIP4NodeSt4lessIS1_ESaIS1_EEC2Ev(%"class.std::set"* %next_frontier) #0, !llfi_index !51
  store %"class.std::set"* %frontier, %"class.std::set"** %__range, align 8, !llfi_index !52
  %29 = load %"class.std::set"** %__range, align 8, !llfi_index !53
  %fi = call %"class.std::set"* @injectFault1(i64 52, %"class.std::set"* %29, i32 27, i32 0, i32 1, i32 0, i8* getelementptr inbounds ([5 x i8]* @load_namestr, i32 0, i32 0)), !llfi_injectfault !25
  %30 = call %"struct.std::_Rb_tree_node_base"* @_ZNKSt3setIP4NodeSt4lessIS1_ESaIS1_EE5beginEv(%"class.std::set"* %fi) #0, !llfi_index !54
  %31 = getelementptr %"struct.std::_Rb_tree_const_iterator"* %__begin, i32 0, i32 0, !llfi_index !55
  %fi20 = call %"struct.std::_Rb_tree_node_base"** @injectFault5(i64 54, %"struct.std::_Rb_tree_node_base"** %31, i32 29, i32 0, i32 1, i32 0, i8* getelementptr inbounds ([14 x i8]* @getelementptr_namestr, i32 0, i32 0)), !llfi_injectfault !25
  store %"struct.std::_Rb_tree_node_base"* %30, %"struct.std::_Rb_tree_node_base"** %fi20, !llfi_index !56
  %32 = load %"class.std::set"** %__range, align 8, !llfi_index !57
  %fi21 = call %"class.std::set"* @injectFault1(i64 56, %"class.std::set"* %32, i32 27, i32 0, i32 1, i32 0, i8* getelementptr inbounds ([5 x i8]* @load_namestr, i32 0, i32 0)), !llfi_injectfault !25
  %33 = call %"struct.std::_Rb_tree_node_base"* @_ZNKSt3setIP4NodeSt4lessIS1_ESaIS1_EE3endEv(%"class.std::set"* %fi21) #0, !llfi_index !58
  %34 = getelementptr %"struct.std::_Rb_tree_const_iterator"* %__end, i32 0, i32 0, !llfi_index !59
  %fi23 = call %"struct.std::_Rb_tree_node_base"** @injectFault5(i64 58, %"struct.std::_Rb_tree_node_base"** %34, i32 29, i32 0, i32 1, i32 0, i8* getelementptr inbounds ([14 x i8]* @getelementptr_namestr, i32 0, i32 0)), !llfi_injectfault !25
  store %"struct.std::_Rb_tree_node_base"* %33, %"struct.std::_Rb_tree_node_base"** %fi23, !llfi_index !60
  br label %35, !llfi_index !61

; <label>:35                                      ; preds = %85, %28
  %36 = call zeroext i1 @_ZNKSt23_Rb_tree_const_iteratorIP4NodeEneERKS2_(%"struct.std::_Rb_tree_const_iterator"* %__begin, %"struct.std::_Rb_tree_const_iterator"* %__end) #0, !llfi_index !62
  br i1 %36, label %37, label %87, !llfi_index !63

; <label>:37                                      ; preds = %35
  %38 = call %struct.Node** @_ZNKSt23_Rb_tree_const_iteratorIP4NodeEdeEv(%"struct.std::_Rb_tree_const_iterator"* %__begin) #0, !llfi_index !64
  %39 = load %struct.Node** %38, !llfi_index !65
  %fi24 = call %struct.Node* @injectFault2(i64 64, %struct.Node* %39, i32 27, i32 0, i32 1, i32 0, i8* getelementptr inbounds ([5 x i8]* @load_namestr, i32 0, i32 0)), !llfi_injectfault !25
  store %struct.Node* %fi24, %struct.Node** %u, align 8, !llfi_index !66
  %40 = load %"class.std::vector"** %2, align 8, !llfi_index !67
  %fi25 = call %"class.std::vector"* @injectFault9(i64 66, %"class.std::vector"* %40, i32 27, i32 0, i32 1, i32 0, i8* getelementptr inbounds ([5 x i8]* @load_namestr, i32 0, i32 0)), !llfi_injectfault !25
  %41 = load %struct.Node** %u, align 8, !llfi_index !68
  %fi26 = call %struct.Node* @injectFault2(i64 67, %struct.Node* %41, i32 27, i32 0, i32 1, i32 0, i8* getelementptr inbounds ([5 x i8]* @load_namestr, i32 0, i32 0)), !llfi_injectfault !25
  %42 = getelementptr %struct.Node* %fi26, i32 0, i32 0, !llfi_index !69
  %fi27 = call i32* @injectFault10(i64 68, i32* %42, i32 29, i32 0, i32 1, i32 0, i8* getelementptr inbounds ([14 x i8]* @getelementptr_namestr, i32 0, i32 0)), !llfi_injectfault !25
  call void @_ZNSt6vectorIiSaIiEE9push_backERKi(%"class.std::vector"* %fi25, i32* %fi27), !llfi_index !70
  %43 = getelementptr [2 x %struct.Node*]* %neighbors, i64 0, i64 0, !llfi_index !71
  %fi28 = call %struct.Node** @injectFault11(i64 70, %struct.Node** %43, i32 29, i32 0, i32 1, i32 0, i8* getelementptr inbounds ([14 x i8]* @getelementptr_namestr, i32 0, i32 0)), !llfi_injectfault !25
  %44 = load %struct.Node** %u, align 8, !llfi_index !72
  %fi29 = call %struct.Node* @injectFault2(i64 71, %struct.Node* %44, i32 27, i32 0, i32 1, i32 0, i8* getelementptr inbounds ([5 x i8]* @load_namestr, i32 0, i32 0)), !llfi_injectfault !25
  %45 = getelementptr %struct.Node* %fi29, i32 0, i32 1, !llfi_index !73
  %fi30 = call %struct.Node** @injectFault11(i64 72, %struct.Node** %45, i32 29, i32 0, i32 1, i32 0, i8* getelementptr inbounds ([14 x i8]* @getelementptr_namestr, i32 0, i32 0)), !llfi_injectfault !25
  %46 = load %struct.Node** %fi30, align 8, !llfi_index !74
  %fi31 = call %struct.Node* @injectFault2(i64 73, %struct.Node* %46, i32 27, i32 0, i32 1, i32 0, i8* getelementptr inbounds ([5 x i8]* @load_namestr, i32 0, i32 0)), !llfi_injectfault !25
  store %struct.Node* %fi31, %struct.Node** %fi28, !llfi_index !75
  %47 = getelementptr %struct.Node** %fi28, i64 1, !llfi_index !76
  %fi32 = call %struct.Node** @injectFault11(i64 75, %struct.Node** %47, i32 29, i32 0, i32 1, i32 0, i8* getelementptr inbounds ([14 x i8]* @getelementptr_namestr, i32 0, i32 0)), !llfi_injectfault !25
  %48 = load %struct.Node** %u, align 8, !llfi_index !77
  %fi33 = call %struct.Node* @injectFault2(i64 76, %struct.Node* %48, i32 27, i32 0, i32 1, i32 0, i8* getelementptr inbounds ([5 x i8]* @load_namestr, i32 0, i32 0)), !llfi_injectfault !25
  %49 = getelementptr %struct.Node* %fi33, i32 0, i32 2, !llfi_index !78
  %fi34 = call %struct.Node** @injectFault11(i64 77, %struct.Node** %49, i32 29, i32 0, i32 1, i32 0, i8* getelementptr inbounds ([14 x i8]* @getelementptr_namestr, i32 0, i32 0)), !llfi_injectfault !25
  %50 = load %struct.Node** %fi34, align 8, !llfi_index !79
  %fi35 = call %struct.Node* @injectFault2(i64 78, %struct.Node* %50, i32 27, i32 0, i32 1, i32 0, i8* getelementptr inbounds ([5 x i8]* @load_namestr, i32 0, i32 0)), !llfi_injectfault !25
  store %struct.Node* %fi35, %struct.Node** %fi32, !llfi_index !80
  store i32 0, i32* %i, align 4, !llfi_index !81
  br label %51, !llfi_index !82

; <label>:51                                      ; preds = %81, %37
  %52 = load i32* %i, align 4, !llfi_index !83
  %fi36 = call i32 @injectFault0(i64 82, i32 %52, i32 27, i32 0, i32 1, i32 0, i8* getelementptr inbounds ([5 x i8]* @load_namestr, i32 0, i32 0)), !llfi_injectfault !25
  %53 = icmp slt i32 %fi36, 2, !llfi_index !84
  %fi37 = call i1 @injectFault3(i64 83, i1 %53, i32 46, i32 0, i32 1, i32 0, i8* getelementptr inbounds ([5 x i8]* @icmp_namestr, i32 0, i32 0)), !llfi_injectfault !25
  br i1 %fi37, label %54, label %84, !llfi_index !85

; <label>:54                                      ; preds = %51
  %55 = load i32* %i, align 4, !llfi_index !86
  %fi38 = call i32 @injectFault0(i64 85, i32 %55, i32 27, i32 0, i32 1, i32 0, i8* getelementptr inbounds ([5 x i8]* @load_namestr, i32 0, i32 0)), !llfi_injectfault !25
  %56 = sext i32 %fi38 to i64, !llfi_index !87
  %fi39 = call i64 @injectFault12(i64 86, i64 %56, i32 35, i32 0, i32 1, i32 0, i8* getelementptr inbounds ([5 x i8]* @sext_namestr, i32 0, i32 0)), !llfi_injectfault !25
  %57 = getelementptr [2 x %struct.Node*]* %neighbors, i32 0, i64 %fi39, !llfi_index !88
  %fi40 = call %struct.Node** @injectFault11(i64 87, %struct.Node** %57, i32 29, i32 0, i32 1, i32 0, i8* getelementptr inbounds ([14 x i8]* @getelementptr_namestr, i32 0, i32 0)), !llfi_injectfault !25
  %58 = load %struct.Node** %fi40, align 8, !llfi_index !89
  %fi41 = call %struct.Node* @injectFault2(i64 88, %struct.Node* %58, i32 27, i32 0, i32 1, i32 0, i8* getelementptr inbounds ([5 x i8]* @load_namestr, i32 0, i32 0)), !llfi_injectfault !25
  store %struct.Node* %fi41, %struct.Node** %v, align 8, !llfi_index !90
  %59 = load %struct.Node** %v, align 8, !llfi_index !91
  %fi42 = call %struct.Node* @injectFault2(i64 90, %struct.Node* %59, i32 27, i32 0, i32 1, i32 0, i8* getelementptr inbounds ([5 x i8]* @load_namestr, i32 0, i32 0)), !llfi_injectfault !25
  %60 = icmp ne %struct.Node* %fi42, null, !llfi_index !92
  %fi43 = call i1 @injectFault3(i64 91, i1 %60, i32 46, i32 0, i32 1, i32 0, i8* getelementptr inbounds ([5 x i8]* @icmp_namestr, i32 0, i32 0)), !llfi_injectfault !25
  br i1 %fi43, label %61, label %80, !llfi_index !93

; <label>:61                                      ; preds = %54
  %62 = call %"struct.std::_Rb_tree_node_base"* @_ZNSt3setIP4NodeSt4lessIS1_ESaIS1_EE4findERKS1_(%"class.std::set"* %visited, %struct.Node** %v), !llfi_index !94
  %63 = getelementptr %"struct.std::_Rb_tree_const_iterator"* %5, i32 0, i32 0, !llfi_index !95
  %fi44 = call %"struct.std::_Rb_tree_node_base"** @injectFault5(i64 94, %"struct.std::_Rb_tree_node_base"** %63, i32 29, i32 0, i32 1, i32 0, i8* getelementptr inbounds ([14 x i8]* @getelementptr_namestr, i32 0, i32 0)), !llfi_injectfault !25
  store %"struct.std::_Rb_tree_node_base"* %62, %"struct.std::_Rb_tree_node_base"** %fi44, !llfi_index !96
  %64 = call %"struct.std::_Rb_tree_node_base"* @_ZNKSt3setIP4NodeSt4lessIS1_ESaIS1_EE3endEv(%"class.std::set"* %visited) #0, !llfi_index !97
  %65 = getelementptr %"struct.std::_Rb_tree_const_iterator"* %6, i32 0, i32 0, !llfi_index !98
  %fi22 = call %"struct.std::_Rb_tree_node_base"** @injectFault5(i64 97, %"struct.std::_Rb_tree_node_base"** %65, i32 29, i32 0, i32 1, i32 0, i8* getelementptr inbounds ([14 x i8]* @getelementptr_namestr, i32 0, i32 0)), !llfi_injectfault !25
  store %"struct.std::_Rb_tree_node_base"* %64, %"struct.std::_Rb_tree_node_base"** %fi22, !llfi_index !99
  %66 = call zeroext i1 @_ZNKSt23_Rb_tree_const_iteratorIP4NodeEeqERKS2_(%"struct.std::_Rb_tree_const_iterator"* %5, %"struct.std::_Rb_tree_const_iterator"* %6) #0, !llfi_index !100
  br i1 %66, label %67, label %80, !llfi_index !101

; <label>:67                                      ; preds = %61
  %68 = call { %"struct.std::_Rb_tree_node_base"*, i8 } @_ZNSt3setIP4NodeSt4lessIS1_ESaIS1_EE6insertERKS1_(%"class.std::set"* %visited, %struct.Node** %v), !llfi_index !102
  %69 = bitcast %"struct.std::pair"* %7 to { %"struct.std::_Rb_tree_node_base"*, i8 }*, !llfi_index !103
  %fi14 = call { %"struct.std::_Rb_tree_node_base"*, i8 }* @injectFault4(i64 102, { %"struct.std::_Rb_tree_node_base"*, i8 }* %69, i32 44, i32 0, i32 1, i32 0, i8* getelementptr inbounds ([8 x i8]* @bitcast_namestr, i32 0, i32 0)), !llfi_injectfault !25
  %70 = getelementptr { %"struct.std::_Rb_tree_node_base"*, i8 }* %fi14, i32 0, i32 0, !llfi_index !104
  %fi15 = call %"struct.std::_Rb_tree_node_base"** @injectFault5(i64 103, %"struct.std::_Rb_tree_node_base"** %70, i32 29, i32 0, i32 1, i32 0, i8* getelementptr inbounds ([14 x i8]* @getelementptr_namestr, i32 0, i32 0)), !llfi_injectfault !25
  %71 = extractvalue { %"struct.std::_Rb_tree_node_base"*, i8 } %68, 0, !llfi_index !105
  %fi16 = call %"struct.std::_Rb_tree_node_base"* @injectFault6(i64 104, %"struct.std::_Rb_tree_node_base"* %71, i32 57, i32 0, i32 1, i32 0, i8* getelementptr inbounds ([13 x i8]* @extractvalue_namestr, i32 0, i32 0)), !llfi_injectfault !25
  store %"struct.std::_Rb_tree_node_base"* %fi16, %"struct.std::_Rb_tree_node_base"** %fi15, align 1, !llfi_index !106
  %72 = getelementptr { %"struct.std::_Rb_tree_node_base"*, i8 }* %fi14, i32 0, i32 1, !llfi_index !107
  %fi17 = call i8* @injectFault7(i64 106, i8* %72, i32 29, i32 0, i32 1, i32 0, i8* getelementptr inbounds ([14 x i8]* @getelementptr_namestr, i32 0, i32 0)), !llfi_injectfault !25
  %73 = extractvalue { %"struct.std::_Rb_tree_node_base"*, i8 } %68, 1, !llfi_index !108
  %fi18 = call i8 @injectFault8(i64 107, i8 %73, i32 57, i32 0, i32 1, i32 0, i8* getelementptr inbounds ([13 x i8]* @extractvalue_namestr, i32 0, i32 0)), !llfi_injectfault !25
  store i8 %fi18, i8* %fi17, align 1, !llfi_index !109
  %74 = call { %"struct.std::_Rb_tree_node_base"*, i8 } @_ZNSt3setIP4NodeSt4lessIS1_ESaIS1_EE6insertERKS1_(%"class.std::set"* %next_frontier, %struct.Node** %v), !llfi_index !110
  %75 = bitcast %"struct.std::pair"* %8 to { %"struct.std::_Rb_tree_node_base"*, i8 }*, !llfi_index !111
  %fi19 = call { %"struct.std::_Rb_tree_node_base"*, i8 }* @injectFault4(i64 110, { %"struct.std::_Rb_tree_node_base"*, i8 }* %75, i32 44, i32 0, i32 1, i32 0, i8* getelementptr inbounds ([8 x i8]* @bitcast_namestr, i32 0, i32 0)), !llfi_injectfault !25
  %76 = getelementptr { %"struct.std::_Rb_tree_node_base"*, i8 }* %fi19, i32 0, i32 0, !llfi_index !112
  %fi45 = call %"struct.std::_Rb_tree_node_base"** @injectFault5(i64 111, %"struct.std::_Rb_tree_node_base"** %76, i32 29, i32 0, i32 1, i32 0, i8* getelementptr inbounds ([14 x i8]* @getelementptr_namestr, i32 0, i32 0)), !llfi_injectfault !25
  %77 = extractvalue { %"struct.std::_Rb_tree_node_base"*, i8 } %74, 0, !llfi_index !113
  %fi46 = call %"struct.std::_Rb_tree_node_base"* @injectFault6(i64 112, %"struct.std::_Rb_tree_node_base"* %77, i32 57, i32 0, i32 1, i32 0, i8* getelementptr inbounds ([13 x i8]* @extractvalue_namestr, i32 0, i32 0)), !llfi_injectfault !25
  store %"struct.std::_Rb_tree_node_base"* %fi46, %"struct.std::_Rb_tree_node_base"** %fi45, align 1, !llfi_index !114
  %78 = getelementptr { %"struct.std::_Rb_tree_node_base"*, i8 }* %fi19, i32 0, i32 1, !llfi_index !115
  %fi47 = call i8* @injectFault7(i64 114, i8* %78, i32 29, i32 0, i32 1, i32 0, i8* getelementptr inbounds ([14 x i8]* @getelementptr_namestr, i32 0, i32 0)), !llfi_injectfault !25
  %79 = extractvalue { %"struct.std::_Rb_tree_node_base"*, i8 } %74, 1, !llfi_index !116
  %fi48 = call i8 @injectFault8(i64 115, i8 %79, i32 57, i32 0, i32 1, i32 0, i8* getelementptr inbounds ([13 x i8]* @extractvalue_namestr, i32 0, i32 0)), !llfi_injectfault !25
  store i8 %fi48, i8* %fi47, align 1, !llfi_index !117
  br label %80, !llfi_index !118

; <label>:80                                      ; preds = %67, %61, %54
  br label %81, !llfi_index !119

; <label>:81                                      ; preds = %80
  %82 = load i32* %i, align 4, !llfi_index !120
  %fi49 = call i32 @injectFault0(i64 119, i32 %82, i32 27, i32 0, i32 1, i32 0, i8* getelementptr inbounds ([5 x i8]* @load_namestr, i32 0, i32 0)), !llfi_injectfault !25
  %83 = add nsw i32 %fi49, 1, !llfi_index !121
  %fi50 = call i32 @injectFault0(i64 120, i32 %83, i32 8, i32 0, i32 1, i32 0, i8* getelementptr inbounds ([4 x i8]* @add_namestr, i32 0, i32 0)), !llfi_injectfault !25
  store i32 %fi50, i32* %i, align 4, !llfi_index !122
  br label %51, !llfi_index !123

; <label>:84                                      ; preds = %51
  br label %85, !llfi_index !124

; <label>:85                                      ; preds = %84
  %86 = call %"struct.std::_Rb_tree_const_iterator"* @_ZNSt23_Rb_tree_const_iteratorIP4NodeEppEv(%"struct.std::_Rb_tree_const_iterator"* %__begin) #0, !llfi_index !125
  br label %35, !llfi_index !126

; <label>:87                                      ; preds = %35
  %88 = call %"class.std::set"* @_ZNSt3setIP4NodeSt4lessIS1_ESaIS1_EEaSERKS5_(%"class.std::set"* %frontier, %"class.std::set"* %next_frontier), !llfi_index !127
  call void @_ZNSt3setIP4NodeSt4lessIS1_ESaIS1_EED2Ev(%"class.std::set"* %next_frontier) #0, !llfi_index !128
  br label %25, !llfi_index !129

; <label>:89                                      ; preds = %25
  call void @_ZNSt3setIP4NodeSt4lessIS1_ESaIS1_EED2Ev(%"class.std::set"* %frontier) #0, !llfi_index !130
  call void @_ZNSt3setIP4NodeSt4lessIS1_ESaIS1_EED2Ev(%"class.std::set"* %visited) #0, !llfi_index !131
  br label %90, !llfi_index !132

; <label>:90                                      ; preds = %89, %11
  ret void, !llfi_index !133
}

; Function Attrs: nounwind uwtable
define linkonce_odr void @_ZNSt3setIP4NodeSt4lessIS1_ESaIS1_EEC2Ev(%"class.std::set"* %this) unnamed_addr #3 align 2 {
  %1 = alloca %"class.std::set"*, align 8, !llfi_index !134
  store %"class.std::set"* %this, %"class.std::set"** %1, align 8, !llfi_index !135
  %2 = load %"class.std::set"** %1, !llfi_index !136
  %fi = call %"class.std::set"* @injectFault1(i64 135, %"class.std::set"* %2, i32 27, i32 0, i32 1, i32 0, i8* getelementptr inbounds ([5 x i8]* @load_namestr, i32 0, i32 0)), !llfi_injectfault !25
  %3 = getelementptr %"class.std::set"* %fi, i32 0, i32 0, !llfi_index !137
  %fi1 = call %"class.std::_Rb_tree"* @injectFault19(i64 136, %"class.std::_Rb_tree"* %3, i32 29, i32 0, i32 1, i32 0, i8* getelementptr inbounds ([14 x i8]* @getelementptr_namestr, i32 0, i32 0)), !llfi_injectfault !25
  call void @_ZNSt8_Rb_treeIP4NodeS1_St9_IdentityIS1_ESt4lessIS1_ESaIS1_EEC2Ev(%"class.std::_Rb_tree"* %fi1), !llfi_index !138
  ret void, !llfi_index !139
}

; Function Attrs: nounwind uwtable
define linkonce_odr { %"struct.std::_Rb_tree_node_base"*, i8 } @_ZNSt3setIP4NodeSt4lessIS1_ESaIS1_EE6insertERKS1_(%"class.std::set"* %this, %struct.Node** %__x) #3 align 2 {
  %1 = alloca %"struct.std::pair", align 8, !llfi_index !140
  %2 = alloca %"class.std::set"*, align 8, !llfi_index !141
  %3 = alloca %struct.Node**, align 8, !llfi_index !142
  %__p = alloca %"struct.std::pair.7", align 8, !llfi_index !143
  store %"class.std::set"* %this, %"class.std::set"** %2, align 8, !llfi_index !144
  store %struct.Node** %__x, %struct.Node*** %3, align 8, !llfi_index !145
  %4 = load %"class.std::set"** %2, !llfi_index !146
  %fi = call %"class.std::set"* @injectFault1(i64 145, %"class.std::set"* %4, i32 27, i32 0, i32 1, i32 0, i8* getelementptr inbounds ([5 x i8]* @load_namestr, i32 0, i32 0)), !llfi_injectfault !25
  %5 = getelementptr %"class.std::set"* %fi, i32 0, i32 0, !llfi_index !147
  %fi1 = call %"class.std::_Rb_tree"* @injectFault19(i64 146, %"class.std::_Rb_tree"* %5, i32 29, i32 0, i32 1, i32 0, i8* getelementptr inbounds ([14 x i8]* @getelementptr_namestr, i32 0, i32 0)), !llfi_injectfault !25
  %6 = load %struct.Node*** %3, align 8, !llfi_index !148
  %fi2 = call %struct.Node** @injectFault11(i64 147, %struct.Node** %6, i32 27, i32 0, i32 1, i32 0, i8* getelementptr inbounds ([5 x i8]* @load_namestr, i32 0, i32 0)), !llfi_injectfault !25
  %7 = call { %"struct.std::_Rb_tree_node_base"*, i8 } @_ZNSt8_Rb_treeIP4NodeS1_St9_IdentityIS1_ESt4lessIS1_ESaIS1_EE16_M_insert_uniqueIRKS1_EESt4pairISt17_Rb_tree_iteratorIS1_EbEOT_(%"class.std::_Rb_tree"* %fi1, %struct.Node** %fi2), !llfi_index !149
  %8 = bitcast %"struct.std::pair.7"* %__p to { %"struct.std::_Rb_tree_node_base"*, i8 }*, !llfi_index !150
  %fi3 = call { %"struct.std::_Rb_tree_node_base"*, i8 }* @injectFault4(i64 149, { %"struct.std::_Rb_tree_node_base"*, i8 }* %8, i32 44, i32 0, i32 1, i32 0, i8* getelementptr inbounds ([8 x i8]* @bitcast_namestr, i32 0, i32 0)), !llfi_injectfault !25
  %9 = getelementptr { %"struct.std::_Rb_tree_node_base"*, i8 }* %fi3, i32 0, i32 0, !llfi_index !151
  %fi4 = call %"struct.std::_Rb_tree_node_base"** @injectFault5(i64 150, %"struct.std::_Rb_tree_node_base"** %9, i32 29, i32 0, i32 1, i32 0, i8* getelementptr inbounds ([14 x i8]* @getelementptr_namestr, i32 0, i32 0)), !llfi_injectfault !25
  %10 = extractvalue { %"struct.std::_Rb_tree_node_base"*, i8 } %7, 0, !llfi_index !152
  %fi5 = call %"struct.std::_Rb_tree_node_base"* @injectFault6(i64 151, %"struct.std::_Rb_tree_node_base"* %10, i32 57, i32 0, i32 1, i32 0, i8* getelementptr inbounds ([13 x i8]* @extractvalue_namestr, i32 0, i32 0)), !llfi_injectfault !25
  store %"struct.std::_Rb_tree_node_base"* %fi5, %"struct.std::_Rb_tree_node_base"** %fi4, align 1, !llfi_index !153
  %11 = getelementptr { %"struct.std::_Rb_tree_node_base"*, i8 }* %fi3, i32 0, i32 1, !llfi_index !154
  %fi6 = call i8* @injectFault7(i64 153, i8* %11, i32 29, i32 0, i32 1, i32 0, i8* getelementptr inbounds ([14 x i8]* @getelementptr_namestr, i32 0, i32 0)), !llfi_injectfault !25
  %12 = extractvalue { %"struct.std::_Rb_tree_node_base"*, i8 } %7, 1, !llfi_index !155
  %fi7 = call i8 @injectFault8(i64 154, i8 %12, i32 57, i32 0, i32 1, i32 0, i8* getelementptr inbounds ([13 x i8]* @extractvalue_namestr, i32 0, i32 0)), !llfi_injectfault !25
  store i8 %fi7, i8* %fi6, align 1, !llfi_index !156
  %13 = getelementptr %"struct.std::pair.7"* %__p, i32 0, i32 0, !llfi_index !157
  %fi8 = call %"struct.std::_Rb_tree_iterator"* @injectFault20(i64 156, %"struct.std::_Rb_tree_iterator"* %13, i32 29, i32 0, i32 1, i32 0, i8* getelementptr inbounds ([14 x i8]* @getelementptr_namestr, i32 0, i32 0)), !llfi_injectfault !25
  %14 = getelementptr %"struct.std::pair.7"* %__p, i32 0, i32 1, !llfi_index !158
  %fi9 = call i8* @injectFault7(i64 157, i8* %14, i32 29, i32 0, i32 1, i32 0, i8* getelementptr inbounds ([14 x i8]* @getelementptr_namestr, i32 0, i32 0)), !llfi_injectfault !25
  call void @_ZNSt4pairISt23_Rb_tree_const_iteratorIP4NodeEbEC2IRSt17_Rb_tree_iteratorIS2_ERbvEEOT_OT0_(%"struct.std::pair"* %1, %"struct.std::_Rb_tree_iterator"* %fi8, i8* %fi9), !llfi_index !159
  %15 = bitcast %"struct.std::pair"* %1 to { %"struct.std::_Rb_tree_node_base"*, i8 }*, !llfi_index !160
  %fi10 = call { %"struct.std::_Rb_tree_node_base"*, i8 }* @injectFault4(i64 159, { %"struct.std::_Rb_tree_node_base"*, i8 }* %15, i32 44, i32 0, i32 1, i32 0, i8* getelementptr inbounds ([8 x i8]* @bitcast_namestr, i32 0, i32 0)), !llfi_injectfault !25
  %16 = load { %"struct.std::_Rb_tree_node_base"*, i8 }* %fi10, align 1, !llfi_index !161
  %fi11 = call { %"struct.std::_Rb_tree_node_base"*, i8 } @injectFault21(i64 160, { %"struct.std::_Rb_tree_node_base"*, i8 } %16, i32 27, i32 0, i32 1, i32 0, i8* getelementptr inbounds ([5 x i8]* @load_namestr, i32 0, i32 0)), !llfi_injectfault !25
  ret { %"struct.std::_Rb_tree_node_base"*, i8 } %fi11, !llfi_index !162
}

; Function Attrs: nounwind uwtable
define linkonce_odr zeroext i1 @_ZNKSt3setIP4NodeSt4lessIS1_ESaIS1_EE5emptyEv(%"class.std::set"* %this) #3 align 2 {
  %1 = alloca %"class.std::set"*, align 8, !llfi_index !163
  store %"class.std::set"* %this, %"class.std::set"** %1, align 8, !llfi_index !164
  %2 = load %"class.std::set"** %1, !llfi_index !165
  %fi = call %"class.std::set"* @injectFault1(i64 164, %"class.std::set"* %2, i32 27, i32 0, i32 1, i32 0, i8* getelementptr inbounds ([5 x i8]* @load_namestr, i32 0, i32 0)), !llfi_injectfault !25
  %3 = getelementptr %"class.std::set"* %fi, i32 0, i32 0, !llfi_index !166
  %fi1 = call %"class.std::_Rb_tree"* @injectFault19(i64 165, %"class.std::_Rb_tree"* %3, i32 29, i32 0, i32 1, i32 0, i8* getelementptr inbounds ([14 x i8]* @getelementptr_namestr, i32 0, i32 0)), !llfi_injectfault !25
  %4 = call zeroext i1 @_ZNKSt8_Rb_treeIP4NodeS1_St9_IdentityIS1_ESt4lessIS1_ESaIS1_EE5emptyEv(%"class.std::_Rb_tree"* %fi1) #0, !llfi_index !167
  ret i1 %4, !llfi_index !168
}

; Function Attrs: nounwind uwtable
define linkonce_odr %"struct.std::_Rb_tree_node_base"* @_ZNKSt3setIP4NodeSt4lessIS1_ESaIS1_EE5beginEv(%"class.std::set"* %this) #3 align 2 {
  %1 = alloca %"struct.std::_Rb_tree_const_iterator", align 8, !llfi_index !169
  %2 = alloca %"class.std::set"*, align 8, !llfi_index !170
  store %"class.std::set"* %this, %"class.std::set"** %2, align 8, !llfi_index !171
  %3 = load %"class.std::set"** %2, !llfi_index !172
  %fi = call %"class.std::set"* @injectFault1(i64 171, %"class.std::set"* %3, i32 27, i32 0, i32 1, i32 0, i8* getelementptr inbounds ([5 x i8]* @load_namestr, i32 0, i32 0)), !llfi_injectfault !25
  %4 = getelementptr %"class.std::set"* %fi, i32 0, i32 0, !llfi_index !173
  %fi1 = call %"class.std::_Rb_tree"* @injectFault19(i64 172, %"class.std::_Rb_tree"* %4, i32 29, i32 0, i32 1, i32 0, i8* getelementptr inbounds ([14 x i8]* @getelementptr_namestr, i32 0, i32 0)), !llfi_injectfault !25
  %5 = call %"struct.std::_Rb_tree_node_base"* @_ZNKSt8_Rb_treeIP4NodeS1_St9_IdentityIS1_ESt4lessIS1_ESaIS1_EE5beginEv(%"class.std::_Rb_tree"* %fi1) #0, !llfi_index !174
  %6 = getelementptr %"struct.std::_Rb_tree_const_iterator"* %1, i32 0, i32 0, !llfi_index !175
  %fi2 = call %"struct.std::_Rb_tree_node_base"** @injectFault5(i64 174, %"struct.std::_Rb_tree_node_base"** %6, i32 29, i32 0, i32 1, i32 0, i8* getelementptr inbounds ([14 x i8]* @getelementptr_namestr, i32 0, i32 0)), !llfi_injectfault !25
  store %"struct.std::_Rb_tree_node_base"* %5, %"struct.std::_Rb_tree_node_base"** %fi2, !llfi_index !176
  %7 = getelementptr %"struct.std::_Rb_tree_const_iterator"* %1, i32 0, i32 0, !llfi_index !177
  %fi3 = call %"struct.std::_Rb_tree_node_base"** @injectFault5(i64 176, %"struct.std::_Rb_tree_node_base"** %7, i32 29, i32 0, i32 1, i32 0, i8* getelementptr inbounds ([14 x i8]* @getelementptr_namestr, i32 0, i32 0)), !llfi_injectfault !25
  %8 = load %"struct.std::_Rb_tree_node_base"** %fi3, !llfi_index !178
  %fi4 = call %"struct.std::_Rb_tree_node_base"* @injectFault6(i64 177, %"struct.std::_Rb_tree_node_base"* %8, i32 27, i32 0, i32 1, i32 0, i8* getelementptr inbounds ([5 x i8]* @load_namestr, i32 0, i32 0)), !llfi_injectfault !25
  ret %"struct.std::_Rb_tree_node_base"* %fi4, !llfi_index !179
}

; Function Attrs: nounwind uwtable
define linkonce_odr %"struct.std::_Rb_tree_node_base"* @_ZNKSt3setIP4NodeSt4lessIS1_ESaIS1_EE3endEv(%"class.std::set"* %this) #3 align 2 {
  %1 = alloca %"struct.std::_Rb_tree_const_iterator", align 8, !llfi_index !180
  %2 = alloca %"class.std::set"*, align 8, !llfi_index !181
  store %"class.std::set"* %this, %"class.std::set"** %2, align 8, !llfi_index !182
  %3 = load %"class.std::set"** %2, !llfi_index !183
  %fi = call %"class.std::set"* @injectFault1(i64 182, %"class.std::set"* %3, i32 27, i32 0, i32 1, i32 0, i8* getelementptr inbounds ([5 x i8]* @load_namestr, i32 0, i32 0)), !llfi_injectfault !25
  %4 = getelementptr %"class.std::set"* %fi, i32 0, i32 0, !llfi_index !184
  %fi1 = call %"class.std::_Rb_tree"* @injectFault19(i64 183, %"class.std::_Rb_tree"* %4, i32 29, i32 0, i32 1, i32 0, i8* getelementptr inbounds ([14 x i8]* @getelementptr_namestr, i32 0, i32 0)), !llfi_injectfault !25
  %5 = call %"struct.std::_Rb_tree_node_base"* @_ZNKSt8_Rb_treeIP4NodeS1_St9_IdentityIS1_ESt4lessIS1_ESaIS1_EE3endEv(%"class.std::_Rb_tree"* %fi1) #0, !llfi_index !185
  %6 = getelementptr %"struct.std::_Rb_tree_const_iterator"* %1, i32 0, i32 0, !llfi_index !186
  %fi2 = call %"struct.std::_Rb_tree_node_base"** @injectFault5(i64 185, %"struct.std::_Rb_tree_node_base"** %6, i32 29, i32 0, i32 1, i32 0, i8* getelementptr inbounds ([14 x i8]* @getelementptr_namestr, i32 0, i32 0)), !llfi_injectfault !25
  store %"struct.std::_Rb_tree_node_base"* %5, %"struct.std::_Rb_tree_node_base"** %fi2, !llfi_index !187
  %7 = getelementptr %"struct.std::_Rb_tree_const_iterator"* %1, i32 0, i32 0, !llfi_index !188
  %fi3 = call %"struct.std::_Rb_tree_node_base"** @injectFault5(i64 187, %"struct.std::_Rb_tree_node_base"** %7, i32 29, i32 0, i32 1, i32 0, i8* getelementptr inbounds ([14 x i8]* @getelementptr_namestr, i32 0, i32 0)), !llfi_injectfault !25
  %8 = load %"struct.std::_Rb_tree_node_base"** %fi3, !llfi_index !189
  %fi4 = call %"struct.std::_Rb_tree_node_base"* @injectFault6(i64 188, %"struct.std::_Rb_tree_node_base"* %8, i32 27, i32 0, i32 1, i32 0, i8* getelementptr inbounds ([5 x i8]* @load_namestr, i32 0, i32 0)), !llfi_injectfault !25
  ret %"struct.std::_Rb_tree_node_base"* %fi4, !llfi_index !190
}

; Function Attrs: nounwind uwtable
define linkonce_odr zeroext i1 @_ZNKSt23_Rb_tree_const_iteratorIP4NodeEneERKS2_(%"struct.std::_Rb_tree_const_iterator"* %this, %"struct.std::_Rb_tree_const_iterator"* %__x) #3 align 2 {
  %1 = alloca %"struct.std::_Rb_tree_const_iterator"*, align 8, !llfi_index !191
  %2 = alloca %"struct.std::_Rb_tree_const_iterator"*, align 8, !llfi_index !192
  store %"struct.std::_Rb_tree_const_iterator"* %this, %"struct.std::_Rb_tree_const_iterator"** %1, align 8, !llfi_index !193
  store %"struct.std::_Rb_tree_const_iterator"* %__x, %"struct.std::_Rb_tree_const_iterator"** %2, align 8, !llfi_index !194
  %3 = load %"struct.std::_Rb_tree_const_iterator"** %1, !llfi_index !195
  %fi = call %"struct.std::_Rb_tree_const_iterator"* @injectFault13(i64 194, %"struct.std::_Rb_tree_const_iterator"* %3, i32 27, i32 0, i32 1, i32 0, i8* getelementptr inbounds ([5 x i8]* @load_namestr, i32 0, i32 0)), !llfi_injectfault !25
  %4 = getelementptr %"struct.std::_Rb_tree_const_iterator"* %fi, i32 0, i32 0, !llfi_index !196
  %fi1 = call %"struct.std::_Rb_tree_node_base"** @injectFault5(i64 195, %"struct.std::_Rb_tree_node_base"** %4, i32 29, i32 0, i32 1, i32 0, i8* getelementptr inbounds ([14 x i8]* @getelementptr_namestr, i32 0, i32 0)), !llfi_injectfault !25
  %5 = load %"struct.std::_Rb_tree_node_base"** %fi1, align 8, !llfi_index !197
  %fi2 = call %"struct.std::_Rb_tree_node_base"* @injectFault6(i64 196, %"struct.std::_Rb_tree_node_base"* %5, i32 27, i32 0, i32 1, i32 0, i8* getelementptr inbounds ([5 x i8]* @load_namestr, i32 0, i32 0)), !llfi_injectfault !25
  %6 = load %"struct.std::_Rb_tree_const_iterator"** %2, align 8, !llfi_index !198
  %fi3 = call %"struct.std::_Rb_tree_const_iterator"* @injectFault13(i64 197, %"struct.std::_Rb_tree_const_iterator"* %6, i32 27, i32 0, i32 1, i32 0, i8* getelementptr inbounds ([5 x i8]* @load_namestr, i32 0, i32 0)), !llfi_injectfault !25
  %7 = getelementptr %"struct.std::_Rb_tree_const_iterator"* %fi3, i32 0, i32 0, !llfi_index !199
  %fi4 = call %"struct.std::_Rb_tree_node_base"** @injectFault5(i64 198, %"struct.std::_Rb_tree_node_base"** %7, i32 29, i32 0, i32 1, i32 0, i8* getelementptr inbounds ([14 x i8]* @getelementptr_namestr, i32 0, i32 0)), !llfi_injectfault !25
  %8 = load %"struct.std::_Rb_tree_node_base"** %fi4, align 8, !llfi_index !200
  %fi5 = call %"struct.std::_Rb_tree_node_base"* @injectFault6(i64 199, %"struct.std::_Rb_tree_node_base"* %8, i32 27, i32 0, i32 1, i32 0, i8* getelementptr inbounds ([5 x i8]* @load_namestr, i32 0, i32 0)), !llfi_injectfault !25
  %9 = icmp ne %"struct.std::_Rb_tree_node_base"* %fi2, %fi5, !llfi_index !201
  %fi6 = call i1 @injectFault3(i64 200, i1 %9, i32 46, i32 0, i32 1, i32 0, i8* getelementptr inbounds ([5 x i8]* @icmp_namestr, i32 0, i32 0)), !llfi_injectfault !25
  ret i1 %fi6, !llfi_index !202
}

; Function Attrs: nounwind uwtable
define linkonce_odr %struct.Node** @_ZNKSt23_Rb_tree_const_iteratorIP4NodeEdeEv(%"struct.std::_Rb_tree_const_iterator"* %this) #3 align 2 {
  %1 = alloca %"struct.std::_Rb_tree_const_iterator"*, align 8, !llfi_index !203
  store %"struct.std::_Rb_tree_const_iterator"* %this, %"struct.std::_Rb_tree_const_iterator"** %1, align 8, !llfi_index !204
  %2 = load %"struct.std::_Rb_tree_const_iterator"** %1, !llfi_index !205
  %fi = call %"struct.std::_Rb_tree_const_iterator"* @injectFault13(i64 204, %"struct.std::_Rb_tree_const_iterator"* %2, i32 27, i32 0, i32 1, i32 0, i8* getelementptr inbounds ([5 x i8]* @load_namestr, i32 0, i32 0)), !llfi_injectfault !25
  %3 = getelementptr %"struct.std::_Rb_tree_const_iterator"* %fi, i32 0, i32 0, !llfi_index !206
  %fi1 = call %"struct.std::_Rb_tree_node_base"** @injectFault5(i64 205, %"struct.std::_Rb_tree_node_base"** %3, i32 29, i32 0, i32 1, i32 0, i8* getelementptr inbounds ([14 x i8]* @getelementptr_namestr, i32 0, i32 0)), !llfi_injectfault !25
  %4 = load %"struct.std::_Rb_tree_node_base"** %fi1, align 8, !llfi_index !207
  %fi2 = call %"struct.std::_Rb_tree_node_base"* @injectFault6(i64 206, %"struct.std::_Rb_tree_node_base"* %4, i32 27, i32 0, i32 1, i32 0, i8* getelementptr inbounds ([5 x i8]* @load_namestr, i32 0, i32 0)), !llfi_injectfault !25
  %5 = bitcast %"struct.std::_Rb_tree_node_base"* %fi2 to %"struct.std::_Rb_tree_node"*, !llfi_index !208
  %fi3 = call %"struct.std::_Rb_tree_node"* @injectFault14(i64 207, %"struct.std::_Rb_tree_node"* %5, i32 44, i32 0, i32 1, i32 0, i8* getelementptr inbounds ([8 x i8]* @bitcast_namestr, i32 0, i32 0)), !llfi_injectfault !25
  %6 = call %struct.Node** @_ZNKSt13_Rb_tree_nodeIP4NodeE9_M_valptrEv(%"struct.std::_Rb_tree_node"* %fi3), !llfi_index !209
  ret %struct.Node** %6, !llfi_index !210
}

; Function Attrs: nounwind uwtable
define linkonce_odr void @_ZNSt6vectorIiSaIiEE9push_backERKi(%"class.std::vector"* %this, i32* %__x) #3 align 2 {
  %1 = alloca %"class.std::vector"*, align 8, !llfi_index !211
  %2 = alloca i32*, align 8, !llfi_index !212
  store %"class.std::vector"* %this, %"class.std::vector"** %1, align 8, !llfi_index !213
  store i32* %__x, i32** %2, align 8, !llfi_index !214
  %3 = load %"class.std::vector"** %1, !llfi_index !215
  %fi = call %"class.std::vector"* @injectFault9(i64 214, %"class.std::vector"* %3, i32 27, i32 0, i32 1, i32 0, i8* getelementptr inbounds ([5 x i8]* @load_namestr, i32 0, i32 0)), !llfi_injectfault !25
  %4 = bitcast %"class.std::vector"* %fi to %"struct.std::_Vector_base"*, !llfi_index !216
  %fi1 = call %"struct.std::_Vector_base"* @injectFault15(i64 215, %"struct.std::_Vector_base"* %4, i32 44, i32 0, i32 1, i32 0, i8* getelementptr inbounds ([8 x i8]* @bitcast_namestr, i32 0, i32 0)), !llfi_injectfault !25
  %5 = getelementptr %"struct.std::_Vector_base"* %fi1, i32 0, i32 0, !llfi_index !217
  %fi2 = call %"struct.std::_Vector_base<int, std::allocator<int> >::_Vector_impl"* @injectFault16(i64 216, %"struct.std::_Vector_base<int, std::allocator<int> >::_Vector_impl"* %5, i32 29, i32 0, i32 1, i32 0, i8* getelementptr inbounds ([14 x i8]* @getelementptr_namestr, i32 0, i32 0)), !llfi_injectfault !25
  %6 = getelementptr %"struct.std::_Vector_base<int, std::allocator<int> >::_Vector_impl"* %fi2, i32 0, i32 1, !llfi_index !218
  %fi3 = call i32** @injectFault17(i64 217, i32** %6, i32 29, i32 0, i32 1, i32 0, i8* getelementptr inbounds ([14 x i8]* @getelementptr_namestr, i32 0, i32 0)), !llfi_injectfault !25
  %7 = load i32** %fi3, align 8, !llfi_index !219
  %fi4 = call i32* @injectFault10(i64 218, i32* %7, i32 27, i32 0, i32 1, i32 0, i8* getelementptr inbounds ([5 x i8]* @load_namestr, i32 0, i32 0)), !llfi_injectfault !25
  %8 = bitcast %"class.std::vector"* %fi to %"struct.std::_Vector_base"*, !llfi_index !220
  %fi5 = call %"struct.std::_Vector_base"* @injectFault15(i64 219, %"struct.std::_Vector_base"* %8, i32 44, i32 0, i32 1, i32 0, i8* getelementptr inbounds ([8 x i8]* @bitcast_namestr, i32 0, i32 0)), !llfi_injectfault !25
  %9 = getelementptr %"struct.std::_Vector_base"* %fi5, i32 0, i32 0, !llfi_index !221
  %fi7 = call %"struct.std::_Vector_base<int, std::allocator<int> >::_Vector_impl"* @injectFault16(i64 220, %"struct.std::_Vector_base<int, std::allocator<int> >::_Vector_impl"* %9, i32 29, i32 0, i32 1, i32 0, i8* getelementptr inbounds ([14 x i8]* @getelementptr_namestr, i32 0, i32 0)), !llfi_injectfault !25
  %10 = getelementptr %"struct.std::_Vector_base<int, std::allocator<int> >::_Vector_impl"* %fi7, i32 0, i32 2, !llfi_index !222
  %fi8 = call i32** @injectFault17(i64 221, i32** %10, i32 29, i32 0, i32 1, i32 0, i8* getelementptr inbounds ([14 x i8]* @getelementptr_namestr, i32 0, i32 0)), !llfi_injectfault !25
  %11 = load i32** %fi8, align 8, !llfi_index !223
  %fi9 = call i32* @injectFault10(i64 222, i32* %11, i32 27, i32 0, i32 1, i32 0, i8* getelementptr inbounds ([5 x i8]* @load_namestr, i32 0, i32 0)), !llfi_injectfault !25
  %12 = icmp ne i32* %fi4, %fi9, !llfi_index !224
  %fi10 = call i1 @injectFault3(i64 223, i1 %12, i32 46, i32 0, i32 1, i32 0, i8* getelementptr inbounds ([5 x i8]* @icmp_namestr, i32 0, i32 0)), !llfi_injectfault !25
  br i1 %fi10, label %13, label %27, !llfi_index !225

; <label>:13                                      ; preds = %0
  %14 = bitcast %"class.std::vector"* %fi to %"struct.std::_Vector_base"*, !llfi_index !226
  %fi11 = call %"struct.std::_Vector_base"* @injectFault15(i64 225, %"struct.std::_Vector_base"* %14, i32 44, i32 0, i32 1, i32 0, i8* getelementptr inbounds ([8 x i8]* @bitcast_namestr, i32 0, i32 0)), !llfi_injectfault !25
  %15 = getelementptr %"struct.std::_Vector_base"* %fi11, i32 0, i32 0, !llfi_index !227
  %fi12 = call %"struct.std::_Vector_base<int, std::allocator<int> >::_Vector_impl"* @injectFault16(i64 226, %"struct.std::_Vector_base<int, std::allocator<int> >::_Vector_impl"* %15, i32 29, i32 0, i32 1, i32 0, i8* getelementptr inbounds ([14 x i8]* @getelementptr_namestr, i32 0, i32 0)), !llfi_injectfault !25
  %16 = bitcast %"struct.std::_Vector_base<int, std::allocator<int> >::_Vector_impl"* %fi12 to %"class.std::allocator"*, !llfi_index !228
  %fi13 = call %"class.std::allocator"* @injectFault18(i64 227, %"class.std::allocator"* %16, i32 44, i32 0, i32 1, i32 0, i8* getelementptr inbounds ([8 x i8]* @bitcast_namestr, i32 0, i32 0)), !llfi_injectfault !25
  %17 = bitcast %"class.std::vector"* %fi to %"struct.std::_Vector_base"*, !llfi_index !229
  %fi6 = call %"struct.std::_Vector_base"* @injectFault15(i64 228, %"struct.std::_Vector_base"* %17, i32 44, i32 0, i32 1, i32 0, i8* getelementptr inbounds ([8 x i8]* @bitcast_namestr, i32 0, i32 0)), !llfi_injectfault !25
  %18 = getelementptr %"struct.std::_Vector_base"* %fi6, i32 0, i32 0, !llfi_index !230
  %fi15 = call %"struct.std::_Vector_base<int, std::allocator<int> >::_Vector_impl"* @injectFault16(i64 229, %"struct.std::_Vector_base<int, std::allocator<int> >::_Vector_impl"* %18, i32 29, i32 0, i32 1, i32 0, i8* getelementptr inbounds ([14 x i8]* @getelementptr_namestr, i32 0, i32 0)), !llfi_injectfault !25
  %19 = getelementptr %"struct.std::_Vector_base<int, std::allocator<int> >::_Vector_impl"* %fi15, i32 0, i32 1, !llfi_index !231
  %fi16 = call i32** @injectFault17(i64 230, i32** %19, i32 29, i32 0, i32 1, i32 0, i8* getelementptr inbounds ([14 x i8]* @getelementptr_namestr, i32 0, i32 0)), !llfi_injectfault !25
  %20 = load i32** %fi16, align 8, !llfi_index !232
  %fi14 = call i32* @injectFault10(i64 231, i32* %20, i32 27, i32 0, i32 1, i32 0, i8* getelementptr inbounds ([5 x i8]* @load_namestr, i32 0, i32 0)), !llfi_injectfault !25
  %21 = load i32** %2, align 8, !llfi_index !233
  %fi17 = call i32* @injectFault10(i64 232, i32* %21, i32 27, i32 0, i32 1, i32 0, i8* getelementptr inbounds ([5 x i8]* @load_namestr, i32 0, i32 0)), !llfi_injectfault !25
  call void @_ZNSt16allocator_traitsISaIiEE9constructIiJRKiEEEvRS0_PT_DpOT0_(%"class.std::allocator"* %fi13, i32* %fi14, i32* %fi17), !llfi_index !234
  %22 = bitcast %"class.std::vector"* %fi to %"struct.std::_Vector_base"*, !llfi_index !235
  %fi18 = call %"struct.std::_Vector_base"* @injectFault15(i64 234, %"struct.std::_Vector_base"* %22, i32 44, i32 0, i32 1, i32 0, i8* getelementptr inbounds ([8 x i8]* @bitcast_namestr, i32 0, i32 0)), !llfi_injectfault !25
  %23 = getelementptr %"struct.std::_Vector_base"* %fi18, i32 0, i32 0, !llfi_index !236
  %fi19 = call %"struct.std::_Vector_base<int, std::allocator<int> >::_Vector_impl"* @injectFault16(i64 235, %"struct.std::_Vector_base<int, std::allocator<int> >::_Vector_impl"* %23, i32 29, i32 0, i32 1, i32 0, i8* getelementptr inbounds ([14 x i8]* @getelementptr_namestr, i32 0, i32 0)), !llfi_injectfault !25
  %24 = getelementptr %"struct.std::_Vector_base<int, std::allocator<int> >::_Vector_impl"* %fi19, i32 0, i32 1, !llfi_index !237
  %fi20 = call i32** @injectFault17(i64 236, i32** %24, i32 29, i32 0, i32 1, i32 0, i8* getelementptr inbounds ([14 x i8]* @getelementptr_namestr, i32 0, i32 0)), !llfi_injectfault !25
  %25 = load i32** %fi20, align 8, !llfi_index !238
  %fi21 = call i32* @injectFault10(i64 237, i32* %25, i32 27, i32 0, i32 1, i32 0, i8* getelementptr inbounds ([5 x i8]* @load_namestr, i32 0, i32 0)), !llfi_injectfault !25
  %26 = getelementptr i32* %fi21, i32 1, !llfi_index !239
  %fi22 = call i32* @injectFault10(i64 238, i32* %26, i32 29, i32 0, i32 1, i32 0, i8* getelementptr inbounds ([14 x i8]* @getelementptr_namestr, i32 0, i32 0)), !llfi_injectfault !25
  store i32* %fi22, i32** %fi20, align 8, !llfi_index !240
  br label %29, !llfi_index !241

; <label>:27                                      ; preds = %0
  %28 = load i32** %2, align 8, !llfi_index !242
  %fi23 = call i32* @injectFault10(i64 241, i32* %28, i32 27, i32 0, i32 1, i32 0, i8* getelementptr inbounds ([5 x i8]* @load_namestr, i32 0, i32 0)), !llfi_injectfault !25
  call void @_ZNSt6vectorIiSaIiEE19_M_emplace_back_auxIJRKiEEEvDpOT_(%"class.std::vector"* %fi, i32* %fi23), !llfi_index !243
  br label %29, !llfi_index !244

; <label>:29                                      ; preds = %27, %13
  ret void, !llfi_index !245
}

; Function Attrs: nounwind uwtable
define linkonce_odr %"struct.std::_Rb_tree_node_base"* @_ZNSt3setIP4NodeSt4lessIS1_ESaIS1_EE4findERKS1_(%"class.std::set"* %this, %struct.Node** %__x) #3 align 2 {
  %1 = alloca %"struct.std::_Rb_tree_const_iterator", align 8, !llfi_index !246
  %2 = alloca %"class.std::set"*, align 8, !llfi_index !247
  %3 = alloca %struct.Node**, align 8, !llfi_index !248
  %4 = alloca %"struct.std::_Rb_tree_iterator", align 8, !llfi_index !249
  store %"class.std::set"* %this, %"class.std::set"** %2, align 8, !llfi_index !250
  store %struct.Node** %__x, %struct.Node*** %3, align 8, !llfi_index !251
  %5 = load %"class.std::set"** %2, !llfi_index !252
  %fi = call %"class.std::set"* @injectFault1(i64 251, %"class.std::set"* %5, i32 27, i32 0, i32 1, i32 0, i8* getelementptr inbounds ([5 x i8]* @load_namestr, i32 0, i32 0)), !llfi_injectfault !25
  %6 = getelementptr %"class.std::set"* %fi, i32 0, i32 0, !llfi_index !253
  %fi1 = call %"class.std::_Rb_tree"* @injectFault19(i64 252, %"class.std::_Rb_tree"* %6, i32 29, i32 0, i32 1, i32 0, i8* getelementptr inbounds ([14 x i8]* @getelementptr_namestr, i32 0, i32 0)), !llfi_injectfault !25
  %7 = load %struct.Node*** %3, align 8, !llfi_index !254
  %fi2 = call %struct.Node** @injectFault11(i64 253, %struct.Node** %7, i32 27, i32 0, i32 1, i32 0, i8* getelementptr inbounds ([5 x i8]* @load_namestr, i32 0, i32 0)), !llfi_injectfault !25
  %8 = call %"struct.std::_Rb_tree_node_base"* @_ZNSt8_Rb_treeIP4NodeS1_St9_IdentityIS1_ESt4lessIS1_ESaIS1_EE4findERKS1_(%"class.std::_Rb_tree"* %fi1, %struct.Node** %fi2), !llfi_index !255
  %9 = getelementptr %"struct.std::_Rb_tree_iterator"* %4, i32 0, i32 0, !llfi_index !256
  %fi3 = call %"struct.std::_Rb_tree_node_base"** @injectFault5(i64 255, %"struct.std::_Rb_tree_node_base"** %9, i32 29, i32 0, i32 1, i32 0, i8* getelementptr inbounds ([14 x i8]* @getelementptr_namestr, i32 0, i32 0)), !llfi_injectfault !25
  store %"struct.std::_Rb_tree_node_base"* %8, %"struct.std::_Rb_tree_node_base"** %fi3, !llfi_index !257
  call void @_ZNSt23_Rb_tree_const_iteratorIP4NodeEC2ERKSt17_Rb_tree_iteratorIS1_E(%"struct.std::_Rb_tree_const_iterator"* %1, %"struct.std::_Rb_tree_iterator"* %4) #0, !llfi_index !258
  %10 = getelementptr %"struct.std::_Rb_tree_const_iterator"* %1, i32 0, i32 0, !llfi_index !259
  %fi4 = call %"struct.std::_Rb_tree_node_base"** @injectFault5(i64 258, %"struct.std::_Rb_tree_node_base"** %10, i32 29, i32 0, i32 1, i32 0, i8* getelementptr inbounds ([14 x i8]* @getelementptr_namestr, i32 0, i32 0)), !llfi_injectfault !25
  %11 = load %"struct.std::_Rb_tree_node_base"** %fi4, !llfi_index !260
  %fi5 = call %"struct.std::_Rb_tree_node_base"* @injectFault6(i64 259, %"struct.std::_Rb_tree_node_base"* %11, i32 27, i32 0, i32 1, i32 0, i8* getelementptr inbounds ([5 x i8]* @load_namestr, i32 0, i32 0)), !llfi_injectfault !25
  ret %"struct.std::_Rb_tree_node_base"* %fi5, !llfi_index !261
}

; Function Attrs: nounwind uwtable
define linkonce_odr zeroext i1 @_ZNKSt23_Rb_tree_const_iteratorIP4NodeEeqERKS2_(%"struct.std::_Rb_tree_const_iterator"* %this, %"struct.std::_Rb_tree_const_iterator"* %__x) #3 align 2 {
  %1 = alloca %"struct.std::_Rb_tree_const_iterator"*, align 8, !llfi_index !262
  %2 = alloca %"struct.std::_Rb_tree_const_iterator"*, align 8, !llfi_index !263
  store %"struct.std::_Rb_tree_const_iterator"* %this, %"struct.std::_Rb_tree_const_iterator"** %1, align 8, !llfi_index !264
  store %"struct.std::_Rb_tree_const_iterator"* %__x, %"struct.std::_Rb_tree_const_iterator"** %2, align 8, !llfi_index !265
  %3 = load %"struct.std::_Rb_tree_const_iterator"** %1, !llfi_index !266
  %fi = call %"struct.std::_Rb_tree_const_iterator"* @injectFault13(i64 265, %"struct.std::_Rb_tree_const_iterator"* %3, i32 27, i32 0, i32 1, i32 0, i8* getelementptr inbounds ([5 x i8]* @load_namestr, i32 0, i32 0)), !llfi_injectfault !25
  %4 = getelementptr %"struct.std::_Rb_tree_const_iterator"* %fi, i32 0, i32 0, !llfi_index !267
  %fi1 = call %"struct.std::_Rb_tree_node_base"** @injectFault5(i64 266, %"struct.std::_Rb_tree_node_base"** %4, i32 29, i32 0, i32 1, i32 0, i8* getelementptr inbounds ([14 x i8]* @getelementptr_namestr, i32 0, i32 0)), !llfi_injectfault !25
  %5 = load %"struct.std::_Rb_tree_node_base"** %fi1, align 8, !llfi_index !268
  %fi2 = call %"struct.std::_Rb_tree_node_base"* @injectFault6(i64 267, %"struct.std::_Rb_tree_node_base"* %5, i32 27, i32 0, i32 1, i32 0, i8* getelementptr inbounds ([5 x i8]* @load_namestr, i32 0, i32 0)), !llfi_injectfault !25
  %6 = load %"struct.std::_Rb_tree_const_iterator"** %2, align 8, !llfi_index !269
  %fi3 = call %"struct.std::_Rb_tree_const_iterator"* @injectFault13(i64 268, %"struct.std::_Rb_tree_const_iterator"* %6, i32 27, i32 0, i32 1, i32 0, i8* getelementptr inbounds ([5 x i8]* @load_namestr, i32 0, i32 0)), !llfi_injectfault !25
  %7 = getelementptr %"struct.std::_Rb_tree_const_iterator"* %fi3, i32 0, i32 0, !llfi_index !270
  %fi4 = call %"struct.std::_Rb_tree_node_base"** @injectFault5(i64 269, %"struct.std::_Rb_tree_node_base"** %7, i32 29, i32 0, i32 1, i32 0, i8* getelementptr inbounds ([14 x i8]* @getelementptr_namestr, i32 0, i32 0)), !llfi_injectfault !25
  %8 = load %"struct.std::_Rb_tree_node_base"** %fi4, align 8, !llfi_index !271
  %fi5 = call %"struct.std::_Rb_tree_node_base"* @injectFault6(i64 270, %"struct.std::_Rb_tree_node_base"* %8, i32 27, i32 0, i32 1, i32 0, i8* getelementptr inbounds ([5 x i8]* @load_namestr, i32 0, i32 0)), !llfi_injectfault !25
  %9 = icmp eq %"struct.std::_Rb_tree_node_base"* %fi2, %fi5, !llfi_index !272
  %fi6 = call i1 @injectFault3(i64 271, i1 %9, i32 46, i32 0, i32 1, i32 0, i8* getelementptr inbounds ([5 x i8]* @icmp_namestr, i32 0, i32 0)), !llfi_injectfault !25
  ret i1 %fi6, !llfi_index !273
}

; Function Attrs: nounwind uwtable
define linkonce_odr %"struct.std::_Rb_tree_const_iterator"* @_ZNSt23_Rb_tree_const_iteratorIP4NodeEppEv(%"struct.std::_Rb_tree_const_iterator"* %this) #3 align 2 {
  %1 = alloca %"struct.std::_Rb_tree_const_iterator"*, align 8, !llfi_index !274
  store %"struct.std::_Rb_tree_const_iterator"* %this, %"struct.std::_Rb_tree_const_iterator"** %1, align 8, !llfi_index !275
  %2 = load %"struct.std::_Rb_tree_const_iterator"** %1, !llfi_index !276
  %fi = call %"struct.std::_Rb_tree_const_iterator"* @injectFault13(i64 275, %"struct.std::_Rb_tree_const_iterator"* %2, i32 27, i32 0, i32 1, i32 0, i8* getelementptr inbounds ([5 x i8]* @load_namestr, i32 0, i32 0)), !llfi_injectfault !25
  %3 = getelementptr %"struct.std::_Rb_tree_const_iterator"* %fi, i32 0, i32 0, !llfi_index !277
  %fi1 = call %"struct.std::_Rb_tree_node_base"** @injectFault5(i64 276, %"struct.std::_Rb_tree_node_base"** %3, i32 29, i32 0, i32 1, i32 0, i8* getelementptr inbounds ([14 x i8]* @getelementptr_namestr, i32 0, i32 0)), !llfi_injectfault !25
  %4 = load %"struct.std::_Rb_tree_node_base"** %fi1, align 8, !llfi_index !278
  %fi2 = call %"struct.std::_Rb_tree_node_base"* @injectFault6(i64 277, %"struct.std::_Rb_tree_node_base"* %4, i32 27, i32 0, i32 1, i32 0, i8* getelementptr inbounds ([5 x i8]* @load_namestr, i32 0, i32 0)), !llfi_injectfault !25
  %5 = call %"struct.std::_Rb_tree_node_base"* @_ZSt18_Rb_tree_incrementPKSt18_Rb_tree_node_base(%"struct.std::_Rb_tree_node_base"* %fi2) #9, !llfi_index !279
  %6 = getelementptr %"struct.std::_Rb_tree_const_iterator"* %fi, i32 0, i32 0, !llfi_index !280
  %fi3 = call %"struct.std::_Rb_tree_node_base"** @injectFault5(i64 279, %"struct.std::_Rb_tree_node_base"** %6, i32 29, i32 0, i32 1, i32 0, i8* getelementptr inbounds ([14 x i8]* @getelementptr_namestr, i32 0, i32 0)), !llfi_injectfault !25
  store %"struct.std::_Rb_tree_node_base"* %5, %"struct.std::_Rb_tree_node_base"** %fi3, align 8, !llfi_index !281
  ret %"struct.std::_Rb_tree_const_iterator"* %fi, !llfi_index !282
}

; Function Attrs: nounwind uwtable
define linkonce_odr %"class.std::set"* @_ZNSt3setIP4NodeSt4lessIS1_ESaIS1_EEaSERKS5_(%"class.std::set"* %this, %"class.std::set"* %__x) #3 align 2 {
  %1 = alloca %"class.std::set"*, align 8, !llfi_index !283
  %2 = alloca %"class.std::set"*, align 8, !llfi_index !284
  store %"class.std::set"* %this, %"class.std::set"** %1, align 8, !llfi_index !285
  store %"class.std::set"* %__x, %"class.std::set"** %2, align 8, !llfi_index !286
  %3 = load %"class.std::set"** %1, !llfi_index !287
  %fi = call %"class.std::set"* @injectFault1(i64 286, %"class.std::set"* %3, i32 27, i32 0, i32 1, i32 0, i8* getelementptr inbounds ([5 x i8]* @load_namestr, i32 0, i32 0)), !llfi_injectfault !25
  %4 = getelementptr %"class.std::set"* %fi, i32 0, i32 0, !llfi_index !288
  %fi1 = call %"class.std::_Rb_tree"* @injectFault19(i64 287, %"class.std::_Rb_tree"* %4, i32 29, i32 0, i32 1, i32 0, i8* getelementptr inbounds ([14 x i8]* @getelementptr_namestr, i32 0, i32 0)), !llfi_injectfault !25
  %5 = load %"class.std::set"** %2, align 8, !llfi_index !289
  %fi2 = call %"class.std::set"* @injectFault1(i64 288, %"class.std::set"* %5, i32 27, i32 0, i32 1, i32 0, i8* getelementptr inbounds ([5 x i8]* @load_namestr, i32 0, i32 0)), !llfi_injectfault !25
  %6 = getelementptr %"class.std::set"* %fi2, i32 0, i32 0, !llfi_index !290
  %fi3 = call %"class.std::_Rb_tree"* @injectFault19(i64 289, %"class.std::_Rb_tree"* %6, i32 29, i32 0, i32 1, i32 0, i8* getelementptr inbounds ([14 x i8]* @getelementptr_namestr, i32 0, i32 0)), !llfi_injectfault !25
  %7 = call %"class.std::_Rb_tree"* @_ZNSt8_Rb_treeIP4NodeS1_St9_IdentityIS1_ESt4lessIS1_ESaIS1_EEaSERKS7_(%"class.std::_Rb_tree"* %fi1, %"class.std::_Rb_tree"* %fi3), !llfi_index !291
  ret %"class.std::set"* %fi, !llfi_index !292
}

; Function Attrs: inlinehint nounwind uwtable
define linkonce_odr void @_ZNSt3setIP4NodeSt4lessIS1_ESaIS1_EED2Ev(%"class.std::set"* %this) unnamed_addr #4 align 2 {
  %1 = alloca %"class.std::set"*, align 8, !llfi_index !293
  store %"class.std::set"* %this, %"class.std::set"** %1, align 8, !llfi_index !294
  %2 = load %"class.std::set"** %1, !llfi_index !295
  %fi = call %"class.std::set"* @injectFault1(i64 294, %"class.std::set"* %2, i32 27, i32 0, i32 1, i32 0, i8* getelementptr inbounds ([5 x i8]* @load_namestr, i32 0, i32 0)), !llfi_injectfault !25
  %3 = getelementptr %"class.std::set"* %fi, i32 0, i32 0, !llfi_index !296
  %fi1 = call %"class.std::_Rb_tree"* @injectFault19(i64 295, %"class.std::_Rb_tree"* %3, i32 29, i32 0, i32 1, i32 0, i8* getelementptr inbounds ([14 x i8]* @getelementptr_namestr, i32 0, i32 0)), !llfi_injectfault !25
  call void @_ZNSt8_Rb_treeIP4NodeS1_St9_IdentityIS1_ESt4lessIS1_ESaIS1_EED2Ev(%"class.std::_Rb_tree"* %fi1) #0, !llfi_index !297
  ret void, !llfi_index !298
}

; Function Attrs: nounwind uwtable
define %struct.Node* @_Z6insertP4Nodei(%struct.Node* %root, i32 %val) #3 {
  %1 = alloca %struct.Node*, align 8, !llfi_index !299
  %2 = alloca %struct.Node*, align 8, !llfi_index !300
  %3 = alloca i32, align 4, !llfi_index !301
  store %struct.Node* %root, %struct.Node** %2, align 8, !llfi_index !302
  store i32 %val, i32* %3, align 4, !llfi_index !303
  %4 = load %struct.Node** %2, align 8, !llfi_index !304
  %fi = call %struct.Node* @injectFault2(i64 303, %struct.Node* %4, i32 27, i32 0, i32 1, i32 0, i8* getelementptr inbounds ([5 x i8]* @load_namestr, i32 0, i32 0)), !llfi_injectfault !25
  %5 = icmp ne %struct.Node* %fi, null, !llfi_index !305
  %fi1 = call i1 @injectFault3(i64 304, i1 %5, i32 46, i32 0, i32 1, i32 0, i8* getelementptr inbounds ([5 x i8]* @icmp_namestr, i32 0, i32 0)), !llfi_injectfault !25
  br i1 %fi1, label %10, label %6, !llfi_index !306

; <label>:6                                       ; preds = %0
  %7 = call noalias i8* @_Znwm(i64 32) #10, !llfi_index !307
  %8 = bitcast i8* %7 to %struct.Node*, !llfi_index !308
  %fi2 = call %struct.Node* @injectFault2(i64 307, %struct.Node* %8, i32 44, i32 0, i32 1, i32 0, i8* getelementptr inbounds ([8 x i8]* @bitcast_namestr, i32 0, i32 0)), !llfi_injectfault !25
  %9 = load i32* %3, align 4, !llfi_index !309
  %fi4 = call i32 @injectFault0(i64 308, i32 %9, i32 27, i32 0, i32 1, i32 0, i8* getelementptr inbounds ([5 x i8]* @load_namestr, i32 0, i32 0)), !llfi_injectfault !25
  call void @_ZN4NodeC2Ei(%struct.Node* %fi2, i32 %fi4), !llfi_index !310
  store %struct.Node* %fi2, %struct.Node** %1, !llfi_index !311
  br label %44, !llfi_index !312

; <label>:10                                      ; preds = %0
  %11 = load i32* %3, align 4, !llfi_index !313
  %fi5 = call i32 @injectFault0(i64 312, i32 %11, i32 27, i32 0, i32 1, i32 0, i8* getelementptr inbounds ([5 x i8]* @load_namestr, i32 0, i32 0)), !llfi_injectfault !25
  %12 = load %struct.Node** %2, align 8, !llfi_index !314
  %fi6 = call %struct.Node* @injectFault2(i64 313, %struct.Node* %12, i32 27, i32 0, i32 1, i32 0, i8* getelementptr inbounds ([5 x i8]* @load_namestr, i32 0, i32 0)), !llfi_injectfault !25
  %13 = getelementptr %struct.Node* %fi6, i32 0, i32 0, !llfi_index !315
  %fi7 = call i32* @injectFault10(i64 314, i32* %13, i32 29, i32 0, i32 1, i32 0, i8* getelementptr inbounds ([14 x i8]* @getelementptr_namestr, i32 0, i32 0)), !llfi_injectfault !25
  %14 = load i32* %fi7, align 4, !llfi_index !316
  %fi8 = call i32 @injectFault0(i64 315, i32 %14, i32 27, i32 0, i32 1, i32 0, i8* getelementptr inbounds ([5 x i8]* @load_namestr, i32 0, i32 0)), !llfi_injectfault !25
  %15 = icmp slt i32 %fi5, %fi8, !llfi_index !317
  %fi9 = call i1 @injectFault3(i64 316, i1 %15, i32 46, i32 0, i32 1, i32 0, i8* getelementptr inbounds ([5 x i8]* @icmp_namestr, i32 0, i32 0)), !llfi_injectfault !25
  br i1 %fi9, label %16, label %29, !llfi_index !318

; <label>:16                                      ; preds = %10
  %17 = load %struct.Node** %2, align 8, !llfi_index !319
  %fi3 = call %struct.Node* @injectFault2(i64 318, %struct.Node* %17, i32 27, i32 0, i32 1, i32 0, i8* getelementptr inbounds ([5 x i8]* @load_namestr, i32 0, i32 0)), !llfi_injectfault !25
  %18 = getelementptr %struct.Node* %fi3, i32 0, i32 1, !llfi_index !320
  %fi11 = call %struct.Node** @injectFault11(i64 319, %struct.Node** %18, i32 29, i32 0, i32 1, i32 0, i8* getelementptr inbounds ([14 x i8]* @getelementptr_namestr, i32 0, i32 0)), !llfi_injectfault !25
  %19 = load %struct.Node** %fi11, align 8, !llfi_index !321
  %fi12 = call %struct.Node* @injectFault2(i64 320, %struct.Node* %19, i32 27, i32 0, i32 1, i32 0, i8* getelementptr inbounds ([5 x i8]* @load_namestr, i32 0, i32 0)), !llfi_injectfault !25
  %20 = load i32* %3, align 4, !llfi_index !322
  %fi13 = call i32 @injectFault0(i64 321, i32 %20, i32 27, i32 0, i32 1, i32 0, i8* getelementptr inbounds ([5 x i8]* @load_namestr, i32 0, i32 0)), !llfi_injectfault !25
  %21 = call %struct.Node* @_Z6insertP4Nodei(%struct.Node* %fi12, i32 %fi13), !llfi_index !323
  %22 = load %struct.Node** %2, align 8, !llfi_index !324
  %fi14 = call %struct.Node* @injectFault2(i64 323, %struct.Node* %22, i32 27, i32 0, i32 1, i32 0, i8* getelementptr inbounds ([5 x i8]* @load_namestr, i32 0, i32 0)), !llfi_injectfault !25
  %23 = getelementptr %struct.Node* %fi14, i32 0, i32 1, !llfi_index !325
  %fi15 = call %struct.Node** @injectFault11(i64 324, %struct.Node** %23, i32 29, i32 0, i32 1, i32 0, i8* getelementptr inbounds ([14 x i8]* @getelementptr_namestr, i32 0, i32 0)), !llfi_injectfault !25
  store %struct.Node* %21, %struct.Node** %fi15, align 8, !llfi_index !326
  %24 = load %struct.Node** %2, align 8, !llfi_index !327
  %fi16 = call %struct.Node* @injectFault2(i64 326, %struct.Node* %24, i32 27, i32 0, i32 1, i32 0, i8* getelementptr inbounds ([5 x i8]* @load_namestr, i32 0, i32 0)), !llfi_injectfault !25
  %25 = load %struct.Node** %2, align 8, !llfi_index !328
  %fi17 = call %struct.Node* @injectFault2(i64 327, %struct.Node* %25, i32 27, i32 0, i32 1, i32 0, i8* getelementptr inbounds ([5 x i8]* @load_namestr, i32 0, i32 0)), !llfi_injectfault !25
  %26 = getelementptr %struct.Node* %fi17, i32 0, i32 1, !llfi_index !329
  %fi18 = call %struct.Node** @injectFault11(i64 328, %struct.Node** %26, i32 29, i32 0, i32 1, i32 0, i8* getelementptr inbounds ([14 x i8]* @getelementptr_namestr, i32 0, i32 0)), !llfi_injectfault !25
  %27 = load %struct.Node** %fi18, align 8, !llfi_index !330
  %fi19 = call %struct.Node* @injectFault2(i64 329, %struct.Node* %27, i32 27, i32 0, i32 1, i32 0, i8* getelementptr inbounds ([5 x i8]* @load_namestr, i32 0, i32 0)), !llfi_injectfault !25
  %28 = getelementptr %struct.Node* %fi19, i32 0, i32 3, !llfi_index !331
  %fi20 = call %struct.Node** @injectFault11(i64 330, %struct.Node** %28, i32 29, i32 0, i32 1, i32 0, i8* getelementptr inbounds ([14 x i8]* @getelementptr_namestr, i32 0, i32 0)), !llfi_injectfault !25
  store %struct.Node* %fi16, %struct.Node** %fi20, align 8, !llfi_index !332
  br label %42, !llfi_index !333

; <label>:29                                      ; preds = %10
  %30 = load %struct.Node** %2, align 8, !llfi_index !334
  %fi21 = call %struct.Node* @injectFault2(i64 333, %struct.Node* %30, i32 27, i32 0, i32 1, i32 0, i8* getelementptr inbounds ([5 x i8]* @load_namestr, i32 0, i32 0)), !llfi_injectfault !25
  %31 = getelementptr %struct.Node* %fi21, i32 0, i32 2, !llfi_index !335
  %fi22 = call %struct.Node** @injectFault11(i64 334, %struct.Node** %31, i32 29, i32 0, i32 1, i32 0, i8* getelementptr inbounds ([14 x i8]* @getelementptr_namestr, i32 0, i32 0)), !llfi_injectfault !25
  %32 = load %struct.Node** %fi22, align 8, !llfi_index !336
  %fi23 = call %struct.Node* @injectFault2(i64 335, %struct.Node* %32, i32 27, i32 0, i32 1, i32 0, i8* getelementptr inbounds ([5 x i8]* @load_namestr, i32 0, i32 0)), !llfi_injectfault !25
  %33 = load i32* %3, align 4, !llfi_index !337
  %fi10 = call i32 @injectFault0(i64 336, i32 %33, i32 27, i32 0, i32 1, i32 0, i8* getelementptr inbounds ([5 x i8]* @load_namestr, i32 0, i32 0)), !llfi_injectfault !25
  %34 = call %struct.Node* @_Z6insertP4Nodei(%struct.Node* %fi23, i32 %fi10), !llfi_index !338
  %35 = load %struct.Node** %2, align 8, !llfi_index !339
  %fi24 = call %struct.Node* @injectFault2(i64 338, %struct.Node* %35, i32 27, i32 0, i32 1, i32 0, i8* getelementptr inbounds ([5 x i8]* @load_namestr, i32 0, i32 0)), !llfi_injectfault !25
  %36 = getelementptr %struct.Node* %fi24, i32 0, i32 2, !llfi_index !340
  %fi25 = call %struct.Node** @injectFault11(i64 339, %struct.Node** %36, i32 29, i32 0, i32 1, i32 0, i8* getelementptr inbounds ([14 x i8]* @getelementptr_namestr, i32 0, i32 0)), !llfi_injectfault !25
  store %struct.Node* %34, %struct.Node** %fi25, align 8, !llfi_index !341
  %37 = load %struct.Node** %2, align 8, !llfi_index !342
  %fi26 = call %struct.Node* @injectFault2(i64 341, %struct.Node* %37, i32 27, i32 0, i32 1, i32 0, i8* getelementptr inbounds ([5 x i8]* @load_namestr, i32 0, i32 0)), !llfi_injectfault !25
  %38 = load %struct.Node** %2, align 8, !llfi_index !343
  %fi27 = call %struct.Node* @injectFault2(i64 342, %struct.Node* %38, i32 27, i32 0, i32 1, i32 0, i8* getelementptr inbounds ([5 x i8]* @load_namestr, i32 0, i32 0)), !llfi_injectfault !25
  %39 = getelementptr %struct.Node* %fi27, i32 0, i32 2, !llfi_index !344
  %fi28 = call %struct.Node** @injectFault11(i64 343, %struct.Node** %39, i32 29, i32 0, i32 1, i32 0, i8* getelementptr inbounds ([14 x i8]* @getelementptr_namestr, i32 0, i32 0)), !llfi_injectfault !25
  %40 = load %struct.Node** %fi28, align 8, !llfi_index !345
  %fi29 = call %struct.Node* @injectFault2(i64 344, %struct.Node* %40, i32 27, i32 0, i32 1, i32 0, i8* getelementptr inbounds ([5 x i8]* @load_namestr, i32 0, i32 0)), !llfi_injectfault !25
  %41 = getelementptr %struct.Node* %fi29, i32 0, i32 3, !llfi_index !346
  %fi30 = call %struct.Node** @injectFault11(i64 345, %struct.Node** %41, i32 29, i32 0, i32 1, i32 0, i8* getelementptr inbounds ([14 x i8]* @getelementptr_namestr, i32 0, i32 0)), !llfi_injectfault !25
  store %struct.Node* %fi26, %struct.Node** %fi30, align 8, !llfi_index !347
  br label %42, !llfi_index !348

; <label>:42                                      ; preds = %29, %16
  %43 = load %struct.Node** %2, align 8, !llfi_index !349
  %fi31 = call %struct.Node* @injectFault2(i64 348, %struct.Node* %43, i32 27, i32 0, i32 1, i32 0, i8* getelementptr inbounds ([5 x i8]* @load_namestr, i32 0, i32 0)), !llfi_injectfault !25
  store %struct.Node* %fi31, %struct.Node** %1, !llfi_index !350
  br label %44, !llfi_index !351

; <label>:44                                      ; preds = %42, %6
  %45 = load %struct.Node** %1, !llfi_index !352
  %fi32 = call %struct.Node* @injectFault2(i64 351, %struct.Node* %45, i32 27, i32 0, i32 1, i32 0, i8* getelementptr inbounds ([5 x i8]* @load_namestr, i32 0, i32 0)), !llfi_injectfault !25
  ret %struct.Node* %fi32, !llfi_index !353
}

; Function Attrs: nobuiltin
declare noalias i8* @_Znwm(i64) #5

; Function Attrs: nounwind uwtable
define linkonce_odr void @_ZN4NodeC2Ei(%struct.Node* %this, i32 %v) unnamed_addr #3 align 2 {
  %1 = alloca %struct.Node*, align 8, !llfi_index !354
  %2 = alloca i32, align 4, !llfi_index !355
  store %struct.Node* %this, %struct.Node** %1, align 8, !llfi_index !356
  store i32 %v, i32* %2, align 4, !llfi_index !357
  %3 = load %struct.Node** %1, !llfi_index !358
  %fi = call %struct.Node* @injectFault2(i64 357, %struct.Node* %3, i32 27, i32 0, i32 1, i32 0, i8* getelementptr inbounds ([5 x i8]* @load_namestr, i32 0, i32 0)), !llfi_injectfault !25
  %4 = getelementptr %struct.Node* %fi, i32 0, i32 0, !llfi_index !359
  %fi1 = call i32* @injectFault10(i64 358, i32* %4, i32 29, i32 0, i32 1, i32 0, i8* getelementptr inbounds ([14 x i8]* @getelementptr_namestr, i32 0, i32 0)), !llfi_injectfault !25
  %5 = load i32* %2, align 4, !llfi_index !360
  %fi2 = call i32 @injectFault0(i64 359, i32 %5, i32 27, i32 0, i32 1, i32 0, i8* getelementptr inbounds ([5 x i8]* @load_namestr, i32 0, i32 0)), !llfi_injectfault !25
  store i32 %fi2, i32* %fi1, align 4, !llfi_index !361
  %6 = getelementptr %struct.Node* %fi, i32 0, i32 1, !llfi_index !362
  %fi3 = call %struct.Node** @injectFault11(i64 361, %struct.Node** %6, i32 29, i32 0, i32 1, i32 0, i8* getelementptr inbounds ([14 x i8]* @getelementptr_namestr, i32 0, i32 0)), !llfi_injectfault !25
  store %struct.Node* null, %struct.Node** %fi3, align 8, !llfi_index !363
  %7 = getelementptr %struct.Node* %fi, i32 0, i32 2, !llfi_index !364
  %fi4 = call %struct.Node** @injectFault11(i64 363, %struct.Node** %7, i32 29, i32 0, i32 1, i32 0, i8* getelementptr inbounds ([14 x i8]* @getelementptr_namestr, i32 0, i32 0)), !llfi_injectfault !25
  store %struct.Node* null, %struct.Node** %fi4, align 8, !llfi_index !365
  %8 = getelementptr %struct.Node* %fi, i32 0, i32 3, !llfi_index !366
  %fi5 = call %struct.Node** @injectFault11(i64 365, %struct.Node** %8, i32 29, i32 0, i32 1, i32 0, i8* getelementptr inbounds ([14 x i8]* @getelementptr_namestr, i32 0, i32 0)), !llfi_injectfault !25
  store %struct.Node* null, %struct.Node** %fi5, align 8, !llfi_index !367
  ret void, !llfi_index !368
}

; Function Attrs: nounwind uwtable
define i32 @main(i32 %argc, i8** %argv) #3 {
  call void @initInjections()
  %1 = alloca i32, align 4, !llfi_index !369
  %2 = alloca i32, align 4, !llfi_index !370
  %3 = alloca i8**, align 8, !llfi_index !371
  %filename = alloca %"class.std::__cxx11::basic_string", align 8, !llfi_index !372
  %4 = alloca %"class.std::allocator.3", align 1, !llfi_index !373
  %file = alloca %"class.std::basic_ifstream", align 8, !llfi_index !374
  %5 = alloca i32, !llfi_index !375
  %num = alloca i32, align 4, !llfi_index !376
  %root = alloca %struct.Node*, align 8, !llfi_index !377
  %result = alloca %"class.std::vector", align 8, !llfi_index !378
  %i = alloca i64, align 8, !llfi_index !379
  store i32 0, i32* %1, !llfi_index !380
  store i32 %argc, i32* %2, align 4, !llfi_index !381
  store i8** %argv, i8*** %3, align 8, !llfi_index !382
  call void @_ZNSaIcEC1Ev(%"class.std::allocator.3"* %4) #0, !llfi_index !383
  call void @_ZNSt7__cxx1112basic_stringIcSt11char_traitsIcESaIcEEC1EPKcRKS3_(%"class.std::__cxx11::basic_string"* %filename, i8* getelementptr inbounds ([12 x i8]* @.str, i32 0, i32 0), %"class.std::allocator.3"* %4), !llfi_index !384
  call void @_ZNSaIcED1Ev(%"class.std::allocator.3"* %4) #0, !llfi_index !385
  %6 = load i32* %2, align 4, !llfi_index !386
  %fi1 = call i32 @injectFault0(i64 385, i32 %6, i32 27, i32 0, i32 1, i32 0, i8* getelementptr inbounds ([5 x i8]* @load_namestr, i32 0, i32 0)), !llfi_injectfault !25
  %7 = icmp sgt i32 %fi1, 1, !llfi_index !387
  %fi2 = call i1 @injectFault3(i64 386, i1 %7, i32 46, i32 0, i32 1, i32 0, i8* getelementptr inbounds ([5 x i8]* @icmp_namestr, i32 0, i32 0)), !llfi_injectfault !25
  br i1 %fi2, label %8, label %13, !llfi_index !388

; <label>:8                                       ; preds = %0
  %9 = load i8*** %3, align 8, !llfi_index !389
  %fi3 = call i8** @injectFault22(i64 388, i8** %9, i32 27, i32 0, i32 1, i32 0, i8* getelementptr inbounds ([5 x i8]* @load_namestr, i32 0, i32 0)), !llfi_injectfault !25
  %10 = getelementptr i8** %fi3, i64 1, !llfi_index !390
  %fi4 = call i8** @injectFault22(i64 389, i8** %10, i32 29, i32 0, i32 1, i32 0, i8* getelementptr inbounds ([14 x i8]* @getelementptr_namestr, i32 0, i32 0)), !llfi_injectfault !25
  %11 = load i8** %fi4, align 8, !llfi_index !391
  %fi5 = call i8* @injectFault7(i64 390, i8* %11, i32 27, i32 0, i32 1, i32 0, i8* getelementptr inbounds ([5 x i8]* @load_namestr, i32 0, i32 0)), !llfi_injectfault !25
  %12 = call %"class.std::__cxx11::basic_string"* @_ZNSt7__cxx1112basic_stringIcSt11char_traitsIcESaIcEEaSEPKc(%"class.std::__cxx11::basic_string"* %filename, i8* %fi5), !llfi_index !392
  br label %13, !llfi_index !393

; <label>:13                                      ; preds = %8, %0
  %14 = call i8* @_ZNKSt7__cxx1112basic_stringIcSt11char_traitsIcESaIcEE5c_strEv(%"class.std::__cxx11::basic_string"* %filename) #0, !llfi_index !394
  call void @_ZNSt14basic_ifstreamIcSt11char_traitsIcEEC1EPKcSt13_Ios_Openmode(%"class.std::basic_ifstream"* %file, i8* %14, i32 8), !llfi_index !395
  %15 = call zeroext i1 @_ZNSt14basic_ifstreamIcSt11char_traitsIcEE7is_openEv(%"class.std::basic_ifstream"* %file), !llfi_index !396
  br i1 %15, label %20, label %16, !llfi_index !397

; <label>:16                                      ; preds = %13
  %17 = call %"class.std::basic_ostream"* @_ZStlsISt11char_traitsIcEERSt13basic_ostreamIcT_ES5_PKc(%"class.std::basic_ostream"* @_ZSt4cerr, i8* getelementptr inbounds ([23 x i8]* @.str1, i32 0, i32 0)), !llfi_index !398
  %18 = call %"class.std::basic_ostream"* @_ZStlsIcSt11char_traitsIcESaIcEERSt13basic_ostreamIT_T0_ES7_RKNSt7__cxx1112basic_stringIS4_S5_T1_EE(%"class.std::basic_ostream"* %17, %"class.std::__cxx11::basic_string"* %filename), !llfi_index !399
  %19 = call %"class.std::basic_ostream"* @_ZNSolsEPFRSoS_E(%"class.std::basic_ostream"* %18, %"class.std::basic_ostream"* (%"class.std::basic_ostream"*)* @_ZSt4endlIcSt11char_traitsIcEERSt13basic_ostreamIT_T0_ES6_), !llfi_index !400
  store i32 1, i32* %1, !llfi_index !401
  store i32 1, i32* %5, !llfi_index !402
  br label %59, !llfi_index !403

; <label>:20                                      ; preds = %13
  store %struct.Node* null, %struct.Node** %root, align 8, !llfi_index !404
  br label %21, !llfi_index !405

; <label>:21                                      ; preds = %33, %20
  %22 = bitcast %"class.std::basic_ifstream"* %file to %"class.std::basic_istream"*, !llfi_index !406
  %fi6 = call %"class.std::basic_istream"* @injectFault24(i64 405, %"class.std::basic_istream"* %22, i32 44, i32 0, i32 1, i32 0, i8* getelementptr inbounds ([8 x i8]* @bitcast_namestr, i32 0, i32 0)), !llfi_injectfault !25
  %23 = call %"class.std::basic_istream"* @_ZNSirsERi(%"class.std::basic_istream"* %fi6, i32* %num), !llfi_index !407
  %24 = bitcast %"class.std::basic_istream"* %23 to i8**, !llfi_index !408
  %fi7 = call i8** @injectFault22(i64 407, i8** %24, i32 44, i32 0, i32 1, i32 0, i8* getelementptr inbounds ([8 x i8]* @bitcast_namestr, i32 0, i32 0)), !llfi_injectfault !25
  %25 = load i8** %fi7, !llfi_index !409
  %fi8 = call i8* @injectFault7(i64 408, i8* %25, i32 27, i32 0, i32 1, i32 0, i8* getelementptr inbounds ([5 x i8]* @load_namestr, i32 0, i32 0)), !llfi_injectfault !25
  %26 = getelementptr i8* %fi8, i64 -24, !llfi_index !410
  %fi9 = call i8* @injectFault7(i64 409, i8* %26, i32 29, i32 0, i32 1, i32 0, i8* getelementptr inbounds ([14 x i8]* @getelementptr_namestr, i32 0, i32 0)), !llfi_injectfault !25
  %27 = bitcast i8* %fi9 to i64*, !llfi_index !411
  %fi10 = call i64* @injectFault25(i64 410, i64* %27, i32 44, i32 0, i32 1, i32 0, i8* getelementptr inbounds ([8 x i8]* @bitcast_namestr, i32 0, i32 0)), !llfi_injectfault !25
  %28 = load i64* %fi10, !llfi_index !412
  %fi11 = call i64 @injectFault12(i64 411, i64 %28, i32 27, i32 0, i32 1, i32 0, i8* getelementptr inbounds ([5 x i8]* @load_namestr, i32 0, i32 0)), !llfi_injectfault !25
  %29 = bitcast %"class.std::basic_istream"* %23 to i8*, !llfi_index !413
  %fi12 = call i8* @injectFault7(i64 412, i8* %29, i32 44, i32 0, i32 1, i32 0, i8* getelementptr inbounds ([8 x i8]* @bitcast_namestr, i32 0, i32 0)), !llfi_injectfault !25
  %30 = getelementptr i8* %fi12, i64 %fi11, !llfi_index !414
  %fi13 = call i8* @injectFault7(i64 413, i8* %30, i32 29, i32 0, i32 1, i32 0, i8* getelementptr inbounds ([14 x i8]* @getelementptr_namestr, i32 0, i32 0)), !llfi_injectfault !25
  %31 = bitcast i8* %fi13 to %"class.std::basic_ios"*, !llfi_index !415
  %fi14 = call %"class.std::basic_ios"* @injectFault26(i64 414, %"class.std::basic_ios"* %31, i32 44, i32 0, i32 1, i32 0, i8* getelementptr inbounds ([8 x i8]* @bitcast_namestr, i32 0, i32 0)), !llfi_injectfault !25
  %32 = call zeroext i1 @_ZNKSt9basic_iosIcSt11char_traitsIcEEcvbEv(%"class.std::basic_ios"* %fi14), !llfi_index !416
  br i1 %32, label %33, label %37, !llfi_index !417

; <label>:33                                      ; preds = %21
  %34 = load %struct.Node** %root, align 8, !llfi_index !418
  %fi15 = call %struct.Node* @injectFault2(i64 417, %struct.Node* %34, i32 27, i32 0, i32 1, i32 0, i8* getelementptr inbounds ([5 x i8]* @load_namestr, i32 0, i32 0)), !llfi_injectfault !25
  %35 = load i32* %num, align 4, !llfi_index !419
  %fi16 = call i32 @injectFault0(i64 418, i32 %35, i32 27, i32 0, i32 1, i32 0, i8* getelementptr inbounds ([5 x i8]* @load_namestr, i32 0, i32 0)), !llfi_injectfault !25
  %36 = call %struct.Node* @_Z6insertP4Nodei(%struct.Node* %fi15, i32 %fi16), !llfi_index !420
  store %struct.Node* %36, %struct.Node** %root, align 8, !llfi_index !421
  br label %21, !llfi_index !422

; <label>:37                                      ; preds = %21
  call void @_ZNSt14basic_ifstreamIcSt11char_traitsIcEE5closeEv(%"class.std::basic_ifstream"* %file), !llfi_index !423
  call void @_ZNSt6vectorIiSaIiEEC2Ev(%"class.std::vector"* %result) #0, !llfi_index !424
  %38 = load %struct.Node** %root, align 8, !llfi_index !425
  %fi17 = call %struct.Node* @injectFault2(i64 424, %struct.Node* %38, i32 27, i32 0, i32 1, i32 0, i8* getelementptr inbounds ([5 x i8]* @load_namestr, i32 0, i32 0)), !llfi_injectfault !25
  call void @_Z7bfs_setP4NodeRSt6vectorIiSaIiEE(%struct.Node* %fi17, %"class.std::vector"* %result), !llfi_index !426
  store i64 0, i64* %i, align 8, !llfi_index !427
  br label %39, !llfi_index !428

; <label>:39                                      ; preds = %54, %37
  %40 = load i64* %i, align 8, !llfi_index !429
  %fi18 = call i64 @injectFault12(i64 428, i64 %40, i32 27, i32 0, i32 1, i32 0, i8* getelementptr inbounds ([5 x i8]* @load_namestr, i32 0, i32 0)), !llfi_injectfault !25
  %41 = call i64 @_ZNKSt6vectorIiSaIiEE4sizeEv(%"class.std::vector"* %result) #0, !llfi_index !430
  %42 = icmp ult i64 %fi18, %41, !llfi_index !431
  %fi19 = call i1 @injectFault3(i64 430, i1 %42, i32 46, i32 0, i32 1, i32 0, i8* getelementptr inbounds ([5 x i8]* @icmp_namestr, i32 0, i32 0)), !llfi_injectfault !25
  br i1 %fi19, label %43, label %57, !llfi_index !432

; <label>:43                                      ; preds = %39
  %44 = load i64* %i, align 8, !llfi_index !433
  %fi20 = call i64 @injectFault12(i64 432, i64 %44, i32 27, i32 0, i32 1, i32 0, i8* getelementptr inbounds ([5 x i8]* @load_namestr, i32 0, i32 0)), !llfi_injectfault !25
  %45 = call i32* @_ZNSt6vectorIiSaIiEEixEm(%"class.std::vector"* %result, i64 %fi20) #0, !llfi_index !434
  %46 = load i32* %45, !llfi_index !435
  %fi = call i32 @injectFault0(i64 434, i32 %46, i32 27, i32 0, i32 1, i32 0, i8* getelementptr inbounds ([5 x i8]* @load_namestr, i32 0, i32 0)), !llfi_injectfault !25
  %47 = call %"class.std::basic_ostream"* @_ZNSolsEi(%"class.std::basic_ostream"* @_ZSt4cout, i32 %fi), !llfi_index !436
  %48 = load i64* %i, align 8, !llfi_index !437
  %fi21 = call i64 @injectFault12(i64 436, i64 %48, i32 27, i32 0, i32 1, i32 0, i8* getelementptr inbounds ([5 x i8]* @load_namestr, i32 0, i32 0)), !llfi_injectfault !25
  %49 = call i64 @_ZNKSt6vectorIiSaIiEE4sizeEv(%"class.std::vector"* %result) #0, !llfi_index !438
  %50 = sub i64 %49, 1, !llfi_index !439
  %fi22 = call i64 @injectFault12(i64 438, i64 %50, i32 10, i32 0, i32 1, i32 0, i8* getelementptr inbounds ([4 x i8]* @sub_namestr, i32 0, i32 0)), !llfi_injectfault !25
  %51 = icmp eq i64 %fi21, %fi22, !llfi_index !440
  %fi23 = call i1 @injectFault3(i64 439, i1 %51, i32 46, i32 0, i32 1, i32 0, i8* getelementptr inbounds ([5 x i8]* @icmp_namestr, i32 0, i32 0)), !llfi_injectfault !25
  %52 = select i1 %fi23, i8* getelementptr inbounds ([1 x i8]* @.str2, i32 0, i32 0), i8* getelementptr inbounds ([2 x i8]* @.str3, i32 0, i32 0), !llfi_index !441
  %fi24 = call i8* @injectFault7(i64 440, i8* %52, i32 50, i32 0, i32 1, i32 0, i8* getelementptr inbounds ([7 x i8]* @select_namestr, i32 0, i32 0)), !llfi_injectfault !25
  %53 = call %"class.std::basic_ostream"* @_ZStlsISt11char_traitsIcEERSt13basic_ostreamIcT_ES5_PKc(%"class.std::basic_ostream"* %47, i8* %fi24), !llfi_index !442
  br label %54, !llfi_index !443

; <label>:54                                      ; preds = %43
  %55 = load i64* %i, align 8, !llfi_index !444
  %fi25 = call i64 @injectFault12(i64 443, i64 %55, i32 27, i32 0, i32 1, i32 0, i8* getelementptr inbounds ([5 x i8]* @load_namestr, i32 0, i32 0)), !llfi_injectfault !25
  %56 = add i64 %fi25, 1, !llfi_index !445
  %fi26 = call i64 @injectFault12(i64 444, i64 %56, i32 8, i32 0, i32 1, i32 0, i8* getelementptr inbounds ([4 x i8]* @add_namestr, i32 0, i32 0)), !llfi_injectfault !25
  store i64 %fi26, i64* %i, align 8, !llfi_index !446
  br label %39, !llfi_index !447

; <label>:57                                      ; preds = %39
  %58 = call %"class.std::basic_ostream"* @_ZNSolsEPFRSoS_E(%"class.std::basic_ostream"* @_ZSt4cout, %"class.std::basic_ostream"* (%"class.std::basic_ostream"*)* @_ZSt4endlIcSt11char_traitsIcEERSt13basic_ostreamIT_T0_ES6_), !llfi_index !448
  store i32 0, i32* %1, !llfi_index !449
  store i32 1, i32* %5, !llfi_index !450
  call void @_ZNSt6vectorIiSaIiEED2Ev(%"class.std::vector"* %result) #0, !llfi_index !451
  br label %59, !llfi_index !452

; <label>:59                                      ; preds = %57, %16
  call void @_ZNSt14basic_ifstreamIcSt11char_traitsIcEED1Ev(%"class.std::basic_ifstream"* %file) #0, !llfi_index !453
  call void @_ZNSt7__cxx1112basic_stringIcSt11char_traitsIcESaIcEED1Ev(%"class.std::__cxx11::basic_string"* %filename) #0, !llfi_index !454
  %60 = load i32* %1, !llfi_index !455
  %fi27 = call i32 @injectFault0(i64 454, i32 %60, i32 27, i32 0, i32 1, i32 0, i8* getelementptr inbounds ([5 x i8]* @load_namestr, i32 0, i32 0)), !llfi_injectfault !25
  call void @postInjections()
  ret i32 %fi27, !llfi_index !456
}

declare void @_ZNSt7__cxx1112basic_stringIcSt11char_traitsIcESaIcEEC1EPKcRKS3_(%"class.std::__cxx11::basic_string"*, i8*, %"class.std::allocator.3"*) #1

; Function Attrs: nounwind
declare void @_ZNSaIcEC1Ev(%"class.std::allocator.3"*) #2

; Function Attrs: nounwind
declare void @_ZNSaIcED1Ev(%"class.std::allocator.3"*) #2

declare %"class.std::__cxx11::basic_string"* @_ZNSt7__cxx1112basic_stringIcSt11char_traitsIcESaIcEEaSEPKc(%"class.std::__cxx11::basic_string"*, i8*) #1

declare void @_ZNSt14basic_ifstreamIcSt11char_traitsIcEEC1EPKcSt13_Ios_Openmode(%"class.std::basic_ifstream"*, i8*, i32) #1

; Function Attrs: nounwind
declare i8* @_ZNKSt7__cxx1112basic_stringIcSt11char_traitsIcESaIcEE5c_strEv(%"class.std::__cxx11::basic_string"*) #2

declare zeroext i1 @_ZNSt14basic_ifstreamIcSt11char_traitsIcEE7is_openEv(%"class.std::basic_ifstream"*) #1

declare %"class.std::basic_ostream"* @_ZStlsIcSt11char_traitsIcESaIcEERSt13basic_ostreamIT_T0_ES7_RKNSt7__cxx1112basic_stringIS4_S5_T1_EE(%"class.std::basic_ostream"*, %"class.std::__cxx11::basic_string"*) #1

declare %"class.std::basic_ostream"* @_ZStlsISt11char_traitsIcEERSt13basic_ostreamIcT_ES5_PKc(%"class.std::basic_ostream"*, i8*) #1

declare %"class.std::basic_ostream"* @_ZNSolsEPFRSoS_E(%"class.std::basic_ostream"*, %"class.std::basic_ostream"* (%"class.std::basic_ostream"*)*) #1

declare %"class.std::basic_ostream"* @_ZSt4endlIcSt11char_traitsIcEERSt13basic_ostreamIT_T0_ES6_(%"class.std::basic_ostream"*) #1

declare %"class.std::basic_istream"* @_ZNSirsERi(%"class.std::basic_istream"*, i32*) #1

declare zeroext i1 @_ZNKSt9basic_iosIcSt11char_traitsIcEEcvbEv(%"class.std::basic_ios"*) #1

declare void @_ZNSt14basic_ifstreamIcSt11char_traitsIcEE5closeEv(%"class.std::basic_ifstream"*) #1

; Function Attrs: nounwind uwtable
define linkonce_odr void @_ZNSt6vectorIiSaIiEEC2Ev(%"class.std::vector"* %this) unnamed_addr #3 align 2 {
  %1 = alloca %"class.std::vector"*, align 8, !llfi_index !457
  store %"class.std::vector"* %this, %"class.std::vector"** %1, align 8, !llfi_index !458
  %2 = load %"class.std::vector"** %1, !llfi_index !459
  %fi = call %"class.std::vector"* @injectFault9(i64 458, %"class.std::vector"* %2, i32 27, i32 0, i32 1, i32 0, i8* getelementptr inbounds ([5 x i8]* @load_namestr, i32 0, i32 0)), !llfi_injectfault !25
  %3 = bitcast %"class.std::vector"* %fi to %"struct.std::_Vector_base"*, !llfi_index !460
  %fi1 = call %"struct.std::_Vector_base"* @injectFault15(i64 459, %"struct.std::_Vector_base"* %3, i32 44, i32 0, i32 1, i32 0, i8* getelementptr inbounds ([8 x i8]* @bitcast_namestr, i32 0, i32 0)), !llfi_injectfault !25
  call void @_ZNSt12_Vector_baseIiSaIiEEC2Ev(%"struct.std::_Vector_base"* %fi1), !llfi_index !461
  ret void, !llfi_index !462
}

; Function Attrs: nounwind uwtable
define linkonce_odr i64 @_ZNKSt6vectorIiSaIiEE4sizeEv(%"class.std::vector"* %this) #3 align 2 {
  %1 = alloca %"class.std::vector"*, align 8, !llfi_index !463
  store %"class.std::vector"* %this, %"class.std::vector"** %1, align 8, !llfi_index !464
  %2 = load %"class.std::vector"** %1, !llfi_index !465
  %fi = call %"class.std::vector"* @injectFault9(i64 464, %"class.std::vector"* %2, i32 27, i32 0, i32 1, i32 0, i8* getelementptr inbounds ([5 x i8]* @load_namestr, i32 0, i32 0)), !llfi_injectfault !25
  %3 = bitcast %"class.std::vector"* %fi to %"struct.std::_Vector_base"*, !llfi_index !466
  %fi1 = call %"struct.std::_Vector_base"* @injectFault15(i64 465, %"struct.std::_Vector_base"* %3, i32 44, i32 0, i32 1, i32 0, i8* getelementptr inbounds ([8 x i8]* @bitcast_namestr, i32 0, i32 0)), !llfi_injectfault !25
  %4 = getelementptr %"struct.std::_Vector_base"* %fi1, i32 0, i32 0, !llfi_index !467
  %fi2 = call %"struct.std::_Vector_base<int, std::allocator<int> >::_Vector_impl"* @injectFault16(i64 466, %"struct.std::_Vector_base<int, std::allocator<int> >::_Vector_impl"* %4, i32 29, i32 0, i32 1, i32 0, i8* getelementptr inbounds ([14 x i8]* @getelementptr_namestr, i32 0, i32 0)), !llfi_injectfault !25
  %5 = getelementptr %"struct.std::_Vector_base<int, std::allocator<int> >::_Vector_impl"* %fi2, i32 0, i32 1, !llfi_index !468
  %fi3 = call i32** @injectFault17(i64 467, i32** %5, i32 29, i32 0, i32 1, i32 0, i8* getelementptr inbounds ([14 x i8]* @getelementptr_namestr, i32 0, i32 0)), !llfi_injectfault !25
  %6 = load i32** %fi3, align 8, !llfi_index !469
  %fi4 = call i32* @injectFault10(i64 468, i32* %6, i32 27, i32 0, i32 1, i32 0, i8* getelementptr inbounds ([5 x i8]* @load_namestr, i32 0, i32 0)), !llfi_injectfault !25
  %7 = bitcast %"class.std::vector"* %fi to %"struct.std::_Vector_base"*, !llfi_index !470
  %fi5 = call %"struct.std::_Vector_base"* @injectFault15(i64 469, %"struct.std::_Vector_base"* %7, i32 44, i32 0, i32 1, i32 0, i8* getelementptr inbounds ([8 x i8]* @bitcast_namestr, i32 0, i32 0)), !llfi_injectfault !25
  %8 = getelementptr %"struct.std::_Vector_base"* %fi5, i32 0, i32 0, !llfi_index !471
  %fi6 = call %"struct.std::_Vector_base<int, std::allocator<int> >::_Vector_impl"* @injectFault16(i64 470, %"struct.std::_Vector_base<int, std::allocator<int> >::_Vector_impl"* %8, i32 29, i32 0, i32 1, i32 0, i8* getelementptr inbounds ([14 x i8]* @getelementptr_namestr, i32 0, i32 0)), !llfi_injectfault !25
  %9 = getelementptr %"struct.std::_Vector_base<int, std::allocator<int> >::_Vector_impl"* %fi6, i32 0, i32 0, !llfi_index !472
  %fi7 = call i32** @injectFault17(i64 471, i32** %9, i32 29, i32 0, i32 1, i32 0, i8* getelementptr inbounds ([14 x i8]* @getelementptr_namestr, i32 0, i32 0)), !llfi_injectfault !25
  %10 = load i32** %fi7, align 8, !llfi_index !473
  %fi8 = call i32* @injectFault10(i64 472, i32* %10, i32 27, i32 0, i32 1, i32 0, i8* getelementptr inbounds ([5 x i8]* @load_namestr, i32 0, i32 0)), !llfi_injectfault !25
  %11 = ptrtoint i32* %fi4 to i64, !llfi_index !474
  %fi9 = call i64 @injectFault12(i64 473, i64 %11, i32 42, i32 0, i32 1, i32 0, i8* getelementptr inbounds ([9 x i8]* @ptrtoint_namestr, i32 0, i32 0)), !llfi_injectfault !25
  %12 = ptrtoint i32* %fi8 to i64, !llfi_index !475
  %fi10 = call i64 @injectFault12(i64 474, i64 %12, i32 42, i32 0, i32 1, i32 0, i8* getelementptr inbounds ([9 x i8]* @ptrtoint_namestr, i32 0, i32 0)), !llfi_injectfault !25
  %13 = sub i64 %fi9, %fi10, !llfi_index !476
  %fi11 = call i64 @injectFault12(i64 475, i64 %13, i32 10, i32 0, i32 1, i32 0, i8* getelementptr inbounds ([4 x i8]* @sub_namestr, i32 0, i32 0)), !llfi_injectfault !25
  %14 = sdiv exact i64 %fi11, 4, !llfi_index !477
  %fi12 = call i64 @injectFault12(i64 476, i64 %14, i32 15, i32 0, i32 1, i32 0, i8* getelementptr inbounds ([5 x i8]* @sdiv_namestr, i32 0, i32 0)), !llfi_injectfault !25
  ret i64 %fi12, !llfi_index !478
}

declare %"class.std::basic_ostream"* @_ZNSolsEi(%"class.std::basic_ostream"*, i32) #1

; Function Attrs: nounwind uwtable
define linkonce_odr i32* @_ZNSt6vectorIiSaIiEEixEm(%"class.std::vector"* %this, i64 %__n) #3 align 2 {
  %1 = alloca %"class.std::vector"*, align 8, !llfi_index !479
  %2 = alloca i64, align 8, !llfi_index !480
  store %"class.std::vector"* %this, %"class.std::vector"** %1, align 8, !llfi_index !481
  store i64 %__n, i64* %2, align 8, !llfi_index !482
  %3 = load %"class.std::vector"** %1, !llfi_index !483
  %fi = call %"class.std::vector"* @injectFault9(i64 482, %"class.std::vector"* %3, i32 27, i32 0, i32 1, i32 0, i8* getelementptr inbounds ([5 x i8]* @load_namestr, i32 0, i32 0)), !llfi_injectfault !25
  %4 = bitcast %"class.std::vector"* %fi to %"struct.std::_Vector_base"*, !llfi_index !484
  %fi1 = call %"struct.std::_Vector_base"* @injectFault15(i64 483, %"struct.std::_Vector_base"* %4, i32 44, i32 0, i32 1, i32 0, i8* getelementptr inbounds ([8 x i8]* @bitcast_namestr, i32 0, i32 0)), !llfi_injectfault !25
  %5 = getelementptr %"struct.std::_Vector_base"* %fi1, i32 0, i32 0, !llfi_index !485
  %fi2 = call %"struct.std::_Vector_base<int, std::allocator<int> >::_Vector_impl"* @injectFault16(i64 484, %"struct.std::_Vector_base<int, std::allocator<int> >::_Vector_impl"* %5, i32 29, i32 0, i32 1, i32 0, i8* getelementptr inbounds ([14 x i8]* @getelementptr_namestr, i32 0, i32 0)), !llfi_injectfault !25
  %6 = getelementptr %"struct.std::_Vector_base<int, std::allocator<int> >::_Vector_impl"* %fi2, i32 0, i32 0, !llfi_index !486
  %fi3 = call i32** @injectFault17(i64 485, i32** %6, i32 29, i32 0, i32 1, i32 0, i8* getelementptr inbounds ([14 x i8]* @getelementptr_namestr, i32 0, i32 0)), !llfi_injectfault !25
  %7 = load i32** %fi3, align 8, !llfi_index !487
  %fi4 = call i32* @injectFault10(i64 486, i32* %7, i32 27, i32 0, i32 1, i32 0, i8* getelementptr inbounds ([5 x i8]* @load_namestr, i32 0, i32 0)), !llfi_injectfault !25
  %8 = load i64* %2, align 8, !llfi_index !488
  %fi5 = call i64 @injectFault12(i64 487, i64 %8, i32 27, i32 0, i32 1, i32 0, i8* getelementptr inbounds ([5 x i8]* @load_namestr, i32 0, i32 0)), !llfi_injectfault !25
  %9 = getelementptr i32* %fi4, i64 %fi5, !llfi_index !489
  %fi6 = call i32* @injectFault10(i64 488, i32* %9, i32 29, i32 0, i32 1, i32 0, i8* getelementptr inbounds ([14 x i8]* @getelementptr_namestr, i32 0, i32 0)), !llfi_injectfault !25
  ret i32* %fi6, !llfi_index !490
}

; Function Attrs: nounwind uwtable
define linkonce_odr void @_ZNSt6vectorIiSaIiEED2Ev(%"class.std::vector"* %this) unnamed_addr #3 align 2 {
  %1 = alloca %"class.std::vector"*, align 8, !llfi_index !491
  store %"class.std::vector"* %this, %"class.std::vector"** %1, align 8, !llfi_index !492
  %2 = load %"class.std::vector"** %1, !llfi_index !493
  %fi = call %"class.std::vector"* @injectFault9(i64 492, %"class.std::vector"* %2, i32 27, i32 0, i32 1, i32 0, i8* getelementptr inbounds ([5 x i8]* @load_namestr, i32 0, i32 0)), !llfi_injectfault !25
  %3 = bitcast %"class.std::vector"* %fi to %"struct.std::_Vector_base"*, !llfi_index !494
  %fi1 = call %"struct.std::_Vector_base"* @injectFault15(i64 493, %"struct.std::_Vector_base"* %3, i32 44, i32 0, i32 1, i32 0, i8* getelementptr inbounds ([8 x i8]* @bitcast_namestr, i32 0, i32 0)), !llfi_injectfault !25
  %4 = getelementptr %"struct.std::_Vector_base"* %fi1, i32 0, i32 0, !llfi_index !495
  %fi2 = call %"struct.std::_Vector_base<int, std::allocator<int> >::_Vector_impl"* @injectFault16(i64 494, %"struct.std::_Vector_base<int, std::allocator<int> >::_Vector_impl"* %4, i32 29, i32 0, i32 1, i32 0, i8* getelementptr inbounds ([14 x i8]* @getelementptr_namestr, i32 0, i32 0)), !llfi_injectfault !25
  %5 = getelementptr %"struct.std::_Vector_base<int, std::allocator<int> >::_Vector_impl"* %fi2, i32 0, i32 0, !llfi_index !496
  %fi3 = call i32** @injectFault17(i64 495, i32** %5, i32 29, i32 0, i32 1, i32 0, i8* getelementptr inbounds ([14 x i8]* @getelementptr_namestr, i32 0, i32 0)), !llfi_injectfault !25
  %6 = load i32** %fi3, align 8, !llfi_index !497
  %fi4 = call i32* @injectFault10(i64 496, i32* %6, i32 27, i32 0, i32 1, i32 0, i8* getelementptr inbounds ([5 x i8]* @load_namestr, i32 0, i32 0)), !llfi_injectfault !25
  %7 = bitcast %"class.std::vector"* %fi to %"struct.std::_Vector_base"*, !llfi_index !498
  %fi5 = call %"struct.std::_Vector_base"* @injectFault15(i64 497, %"struct.std::_Vector_base"* %7, i32 44, i32 0, i32 1, i32 0, i8* getelementptr inbounds ([8 x i8]* @bitcast_namestr, i32 0, i32 0)), !llfi_injectfault !25
  %8 = getelementptr %"struct.std::_Vector_base"* %fi5, i32 0, i32 0, !llfi_index !499
  %fi6 = call %"struct.std::_Vector_base<int, std::allocator<int> >::_Vector_impl"* @injectFault16(i64 498, %"struct.std::_Vector_base<int, std::allocator<int> >::_Vector_impl"* %8, i32 29, i32 0, i32 1, i32 0, i8* getelementptr inbounds ([14 x i8]* @getelementptr_namestr, i32 0, i32 0)), !llfi_injectfault !25
  %9 = getelementptr %"struct.std::_Vector_base<int, std::allocator<int> >::_Vector_impl"* %fi6, i32 0, i32 1, !llfi_index !500
  %fi7 = call i32** @injectFault17(i64 499, i32** %9, i32 29, i32 0, i32 1, i32 0, i8* getelementptr inbounds ([14 x i8]* @getelementptr_namestr, i32 0, i32 0)), !llfi_injectfault !25
  %10 = load i32** %fi7, align 8, !llfi_index !501
  %fi8 = call i32* @injectFault10(i64 500, i32* %10, i32 27, i32 0, i32 1, i32 0, i8* getelementptr inbounds ([5 x i8]* @load_namestr, i32 0, i32 0)), !llfi_injectfault !25
  %11 = bitcast %"class.std::vector"* %fi to %"struct.std::_Vector_base"*, !llfi_index !502
  %fi9 = call %"struct.std::_Vector_base"* @injectFault15(i64 501, %"struct.std::_Vector_base"* %11, i32 44, i32 0, i32 1, i32 0, i8* getelementptr inbounds ([8 x i8]* @bitcast_namestr, i32 0, i32 0)), !llfi_injectfault !25
  %12 = call %"class.std::allocator"* @_ZNSt12_Vector_baseIiSaIiEE19_M_get_Tp_allocatorEv(%"struct.std::_Vector_base"* %fi9) #0, !llfi_index !503
  call void @_ZSt8_DestroyIPiiEvT_S1_RSaIT0_E(i32* %fi4, i32* %fi8, %"class.std::allocator"* %12), !llfi_index !504
  %13 = bitcast %"class.std::vector"* %fi to %"struct.std::_Vector_base"*, !llfi_index !505
  %fi10 = call %"struct.std::_Vector_base"* @injectFault15(i64 504, %"struct.std::_Vector_base"* %13, i32 44, i32 0, i32 1, i32 0, i8* getelementptr inbounds ([8 x i8]* @bitcast_namestr, i32 0, i32 0)), !llfi_injectfault !25
  call void @_ZNSt12_Vector_baseIiSaIiEED2Ev(%"struct.std::_Vector_base"* %fi10) #0, !llfi_index !506
  ret void, !llfi_index !507
}

; Function Attrs: nounwind
declare void @_ZNSt14basic_ifstreamIcSt11char_traitsIcEED1Ev(%"class.std::basic_ifstream"*) #2

; Function Attrs: nounwind
declare void @_ZNSt7__cxx1112basic_stringIcSt11char_traitsIcESaIcEED1Ev(%"class.std::__cxx11::basic_string"*) #2

; Function Attrs: inlinehint nounwind uwtable
define linkonce_odr void @_ZSt8_DestroyIPiiEvT_S1_RSaIT0_E(i32* %__first, i32* %__last, %"class.std::allocator"*) #4 {
  %2 = alloca i32*, align 8, !llfi_index !508
  %3 = alloca i32*, align 8, !llfi_index !509
  %4 = alloca %"class.std::allocator"*, align 8, !llfi_index !510
  store i32* %__first, i32** %2, align 8, !llfi_index !511
  store i32* %__last, i32** %3, align 8, !llfi_index !512
  store %"class.std::allocator"* %0, %"class.std::allocator"** %4, align 8, !llfi_index !513
  %5 = load i32** %2, align 8, !llfi_index !514
  %fi = call i32* @injectFault10(i64 513, i32* %5, i32 27, i32 0, i32 1, i32 0, i8* getelementptr inbounds ([5 x i8]* @load_namestr, i32 0, i32 0)), !llfi_injectfault !25
  %6 = load i32** %3, align 8, !llfi_index !515
  %fi1 = call i32* @injectFault10(i64 514, i32* %6, i32 27, i32 0, i32 1, i32 0, i8* getelementptr inbounds ([5 x i8]* @load_namestr, i32 0, i32 0)), !llfi_injectfault !25
  call void @_ZSt8_DestroyIPiEvT_S1_(i32* %fi, i32* %fi1), !llfi_index !516
  ret void, !llfi_index !517
}

; Function Attrs: nounwind uwtable
define linkonce_odr %"class.std::allocator"* @_ZNSt12_Vector_baseIiSaIiEE19_M_get_Tp_allocatorEv(%"struct.std::_Vector_base"* %this) #3 align 2 {
  %1 = alloca %"struct.std::_Vector_base"*, align 8, !llfi_index !518
  store %"struct.std::_Vector_base"* %this, %"struct.std::_Vector_base"** %1, align 8, !llfi_index !519
  %2 = load %"struct.std::_Vector_base"** %1, !llfi_index !520
  %fi = call %"struct.std::_Vector_base"* @injectFault15(i64 519, %"struct.std::_Vector_base"* %2, i32 27, i32 0, i32 1, i32 0, i8* getelementptr inbounds ([5 x i8]* @load_namestr, i32 0, i32 0)), !llfi_injectfault !25
  %3 = getelementptr %"struct.std::_Vector_base"* %fi, i32 0, i32 0, !llfi_index !521
  %fi1 = call %"struct.std::_Vector_base<int, std::allocator<int> >::_Vector_impl"* @injectFault16(i64 520, %"struct.std::_Vector_base<int, std::allocator<int> >::_Vector_impl"* %3, i32 29, i32 0, i32 1, i32 0, i8* getelementptr inbounds ([14 x i8]* @getelementptr_namestr, i32 0, i32 0)), !llfi_injectfault !25
  %4 = bitcast %"struct.std::_Vector_base<int, std::allocator<int> >::_Vector_impl"* %fi1 to %"class.std::allocator"*, !llfi_index !522
  %fi2 = call %"class.std::allocator"* @injectFault18(i64 521, %"class.std::allocator"* %4, i32 44, i32 0, i32 1, i32 0, i8* getelementptr inbounds ([8 x i8]* @bitcast_namestr, i32 0, i32 0)), !llfi_injectfault !25
  ret %"class.std::allocator"* %fi2, !llfi_index !523
}

; Function Attrs: nounwind uwtable
define linkonce_odr void @_ZNSt12_Vector_baseIiSaIiEED2Ev(%"struct.std::_Vector_base"* %this) unnamed_addr #3 align 2 {
  %1 = alloca %"struct.std::_Vector_base"*, align 8, !llfi_index !524
  store %"struct.std::_Vector_base"* %this, %"struct.std::_Vector_base"** %1, align 8, !llfi_index !525
  %2 = load %"struct.std::_Vector_base"** %1, !llfi_index !526
  %fi = call %"struct.std::_Vector_base"* @injectFault15(i64 525, %"struct.std::_Vector_base"* %2, i32 27, i32 0, i32 1, i32 0, i8* getelementptr inbounds ([5 x i8]* @load_namestr, i32 0, i32 0)), !llfi_injectfault !25
  %3 = getelementptr %"struct.std::_Vector_base"* %fi, i32 0, i32 0, !llfi_index !527
  %fi1 = call %"struct.std::_Vector_base<int, std::allocator<int> >::_Vector_impl"* @injectFault16(i64 526, %"struct.std::_Vector_base<int, std::allocator<int> >::_Vector_impl"* %3, i32 29, i32 0, i32 1, i32 0, i8* getelementptr inbounds ([14 x i8]* @getelementptr_namestr, i32 0, i32 0)), !llfi_injectfault !25
  %4 = getelementptr %"struct.std::_Vector_base<int, std::allocator<int> >::_Vector_impl"* %fi1, i32 0, i32 0, !llfi_index !528
  %fi2 = call i32** @injectFault17(i64 527, i32** %4, i32 29, i32 0, i32 1, i32 0, i8* getelementptr inbounds ([14 x i8]* @getelementptr_namestr, i32 0, i32 0)), !llfi_injectfault !25
  %5 = load i32** %fi2, align 8, !llfi_index !529
  %fi3 = call i32* @injectFault10(i64 528, i32* %5, i32 27, i32 0, i32 1, i32 0, i8* getelementptr inbounds ([5 x i8]* @load_namestr, i32 0, i32 0)), !llfi_injectfault !25
  %6 = getelementptr %"struct.std::_Vector_base"* %fi, i32 0, i32 0, !llfi_index !530
  %fi4 = call %"struct.std::_Vector_base<int, std::allocator<int> >::_Vector_impl"* @injectFault16(i64 529, %"struct.std::_Vector_base<int, std::allocator<int> >::_Vector_impl"* %6, i32 29, i32 0, i32 1, i32 0, i8* getelementptr inbounds ([14 x i8]* @getelementptr_namestr, i32 0, i32 0)), !llfi_injectfault !25
  %7 = getelementptr %"struct.std::_Vector_base<int, std::allocator<int> >::_Vector_impl"* %fi4, i32 0, i32 2, !llfi_index !531
  %fi5 = call i32** @injectFault17(i64 530, i32** %7, i32 29, i32 0, i32 1, i32 0, i8* getelementptr inbounds ([14 x i8]* @getelementptr_namestr, i32 0, i32 0)), !llfi_injectfault !25
  %8 = load i32** %fi5, align 8, !llfi_index !532
  %fi6 = call i32* @injectFault10(i64 531, i32* %8, i32 27, i32 0, i32 1, i32 0, i8* getelementptr inbounds ([5 x i8]* @load_namestr, i32 0, i32 0)), !llfi_injectfault !25
  %9 = getelementptr %"struct.std::_Vector_base"* %fi, i32 0, i32 0, !llfi_index !533
  %fi7 = call %"struct.std::_Vector_base<int, std::allocator<int> >::_Vector_impl"* @injectFault16(i64 532, %"struct.std::_Vector_base<int, std::allocator<int> >::_Vector_impl"* %9, i32 29, i32 0, i32 1, i32 0, i8* getelementptr inbounds ([14 x i8]* @getelementptr_namestr, i32 0, i32 0)), !llfi_injectfault !25
  %10 = getelementptr %"struct.std::_Vector_base<int, std::allocator<int> >::_Vector_impl"* %fi7, i32 0, i32 0, !llfi_index !534
  %fi8 = call i32** @injectFault17(i64 533, i32** %10, i32 29, i32 0, i32 1, i32 0, i8* getelementptr inbounds ([14 x i8]* @getelementptr_namestr, i32 0, i32 0)), !llfi_injectfault !25
  %11 = load i32** %fi8, align 8, !llfi_index !535
  %fi9 = call i32* @injectFault10(i64 534, i32* %11, i32 27, i32 0, i32 1, i32 0, i8* getelementptr inbounds ([5 x i8]* @load_namestr, i32 0, i32 0)), !llfi_injectfault !25
  %12 = ptrtoint i32* %fi6 to i64, !llfi_index !536
  %fi10 = call i64 @injectFault12(i64 535, i64 %12, i32 42, i32 0, i32 1, i32 0, i8* getelementptr inbounds ([9 x i8]* @ptrtoint_namestr, i32 0, i32 0)), !llfi_injectfault !25
  %13 = ptrtoint i32* %fi9 to i64, !llfi_index !537
  %fi11 = call i64 @injectFault12(i64 536, i64 %13, i32 42, i32 0, i32 1, i32 0, i8* getelementptr inbounds ([9 x i8]* @ptrtoint_namestr, i32 0, i32 0)), !llfi_injectfault !25
  %14 = sub i64 %fi10, %fi11, !llfi_index !538
  %fi12 = call i64 @injectFault12(i64 537, i64 %14, i32 10, i32 0, i32 1, i32 0, i8* getelementptr inbounds ([4 x i8]* @sub_namestr, i32 0, i32 0)), !llfi_injectfault !25
  %15 = sdiv exact i64 %fi12, 4, !llfi_index !539
  %fi13 = call i64 @injectFault12(i64 538, i64 %15, i32 15, i32 0, i32 1, i32 0, i8* getelementptr inbounds ([5 x i8]* @sdiv_namestr, i32 0, i32 0)), !llfi_injectfault !25
  call void @_ZNSt12_Vector_baseIiSaIiEE13_M_deallocateEPim(%"struct.std::_Vector_base"* %fi, i32* %fi3, i64 %fi13), !llfi_index !540
  %16 = getelementptr %"struct.std::_Vector_base"* %fi, i32 0, i32 0, !llfi_index !541
  %fi14 = call %"struct.std::_Vector_base<int, std::allocator<int> >::_Vector_impl"* @injectFault16(i64 540, %"struct.std::_Vector_base<int, std::allocator<int> >::_Vector_impl"* %16, i32 29, i32 0, i32 1, i32 0, i8* getelementptr inbounds ([14 x i8]* @getelementptr_namestr, i32 0, i32 0)), !llfi_injectfault !25
  call void @_ZNSt12_Vector_baseIiSaIiEE12_Vector_implD2Ev(%"struct.std::_Vector_base<int, std::allocator<int> >::_Vector_impl"* %fi14) #0, !llfi_index !542
  ret void, !llfi_index !543
}

; Function Attrs: nounwind uwtable
define linkonce_odr void @_ZNSt12_Vector_baseIiSaIiEE13_M_deallocateEPim(%"struct.std::_Vector_base"* %this, i32* %__p, i64 %__n) #3 align 2 {
  %1 = alloca %"struct.std::_Vector_base"*, align 8, !llfi_index !544
  %2 = alloca i32*, align 8, !llfi_index !545
  %3 = alloca i64, align 8, !llfi_index !546
  store %"struct.std::_Vector_base"* %this, %"struct.std::_Vector_base"** %1, align 8, !llfi_index !547
  store i32* %__p, i32** %2, align 8, !llfi_index !548
  store i64 %__n, i64* %3, align 8, !llfi_index !549
  %4 = load %"struct.std::_Vector_base"** %1, !llfi_index !550
  %fi = call %"struct.std::_Vector_base"* @injectFault15(i64 549, %"struct.std::_Vector_base"* %4, i32 27, i32 0, i32 1, i32 0, i8* getelementptr inbounds ([5 x i8]* @load_namestr, i32 0, i32 0)), !llfi_injectfault !25
  %5 = load i32** %2, align 8, !llfi_index !551
  %fi1 = call i32* @injectFault10(i64 550, i32* %5, i32 27, i32 0, i32 1, i32 0, i8* getelementptr inbounds ([5 x i8]* @load_namestr, i32 0, i32 0)), !llfi_injectfault !25
  %6 = icmp ne i32* %fi1, null, !llfi_index !552
  %fi2 = call i1 @injectFault3(i64 551, i1 %6, i32 46, i32 0, i32 1, i32 0, i8* getelementptr inbounds ([5 x i8]* @icmp_namestr, i32 0, i32 0)), !llfi_injectfault !25
  br i1 %fi2, label %7, label %12, !llfi_index !553

; <label>:7                                       ; preds = %0
  %8 = getelementptr %"struct.std::_Vector_base"* %fi, i32 0, i32 0, !llfi_index !554
  %fi3 = call %"struct.std::_Vector_base<int, std::allocator<int> >::_Vector_impl"* @injectFault16(i64 553, %"struct.std::_Vector_base<int, std::allocator<int> >::_Vector_impl"* %8, i32 29, i32 0, i32 1, i32 0, i8* getelementptr inbounds ([14 x i8]* @getelementptr_namestr, i32 0, i32 0)), !llfi_injectfault !25
  %9 = bitcast %"struct.std::_Vector_base<int, std::allocator<int> >::_Vector_impl"* %fi3 to %"class.std::allocator"*, !llfi_index !555
  %fi4 = call %"class.std::allocator"* @injectFault18(i64 554, %"class.std::allocator"* %9, i32 44, i32 0, i32 1, i32 0, i8* getelementptr inbounds ([8 x i8]* @bitcast_namestr, i32 0, i32 0)), !llfi_injectfault !25
  %10 = load i32** %2, align 8, !llfi_index !556
  %fi5 = call i32* @injectFault10(i64 555, i32* %10, i32 27, i32 0, i32 1, i32 0, i8* getelementptr inbounds ([5 x i8]* @load_namestr, i32 0, i32 0)), !llfi_injectfault !25
  %11 = load i64* %3, align 8, !llfi_index !557
  %fi6 = call i64 @injectFault12(i64 556, i64 %11, i32 27, i32 0, i32 1, i32 0, i8* getelementptr inbounds ([5 x i8]* @load_namestr, i32 0, i32 0)), !llfi_injectfault !25
  call void @_ZNSt16allocator_traitsISaIiEE10deallocateERS0_Pim(%"class.std::allocator"* %fi4, i32* %fi5, i64 %fi6), !llfi_index !558
  br label %12, !llfi_index !559

; <label>:12                                      ; preds = %7, %0
  ret void, !llfi_index !560
}

; Function Attrs: inlinehint nounwind uwtable
define linkonce_odr void @_ZNSt12_Vector_baseIiSaIiEE12_Vector_implD2Ev(%"struct.std::_Vector_base<int, std::allocator<int> >::_Vector_impl"* %this) unnamed_addr #4 align 2 {
  %1 = alloca %"struct.std::_Vector_base<int, std::allocator<int> >::_Vector_impl"*, align 8, !llfi_index !561
  store %"struct.std::_Vector_base<int, std::allocator<int> >::_Vector_impl"* %this, %"struct.std::_Vector_base<int, std::allocator<int> >::_Vector_impl"** %1, align 8, !llfi_index !562
  %2 = load %"struct.std::_Vector_base<int, std::allocator<int> >::_Vector_impl"** %1, !llfi_index !563
  %fi = call %"struct.std::_Vector_base<int, std::allocator<int> >::_Vector_impl"* @injectFault16(i64 562, %"struct.std::_Vector_base<int, std::allocator<int> >::_Vector_impl"* %2, i32 27, i32 0, i32 1, i32 0, i8* getelementptr inbounds ([5 x i8]* @load_namestr, i32 0, i32 0)), !llfi_injectfault !25
  %3 = bitcast %"struct.std::_Vector_base<int, std::allocator<int> >::_Vector_impl"* %fi to %"class.std::allocator"*, !llfi_index !564
  %fi1 = call %"class.std::allocator"* @injectFault18(i64 563, %"class.std::allocator"* %3, i32 44, i32 0, i32 1, i32 0, i8* getelementptr inbounds ([8 x i8]* @bitcast_namestr, i32 0, i32 0)), !llfi_injectfault !25
  call void @_ZNSaIiED2Ev(%"class.std::allocator"* %fi1) #0, !llfi_index !565
  ret void, !llfi_index !566
}

; Function Attrs: nounwind uwtable
define linkonce_odr void @_ZNSaIiED2Ev(%"class.std::allocator"* %this) unnamed_addr #3 align 2 {
  %1 = alloca %"class.std::allocator"*, align 8, !llfi_index !567
  store %"class.std::allocator"* %this, %"class.std::allocator"** %1, align 8, !llfi_index !568
  %2 = load %"class.std::allocator"** %1, !llfi_index !569
  %fi = call %"class.std::allocator"* @injectFault18(i64 568, %"class.std::allocator"* %2, i32 27, i32 0, i32 1, i32 0, i8* getelementptr inbounds ([5 x i8]* @load_namestr, i32 0, i32 0)), !llfi_injectfault !25
  %3 = bitcast %"class.std::allocator"* %fi to %"class.__gnu_cxx::new_allocator"*, !llfi_index !570
  %fi1 = call %"class.__gnu_cxx::new_allocator"* @injectFault30(i64 569, %"class.__gnu_cxx::new_allocator"* %3, i32 44, i32 0, i32 1, i32 0, i8* getelementptr inbounds ([8 x i8]* @bitcast_namestr, i32 0, i32 0)), !llfi_injectfault !25
  call void @_ZN9__gnu_cxx13new_allocatorIiED2Ev(%"class.__gnu_cxx::new_allocator"* %fi1) #0, !llfi_index !571
  ret void, !llfi_index !572
}

; Function Attrs: nounwind uwtable
define linkonce_odr void @_ZN9__gnu_cxx13new_allocatorIiED2Ev(%"class.__gnu_cxx::new_allocator"* %this) unnamed_addr #3 align 2 {
  %1 = alloca %"class.__gnu_cxx::new_allocator"*, align 8, !llfi_index !573
  store %"class.__gnu_cxx::new_allocator"* %this, %"class.__gnu_cxx::new_allocator"** %1, align 8, !llfi_index !574
  %2 = load %"class.__gnu_cxx::new_allocator"** %1, !llfi_index !575
  %fi = call %"class.__gnu_cxx::new_allocator"* @injectFault30(i64 574, %"class.__gnu_cxx::new_allocator"* %2, i32 27, i32 0, i32 1, i32 0, i8* getelementptr inbounds ([5 x i8]* @load_namestr, i32 0, i32 0)), !llfi_injectfault !25
  ret void, !llfi_index !576
}

; Function Attrs: nounwind uwtable
define linkonce_odr void @_ZNSt16allocator_traitsISaIiEE10deallocateERS0_Pim(%"class.std::allocator"* %__a, i32* %__p, i64 %__n) #3 align 2 {
  %1 = alloca %"class.std::allocator"*, align 8, !llfi_index !577
  %2 = alloca i32*, align 8, !llfi_index !578
  %3 = alloca i64, align 8, !llfi_index !579
  store %"class.std::allocator"* %__a, %"class.std::allocator"** %1, align 8, !llfi_index !580
  store i32* %__p, i32** %2, align 8, !llfi_index !581
  store i64 %__n, i64* %3, align 8, !llfi_index !582
  %4 = load %"class.std::allocator"** %1, align 8, !llfi_index !583
  %fi = call %"class.std::allocator"* @injectFault18(i64 582, %"class.std::allocator"* %4, i32 27, i32 0, i32 1, i32 0, i8* getelementptr inbounds ([5 x i8]* @load_namestr, i32 0, i32 0)), !llfi_injectfault !25
  %5 = bitcast %"class.std::allocator"* %fi to %"class.__gnu_cxx::new_allocator"*, !llfi_index !584
  %fi1 = call %"class.__gnu_cxx::new_allocator"* @injectFault30(i64 583, %"class.__gnu_cxx::new_allocator"* %5, i32 44, i32 0, i32 1, i32 0, i8* getelementptr inbounds ([8 x i8]* @bitcast_namestr, i32 0, i32 0)), !llfi_injectfault !25
  %6 = load i32** %2, align 8, !llfi_index !585
  %fi2 = call i32* @injectFault10(i64 584, i32* %6, i32 27, i32 0, i32 1, i32 0, i8* getelementptr inbounds ([5 x i8]* @load_namestr, i32 0, i32 0)), !llfi_injectfault !25
  %7 = load i64* %3, align 8, !llfi_index !586
  %fi3 = call i64 @injectFault12(i64 585, i64 %7, i32 27, i32 0, i32 1, i32 0, i8* getelementptr inbounds ([5 x i8]* @load_namestr, i32 0, i32 0)), !llfi_injectfault !25
  call void @_ZN9__gnu_cxx13new_allocatorIiE10deallocateEPim(%"class.__gnu_cxx::new_allocator"* %fi1, i32* %fi2, i64 %fi3), !llfi_index !587
  ret void, !llfi_index !588
}

; Function Attrs: nounwind uwtable
define linkonce_odr void @_ZN9__gnu_cxx13new_allocatorIiE10deallocateEPim(%"class.__gnu_cxx::new_allocator"* %this, i32* %__p, i64) #3 align 2 {
  %2 = alloca %"class.__gnu_cxx::new_allocator"*, align 8, !llfi_index !589
  %3 = alloca i32*, align 8, !llfi_index !590
  %4 = alloca i64, align 8, !llfi_index !591
  store %"class.__gnu_cxx::new_allocator"* %this, %"class.__gnu_cxx::new_allocator"** %2, align 8, !llfi_index !592
  store i32* %__p, i32** %3, align 8, !llfi_index !593
  store i64 %0, i64* %4, align 8, !llfi_index !594
  %5 = load %"class.__gnu_cxx::new_allocator"** %2, !llfi_index !595
  %fi = call %"class.__gnu_cxx::new_allocator"* @injectFault30(i64 594, %"class.__gnu_cxx::new_allocator"* %5, i32 27, i32 0, i32 1, i32 0, i8* getelementptr inbounds ([5 x i8]* @load_namestr, i32 0, i32 0)), !llfi_injectfault !25
  %6 = load i32** %3, align 8, !llfi_index !596
  %fi1 = call i32* @injectFault10(i64 595, i32* %6, i32 27, i32 0, i32 1, i32 0, i8* getelementptr inbounds ([5 x i8]* @load_namestr, i32 0, i32 0)), !llfi_injectfault !25
  %7 = bitcast i32* %fi1 to i8*, !llfi_index !597
  %fi2 = call i8* @injectFault7(i64 596, i8* %7, i32 44, i32 0, i32 1, i32 0, i8* getelementptr inbounds ([8 x i8]* @bitcast_namestr, i32 0, i32 0)), !llfi_injectfault !25
  call void @_ZdlPv(i8* %fi2) #0, !llfi_index !598
  ret void, !llfi_index !599
}

; Function Attrs: nobuiltin nounwind
declare void @_ZdlPv(i8*) #6

; Function Attrs: inlinehint nounwind uwtable
define linkonce_odr void @_ZSt8_DestroyIPiEvT_S1_(i32* %__first, i32* %__last) #4 {
  %1 = alloca i32*, align 8, !llfi_index !600
  %2 = alloca i32*, align 8, !llfi_index !601
  store i32* %__first, i32** %1, align 8, !llfi_index !602
  store i32* %__last, i32** %2, align 8, !llfi_index !603
  %3 = load i32** %1, align 8, !llfi_index !604
  %fi = call i32* @injectFault10(i64 603, i32* %3, i32 27, i32 0, i32 1, i32 0, i8* getelementptr inbounds ([5 x i8]* @load_namestr, i32 0, i32 0)), !llfi_injectfault !25
  %4 = load i32** %2, align 8, !llfi_index !605
  %fi1 = call i32* @injectFault10(i64 604, i32* %4, i32 27, i32 0, i32 1, i32 0, i8* getelementptr inbounds ([5 x i8]* @load_namestr, i32 0, i32 0)), !llfi_injectfault !25
  call void @_ZNSt12_Destroy_auxILb1EE9__destroyIPiEEvT_S3_(i32* %fi, i32* %fi1), !llfi_index !606
  ret void, !llfi_index !607
}

; Function Attrs: nounwind uwtable
define linkonce_odr void @_ZNSt12_Destroy_auxILb1EE9__destroyIPiEEvT_S3_(i32*, i32*) #3 align 2 {
  %3 = alloca i32*, align 8, !llfi_index !608
  %4 = alloca i32*, align 8, !llfi_index !609
  store i32* %0, i32** %3, align 8, !llfi_index !610
  store i32* %1, i32** %4, align 8, !llfi_index !611
  ret void, !llfi_index !612
}

; Function Attrs: nounwind uwtable
define linkonce_odr void @_ZNSt12_Vector_baseIiSaIiEEC2Ev(%"struct.std::_Vector_base"* %this) unnamed_addr #3 align 2 {
  %1 = alloca %"struct.std::_Vector_base"*, align 8, !llfi_index !613
  store %"struct.std::_Vector_base"* %this, %"struct.std::_Vector_base"** %1, align 8, !llfi_index !614
  %2 = load %"struct.std::_Vector_base"** %1, !llfi_index !615
  %fi = call %"struct.std::_Vector_base"* @injectFault15(i64 614, %"struct.std::_Vector_base"* %2, i32 27, i32 0, i32 1, i32 0, i8* getelementptr inbounds ([5 x i8]* @load_namestr, i32 0, i32 0)), !llfi_injectfault !25
  %3 = getelementptr %"struct.std::_Vector_base"* %fi, i32 0, i32 0, !llfi_index !616
  %fi1 = call %"struct.std::_Vector_base<int, std::allocator<int> >::_Vector_impl"* @injectFault16(i64 615, %"struct.std::_Vector_base<int, std::allocator<int> >::_Vector_impl"* %3, i32 29, i32 0, i32 1, i32 0, i8* getelementptr inbounds ([14 x i8]* @getelementptr_namestr, i32 0, i32 0)), !llfi_injectfault !25
  call void @_ZNSt12_Vector_baseIiSaIiEE12_Vector_implC2Ev(%"struct.std::_Vector_base<int, std::allocator<int> >::_Vector_impl"* %fi1), !llfi_index !617
  ret void, !llfi_index !618
}

; Function Attrs: nounwind uwtable
define linkonce_odr void @_ZNSt12_Vector_baseIiSaIiEE12_Vector_implC2Ev(%"struct.std::_Vector_base<int, std::allocator<int> >::_Vector_impl"* %this) unnamed_addr #3 align 2 {
  %1 = alloca %"struct.std::_Vector_base<int, std::allocator<int> >::_Vector_impl"*, align 8, !llfi_index !619
  store %"struct.std::_Vector_base<int, std::allocator<int> >::_Vector_impl"* %this, %"struct.std::_Vector_base<int, std::allocator<int> >::_Vector_impl"** %1, align 8, !llfi_index !620
  %2 = load %"struct.std::_Vector_base<int, std::allocator<int> >::_Vector_impl"** %1, !llfi_index !621
  %fi = call %"struct.std::_Vector_base<int, std::allocator<int> >::_Vector_impl"* @injectFault16(i64 620, %"struct.std::_Vector_base<int, std::allocator<int> >::_Vector_impl"* %2, i32 27, i32 0, i32 1, i32 0, i8* getelementptr inbounds ([5 x i8]* @load_namestr, i32 0, i32 0)), !llfi_injectfault !25
  %3 = bitcast %"struct.std::_Vector_base<int, std::allocator<int> >::_Vector_impl"* %fi to %"class.std::allocator"*, !llfi_index !622
  %fi1 = call %"class.std::allocator"* @injectFault18(i64 621, %"class.std::allocator"* %3, i32 44, i32 0, i32 1, i32 0, i8* getelementptr inbounds ([8 x i8]* @bitcast_namestr, i32 0, i32 0)), !llfi_injectfault !25
  call void @_ZNSaIiEC2Ev(%"class.std::allocator"* %fi1) #0, !llfi_index !623
  %4 = getelementptr %"struct.std::_Vector_base<int, std::allocator<int> >::_Vector_impl"* %fi, i32 0, i32 0, !llfi_index !624
  %fi2 = call i32** @injectFault17(i64 623, i32** %4, i32 29, i32 0, i32 1, i32 0, i8* getelementptr inbounds ([14 x i8]* @getelementptr_namestr, i32 0, i32 0)), !llfi_injectfault !25
  store i32* null, i32** %fi2, align 8, !llfi_index !625
  %5 = getelementptr %"struct.std::_Vector_base<int, std::allocator<int> >::_Vector_impl"* %fi, i32 0, i32 1, !llfi_index !626
  %fi3 = call i32** @injectFault17(i64 625, i32** %5, i32 29, i32 0, i32 1, i32 0, i8* getelementptr inbounds ([14 x i8]* @getelementptr_namestr, i32 0, i32 0)), !llfi_injectfault !25
  store i32* null, i32** %fi3, align 8, !llfi_index !627
  %6 = getelementptr %"struct.std::_Vector_base<int, std::allocator<int> >::_Vector_impl"* %fi, i32 0, i32 2, !llfi_index !628
  %fi4 = call i32** @injectFault17(i64 627, i32** %6, i32 29, i32 0, i32 1, i32 0, i8* getelementptr inbounds ([14 x i8]* @getelementptr_namestr, i32 0, i32 0)), !llfi_injectfault !25
  store i32* null, i32** %fi4, align 8, !llfi_index !629
  ret void, !llfi_index !630
}

; Function Attrs: nounwind uwtable
define linkonce_odr void @_ZNSaIiEC2Ev(%"class.std::allocator"* %this) unnamed_addr #3 align 2 {
  %1 = alloca %"class.std::allocator"*, align 8, !llfi_index !631
  store %"class.std::allocator"* %this, %"class.std::allocator"** %1, align 8, !llfi_index !632
  %2 = load %"class.std::allocator"** %1, !llfi_index !633
  %fi = call %"class.std::allocator"* @injectFault18(i64 632, %"class.std::allocator"* %2, i32 27, i32 0, i32 1, i32 0, i8* getelementptr inbounds ([5 x i8]* @load_namestr, i32 0, i32 0)), !llfi_injectfault !25
  %3 = bitcast %"class.std::allocator"* %fi to %"class.__gnu_cxx::new_allocator"*, !llfi_index !634
  %fi1 = call %"class.__gnu_cxx::new_allocator"* @injectFault30(i64 633, %"class.__gnu_cxx::new_allocator"* %3, i32 44, i32 0, i32 1, i32 0, i8* getelementptr inbounds ([8 x i8]* @bitcast_namestr, i32 0, i32 0)), !llfi_injectfault !25
  call void @_ZN9__gnu_cxx13new_allocatorIiEC2Ev(%"class.__gnu_cxx::new_allocator"* %fi1) #0, !llfi_index !635
  ret void, !llfi_index !636
}

; Function Attrs: nounwind uwtable
define linkonce_odr void @_ZN9__gnu_cxx13new_allocatorIiEC2Ev(%"class.__gnu_cxx::new_allocator"* %this) unnamed_addr #3 align 2 {
  %1 = alloca %"class.__gnu_cxx::new_allocator"*, align 8, !llfi_index !637
  store %"class.__gnu_cxx::new_allocator"* %this, %"class.__gnu_cxx::new_allocator"** %1, align 8, !llfi_index !638
  %2 = load %"class.__gnu_cxx::new_allocator"** %1, !llfi_index !639
  %fi = call %"class.__gnu_cxx::new_allocator"* @injectFault30(i64 638, %"class.__gnu_cxx::new_allocator"* %2, i32 27, i32 0, i32 1, i32 0, i8* getelementptr inbounds ([5 x i8]* @load_namestr, i32 0, i32 0)), !llfi_injectfault !25
  ret void, !llfi_index !640
}

; Function Attrs: nounwind uwtable
define linkonce_odr %"class.std::_Rb_tree"* @_ZNSt8_Rb_treeIP4NodeS1_St9_IdentityIS1_ESt4lessIS1_ESaIS1_EEaSERKS7_(%"class.std::_Rb_tree"* %this, %"class.std::_Rb_tree"* %__x) #3 align 2 {
  %1 = alloca %"class.std::_Rb_tree"*, align 8, !llfi_index !641
  %2 = alloca %"class.std::_Rb_tree"*, align 8, !llfi_index !642
  %__roan = alloca %"struct.std::_Rb_tree<Node *, Node *, std::_Identity<Node *>, std::less<Node *>, std::allocator<Node *> >::_Reuse_or_alloc_node", align 8, !llfi_index !643
  store %"class.std::_Rb_tree"* %this, %"class.std::_Rb_tree"** %1, align 8, !llfi_index !644
  store %"class.std::_Rb_tree"* %__x, %"class.std::_Rb_tree"** %2, align 8, !llfi_index !645
  %3 = load %"class.std::_Rb_tree"** %1, !llfi_index !646
  %fi = call %"class.std::_Rb_tree"* @injectFault19(i64 645, %"class.std::_Rb_tree"* %3, i32 27, i32 0, i32 1, i32 0, i8* getelementptr inbounds ([5 x i8]* @load_namestr, i32 0, i32 0)), !llfi_injectfault !25
  %4 = load %"class.std::_Rb_tree"** %2, align 8, !llfi_index !647
  %fi1 = call %"class.std::_Rb_tree"* @injectFault19(i64 646, %"class.std::_Rb_tree"* %4, i32 27, i32 0, i32 1, i32 0, i8* getelementptr inbounds ([5 x i8]* @load_namestr, i32 0, i32 0)), !llfi_injectfault !25
  %5 = icmp ne %"class.std::_Rb_tree"* %fi, %fi1, !llfi_index !648
  %fi2 = call i1 @injectFault3(i64 647, i1 %5, i32 46, i32 0, i32 1, i32 0, i8* getelementptr inbounds ([5 x i8]* @icmp_namestr, i32 0, i32 0)), !llfi_injectfault !25
  br i1 %fi2, label %6, label %38, !llfi_index !649

; <label>:6                                       ; preds = %0
  call void @_ZNSt8_Rb_treeIP4NodeS1_St9_IdentityIS1_ESt4lessIS1_ESaIS1_EE20_Reuse_or_alloc_nodeC2ERS7_(%"struct.std::_Rb_tree<Node *, Node *, std::_Identity<Node *>, std::less<Node *>, std::allocator<Node *> >::_Reuse_or_alloc_node"* %__roan, %"class.std::_Rb_tree"* %fi), !llfi_index !650
  %7 = getelementptr %"class.std::_Rb_tree"* %fi, i32 0, i32 0, !llfi_index !651
  %fi3 = call %"struct.std::_Rb_tree<Node *, Node *, std::_Identity<Node *>, std::less<Node *>, std::allocator<Node *> >::_Rb_tree_impl"* @injectFault28(i64 650, %"struct.std::_Rb_tree<Node *, Node *, std::_Identity<Node *>, std::less<Node *>, std::allocator<Node *> >::_Rb_tree_impl"* %7, i32 29, i32 0, i32 1, i32 0, i8* getelementptr inbounds ([14 x i8]* @getelementptr_namestr, i32 0, i32 0)), !llfi_injectfault !25
  call void @_ZNSt8_Rb_treeIP4NodeS1_St9_IdentityIS1_ESt4lessIS1_ESaIS1_EE13_Rb_tree_implIS5_Lb1EE8_M_resetEv(%"struct.std::_Rb_tree<Node *, Node *, std::_Identity<Node *>, std::less<Node *>, std::allocator<Node *> >::_Rb_tree_impl"* %fi3), !llfi_index !652
  %8 = getelementptr %"class.std::_Rb_tree"* %fi, i32 0, i32 0, !llfi_index !653
  %fi4 = call %"struct.std::_Rb_tree<Node *, Node *, std::_Identity<Node *>, std::less<Node *>, std::allocator<Node *> >::_Rb_tree_impl"* @injectFault28(i64 652, %"struct.std::_Rb_tree<Node *, Node *, std::_Identity<Node *>, std::less<Node *>, std::allocator<Node *> >::_Rb_tree_impl"* %8, i32 29, i32 0, i32 1, i32 0, i8* getelementptr inbounds ([14 x i8]* @getelementptr_namestr, i32 0, i32 0)), !llfi_injectfault !25
  %9 = getelementptr %"struct.std::_Rb_tree<Node *, Node *, std::_Identity<Node *>, std::less<Node *>, std::allocator<Node *> >::_Rb_tree_impl"* %fi4, i32 0, i32 0, !llfi_index !654
  %fi6 = call %"struct.std::less"* @injectFault31(i64 653, %"struct.std::less"* %9, i32 29, i32 0, i32 1, i32 0, i8* getelementptr inbounds ([14 x i8]* @getelementptr_namestr, i32 0, i32 0)), !llfi_injectfault !25
  %10 = load %"class.std::_Rb_tree"** %2, align 8, !llfi_index !655
  %fi7 = call %"class.std::_Rb_tree"* @injectFault19(i64 654, %"class.std::_Rb_tree"* %10, i32 27, i32 0, i32 1, i32 0, i8* getelementptr inbounds ([5 x i8]* @load_namestr, i32 0, i32 0)), !llfi_injectfault !25
  %11 = getelementptr %"class.std::_Rb_tree"* %fi7, i32 0, i32 0, !llfi_index !656
  %fi8 = call %"struct.std::_Rb_tree<Node *, Node *, std::_Identity<Node *>, std::less<Node *>, std::allocator<Node *> >::_Rb_tree_impl"* @injectFault28(i64 655, %"struct.std::_Rb_tree<Node *, Node *, std::_Identity<Node *>, std::less<Node *>, std::allocator<Node *> >::_Rb_tree_impl"* %11, i32 29, i32 0, i32 1, i32 0, i8* getelementptr inbounds ([14 x i8]* @getelementptr_namestr, i32 0, i32 0)), !llfi_injectfault !25
  %12 = getelementptr %"struct.std::_Rb_tree<Node *, Node *, std::_Identity<Node *>, std::less<Node *>, std::allocator<Node *> >::_Rb_tree_impl"* %fi8, i32 0, i32 0, !llfi_index !657
  %fi9 = call %"struct.std::less"* @injectFault31(i64 656, %"struct.std::less"* %12, i32 29, i32 0, i32 1, i32 0, i8* getelementptr inbounds ([14 x i8]* @getelementptr_namestr, i32 0, i32 0)), !llfi_injectfault !25
  %13 = load %"class.std::_Rb_tree"** %2, align 8, !llfi_index !658
  %fi10 = call %"class.std::_Rb_tree"* @injectFault19(i64 657, %"class.std::_Rb_tree"* %13, i32 27, i32 0, i32 1, i32 0, i8* getelementptr inbounds ([5 x i8]* @load_namestr, i32 0, i32 0)), !llfi_injectfault !25
  %14 = call %"struct.std::_Rb_tree_node_base"* @_ZNKSt8_Rb_treeIP4NodeS1_St9_IdentityIS1_ESt4lessIS1_ESaIS1_EE7_M_rootEv(%"class.std::_Rb_tree"* %fi10) #0, !llfi_index !659
  %15 = icmp ne %"struct.std::_Rb_tree_node_base"* %14, null, !llfi_index !660
  %fi11 = call i1 @injectFault3(i64 659, i1 %15, i32 46, i32 0, i32 1, i32 0, i8* getelementptr inbounds ([5 x i8]* @icmp_namestr, i32 0, i32 0)), !llfi_injectfault !25
  br i1 %fi11, label %16, label %37, !llfi_index !661

; <label>:16                                      ; preds = %6
  %17 = load %"class.std::_Rb_tree"** %2, align 8, !llfi_index !662
  %fi5 = call %"class.std::_Rb_tree"* @injectFault19(i64 661, %"class.std::_Rb_tree"* %17, i32 27, i32 0, i32 1, i32 0, i8* getelementptr inbounds ([5 x i8]* @load_namestr, i32 0, i32 0)), !llfi_injectfault !25
  %18 = call %"struct.std::_Rb_tree_node"* @_ZNKSt8_Rb_treeIP4NodeS1_St9_IdentityIS1_ESt4lessIS1_ESaIS1_EE8_M_beginEv(%"class.std::_Rb_tree"* %fi5) #0, !llfi_index !663
  %19 = call %"struct.std::_Rb_tree_node"* @_ZNSt8_Rb_treeIP4NodeS1_St9_IdentityIS1_ESt4lessIS1_ESaIS1_EE6_M_endEv(%"class.std::_Rb_tree"* %fi) #0, !llfi_index !664
  %20 = call %"struct.std::_Rb_tree_node"* @_ZNSt8_Rb_treeIP4NodeS1_St9_IdentityIS1_ESt4lessIS1_ESaIS1_EE7_M_copyINS7_20_Reuse_or_alloc_nodeEEEPSt13_Rb_tree_nodeIS1_EPKSB_SC_RT_(%"class.std::_Rb_tree"* %fi, %"struct.std::_Rb_tree_node"* %18, %"struct.std::_Rb_tree_node"* %19, %"struct.std::_Rb_tree<Node *, Node *, std::_Identity<Node *>, std::less<Node *>, std::allocator<Node *> >::_Reuse_or_alloc_node"* %__roan), !llfi_index !665
  %21 = bitcast %"struct.std::_Rb_tree_node"* %20 to %"struct.std::_Rb_tree_node_base"*, !llfi_index !666
  %fi13 = call %"struct.std::_Rb_tree_node_base"* @injectFault6(i64 665, %"struct.std::_Rb_tree_node_base"* %21, i32 44, i32 0, i32 1, i32 0, i8* getelementptr inbounds ([8 x i8]* @bitcast_namestr, i32 0, i32 0)), !llfi_injectfault !25
  %22 = call %"struct.std::_Rb_tree_node_base"** @_ZNSt8_Rb_treeIP4NodeS1_St9_IdentityIS1_ESt4lessIS1_ESaIS1_EE7_M_rootEv(%"class.std::_Rb_tree"* %fi) #0, !llfi_index !667
  store %"struct.std::_Rb_tree_node_base"* %fi13, %"struct.std::_Rb_tree_node_base"** %22, !llfi_index !668
  %23 = call %"struct.std::_Rb_tree_node_base"** @_ZNSt8_Rb_treeIP4NodeS1_St9_IdentityIS1_ESt4lessIS1_ESaIS1_EE7_M_rootEv(%"class.std::_Rb_tree"* %fi) #0, !llfi_index !669
  %24 = load %"struct.std::_Rb_tree_node_base"** %23, !llfi_index !670
  %fi14 = call %"struct.std::_Rb_tree_node_base"* @injectFault6(i64 669, %"struct.std::_Rb_tree_node_base"* %24, i32 27, i32 0, i32 1, i32 0, i8* getelementptr inbounds ([5 x i8]* @load_namestr, i32 0, i32 0)), !llfi_injectfault !25
  %25 = call %"struct.std::_Rb_tree_node_base"* @_ZNSt8_Rb_treeIP4NodeS1_St9_IdentityIS1_ESt4lessIS1_ESaIS1_EE10_S_minimumEPSt18_Rb_tree_node_base(%"struct.std::_Rb_tree_node_base"* %fi14) #0, !llfi_index !671
  %26 = call %"struct.std::_Rb_tree_node_base"** @_ZNSt8_Rb_treeIP4NodeS1_St9_IdentityIS1_ESt4lessIS1_ESaIS1_EE11_M_leftmostEv(%"class.std::_Rb_tree"* %fi) #0, !llfi_index !672
  store %"struct.std::_Rb_tree_node_base"* %25, %"struct.std::_Rb_tree_node_base"** %26, !llfi_index !673
  %27 = call %"struct.std::_Rb_tree_node_base"** @_ZNSt8_Rb_treeIP4NodeS1_St9_IdentityIS1_ESt4lessIS1_ESaIS1_EE7_M_rootEv(%"class.std::_Rb_tree"* %fi) #0, !llfi_index !674
  %28 = load %"struct.std::_Rb_tree_node_base"** %27, !llfi_index !675
  %fi15 = call %"struct.std::_Rb_tree_node_base"* @injectFault6(i64 674, %"struct.std::_Rb_tree_node_base"* %28, i32 27, i32 0, i32 1, i32 0, i8* getelementptr inbounds ([5 x i8]* @load_namestr, i32 0, i32 0)), !llfi_injectfault !25
  %29 = call %"struct.std::_Rb_tree_node_base"* @_ZNSt8_Rb_treeIP4NodeS1_St9_IdentityIS1_ESt4lessIS1_ESaIS1_EE10_S_maximumEPSt18_Rb_tree_node_base(%"struct.std::_Rb_tree_node_base"* %fi15) #0, !llfi_index !676
  %30 = call %"struct.std::_Rb_tree_node_base"** @_ZNSt8_Rb_treeIP4NodeS1_St9_IdentityIS1_ESt4lessIS1_ESaIS1_EE12_M_rightmostEv(%"class.std::_Rb_tree"* %fi) #0, !llfi_index !677
  store %"struct.std::_Rb_tree_node_base"* %29, %"struct.std::_Rb_tree_node_base"** %30, !llfi_index !678
  %31 = load %"class.std::_Rb_tree"** %2, align 8, !llfi_index !679
  %fi16 = call %"class.std::_Rb_tree"* @injectFault19(i64 678, %"class.std::_Rb_tree"* %31, i32 27, i32 0, i32 1, i32 0, i8* getelementptr inbounds ([5 x i8]* @load_namestr, i32 0, i32 0)), !llfi_injectfault !25
  %32 = getelementptr %"class.std::_Rb_tree"* %fi16, i32 0, i32 0, !llfi_index !680
  %fi17 = call %"struct.std::_Rb_tree<Node *, Node *, std::_Identity<Node *>, std::less<Node *>, std::allocator<Node *> >::_Rb_tree_impl"* @injectFault28(i64 679, %"struct.std::_Rb_tree<Node *, Node *, std::_Identity<Node *>, std::less<Node *>, std::allocator<Node *> >::_Rb_tree_impl"* %32, i32 29, i32 0, i32 1, i32 0, i8* getelementptr inbounds ([14 x i8]* @getelementptr_namestr, i32 0, i32 0)), !llfi_injectfault !25
  %33 = getelementptr %"struct.std::_Rb_tree<Node *, Node *, std::_Identity<Node *>, std::less<Node *>, std::allocator<Node *> >::_Rb_tree_impl"* %fi17, i32 0, i32 2, !llfi_index !681
  %fi12 = call i64* @injectFault25(i64 680, i64* %33, i32 29, i32 0, i32 1, i32 0, i8* getelementptr inbounds ([14 x i8]* @getelementptr_namestr, i32 0, i32 0)), !llfi_injectfault !25
  %34 = load i64* %fi12, align 8, !llfi_index !682
  %fi18 = call i64 @injectFault12(i64 681, i64 %34, i32 27, i32 0, i32 1, i32 0, i8* getelementptr inbounds ([5 x i8]* @load_namestr, i32 0, i32 0)), !llfi_injectfault !25
  %35 = getelementptr %"class.std::_Rb_tree"* %fi, i32 0, i32 0, !llfi_index !683
  %fi19 = call %"struct.std::_Rb_tree<Node *, Node *, std::_Identity<Node *>, std::less<Node *>, std::allocator<Node *> >::_Rb_tree_impl"* @injectFault28(i64 682, %"struct.std::_Rb_tree<Node *, Node *, std::_Identity<Node *>, std::less<Node *>, std::allocator<Node *> >::_Rb_tree_impl"* %35, i32 29, i32 0, i32 1, i32 0, i8* getelementptr inbounds ([14 x i8]* @getelementptr_namestr, i32 0, i32 0)), !llfi_injectfault !25
  %36 = getelementptr %"struct.std::_Rb_tree<Node *, Node *, std::_Identity<Node *>, std::less<Node *>, std::allocator<Node *> >::_Rb_tree_impl"* %fi19, i32 0, i32 2, !llfi_index !684
  %fi20 = call i64* @injectFault25(i64 683, i64* %36, i32 29, i32 0, i32 1, i32 0, i8* getelementptr inbounds ([14 x i8]* @getelementptr_namestr, i32 0, i32 0)), !llfi_injectfault !25
  store i64 %fi18, i64* %fi20, align 8, !llfi_index !685
  br label %37, !llfi_index !686

; <label>:37                                      ; preds = %16, %6
  call void @_ZNSt8_Rb_treeIP4NodeS1_St9_IdentityIS1_ESt4lessIS1_ESaIS1_EE20_Reuse_or_alloc_nodeD2Ev(%"struct.std::_Rb_tree<Node *, Node *, std::_Identity<Node *>, std::less<Node *>, std::allocator<Node *> >::_Reuse_or_alloc_node"* %__roan) #0, !llfi_index !687
  br label %38, !llfi_index !688

; <label>:38                                      ; preds = %37, %0
  ret %"class.std::_Rb_tree"* %fi, !llfi_index !689
}

; Function Attrs: nounwind uwtable
define linkonce_odr void @_ZNSt8_Rb_treeIP4NodeS1_St9_IdentityIS1_ESt4lessIS1_ESaIS1_EE20_Reuse_or_alloc_nodeC2ERS7_(%"struct.std::_Rb_tree<Node *, Node *, std::_Identity<Node *>, std::less<Node *>, std::allocator<Node *> >::_Reuse_or_alloc_node"* %this, %"class.std::_Rb_tree"* %__t) unnamed_addr #3 align 2 {
  %1 = alloca %"struct.std::_Rb_tree<Node *, Node *, std::_Identity<Node *>, std::less<Node *>, std::allocator<Node *> >::_Reuse_or_alloc_node"*, align 8, !llfi_index !690
  %2 = alloca %"class.std::_Rb_tree"*, align 8, !llfi_index !691
  store %"struct.std::_Rb_tree<Node *, Node *, std::_Identity<Node *>, std::less<Node *>, std::allocator<Node *> >::_Reuse_or_alloc_node"* %this, %"struct.std::_Rb_tree<Node *, Node *, std::_Identity<Node *>, std::less<Node *>, std::allocator<Node *> >::_Reuse_or_alloc_node"** %1, align 8, !llfi_index !692
  store %"class.std::_Rb_tree"* %__t, %"class.std::_Rb_tree"** %2, align 8, !llfi_index !693
  %3 = load %"struct.std::_Rb_tree<Node *, Node *, std::_Identity<Node *>, std::less<Node *>, std::allocator<Node *> >::_Reuse_or_alloc_node"** %1, !llfi_index !694
  %fi = call %"struct.std::_Rb_tree<Node *, Node *, std::_Identity<Node *>, std::less<Node *>, std::allocator<Node *> >::_Reuse_or_alloc_node"* @injectFault27(i64 693, %"struct.std::_Rb_tree<Node *, Node *, std::_Identity<Node *>, std::less<Node *>, std::allocator<Node *> >::_Reuse_or_alloc_node"* %3, i32 27, i32 0, i32 1, i32 0, i8* getelementptr inbounds ([5 x i8]* @load_namestr, i32 0, i32 0)), !llfi_injectfault !25
  %4 = getelementptr %"struct.std::_Rb_tree<Node *, Node *, std::_Identity<Node *>, std::less<Node *>, std::allocator<Node *> >::_Reuse_or_alloc_node"* %fi, i32 0, i32 0, !llfi_index !695
  %fi1 = call %"struct.std::_Rb_tree_node_base"** @injectFault5(i64 694, %"struct.std::_Rb_tree_node_base"** %4, i32 29, i32 0, i32 1, i32 0, i8* getelementptr inbounds ([14 x i8]* @getelementptr_namestr, i32 0, i32 0)), !llfi_injectfault !25
  %5 = load %"class.std::_Rb_tree"** %2, align 8, !llfi_index !696
  %fi2 = call %"class.std::_Rb_tree"* @injectFault19(i64 695, %"class.std::_Rb_tree"* %5, i32 27, i32 0, i32 1, i32 0, i8* getelementptr inbounds ([5 x i8]* @load_namestr, i32 0, i32 0)), !llfi_injectfault !25
  %6 = call %"struct.std::_Rb_tree_node_base"** @_ZNSt8_Rb_treeIP4NodeS1_St9_IdentityIS1_ESt4lessIS1_ESaIS1_EE7_M_rootEv(%"class.std::_Rb_tree"* %fi2) #0, !llfi_index !697
  %7 = load %"struct.std::_Rb_tree_node_base"** %6, !llfi_index !698
  %fi3 = call %"struct.std::_Rb_tree_node_base"* @injectFault6(i64 697, %"struct.std::_Rb_tree_node_base"* %7, i32 27, i32 0, i32 1, i32 0, i8* getelementptr inbounds ([5 x i8]* @load_namestr, i32 0, i32 0)), !llfi_injectfault !25
  store %"struct.std::_Rb_tree_node_base"* %fi3, %"struct.std::_Rb_tree_node_base"** %fi1, align 8, !llfi_index !699
  %8 = getelementptr %"struct.std::_Rb_tree<Node *, Node *, std::_Identity<Node *>, std::less<Node *>, std::allocator<Node *> >::_Reuse_or_alloc_node"* %fi, i32 0, i32 1, !llfi_index !700
  %fi4 = call %"struct.std::_Rb_tree_node_base"** @injectFault5(i64 699, %"struct.std::_Rb_tree_node_base"** %8, i32 29, i32 0, i32 1, i32 0, i8* getelementptr inbounds ([14 x i8]* @getelementptr_namestr, i32 0, i32 0)), !llfi_injectfault !25
  %9 = load %"class.std::_Rb_tree"** %2, align 8, !llfi_index !701
  %fi5 = call %"class.std::_Rb_tree"* @injectFault19(i64 700, %"class.std::_Rb_tree"* %9, i32 27, i32 0, i32 1, i32 0, i8* getelementptr inbounds ([5 x i8]* @load_namestr, i32 0, i32 0)), !llfi_injectfault !25
  %10 = call %"struct.std::_Rb_tree_node_base"** @_ZNSt8_Rb_treeIP4NodeS1_St9_IdentityIS1_ESt4lessIS1_ESaIS1_EE12_M_rightmostEv(%"class.std::_Rb_tree"* %fi5) #0, !llfi_index !702
  %11 = load %"struct.std::_Rb_tree_node_base"** %10, !llfi_index !703
  %fi6 = call %"struct.std::_Rb_tree_node_base"* @injectFault6(i64 702, %"struct.std::_Rb_tree_node_base"* %11, i32 27, i32 0, i32 1, i32 0, i8* getelementptr inbounds ([5 x i8]* @load_namestr, i32 0, i32 0)), !llfi_injectfault !25
  store %"struct.std::_Rb_tree_node_base"* %fi6, %"struct.std::_Rb_tree_node_base"** %fi4, align 8, !llfi_index !704
  %12 = getelementptr %"struct.std::_Rb_tree<Node *, Node *, std::_Identity<Node *>, std::less<Node *>, std::allocator<Node *> >::_Reuse_or_alloc_node"* %fi, i32 0, i32 2, !llfi_index !705
  %fi7 = call %"class.std::_Rb_tree"** @injectFault32(i64 704, %"class.std::_Rb_tree"** %12, i32 29, i32 0, i32 1, i32 0, i8* getelementptr inbounds ([14 x i8]* @getelementptr_namestr, i32 0, i32 0)), !llfi_injectfault !25
  %13 = load %"class.std::_Rb_tree"** %2, align 8, !llfi_index !706
  %fi8 = call %"class.std::_Rb_tree"* @injectFault19(i64 705, %"class.std::_Rb_tree"* %13, i32 27, i32 0, i32 1, i32 0, i8* getelementptr inbounds ([5 x i8]* @load_namestr, i32 0, i32 0)), !llfi_injectfault !25
  store %"class.std::_Rb_tree"* %fi8, %"class.std::_Rb_tree"** %fi7, align 8, !llfi_index !707
  %14 = getelementptr %"struct.std::_Rb_tree<Node *, Node *, std::_Identity<Node *>, std::less<Node *>, std::allocator<Node *> >::_Reuse_or_alloc_node"* %fi, i32 0, i32 0, !llfi_index !708
  %fi9 = call %"struct.std::_Rb_tree_node_base"** @injectFault5(i64 707, %"struct.std::_Rb_tree_node_base"** %14, i32 29, i32 0, i32 1, i32 0, i8* getelementptr inbounds ([14 x i8]* @getelementptr_namestr, i32 0, i32 0)), !llfi_injectfault !25
  %15 = load %"struct.std::_Rb_tree_node_base"** %fi9, align 8, !llfi_index !709
  %fi10 = call %"struct.std::_Rb_tree_node_base"* @injectFault6(i64 708, %"struct.std::_Rb_tree_node_base"* %15, i32 27, i32 0, i32 1, i32 0, i8* getelementptr inbounds ([5 x i8]* @load_namestr, i32 0, i32 0)), !llfi_injectfault !25
  %16 = icmp ne %"struct.std::_Rb_tree_node_base"* %fi10, null, !llfi_index !710
  %fi11 = call i1 @injectFault3(i64 709, i1 %16, i32 46, i32 0, i32 1, i32 0, i8* getelementptr inbounds ([5 x i8]* @icmp_namestr, i32 0, i32 0)), !llfi_injectfault !25
  br i1 %fi11, label %17, label %33, !llfi_index !711

; <label>:17                                      ; preds = %0
  %18 = getelementptr %"struct.std::_Rb_tree<Node *, Node *, std::_Identity<Node *>, std::less<Node *>, std::allocator<Node *> >::_Reuse_or_alloc_node"* %fi, i32 0, i32 0, !llfi_index !712
  %fi12 = call %"struct.std::_Rb_tree_node_base"** @injectFault5(i64 711, %"struct.std::_Rb_tree_node_base"** %18, i32 29, i32 0, i32 1, i32 0, i8* getelementptr inbounds ([14 x i8]* @getelementptr_namestr, i32 0, i32 0)), !llfi_injectfault !25
  %19 = load %"struct.std::_Rb_tree_node_base"** %fi12, align 8, !llfi_index !713
  %fi13 = call %"struct.std::_Rb_tree_node_base"* @injectFault6(i64 712, %"struct.std::_Rb_tree_node_base"* %19, i32 27, i32 0, i32 1, i32 0, i8* getelementptr inbounds ([5 x i8]* @load_namestr, i32 0, i32 0)), !llfi_injectfault !25
  %20 = getelementptr %"struct.std::_Rb_tree_node_base"* %fi13, i32 0, i32 1, !llfi_index !714
  %fi14 = call %"struct.std::_Rb_tree_node_base"** @injectFault5(i64 713, %"struct.std::_Rb_tree_node_base"** %20, i32 29, i32 0, i32 1, i32 0, i8* getelementptr inbounds ([14 x i8]* @getelementptr_namestr, i32 0, i32 0)), !llfi_injectfault !25
  store %"struct.std::_Rb_tree_node_base"* null, %"struct.std::_Rb_tree_node_base"** %fi14, align 8, !llfi_index !715
  %21 = getelementptr %"struct.std::_Rb_tree<Node *, Node *, std::_Identity<Node *>, std::less<Node *>, std::allocator<Node *> >::_Reuse_or_alloc_node"* %fi, i32 0, i32 1, !llfi_index !716
  %fi15 = call %"struct.std::_Rb_tree_node_base"** @injectFault5(i64 715, %"struct.std::_Rb_tree_node_base"** %21, i32 29, i32 0, i32 1, i32 0, i8* getelementptr inbounds ([14 x i8]* @getelementptr_namestr, i32 0, i32 0)), !llfi_injectfault !25
  %22 = load %"struct.std::_Rb_tree_node_base"** %fi15, align 8, !llfi_index !717
  %fi16 = call %"struct.std::_Rb_tree_node_base"* @injectFault6(i64 716, %"struct.std::_Rb_tree_node_base"* %22, i32 27, i32 0, i32 1, i32 0, i8* getelementptr inbounds ([5 x i8]* @load_namestr, i32 0, i32 0)), !llfi_injectfault !25
  %23 = getelementptr %"struct.std::_Rb_tree_node_base"* %fi16, i32 0, i32 2, !llfi_index !718
  %fi17 = call %"struct.std::_Rb_tree_node_base"** @injectFault5(i64 717, %"struct.std::_Rb_tree_node_base"** %23, i32 29, i32 0, i32 1, i32 0, i8* getelementptr inbounds ([14 x i8]* @getelementptr_namestr, i32 0, i32 0)), !llfi_injectfault !25
  %24 = load %"struct.std::_Rb_tree_node_base"** %fi17, align 8, !llfi_index !719
  %fi18 = call %"struct.std::_Rb_tree_node_base"* @injectFault6(i64 718, %"struct.std::_Rb_tree_node_base"* %24, i32 27, i32 0, i32 1, i32 0, i8* getelementptr inbounds ([5 x i8]* @load_namestr, i32 0, i32 0)), !llfi_injectfault !25
  %25 = icmp ne %"struct.std::_Rb_tree_node_base"* %fi18, null, !llfi_index !720
  %fi19 = call i1 @injectFault3(i64 719, i1 %25, i32 46, i32 0, i32 1, i32 0, i8* getelementptr inbounds ([5 x i8]* @icmp_namestr, i32 0, i32 0)), !llfi_injectfault !25
  br i1 %fi19, label %26, label %32, !llfi_index !721

; <label>:26                                      ; preds = %17
  %27 = getelementptr %"struct.std::_Rb_tree<Node *, Node *, std::_Identity<Node *>, std::less<Node *>, std::allocator<Node *> >::_Reuse_or_alloc_node"* %fi, i32 0, i32 1, !llfi_index !722
  %fi20 = call %"struct.std::_Rb_tree_node_base"** @injectFault5(i64 721, %"struct.std::_Rb_tree_node_base"** %27, i32 29, i32 0, i32 1, i32 0, i8* getelementptr inbounds ([14 x i8]* @getelementptr_namestr, i32 0, i32 0)), !llfi_injectfault !25
  %28 = load %"struct.std::_Rb_tree_node_base"** %fi20, align 8, !llfi_index !723
  %fi21 = call %"struct.std::_Rb_tree_node_base"* @injectFault6(i64 722, %"struct.std::_Rb_tree_node_base"* %28, i32 27, i32 0, i32 1, i32 0, i8* getelementptr inbounds ([5 x i8]* @load_namestr, i32 0, i32 0)), !llfi_injectfault !25
  %29 = getelementptr %"struct.std::_Rb_tree_node_base"* %fi21, i32 0, i32 2, !llfi_index !724
  %fi22 = call %"struct.std::_Rb_tree_node_base"** @injectFault5(i64 723, %"struct.std::_Rb_tree_node_base"** %29, i32 29, i32 0, i32 1, i32 0, i8* getelementptr inbounds ([14 x i8]* @getelementptr_namestr, i32 0, i32 0)), !llfi_injectfault !25
  %30 = load %"struct.std::_Rb_tree_node_base"** %fi22, align 8, !llfi_index !725
  %fi23 = call %"struct.std::_Rb_tree_node_base"* @injectFault6(i64 724, %"struct.std::_Rb_tree_node_base"* %30, i32 27, i32 0, i32 1, i32 0, i8* getelementptr inbounds ([5 x i8]* @load_namestr, i32 0, i32 0)), !llfi_injectfault !25
  %31 = getelementptr %"struct.std::_Rb_tree<Node *, Node *, std::_Identity<Node *>, std::less<Node *>, std::allocator<Node *> >::_Reuse_or_alloc_node"* %fi, i32 0, i32 1, !llfi_index !726
  %fi24 = call %"struct.std::_Rb_tree_node_base"** @injectFault5(i64 725, %"struct.std::_Rb_tree_node_base"** %31, i32 29, i32 0, i32 1, i32 0, i8* getelementptr inbounds ([14 x i8]* @getelementptr_namestr, i32 0, i32 0)), !llfi_injectfault !25
  store %"struct.std::_Rb_tree_node_base"* %fi23, %"struct.std::_Rb_tree_node_base"** %fi24, align 8, !llfi_index !727
  br label %32, !llfi_index !728

; <label>:32                                      ; preds = %26, %17
  br label %35, !llfi_index !729

; <label>:33                                      ; preds = %0
  %34 = getelementptr %"struct.std::_Rb_tree<Node *, Node *, std::_Identity<Node *>, std::less<Node *>, std::allocator<Node *> >::_Reuse_or_alloc_node"* %fi, i32 0, i32 1, !llfi_index !730
  %fi25 = call %"struct.std::_Rb_tree_node_base"** @injectFault5(i64 729, %"struct.std::_Rb_tree_node_base"** %34, i32 29, i32 0, i32 1, i32 0, i8* getelementptr inbounds ([14 x i8]* @getelementptr_namestr, i32 0, i32 0)), !llfi_injectfault !25
  store %"struct.std::_Rb_tree_node_base"* null, %"struct.std::_Rb_tree_node_base"** %fi25, align 8, !llfi_index !731
  br label %35, !llfi_index !732

; <label>:35                                      ; preds = %33, %32
  ret void, !llfi_index !733
}

; Function Attrs: nounwind uwtable
define linkonce_odr void @_ZNSt8_Rb_treeIP4NodeS1_St9_IdentityIS1_ESt4lessIS1_ESaIS1_EE13_Rb_tree_implIS5_Lb1EE8_M_resetEv(%"struct.std::_Rb_tree<Node *, Node *, std::_Identity<Node *>, std::less<Node *>, std::allocator<Node *> >::_Rb_tree_impl"* %this) #3 align 2 {
  %1 = alloca %"struct.std::_Rb_tree<Node *, Node *, std::_Identity<Node *>, std::less<Node *>, std::allocator<Node *> >::_Rb_tree_impl"*, align 8, !llfi_index !734
  store %"struct.std::_Rb_tree<Node *, Node *, std::_Identity<Node *>, std::less<Node *>, std::allocator<Node *> >::_Rb_tree_impl"* %this, %"struct.std::_Rb_tree<Node *, Node *, std::_Identity<Node *>, std::less<Node *>, std::allocator<Node *> >::_Rb_tree_impl"** %1, align 8, !llfi_index !735
  %2 = load %"struct.std::_Rb_tree<Node *, Node *, std::_Identity<Node *>, std::less<Node *>, std::allocator<Node *> >::_Rb_tree_impl"** %1, !llfi_index !736
  %fi = call %"struct.std::_Rb_tree<Node *, Node *, std::_Identity<Node *>, std::less<Node *>, std::allocator<Node *> >::_Rb_tree_impl"* @injectFault28(i64 735, %"struct.std::_Rb_tree<Node *, Node *, std::_Identity<Node *>, std::less<Node *>, std::allocator<Node *> >::_Rb_tree_impl"* %2, i32 27, i32 0, i32 1, i32 0, i8* getelementptr inbounds ([5 x i8]* @load_namestr, i32 0, i32 0)), !llfi_injectfault !25
  %3 = getelementptr %"struct.std::_Rb_tree<Node *, Node *, std::_Identity<Node *>, std::less<Node *>, std::allocator<Node *> >::_Rb_tree_impl"* %fi, i32 0, i32 1, !llfi_index !737
  %fi1 = call %"struct.std::_Rb_tree_node_base"* @injectFault6(i64 736, %"struct.std::_Rb_tree_node_base"* %3, i32 29, i32 0, i32 1, i32 0, i8* getelementptr inbounds ([14 x i8]* @getelementptr_namestr, i32 0, i32 0)), !llfi_injectfault !25
  %4 = getelementptr %"struct.std::_Rb_tree_node_base"* %fi1, i32 0, i32 1, !llfi_index !738
  %fi2 = call %"struct.std::_Rb_tree_node_base"** @injectFault5(i64 737, %"struct.std::_Rb_tree_node_base"** %4, i32 29, i32 0, i32 1, i32 0, i8* getelementptr inbounds ([14 x i8]* @getelementptr_namestr, i32 0, i32 0)), !llfi_injectfault !25
  store %"struct.std::_Rb_tree_node_base"* null, %"struct.std::_Rb_tree_node_base"** %fi2, align 8, !llfi_index !739
  %5 = getelementptr %"struct.std::_Rb_tree<Node *, Node *, std::_Identity<Node *>, std::less<Node *>, std::allocator<Node *> >::_Rb_tree_impl"* %fi, i32 0, i32 1, !llfi_index !740
  %fi3 = call %"struct.std::_Rb_tree_node_base"* @injectFault6(i64 739, %"struct.std::_Rb_tree_node_base"* %5, i32 29, i32 0, i32 1, i32 0, i8* getelementptr inbounds ([14 x i8]* @getelementptr_namestr, i32 0, i32 0)), !llfi_injectfault !25
  %6 = getelementptr %"struct.std::_Rb_tree<Node *, Node *, std::_Identity<Node *>, std::less<Node *>, std::allocator<Node *> >::_Rb_tree_impl"* %fi, i32 0, i32 1, !llfi_index !741
  %fi4 = call %"struct.std::_Rb_tree_node_base"* @injectFault6(i64 740, %"struct.std::_Rb_tree_node_base"* %6, i32 29, i32 0, i32 1, i32 0, i8* getelementptr inbounds ([14 x i8]* @getelementptr_namestr, i32 0, i32 0)), !llfi_injectfault !25
  %7 = getelementptr %"struct.std::_Rb_tree_node_base"* %fi4, i32 0, i32 2, !llfi_index !742
  %fi5 = call %"struct.std::_Rb_tree_node_base"** @injectFault5(i64 741, %"struct.std::_Rb_tree_node_base"** %7, i32 29, i32 0, i32 1, i32 0, i8* getelementptr inbounds ([14 x i8]* @getelementptr_namestr, i32 0, i32 0)), !llfi_injectfault !25
  store %"struct.std::_Rb_tree_node_base"* %fi3, %"struct.std::_Rb_tree_node_base"** %fi5, align 8, !llfi_index !743
  %8 = getelementptr %"struct.std::_Rb_tree<Node *, Node *, std::_Identity<Node *>, std::less<Node *>, std::allocator<Node *> >::_Rb_tree_impl"* %fi, i32 0, i32 1, !llfi_index !744
  %fi6 = call %"struct.std::_Rb_tree_node_base"* @injectFault6(i64 743, %"struct.std::_Rb_tree_node_base"* %8, i32 29, i32 0, i32 1, i32 0, i8* getelementptr inbounds ([14 x i8]* @getelementptr_namestr, i32 0, i32 0)), !llfi_injectfault !25
  %9 = getelementptr %"struct.std::_Rb_tree<Node *, Node *, std::_Identity<Node *>, std::less<Node *>, std::allocator<Node *> >::_Rb_tree_impl"* %fi, i32 0, i32 1, !llfi_index !745
  %fi7 = call %"struct.std::_Rb_tree_node_base"* @injectFault6(i64 744, %"struct.std::_Rb_tree_node_base"* %9, i32 29, i32 0, i32 1, i32 0, i8* getelementptr inbounds ([14 x i8]* @getelementptr_namestr, i32 0, i32 0)), !llfi_injectfault !25
  %10 = getelementptr %"struct.std::_Rb_tree_node_base"* %fi7, i32 0, i32 3, !llfi_index !746
  %fi8 = call %"struct.std::_Rb_tree_node_base"** @injectFault5(i64 745, %"struct.std::_Rb_tree_node_base"** %10, i32 29, i32 0, i32 1, i32 0, i8* getelementptr inbounds ([14 x i8]* @getelementptr_namestr, i32 0, i32 0)), !llfi_injectfault !25
  store %"struct.std::_Rb_tree_node_base"* %fi6, %"struct.std::_Rb_tree_node_base"** %fi8, align 8, !llfi_index !747
  %11 = getelementptr %"struct.std::_Rb_tree<Node *, Node *, std::_Identity<Node *>, std::less<Node *>, std::allocator<Node *> >::_Rb_tree_impl"* %fi, i32 0, i32 2, !llfi_index !748
  %fi9 = call i64* @injectFault25(i64 747, i64* %11, i32 29, i32 0, i32 1, i32 0, i8* getelementptr inbounds ([14 x i8]* @getelementptr_namestr, i32 0, i32 0)), !llfi_injectfault !25
  store i64 0, i64* %fi9, align 8, !llfi_index !749
  ret void, !llfi_index !750
}

; Function Attrs: nounwind uwtable
define linkonce_odr %"struct.std::_Rb_tree_node_base"* @_ZNKSt8_Rb_treeIP4NodeS1_St9_IdentityIS1_ESt4lessIS1_ESaIS1_EE7_M_rootEv(%"class.std::_Rb_tree"* %this) #3 align 2 {
  %1 = alloca %"class.std::_Rb_tree"*, align 8, !llfi_index !751
  store %"class.std::_Rb_tree"* %this, %"class.std::_Rb_tree"** %1, align 8, !llfi_index !752
  %2 = load %"class.std::_Rb_tree"** %1, !llfi_index !753
  %fi = call %"class.std::_Rb_tree"* @injectFault19(i64 752, %"class.std::_Rb_tree"* %2, i32 27, i32 0, i32 1, i32 0, i8* getelementptr inbounds ([5 x i8]* @load_namestr, i32 0, i32 0)), !llfi_injectfault !25
  %3 = getelementptr %"class.std::_Rb_tree"* %fi, i32 0, i32 0, !llfi_index !754
  %fi1 = call %"struct.std::_Rb_tree<Node *, Node *, std::_Identity<Node *>, std::less<Node *>, std::allocator<Node *> >::_Rb_tree_impl"* @injectFault28(i64 753, %"struct.std::_Rb_tree<Node *, Node *, std::_Identity<Node *>, std::less<Node *>, std::allocator<Node *> >::_Rb_tree_impl"* %3, i32 29, i32 0, i32 1, i32 0, i8* getelementptr inbounds ([14 x i8]* @getelementptr_namestr, i32 0, i32 0)), !llfi_injectfault !25
  %4 = getelementptr %"struct.std::_Rb_tree<Node *, Node *, std::_Identity<Node *>, std::less<Node *>, std::allocator<Node *> >::_Rb_tree_impl"* %fi1, i32 0, i32 1, !llfi_index !755
  %fi2 = call %"struct.std::_Rb_tree_node_base"* @injectFault6(i64 754, %"struct.std::_Rb_tree_node_base"* %4, i32 29, i32 0, i32 1, i32 0, i8* getelementptr inbounds ([14 x i8]* @getelementptr_namestr, i32 0, i32 0)), !llfi_injectfault !25
  %5 = getelementptr %"struct.std::_Rb_tree_node_base"* %fi2, i32 0, i32 1, !llfi_index !756
  %fi3 = call %"struct.std::_Rb_tree_node_base"** @injectFault5(i64 755, %"struct.std::_Rb_tree_node_base"** %5, i32 29, i32 0, i32 1, i32 0, i8* getelementptr inbounds ([14 x i8]* @getelementptr_namestr, i32 0, i32 0)), !llfi_injectfault !25
  %6 = load %"struct.std::_Rb_tree_node_base"** %fi3, align 8, !llfi_index !757
  %fi4 = call %"struct.std::_Rb_tree_node_base"* @injectFault6(i64 756, %"struct.std::_Rb_tree_node_base"* %6, i32 27, i32 0, i32 1, i32 0, i8* getelementptr inbounds ([5 x i8]* @load_namestr, i32 0, i32 0)), !llfi_injectfault !25
  ret %"struct.std::_Rb_tree_node_base"* %fi4, !llfi_index !758
}

; Function Attrs: nounwind uwtable
define linkonce_odr %"struct.std::_Rb_tree_node"* @_ZNSt8_Rb_treeIP4NodeS1_St9_IdentityIS1_ESt4lessIS1_ESaIS1_EE7_M_copyINS7_20_Reuse_or_alloc_nodeEEEPSt13_Rb_tree_nodeIS1_EPKSB_SC_RT_(%"class.std::_Rb_tree"* %this, %"struct.std::_Rb_tree_node"* %__x, %"struct.std::_Rb_tree_node"* %__p, %"struct.std::_Rb_tree<Node *, Node *, std::_Identity<Node *>, std::less<Node *>, std::allocator<Node *> >::_Reuse_or_alloc_node"* %__node_gen) #3 align 2 {
  %1 = alloca %"class.std::_Rb_tree"*, align 8, !llfi_index !759
  %2 = alloca %"struct.std::_Rb_tree_node"*, align 8, !llfi_index !760
  %3 = alloca %"struct.std::_Rb_tree_node"*, align 8, !llfi_index !761
  %4 = alloca %"struct.std::_Rb_tree<Node *, Node *, std::_Identity<Node *>, std::less<Node *>, std::allocator<Node *> >::_Reuse_or_alloc_node"*, align 8, !llfi_index !762
  %__top = alloca %"struct.std::_Rb_tree_node"*, align 8, !llfi_index !763
  %__y = alloca %"struct.std::_Rb_tree_node"*, align 8, !llfi_index !764
  store %"class.std::_Rb_tree"* %this, %"class.std::_Rb_tree"** %1, align 8, !llfi_index !765
  store %"struct.std::_Rb_tree_node"* %__x, %"struct.std::_Rb_tree_node"** %2, align 8, !llfi_index !766
  store %"struct.std::_Rb_tree_node"* %__p, %"struct.std::_Rb_tree_node"** %3, align 8, !llfi_index !767
  store %"struct.std::_Rb_tree<Node *, Node *, std::_Identity<Node *>, std::less<Node *>, std::allocator<Node *> >::_Reuse_or_alloc_node"* %__node_gen, %"struct.std::_Rb_tree<Node *, Node *, std::_Identity<Node *>, std::less<Node *>, std::allocator<Node *> >::_Reuse_or_alloc_node"** %4, align 8, !llfi_index !768
  %5 = load %"class.std::_Rb_tree"** %1, !llfi_index !769
  %fi54 = call %"class.std::_Rb_tree"* @injectFault19(i64 768, %"class.std::_Rb_tree"* %5, i32 27, i32 0, i32 1, i32 0, i8* getelementptr inbounds ([5 x i8]* @load_namestr, i32 0, i32 0)), !llfi_injectfault !25
  %6 = load %"struct.std::_Rb_tree_node"** %2, align 8, !llfi_index !770
  %fi6 = call %"struct.std::_Rb_tree_node"* @injectFault14(i64 769, %"struct.std::_Rb_tree_node"* %6, i32 27, i32 0, i32 1, i32 0, i8* getelementptr inbounds ([5 x i8]* @load_namestr, i32 0, i32 0)), !llfi_injectfault !25
  %7 = load %"struct.std::_Rb_tree<Node *, Node *, std::_Identity<Node *>, std::less<Node *>, std::allocator<Node *> >::_Reuse_or_alloc_node"** %4, align 8, !llfi_index !771
  %fi7 = call %"struct.std::_Rb_tree<Node *, Node *, std::_Identity<Node *>, std::less<Node *>, std::allocator<Node *> >::_Reuse_or_alloc_node"* @injectFault27(i64 770, %"struct.std::_Rb_tree<Node *, Node *, std::_Identity<Node *>, std::less<Node *>, std::allocator<Node *> >::_Reuse_or_alloc_node"* %7, i32 27, i32 0, i32 1, i32 0, i8* getelementptr inbounds ([5 x i8]* @load_namestr, i32 0, i32 0)), !llfi_injectfault !25
  %8 = call %"struct.std::_Rb_tree_node"* @_ZNSt8_Rb_treeIP4NodeS1_St9_IdentityIS1_ESt4lessIS1_ESaIS1_EE13_M_clone_nodeINS7_20_Reuse_or_alloc_nodeEEEPSt13_Rb_tree_nodeIS1_EPKSB_RT_(%"class.std::_Rb_tree"* %fi54, %"struct.std::_Rb_tree_node"* %fi6, %"struct.std::_Rb_tree<Node *, Node *, std::_Identity<Node *>, std::less<Node *>, std::allocator<Node *> >::_Reuse_or_alloc_node"* %fi7), !llfi_index !772
  store %"struct.std::_Rb_tree_node"* %8, %"struct.std::_Rb_tree_node"** %__top, align 8, !llfi_index !773
  %9 = load %"struct.std::_Rb_tree_node"** %3, align 8, !llfi_index !774
  %fi1 = call %"struct.std::_Rb_tree_node"* @injectFault14(i64 773, %"struct.std::_Rb_tree_node"* %9, i32 27, i32 0, i32 1, i32 0, i8* getelementptr inbounds ([5 x i8]* @load_namestr, i32 0, i32 0)), !llfi_injectfault !25
  %10 = bitcast %"struct.std::_Rb_tree_node"* %fi1 to %"struct.std::_Rb_tree_node_base"*, !llfi_index !775
  %fi2 = call %"struct.std::_Rb_tree_node_base"* @injectFault6(i64 774, %"struct.std::_Rb_tree_node_base"* %10, i32 44, i32 0, i32 1, i32 0, i8* getelementptr inbounds ([8 x i8]* @bitcast_namestr, i32 0, i32 0)), !llfi_injectfault !25
  %11 = load %"struct.std::_Rb_tree_node"** %__top, align 8, !llfi_index !776
  %fi3 = call %"struct.std::_Rb_tree_node"* @injectFault14(i64 775, %"struct.std::_Rb_tree_node"* %11, i32 27, i32 0, i32 1, i32 0, i8* getelementptr inbounds ([5 x i8]* @load_namestr, i32 0, i32 0)), !llfi_injectfault !25
  %12 = bitcast %"struct.std::_Rb_tree_node"* %fi3 to %"struct.std::_Rb_tree_node_base"*, !llfi_index !777
  %fi4 = call %"struct.std::_Rb_tree_node_base"* @injectFault6(i64 776, %"struct.std::_Rb_tree_node_base"* %12, i32 44, i32 0, i32 1, i32 0, i8* getelementptr inbounds ([8 x i8]* @bitcast_namestr, i32 0, i32 0)), !llfi_injectfault !25
  %13 = getelementptr %"struct.std::_Rb_tree_node_base"* %fi4, i32 0, i32 1, !llfi_index !778
  %fi5 = call %"struct.std::_Rb_tree_node_base"** @injectFault5(i64 777, %"struct.std::_Rb_tree_node_base"** %13, i32 29, i32 0, i32 1, i32 0, i8* getelementptr inbounds ([14 x i8]* @getelementptr_namestr, i32 0, i32 0)), !llfi_injectfault !25
  store %"struct.std::_Rb_tree_node_base"* %fi2, %"struct.std::_Rb_tree_node_base"** %fi5, align 8, !llfi_index !779
  %14 = load %"struct.std::_Rb_tree_node"** %2, align 8, !llfi_index !780
  %fi8 = call %"struct.std::_Rb_tree_node"* @injectFault14(i64 779, %"struct.std::_Rb_tree_node"* %14, i32 27, i32 0, i32 1, i32 0, i8* getelementptr inbounds ([5 x i8]* @load_namestr, i32 0, i32 0)), !llfi_injectfault !25
  %15 = bitcast %"struct.std::_Rb_tree_node"* %fi8 to %"struct.std::_Rb_tree_node_base"*, !llfi_index !781
  %fi9 = call %"struct.std::_Rb_tree_node_base"* @injectFault6(i64 780, %"struct.std::_Rb_tree_node_base"* %15, i32 44, i32 0, i32 1, i32 0, i8* getelementptr inbounds ([8 x i8]* @bitcast_namestr, i32 0, i32 0)), !llfi_injectfault !25
  %16 = getelementptr %"struct.std::_Rb_tree_node_base"* %fi9, i32 0, i32 3, !llfi_index !782
  %fi10 = call %"struct.std::_Rb_tree_node_base"** @injectFault5(i64 781, %"struct.std::_Rb_tree_node_base"** %16, i32 29, i32 0, i32 1, i32 0, i8* getelementptr inbounds ([14 x i8]* @getelementptr_namestr, i32 0, i32 0)), !llfi_injectfault !25
  %17 = load %"struct.std::_Rb_tree_node_base"** %fi10, align 8, !llfi_index !783
  %fi = call %"struct.std::_Rb_tree_node_base"* @injectFault6(i64 782, %"struct.std::_Rb_tree_node_base"* %17, i32 27, i32 0, i32 1, i32 0, i8* getelementptr inbounds ([5 x i8]* @load_namestr, i32 0, i32 0)), !llfi_injectfault !25
  %18 = icmp ne %"struct.std::_Rb_tree_node_base"* %fi, null, !llfi_index !784
  %fi12 = call i1 @injectFault3(i64 783, i1 %18, i32 46, i32 0, i32 1, i32 0, i8* getelementptr inbounds ([5 x i8]* @icmp_namestr, i32 0, i32 0)), !llfi_injectfault !25
  br i1 %fi12, label %19, label %30, !llfi_index !785

; <label>:19                                      ; preds = %0
  %20 = load %"struct.std::_Rb_tree_node"** %2, align 8, !llfi_index !786
  %fi13 = call %"struct.std::_Rb_tree_node"* @injectFault14(i64 785, %"struct.std::_Rb_tree_node"* %20, i32 27, i32 0, i32 1, i32 0, i8* getelementptr inbounds ([5 x i8]* @load_namestr, i32 0, i32 0)), !llfi_injectfault !25
  %21 = bitcast %"struct.std::_Rb_tree_node"* %fi13 to %"struct.std::_Rb_tree_node_base"*, !llfi_index !787
  %fi14 = call %"struct.std::_Rb_tree_node_base"* @injectFault6(i64 786, %"struct.std::_Rb_tree_node_base"* %21, i32 44, i32 0, i32 1, i32 0, i8* getelementptr inbounds ([8 x i8]* @bitcast_namestr, i32 0, i32 0)), !llfi_injectfault !25
  %22 = call %"struct.std::_Rb_tree_node"* @_ZNSt8_Rb_treeIP4NodeS1_St9_IdentityIS1_ESt4lessIS1_ESaIS1_EE8_S_rightEPKSt18_Rb_tree_node_base(%"struct.std::_Rb_tree_node_base"* %fi14) #0, !llfi_index !788
  %23 = load %"struct.std::_Rb_tree_node"** %__top, align 8, !llfi_index !789
  %fi15 = call %"struct.std::_Rb_tree_node"* @injectFault14(i64 788, %"struct.std::_Rb_tree_node"* %23, i32 27, i32 0, i32 1, i32 0, i8* getelementptr inbounds ([5 x i8]* @load_namestr, i32 0, i32 0)), !llfi_injectfault !25
  %24 = load %"struct.std::_Rb_tree<Node *, Node *, std::_Identity<Node *>, std::less<Node *>, std::allocator<Node *> >::_Reuse_or_alloc_node"** %4, align 8, !llfi_index !790
  %fi16 = call %"struct.std::_Rb_tree<Node *, Node *, std::_Identity<Node *>, std::less<Node *>, std::allocator<Node *> >::_Reuse_or_alloc_node"* @injectFault27(i64 789, %"struct.std::_Rb_tree<Node *, Node *, std::_Identity<Node *>, std::less<Node *>, std::allocator<Node *> >::_Reuse_or_alloc_node"* %24, i32 27, i32 0, i32 1, i32 0, i8* getelementptr inbounds ([5 x i8]* @load_namestr, i32 0, i32 0)), !llfi_injectfault !25
  %25 = call %"struct.std::_Rb_tree_node"* @_ZNSt8_Rb_treeIP4NodeS1_St9_IdentityIS1_ESt4lessIS1_ESaIS1_EE7_M_copyINS7_20_Reuse_or_alloc_nodeEEEPSt13_Rb_tree_nodeIS1_EPKSB_SC_RT_(%"class.std::_Rb_tree"* %fi54, %"struct.std::_Rb_tree_node"* %22, %"struct.std::_Rb_tree_node"* %fi15, %"struct.std::_Rb_tree<Node *, Node *, std::_Identity<Node *>, std::less<Node *>, std::allocator<Node *> >::_Reuse_or_alloc_node"* %fi16), !llfi_index !791
  %26 = bitcast %"struct.std::_Rb_tree_node"* %25 to %"struct.std::_Rb_tree_node_base"*, !llfi_index !792
  %fi17 = call %"struct.std::_Rb_tree_node_base"* @injectFault6(i64 791, %"struct.std::_Rb_tree_node_base"* %26, i32 44, i32 0, i32 1, i32 0, i8* getelementptr inbounds ([8 x i8]* @bitcast_namestr, i32 0, i32 0)), !llfi_injectfault !25
  %27 = load %"struct.std::_Rb_tree_node"** %__top, align 8, !llfi_index !793
  %fi18 = call %"struct.std::_Rb_tree_node"* @injectFault14(i64 792, %"struct.std::_Rb_tree_node"* %27, i32 27, i32 0, i32 1, i32 0, i8* getelementptr inbounds ([5 x i8]* @load_namestr, i32 0, i32 0)), !llfi_injectfault !25
  %28 = bitcast %"struct.std::_Rb_tree_node"* %fi18 to %"struct.std::_Rb_tree_node_base"*, !llfi_index !794
  %fi19 = call %"struct.std::_Rb_tree_node_base"* @injectFault6(i64 793, %"struct.std::_Rb_tree_node_base"* %28, i32 44, i32 0, i32 1, i32 0, i8* getelementptr inbounds ([8 x i8]* @bitcast_namestr, i32 0, i32 0)), !llfi_injectfault !25
  %29 = getelementptr %"struct.std::_Rb_tree_node_base"* %fi19, i32 0, i32 3, !llfi_index !795
  %fi20 = call %"struct.std::_Rb_tree_node_base"** @injectFault5(i64 794, %"struct.std::_Rb_tree_node_base"** %29, i32 29, i32 0, i32 1, i32 0, i8* getelementptr inbounds ([14 x i8]* @getelementptr_namestr, i32 0, i32 0)), !llfi_injectfault !25
  store %"struct.std::_Rb_tree_node_base"* %fi17, %"struct.std::_Rb_tree_node_base"** %fi20, align 8, !llfi_index !796
  br label %30, !llfi_index !797

; <label>:30                                      ; preds = %19, %0
  %31 = load %"struct.std::_Rb_tree_node"** %__top, align 8, !llfi_index !798
  %fi21 = call %"struct.std::_Rb_tree_node"* @injectFault14(i64 797, %"struct.std::_Rb_tree_node"* %31, i32 27, i32 0, i32 1, i32 0, i8* getelementptr inbounds ([5 x i8]* @load_namestr, i32 0, i32 0)), !llfi_injectfault !25
  store %"struct.std::_Rb_tree_node"* %fi21, %"struct.std::_Rb_tree_node"** %3, align 8, !llfi_index !799
  %32 = load %"struct.std::_Rb_tree_node"** %2, align 8, !llfi_index !800
  %fi22 = call %"struct.std::_Rb_tree_node"* @injectFault14(i64 799, %"struct.std::_Rb_tree_node"* %32, i32 27, i32 0, i32 1, i32 0, i8* getelementptr inbounds ([5 x i8]* @load_namestr, i32 0, i32 0)), !llfi_injectfault !25
  %33 = bitcast %"struct.std::_Rb_tree_node"* %fi22 to %"struct.std::_Rb_tree_node_base"*, !llfi_index !801
  %fi11 = call %"struct.std::_Rb_tree_node_base"* @injectFault6(i64 800, %"struct.std::_Rb_tree_node_base"* %33, i32 44, i32 0, i32 1, i32 0, i8* getelementptr inbounds ([8 x i8]* @bitcast_namestr, i32 0, i32 0)), !llfi_injectfault !25
  %34 = call %"struct.std::_Rb_tree_node"* @_ZNSt8_Rb_treeIP4NodeS1_St9_IdentityIS1_ESt4lessIS1_ESaIS1_EE7_S_leftEPKSt18_Rb_tree_node_base(%"struct.std::_Rb_tree_node_base"* %fi11) #0, !llfi_index !802
  store %"struct.std::_Rb_tree_node"* %34, %"struct.std::_Rb_tree_node"** %2, align 8, !llfi_index !803
  br label %35, !llfi_index !804

; <label>:35                                      ; preds = %68, %30
  %36 = load %"struct.std::_Rb_tree_node"** %2, align 8, !llfi_index !805
  %fi26 = call %"struct.std::_Rb_tree_node"* @injectFault14(i64 804, %"struct.std::_Rb_tree_node"* %36, i32 27, i32 0, i32 1, i32 0, i8* getelementptr inbounds ([5 x i8]* @load_namestr, i32 0, i32 0)), !llfi_injectfault !25
  %37 = icmp ne %"struct.std::_Rb_tree_node"* %fi26, null, !llfi_index !806
  %fi27 = call i1 @injectFault3(i64 805, i1 %37, i32 46, i32 0, i32 1, i32 0, i8* getelementptr inbounds ([5 x i8]* @icmp_namestr, i32 0, i32 0)), !llfi_injectfault !25
  br i1 %fi27, label %38, label %73, !llfi_index !807

; <label>:38                                      ; preds = %35
  %39 = load %"struct.std::_Rb_tree_node"** %2, align 8, !llfi_index !808
  %fi28 = call %"struct.std::_Rb_tree_node"* @injectFault14(i64 807, %"struct.std::_Rb_tree_node"* %39, i32 27, i32 0, i32 1, i32 0, i8* getelementptr inbounds ([5 x i8]* @load_namestr, i32 0, i32 0)), !llfi_injectfault !25
  %40 = load %"struct.std::_Rb_tree<Node *, Node *, std::_Identity<Node *>, std::less<Node *>, std::allocator<Node *> >::_Reuse_or_alloc_node"** %4, align 8, !llfi_index !809
  %fi29 = call %"struct.std::_Rb_tree<Node *, Node *, std::_Identity<Node *>, std::less<Node *>, std::allocator<Node *> >::_Reuse_or_alloc_node"* @injectFault27(i64 808, %"struct.std::_Rb_tree<Node *, Node *, std::_Identity<Node *>, std::less<Node *>, std::allocator<Node *> >::_Reuse_or_alloc_node"* %40, i32 27, i32 0, i32 1, i32 0, i8* getelementptr inbounds ([5 x i8]* @load_namestr, i32 0, i32 0)), !llfi_injectfault !25
  %41 = call %"struct.std::_Rb_tree_node"* @_ZNSt8_Rb_treeIP4NodeS1_St9_IdentityIS1_ESt4lessIS1_ESaIS1_EE13_M_clone_nodeINS7_20_Reuse_or_alloc_nodeEEEPSt13_Rb_tree_nodeIS1_EPKSB_RT_(%"class.std::_Rb_tree"* %fi54, %"struct.std::_Rb_tree_node"* %fi28, %"struct.std::_Rb_tree<Node *, Node *, std::_Identity<Node *>, std::less<Node *>, std::allocator<Node *> >::_Reuse_or_alloc_node"* %fi29), !llfi_index !810
  store %"struct.std::_Rb_tree_node"* %41, %"struct.std::_Rb_tree_node"** %__y, align 8, !llfi_index !811
  %42 = load %"struct.std::_Rb_tree_node"** %__y, align 8, !llfi_index !812
  %fi30 = call %"struct.std::_Rb_tree_node"* @injectFault14(i64 811, %"struct.std::_Rb_tree_node"* %42, i32 27, i32 0, i32 1, i32 0, i8* getelementptr inbounds ([5 x i8]* @load_namestr, i32 0, i32 0)), !llfi_injectfault !25
  %43 = bitcast %"struct.std::_Rb_tree_node"* %fi30 to %"struct.std::_Rb_tree_node_base"*, !llfi_index !813
  %fi31 = call %"struct.std::_Rb_tree_node_base"* @injectFault6(i64 812, %"struct.std::_Rb_tree_node_base"* %43, i32 44, i32 0, i32 1, i32 0, i8* getelementptr inbounds ([8 x i8]* @bitcast_namestr, i32 0, i32 0)), !llfi_injectfault !25
  %44 = load %"struct.std::_Rb_tree_node"** %3, align 8, !llfi_index !814
  %fi32 = call %"struct.std::_Rb_tree_node"* @injectFault14(i64 813, %"struct.std::_Rb_tree_node"* %44, i32 27, i32 0, i32 1, i32 0, i8* getelementptr inbounds ([5 x i8]* @load_namestr, i32 0, i32 0)), !llfi_injectfault !25
  %45 = bitcast %"struct.std::_Rb_tree_node"* %fi32 to %"struct.std::_Rb_tree_node_base"*, !llfi_index !815
  %fi33 = call %"struct.std::_Rb_tree_node_base"* @injectFault6(i64 814, %"struct.std::_Rb_tree_node_base"* %45, i32 44, i32 0, i32 1, i32 0, i8* getelementptr inbounds ([8 x i8]* @bitcast_namestr, i32 0, i32 0)), !llfi_injectfault !25
  %46 = getelementptr %"struct.std::_Rb_tree_node_base"* %fi33, i32 0, i32 2, !llfi_index !816
  %fi34 = call %"struct.std::_Rb_tree_node_base"** @injectFault5(i64 815, %"struct.std::_Rb_tree_node_base"** %46, i32 29, i32 0, i32 1, i32 0, i8* getelementptr inbounds ([14 x i8]* @getelementptr_namestr, i32 0, i32 0)), !llfi_injectfault !25
  store %"struct.std::_Rb_tree_node_base"* %fi31, %"struct.std::_Rb_tree_node_base"** %fi34, align 8, !llfi_index !817
  %47 = load %"struct.std::_Rb_tree_node"** %3, align 8, !llfi_index !818
  %fi35 = call %"struct.std::_Rb_tree_node"* @injectFault14(i64 817, %"struct.std::_Rb_tree_node"* %47, i32 27, i32 0, i32 1, i32 0, i8* getelementptr inbounds ([5 x i8]* @load_namestr, i32 0, i32 0)), !llfi_injectfault !25
  %48 = bitcast %"struct.std::_Rb_tree_node"* %fi35 to %"struct.std::_Rb_tree_node_base"*, !llfi_index !819
  %fi36 = call %"struct.std::_Rb_tree_node_base"* @injectFault6(i64 818, %"struct.std::_Rb_tree_node_base"* %48, i32 44, i32 0, i32 1, i32 0, i8* getelementptr inbounds ([8 x i8]* @bitcast_namestr, i32 0, i32 0)), !llfi_injectfault !25
  %49 = load %"struct.std::_Rb_tree_node"** %__y, align 8, !llfi_index !820
  %fi37 = call %"struct.std::_Rb_tree_node"* @injectFault14(i64 819, %"struct.std::_Rb_tree_node"* %49, i32 27, i32 0, i32 1, i32 0, i8* getelementptr inbounds ([5 x i8]* @load_namestr, i32 0, i32 0)), !llfi_injectfault !25
  %50 = bitcast %"struct.std::_Rb_tree_node"* %fi37 to %"struct.std::_Rb_tree_node_base"*, !llfi_index !821
  %fi38 = call %"struct.std::_Rb_tree_node_base"* @injectFault6(i64 820, %"struct.std::_Rb_tree_node_base"* %50, i32 44, i32 0, i32 1, i32 0, i8* getelementptr inbounds ([8 x i8]* @bitcast_namestr, i32 0, i32 0)), !llfi_injectfault !25
  %51 = getelementptr %"struct.std::_Rb_tree_node_base"* %fi38, i32 0, i32 1, !llfi_index !822
  %fi39 = call %"struct.std::_Rb_tree_node_base"** @injectFault5(i64 821, %"struct.std::_Rb_tree_node_base"** %51, i32 29, i32 0, i32 1, i32 0, i8* getelementptr inbounds ([14 x i8]* @getelementptr_namestr, i32 0, i32 0)), !llfi_injectfault !25
  store %"struct.std::_Rb_tree_node_base"* %fi36, %"struct.std::_Rb_tree_node_base"** %fi39, align 8, !llfi_index !823
  %52 = load %"struct.std::_Rb_tree_node"** %2, align 8, !llfi_index !824
  %fi40 = call %"struct.std::_Rb_tree_node"* @injectFault14(i64 823, %"struct.std::_Rb_tree_node"* %52, i32 27, i32 0, i32 1, i32 0, i8* getelementptr inbounds ([5 x i8]* @load_namestr, i32 0, i32 0)), !llfi_injectfault !25
  %53 = bitcast %"struct.std::_Rb_tree_node"* %fi40 to %"struct.std::_Rb_tree_node_base"*, !llfi_index !825
  %fi41 = call %"struct.std::_Rb_tree_node_base"* @injectFault6(i64 824, %"struct.std::_Rb_tree_node_base"* %53, i32 44, i32 0, i32 1, i32 0, i8* getelementptr inbounds ([8 x i8]* @bitcast_namestr, i32 0, i32 0)), !llfi_injectfault !25
  %54 = getelementptr %"struct.std::_Rb_tree_node_base"* %fi41, i32 0, i32 3, !llfi_index !826
  %fi42 = call %"struct.std::_Rb_tree_node_base"** @injectFault5(i64 825, %"struct.std::_Rb_tree_node_base"** %54, i32 29, i32 0, i32 1, i32 0, i8* getelementptr inbounds ([14 x i8]* @getelementptr_namestr, i32 0, i32 0)), !llfi_injectfault !25
  %55 = load %"struct.std::_Rb_tree_node_base"** %fi42, align 8, !llfi_index !827
  %fi43 = call %"struct.std::_Rb_tree_node_base"* @injectFault6(i64 826, %"struct.std::_Rb_tree_node_base"* %55, i32 27, i32 0, i32 1, i32 0, i8* getelementptr inbounds ([5 x i8]* @load_namestr, i32 0, i32 0)), !llfi_injectfault !25
  %56 = icmp ne %"struct.std::_Rb_tree_node_base"* %fi43, null, !llfi_index !828
  %fi44 = call i1 @injectFault3(i64 827, i1 %56, i32 46, i32 0, i32 1, i32 0, i8* getelementptr inbounds ([5 x i8]* @icmp_namestr, i32 0, i32 0)), !llfi_injectfault !25
  br i1 %fi44, label %57, label %68, !llfi_index !829

; <label>:57                                      ; preds = %38
  %58 = load %"struct.std::_Rb_tree_node"** %2, align 8, !llfi_index !830
  %fi45 = call %"struct.std::_Rb_tree_node"* @injectFault14(i64 829, %"struct.std::_Rb_tree_node"* %58, i32 27, i32 0, i32 1, i32 0, i8* getelementptr inbounds ([5 x i8]* @load_namestr, i32 0, i32 0)), !llfi_injectfault !25
  %59 = bitcast %"struct.std::_Rb_tree_node"* %fi45 to %"struct.std::_Rb_tree_node_base"*, !llfi_index !831
  %fi46 = call %"struct.std::_Rb_tree_node_base"* @injectFault6(i64 830, %"struct.std::_Rb_tree_node_base"* %59, i32 44, i32 0, i32 1, i32 0, i8* getelementptr inbounds ([8 x i8]* @bitcast_namestr, i32 0, i32 0)), !llfi_injectfault !25
  %60 = call %"struct.std::_Rb_tree_node"* @_ZNSt8_Rb_treeIP4NodeS1_St9_IdentityIS1_ESt4lessIS1_ESaIS1_EE8_S_rightEPKSt18_Rb_tree_node_base(%"struct.std::_Rb_tree_node_base"* %fi46) #0, !llfi_index !832
  %61 = load %"struct.std::_Rb_tree_node"** %__y, align 8, !llfi_index !833
  %fi47 = call %"struct.std::_Rb_tree_node"* @injectFault14(i64 832, %"struct.std::_Rb_tree_node"* %61, i32 27, i32 0, i32 1, i32 0, i8* getelementptr inbounds ([5 x i8]* @load_namestr, i32 0, i32 0)), !llfi_injectfault !25
  %62 = load %"struct.std::_Rb_tree<Node *, Node *, std::_Identity<Node *>, std::less<Node *>, std::allocator<Node *> >::_Reuse_or_alloc_node"** %4, align 8, !llfi_index !834
  %fi48 = call %"struct.std::_Rb_tree<Node *, Node *, std::_Identity<Node *>, std::less<Node *>, std::allocator<Node *> >::_Reuse_or_alloc_node"* @injectFault27(i64 833, %"struct.std::_Rb_tree<Node *, Node *, std::_Identity<Node *>, std::less<Node *>, std::allocator<Node *> >::_Reuse_or_alloc_node"* %62, i32 27, i32 0, i32 1, i32 0, i8* getelementptr inbounds ([5 x i8]* @load_namestr, i32 0, i32 0)), !llfi_injectfault !25
  %63 = call %"struct.std::_Rb_tree_node"* @_ZNSt8_Rb_treeIP4NodeS1_St9_IdentityIS1_ESt4lessIS1_ESaIS1_EE7_M_copyINS7_20_Reuse_or_alloc_nodeEEEPSt13_Rb_tree_nodeIS1_EPKSB_SC_RT_(%"class.std::_Rb_tree"* %fi54, %"struct.std::_Rb_tree_node"* %60, %"struct.std::_Rb_tree_node"* %fi47, %"struct.std::_Rb_tree<Node *, Node *, std::_Identity<Node *>, std::less<Node *>, std::allocator<Node *> >::_Reuse_or_alloc_node"* %fi48), !llfi_index !835
  %64 = bitcast %"struct.std::_Rb_tree_node"* %63 to %"struct.std::_Rb_tree_node_base"*, !llfi_index !836
  %fi49 = call %"struct.std::_Rb_tree_node_base"* @injectFault6(i64 835, %"struct.std::_Rb_tree_node_base"* %64, i32 44, i32 0, i32 1, i32 0, i8* getelementptr inbounds ([8 x i8]* @bitcast_namestr, i32 0, i32 0)), !llfi_injectfault !25
  %65 = load %"struct.std::_Rb_tree_node"** %__y, align 8, !llfi_index !837
  %fi23 = call %"struct.std::_Rb_tree_node"* @injectFault14(i64 836, %"struct.std::_Rb_tree_node"* %65, i32 27, i32 0, i32 1, i32 0, i8* getelementptr inbounds ([5 x i8]* @load_namestr, i32 0, i32 0)), !llfi_injectfault !25
  %66 = bitcast %"struct.std::_Rb_tree_node"* %fi23 to %"struct.std::_Rb_tree_node_base"*, !llfi_index !838
  %fi24 = call %"struct.std::_Rb_tree_node_base"* @injectFault6(i64 837, %"struct.std::_Rb_tree_node_base"* %66, i32 44, i32 0, i32 1, i32 0, i8* getelementptr inbounds ([8 x i8]* @bitcast_namestr, i32 0, i32 0)), !llfi_injectfault !25
  %67 = getelementptr %"struct.std::_Rb_tree_node_base"* %fi24, i32 0, i32 3, !llfi_index !839
  %fi25 = call %"struct.std::_Rb_tree_node_base"** @injectFault5(i64 838, %"struct.std::_Rb_tree_node_base"** %67, i32 29, i32 0, i32 1, i32 0, i8* getelementptr inbounds ([14 x i8]* @getelementptr_namestr, i32 0, i32 0)), !llfi_injectfault !25
  store %"struct.std::_Rb_tree_node_base"* %fi49, %"struct.std::_Rb_tree_node_base"** %fi25, align 8, !llfi_index !840
  br label %68, !llfi_index !841

; <label>:68                                      ; preds = %57, %38
  %69 = load %"struct.std::_Rb_tree_node"** %__y, align 8, !llfi_index !842
  %fi50 = call %"struct.std::_Rb_tree_node"* @injectFault14(i64 841, %"struct.std::_Rb_tree_node"* %69, i32 27, i32 0, i32 1, i32 0, i8* getelementptr inbounds ([5 x i8]* @load_namestr, i32 0, i32 0)), !llfi_injectfault !25
  store %"struct.std::_Rb_tree_node"* %fi50, %"struct.std::_Rb_tree_node"** %3, align 8, !llfi_index !843
  %70 = load %"struct.std::_Rb_tree_node"** %2, align 8, !llfi_index !844
  %fi51 = call %"struct.std::_Rb_tree_node"* @injectFault14(i64 843, %"struct.std::_Rb_tree_node"* %70, i32 27, i32 0, i32 1, i32 0, i8* getelementptr inbounds ([5 x i8]* @load_namestr, i32 0, i32 0)), !llfi_injectfault !25
  %71 = bitcast %"struct.std::_Rb_tree_node"* %fi51 to %"struct.std::_Rb_tree_node_base"*, !llfi_index !845
  %fi52 = call %"struct.std::_Rb_tree_node_base"* @injectFault6(i64 844, %"struct.std::_Rb_tree_node_base"* %71, i32 44, i32 0, i32 1, i32 0, i8* getelementptr inbounds ([8 x i8]* @bitcast_namestr, i32 0, i32 0)), !llfi_injectfault !25
  %72 = call %"struct.std::_Rb_tree_node"* @_ZNSt8_Rb_treeIP4NodeS1_St9_IdentityIS1_ESt4lessIS1_ESaIS1_EE7_S_leftEPKSt18_Rb_tree_node_base(%"struct.std::_Rb_tree_node_base"* %fi52) #0, !llfi_index !846
  store %"struct.std::_Rb_tree_node"* %72, %"struct.std::_Rb_tree_node"** %2, align 8, !llfi_index !847
  br label %35, !llfi_index !848

; <label>:73                                      ; preds = %35
  %74 = load %"struct.std::_Rb_tree_node"** %__top, align 8, !llfi_index !849
  %fi53 = call %"struct.std::_Rb_tree_node"* @injectFault14(i64 848, %"struct.std::_Rb_tree_node"* %74, i32 27, i32 0, i32 1, i32 0, i8* getelementptr inbounds ([5 x i8]* @load_namestr, i32 0, i32 0)), !llfi_injectfault !25
  ret %"struct.std::_Rb_tree_node"* %fi53, !llfi_index !850
}

; Function Attrs: nounwind uwtable
define linkonce_odr %"struct.std::_Rb_tree_node"* @_ZNKSt8_Rb_treeIP4NodeS1_St9_IdentityIS1_ESt4lessIS1_ESaIS1_EE8_M_beginEv(%"class.std::_Rb_tree"* %this) #3 align 2 {
  %1 = alloca %"class.std::_Rb_tree"*, align 8, !llfi_index !851
  store %"class.std::_Rb_tree"* %this, %"class.std::_Rb_tree"** %1, align 8, !llfi_index !852
  %2 = load %"class.std::_Rb_tree"** %1, !llfi_index !853
  %fi = call %"class.std::_Rb_tree"* @injectFault19(i64 852, %"class.std::_Rb_tree"* %2, i32 27, i32 0, i32 1, i32 0, i8* getelementptr inbounds ([5 x i8]* @load_namestr, i32 0, i32 0)), !llfi_injectfault !25
  %3 = getelementptr %"class.std::_Rb_tree"* %fi, i32 0, i32 0, !llfi_index !854
  %fi2 = call %"struct.std::_Rb_tree<Node *, Node *, std::_Identity<Node *>, std::less<Node *>, std::allocator<Node *> >::_Rb_tree_impl"* @injectFault28(i64 853, %"struct.std::_Rb_tree<Node *, Node *, std::_Identity<Node *>, std::less<Node *>, std::allocator<Node *> >::_Rb_tree_impl"* %3, i32 29, i32 0, i32 1, i32 0, i8* getelementptr inbounds ([14 x i8]* @getelementptr_namestr, i32 0, i32 0)), !llfi_injectfault !25
  %4 = getelementptr %"struct.std::_Rb_tree<Node *, Node *, std::_Identity<Node *>, std::less<Node *>, std::allocator<Node *> >::_Rb_tree_impl"* %fi2, i32 0, i32 1, !llfi_index !855
  %fi3 = call %"struct.std::_Rb_tree_node_base"* @injectFault6(i64 854, %"struct.std::_Rb_tree_node_base"* %4, i32 29, i32 0, i32 1, i32 0, i8* getelementptr inbounds ([14 x i8]* @getelementptr_namestr, i32 0, i32 0)), !llfi_injectfault !25
  %5 = getelementptr %"struct.std::_Rb_tree_node_base"* %fi3, i32 0, i32 1, !llfi_index !856
  %fi4 = call %"struct.std::_Rb_tree_node_base"** @injectFault5(i64 855, %"struct.std::_Rb_tree_node_base"** %5, i32 29, i32 0, i32 1, i32 0, i8* getelementptr inbounds ([14 x i8]* @getelementptr_namestr, i32 0, i32 0)), !llfi_injectfault !25
  %6 = load %"struct.std::_Rb_tree_node_base"** %fi4, align 8, !llfi_index !857
  %fi1 = call %"struct.std::_Rb_tree_node_base"* @injectFault6(i64 856, %"struct.std::_Rb_tree_node_base"* %6, i32 27, i32 0, i32 1, i32 0, i8* getelementptr inbounds ([5 x i8]* @load_namestr, i32 0, i32 0)), !llfi_injectfault !25
  %7 = bitcast %"struct.std::_Rb_tree_node_base"* %fi1 to %"struct.std::_Rb_tree_node"*, !llfi_index !858
  %fi5 = call %"struct.std::_Rb_tree_node"* @injectFault14(i64 857, %"struct.std::_Rb_tree_node"* %7, i32 44, i32 0, i32 1, i32 0, i8* getelementptr inbounds ([8 x i8]* @bitcast_namestr, i32 0, i32 0)), !llfi_injectfault !25
  ret %"struct.std::_Rb_tree_node"* %fi5, !llfi_index !859
}

; Function Attrs: nounwind uwtable
define linkonce_odr %"struct.std::_Rb_tree_node"* @_ZNSt8_Rb_treeIP4NodeS1_St9_IdentityIS1_ESt4lessIS1_ESaIS1_EE6_M_endEv(%"class.std::_Rb_tree"* %this) #3 align 2 {
  %1 = alloca %"class.std::_Rb_tree"*, align 8, !llfi_index !860
  store %"class.std::_Rb_tree"* %this, %"class.std::_Rb_tree"** %1, align 8, !llfi_index !861
  %2 = load %"class.std::_Rb_tree"** %1, !llfi_index !862
  %fi = call %"class.std::_Rb_tree"* @injectFault19(i64 861, %"class.std::_Rb_tree"* %2, i32 27, i32 0, i32 1, i32 0, i8* getelementptr inbounds ([5 x i8]* @load_namestr, i32 0, i32 0)), !llfi_injectfault !25
  %3 = getelementptr %"class.std::_Rb_tree"* %fi, i32 0, i32 0, !llfi_index !863
  %fi1 = call %"struct.std::_Rb_tree<Node *, Node *, std::_Identity<Node *>, std::less<Node *>, std::allocator<Node *> >::_Rb_tree_impl"* @injectFault28(i64 862, %"struct.std::_Rb_tree<Node *, Node *, std::_Identity<Node *>, std::less<Node *>, std::allocator<Node *> >::_Rb_tree_impl"* %3, i32 29, i32 0, i32 1, i32 0, i8* getelementptr inbounds ([14 x i8]* @getelementptr_namestr, i32 0, i32 0)), !llfi_injectfault !25
  %4 = getelementptr %"struct.std::_Rb_tree<Node *, Node *, std::_Identity<Node *>, std::less<Node *>, std::allocator<Node *> >::_Rb_tree_impl"* %fi1, i32 0, i32 1, !llfi_index !864
  %fi2 = call %"struct.std::_Rb_tree_node_base"* @injectFault6(i64 863, %"struct.std::_Rb_tree_node_base"* %4, i32 29, i32 0, i32 1, i32 0, i8* getelementptr inbounds ([14 x i8]* @getelementptr_namestr, i32 0, i32 0)), !llfi_injectfault !25
  %5 = bitcast %"struct.std::_Rb_tree_node_base"* %fi2 to %"struct.std::_Rb_tree_node"*, !llfi_index !865
  %fi3 = call %"struct.std::_Rb_tree_node"* @injectFault14(i64 864, %"struct.std::_Rb_tree_node"* %5, i32 44, i32 0, i32 1, i32 0, i8* getelementptr inbounds ([8 x i8]* @bitcast_namestr, i32 0, i32 0)), !llfi_injectfault !25
  ret %"struct.std::_Rb_tree_node"* %fi3, !llfi_index !866
}

; Function Attrs: nounwind uwtable
define linkonce_odr %"struct.std::_Rb_tree_node_base"** @_ZNSt8_Rb_treeIP4NodeS1_St9_IdentityIS1_ESt4lessIS1_ESaIS1_EE7_M_rootEv(%"class.std::_Rb_tree"* %this) #3 align 2 {
  %1 = alloca %"class.std::_Rb_tree"*, align 8, !llfi_index !867
  store %"class.std::_Rb_tree"* %this, %"class.std::_Rb_tree"** %1, align 8, !llfi_index !868
  %2 = load %"class.std::_Rb_tree"** %1, !llfi_index !869
  %fi = call %"class.std::_Rb_tree"* @injectFault19(i64 868, %"class.std::_Rb_tree"* %2, i32 27, i32 0, i32 1, i32 0, i8* getelementptr inbounds ([5 x i8]* @load_namestr, i32 0, i32 0)), !llfi_injectfault !25
  %3 = getelementptr %"class.std::_Rb_tree"* %fi, i32 0, i32 0, !llfi_index !870
  %fi1 = call %"struct.std::_Rb_tree<Node *, Node *, std::_Identity<Node *>, std::less<Node *>, std::allocator<Node *> >::_Rb_tree_impl"* @injectFault28(i64 869, %"struct.std::_Rb_tree<Node *, Node *, std::_Identity<Node *>, std::less<Node *>, std::allocator<Node *> >::_Rb_tree_impl"* %3, i32 29, i32 0, i32 1, i32 0, i8* getelementptr inbounds ([14 x i8]* @getelementptr_namestr, i32 0, i32 0)), !llfi_injectfault !25
  %4 = getelementptr %"struct.std::_Rb_tree<Node *, Node *, std::_Identity<Node *>, std::less<Node *>, std::allocator<Node *> >::_Rb_tree_impl"* %fi1, i32 0, i32 1, !llfi_index !871
  %fi2 = call %"struct.std::_Rb_tree_node_base"* @injectFault6(i64 870, %"struct.std::_Rb_tree_node_base"* %4, i32 29, i32 0, i32 1, i32 0, i8* getelementptr inbounds ([14 x i8]* @getelementptr_namestr, i32 0, i32 0)), !llfi_injectfault !25
  %5 = getelementptr %"struct.std::_Rb_tree_node_base"* %fi2, i32 0, i32 1, !llfi_index !872
  %fi3 = call %"struct.std::_Rb_tree_node_base"** @injectFault5(i64 871, %"struct.std::_Rb_tree_node_base"** %5, i32 29, i32 0, i32 1, i32 0, i8* getelementptr inbounds ([14 x i8]* @getelementptr_namestr, i32 0, i32 0)), !llfi_injectfault !25
  ret %"struct.std::_Rb_tree_node_base"** %fi3, !llfi_index !873
}

; Function Attrs: nounwind uwtable
define linkonce_odr %"struct.std::_Rb_tree_node_base"* @_ZNSt8_Rb_treeIP4NodeS1_St9_IdentityIS1_ESt4lessIS1_ESaIS1_EE10_S_minimumEPSt18_Rb_tree_node_base(%"struct.std::_Rb_tree_node_base"* %__x) #3 align 2 {
  %1 = alloca %"struct.std::_Rb_tree_node_base"*, align 8, !llfi_index !874
  store %"struct.std::_Rb_tree_node_base"* %__x, %"struct.std::_Rb_tree_node_base"** %1, align 8, !llfi_index !875
  %2 = load %"struct.std::_Rb_tree_node_base"** %1, align 8, !llfi_index !876
  %fi = call %"struct.std::_Rb_tree_node_base"* @injectFault6(i64 875, %"struct.std::_Rb_tree_node_base"* %2, i32 27, i32 0, i32 1, i32 0, i8* getelementptr inbounds ([5 x i8]* @load_namestr, i32 0, i32 0)), !llfi_injectfault !25
  %3 = call %"struct.std::_Rb_tree_node_base"* @_ZNSt18_Rb_tree_node_base10_S_minimumEPS_(%"struct.std::_Rb_tree_node_base"* %fi) #0, !llfi_index !877
  ret %"struct.std::_Rb_tree_node_base"* %3, !llfi_index !878
}

; Function Attrs: nounwind uwtable
define linkonce_odr %"struct.std::_Rb_tree_node_base"** @_ZNSt8_Rb_treeIP4NodeS1_St9_IdentityIS1_ESt4lessIS1_ESaIS1_EE11_M_leftmostEv(%"class.std::_Rb_tree"* %this) #3 align 2 {
  %1 = alloca %"class.std::_Rb_tree"*, align 8, !llfi_index !879
  store %"class.std::_Rb_tree"* %this, %"class.std::_Rb_tree"** %1, align 8, !llfi_index !880
  %2 = load %"class.std::_Rb_tree"** %1, !llfi_index !881
  %fi = call %"class.std::_Rb_tree"* @injectFault19(i64 880, %"class.std::_Rb_tree"* %2, i32 27, i32 0, i32 1, i32 0, i8* getelementptr inbounds ([5 x i8]* @load_namestr, i32 0, i32 0)), !llfi_injectfault !25
  %3 = getelementptr %"class.std::_Rb_tree"* %fi, i32 0, i32 0, !llfi_index !882
  %fi1 = call %"struct.std::_Rb_tree<Node *, Node *, std::_Identity<Node *>, std::less<Node *>, std::allocator<Node *> >::_Rb_tree_impl"* @injectFault28(i64 881, %"struct.std::_Rb_tree<Node *, Node *, std::_Identity<Node *>, std::less<Node *>, std::allocator<Node *> >::_Rb_tree_impl"* %3, i32 29, i32 0, i32 1, i32 0, i8* getelementptr inbounds ([14 x i8]* @getelementptr_namestr, i32 0, i32 0)), !llfi_injectfault !25
  %4 = getelementptr %"struct.std::_Rb_tree<Node *, Node *, std::_Identity<Node *>, std::less<Node *>, std::allocator<Node *> >::_Rb_tree_impl"* %fi1, i32 0, i32 1, !llfi_index !883
  %fi2 = call %"struct.std::_Rb_tree_node_base"* @injectFault6(i64 882, %"struct.std::_Rb_tree_node_base"* %4, i32 29, i32 0, i32 1, i32 0, i8* getelementptr inbounds ([14 x i8]* @getelementptr_namestr, i32 0, i32 0)), !llfi_injectfault !25
  %5 = getelementptr %"struct.std::_Rb_tree_node_base"* %fi2, i32 0, i32 2, !llfi_index !884
  %fi3 = call %"struct.std::_Rb_tree_node_base"** @injectFault5(i64 883, %"struct.std::_Rb_tree_node_base"** %5, i32 29, i32 0, i32 1, i32 0, i8* getelementptr inbounds ([14 x i8]* @getelementptr_namestr, i32 0, i32 0)), !llfi_injectfault !25
  ret %"struct.std::_Rb_tree_node_base"** %fi3, !llfi_index !885
}

; Function Attrs: nounwind uwtable
define linkonce_odr %"struct.std::_Rb_tree_node_base"* @_ZNSt8_Rb_treeIP4NodeS1_St9_IdentityIS1_ESt4lessIS1_ESaIS1_EE10_S_maximumEPSt18_Rb_tree_node_base(%"struct.std::_Rb_tree_node_base"* %__x) #3 align 2 {
  %1 = alloca %"struct.std::_Rb_tree_node_base"*, align 8, !llfi_index !886
  store %"struct.std::_Rb_tree_node_base"* %__x, %"struct.std::_Rb_tree_node_base"** %1, align 8, !llfi_index !887
  %2 = load %"struct.std::_Rb_tree_node_base"** %1, align 8, !llfi_index !888
  %fi = call %"struct.std::_Rb_tree_node_base"* @injectFault6(i64 887, %"struct.std::_Rb_tree_node_base"* %2, i32 27, i32 0, i32 1, i32 0, i8* getelementptr inbounds ([5 x i8]* @load_namestr, i32 0, i32 0)), !llfi_injectfault !25
  %3 = call %"struct.std::_Rb_tree_node_base"* @_ZNSt18_Rb_tree_node_base10_S_maximumEPS_(%"struct.std::_Rb_tree_node_base"* %fi) #0, !llfi_index !889
  ret %"struct.std::_Rb_tree_node_base"* %3, !llfi_index !890
}

; Function Attrs: nounwind uwtable
define linkonce_odr %"struct.std::_Rb_tree_node_base"** @_ZNSt8_Rb_treeIP4NodeS1_St9_IdentityIS1_ESt4lessIS1_ESaIS1_EE12_M_rightmostEv(%"class.std::_Rb_tree"* %this) #3 align 2 {
  %1 = alloca %"class.std::_Rb_tree"*, align 8, !llfi_index !891
  store %"class.std::_Rb_tree"* %this, %"class.std::_Rb_tree"** %1, align 8, !llfi_index !892
  %2 = load %"class.std::_Rb_tree"** %1, !llfi_index !893
  %fi = call %"class.std::_Rb_tree"* @injectFault19(i64 892, %"class.std::_Rb_tree"* %2, i32 27, i32 0, i32 1, i32 0, i8* getelementptr inbounds ([5 x i8]* @load_namestr, i32 0, i32 0)), !llfi_injectfault !25
  %3 = getelementptr %"class.std::_Rb_tree"* %fi, i32 0, i32 0, !llfi_index !894
  %fi1 = call %"struct.std::_Rb_tree<Node *, Node *, std::_Identity<Node *>, std::less<Node *>, std::allocator<Node *> >::_Rb_tree_impl"* @injectFault28(i64 893, %"struct.std::_Rb_tree<Node *, Node *, std::_Identity<Node *>, std::less<Node *>, std::allocator<Node *> >::_Rb_tree_impl"* %3, i32 29, i32 0, i32 1, i32 0, i8* getelementptr inbounds ([14 x i8]* @getelementptr_namestr, i32 0, i32 0)), !llfi_injectfault !25
  %4 = getelementptr %"struct.std::_Rb_tree<Node *, Node *, std::_Identity<Node *>, std::less<Node *>, std::allocator<Node *> >::_Rb_tree_impl"* %fi1, i32 0, i32 1, !llfi_index !895
  %fi2 = call %"struct.std::_Rb_tree_node_base"* @injectFault6(i64 894, %"struct.std::_Rb_tree_node_base"* %4, i32 29, i32 0, i32 1, i32 0, i8* getelementptr inbounds ([14 x i8]* @getelementptr_namestr, i32 0, i32 0)), !llfi_injectfault !25
  %5 = getelementptr %"struct.std::_Rb_tree_node_base"* %fi2, i32 0, i32 3, !llfi_index !896
  %fi3 = call %"struct.std::_Rb_tree_node_base"** @injectFault5(i64 895, %"struct.std::_Rb_tree_node_base"** %5, i32 29, i32 0, i32 1, i32 0, i8* getelementptr inbounds ([14 x i8]* @getelementptr_namestr, i32 0, i32 0)), !llfi_injectfault !25
  ret %"struct.std::_Rb_tree_node_base"** %fi3, !llfi_index !897
}

; Function Attrs: nounwind uwtable
define linkonce_odr void @_ZNSt8_Rb_treeIP4NodeS1_St9_IdentityIS1_ESt4lessIS1_ESaIS1_EE20_Reuse_or_alloc_nodeD2Ev(%"struct.std::_Rb_tree<Node *, Node *, std::_Identity<Node *>, std::less<Node *>, std::allocator<Node *> >::_Reuse_or_alloc_node"* %this) unnamed_addr #3 align 2 {
  %1 = alloca %"struct.std::_Rb_tree<Node *, Node *, std::_Identity<Node *>, std::less<Node *>, std::allocator<Node *> >::_Reuse_or_alloc_node"*, align 8, !llfi_index !898
  store %"struct.std::_Rb_tree<Node *, Node *, std::_Identity<Node *>, std::less<Node *>, std::allocator<Node *> >::_Reuse_or_alloc_node"* %this, %"struct.std::_Rb_tree<Node *, Node *, std::_Identity<Node *>, std::less<Node *>, std::allocator<Node *> >::_Reuse_or_alloc_node"** %1, align 8, !llfi_index !899
  %2 = load %"struct.std::_Rb_tree<Node *, Node *, std::_Identity<Node *>, std::less<Node *>, std::allocator<Node *> >::_Reuse_or_alloc_node"** %1, !llfi_index !900
  %fi = call %"struct.std::_Rb_tree<Node *, Node *, std::_Identity<Node *>, std::less<Node *>, std::allocator<Node *> >::_Reuse_or_alloc_node"* @injectFault27(i64 899, %"struct.std::_Rb_tree<Node *, Node *, std::_Identity<Node *>, std::less<Node *>, std::allocator<Node *> >::_Reuse_or_alloc_node"* %2, i32 27, i32 0, i32 1, i32 0, i8* getelementptr inbounds ([5 x i8]* @load_namestr, i32 0, i32 0)), !llfi_injectfault !25
  %3 = getelementptr %"struct.std::_Rb_tree<Node *, Node *, std::_Identity<Node *>, std::less<Node *>, std::allocator<Node *> >::_Reuse_or_alloc_node"* %fi, i32 0, i32 2, !llfi_index !901
  %fi1 = call %"class.std::_Rb_tree"** @injectFault32(i64 900, %"class.std::_Rb_tree"** %3, i32 29, i32 0, i32 1, i32 0, i8* getelementptr inbounds ([14 x i8]* @getelementptr_namestr, i32 0, i32 0)), !llfi_injectfault !25
  %4 = load %"class.std::_Rb_tree"** %fi1, align 8, !llfi_index !902
  %fi2 = call %"class.std::_Rb_tree"* @injectFault19(i64 901, %"class.std::_Rb_tree"* %4, i32 27, i32 0, i32 1, i32 0, i8* getelementptr inbounds ([5 x i8]* @load_namestr, i32 0, i32 0)), !llfi_injectfault !25
  %5 = getelementptr %"struct.std::_Rb_tree<Node *, Node *, std::_Identity<Node *>, std::less<Node *>, std::allocator<Node *> >::_Reuse_or_alloc_node"* %fi, i32 0, i32 0, !llfi_index !903
  %fi3 = call %"struct.std::_Rb_tree_node_base"** @injectFault5(i64 902, %"struct.std::_Rb_tree_node_base"** %5, i32 29, i32 0, i32 1, i32 0, i8* getelementptr inbounds ([14 x i8]* @getelementptr_namestr, i32 0, i32 0)), !llfi_injectfault !25
  %6 = load %"struct.std::_Rb_tree_node_base"** %fi3, align 8, !llfi_index !904
  %fi4 = call %"struct.std::_Rb_tree_node_base"* @injectFault6(i64 903, %"struct.std::_Rb_tree_node_base"* %6, i32 27, i32 0, i32 1, i32 0, i8* getelementptr inbounds ([5 x i8]* @load_namestr, i32 0, i32 0)), !llfi_injectfault !25
  %7 = bitcast %"struct.std::_Rb_tree_node_base"* %fi4 to %"struct.std::_Rb_tree_node"*, !llfi_index !905
  %fi5 = call %"struct.std::_Rb_tree_node"* @injectFault14(i64 904, %"struct.std::_Rb_tree_node"* %7, i32 44, i32 0, i32 1, i32 0, i8* getelementptr inbounds ([8 x i8]* @bitcast_namestr, i32 0, i32 0)), !llfi_injectfault !25
  call void @_ZNSt8_Rb_treeIP4NodeS1_St9_IdentityIS1_ESt4lessIS1_ESaIS1_EE8_M_eraseEPSt13_Rb_tree_nodeIS1_E(%"class.std::_Rb_tree"* %fi2, %"struct.std::_Rb_tree_node"* %fi5), !llfi_index !906
  ret void, !llfi_index !907
}

; Function Attrs: nounwind uwtable
define linkonce_odr void @_ZNSt8_Rb_treeIP4NodeS1_St9_IdentityIS1_ESt4lessIS1_ESaIS1_EE8_M_eraseEPSt13_Rb_tree_nodeIS1_E(%"class.std::_Rb_tree"* %this, %"struct.std::_Rb_tree_node"* %__x) #3 align 2 {
  %1 = alloca %"class.std::_Rb_tree"*, align 8, !llfi_index !908
  %2 = alloca %"struct.std::_Rb_tree_node"*, align 8, !llfi_index !909
  %__y = alloca %"struct.std::_Rb_tree_node"*, align 8, !llfi_index !910
  store %"class.std::_Rb_tree"* %this, %"class.std::_Rb_tree"** %1, align 8, !llfi_index !911
  store %"struct.std::_Rb_tree_node"* %__x, %"struct.std::_Rb_tree_node"** %2, align 8, !llfi_index !912
  %3 = load %"class.std::_Rb_tree"** %1, !llfi_index !913
  %fi = call %"class.std::_Rb_tree"* @injectFault19(i64 912, %"class.std::_Rb_tree"* %3, i32 27, i32 0, i32 1, i32 0, i8* getelementptr inbounds ([5 x i8]* @load_namestr, i32 0, i32 0)), !llfi_injectfault !25
  br label %4, !llfi_index !914

; <label>:4                                       ; preds = %7, %0
  %5 = load %"struct.std::_Rb_tree_node"** %2, align 8, !llfi_index !915
  %fi1 = call %"struct.std::_Rb_tree_node"* @injectFault14(i64 914, %"struct.std::_Rb_tree_node"* %5, i32 27, i32 0, i32 1, i32 0, i8* getelementptr inbounds ([5 x i8]* @load_namestr, i32 0, i32 0)), !llfi_injectfault !25
  %6 = icmp ne %"struct.std::_Rb_tree_node"* %fi1, null, !llfi_index !916
  %fi2 = call i1 @injectFault3(i64 915, i1 %6, i32 46, i32 0, i32 1, i32 0, i8* getelementptr inbounds ([5 x i8]* @icmp_namestr, i32 0, i32 0)), !llfi_injectfault !25
  br i1 %fi2, label %7, label %16, !llfi_index !917

; <label>:7                                       ; preds = %4
  %8 = load %"struct.std::_Rb_tree_node"** %2, align 8, !llfi_index !918
  %fi3 = call %"struct.std::_Rb_tree_node"* @injectFault14(i64 917, %"struct.std::_Rb_tree_node"* %8, i32 27, i32 0, i32 1, i32 0, i8* getelementptr inbounds ([5 x i8]* @load_namestr, i32 0, i32 0)), !llfi_injectfault !25
  %9 = bitcast %"struct.std::_Rb_tree_node"* %fi3 to %"struct.std::_Rb_tree_node_base"*, !llfi_index !919
  %fi4 = call %"struct.std::_Rb_tree_node_base"* @injectFault6(i64 918, %"struct.std::_Rb_tree_node_base"* %9, i32 44, i32 0, i32 1, i32 0, i8* getelementptr inbounds ([8 x i8]* @bitcast_namestr, i32 0, i32 0)), !llfi_injectfault !25
  %10 = call %"struct.std::_Rb_tree_node"* @_ZNSt8_Rb_treeIP4NodeS1_St9_IdentityIS1_ESt4lessIS1_ESaIS1_EE8_S_rightEPSt18_Rb_tree_node_base(%"struct.std::_Rb_tree_node_base"* %fi4) #0, !llfi_index !920
  call void @_ZNSt8_Rb_treeIP4NodeS1_St9_IdentityIS1_ESt4lessIS1_ESaIS1_EE8_M_eraseEPSt13_Rb_tree_nodeIS1_E(%"class.std::_Rb_tree"* %fi, %"struct.std::_Rb_tree_node"* %10), !llfi_index !921
  %11 = load %"struct.std::_Rb_tree_node"** %2, align 8, !llfi_index !922
  %fi5 = call %"struct.std::_Rb_tree_node"* @injectFault14(i64 921, %"struct.std::_Rb_tree_node"* %11, i32 27, i32 0, i32 1, i32 0, i8* getelementptr inbounds ([5 x i8]* @load_namestr, i32 0, i32 0)), !llfi_injectfault !25
  %12 = bitcast %"struct.std::_Rb_tree_node"* %fi5 to %"struct.std::_Rb_tree_node_base"*, !llfi_index !923
  %fi6 = call %"struct.std::_Rb_tree_node_base"* @injectFault6(i64 922, %"struct.std::_Rb_tree_node_base"* %12, i32 44, i32 0, i32 1, i32 0, i8* getelementptr inbounds ([8 x i8]* @bitcast_namestr, i32 0, i32 0)), !llfi_injectfault !25
  %13 = call %"struct.std::_Rb_tree_node"* @_ZNSt8_Rb_treeIP4NodeS1_St9_IdentityIS1_ESt4lessIS1_ESaIS1_EE7_S_leftEPSt18_Rb_tree_node_base(%"struct.std::_Rb_tree_node_base"* %fi6) #0, !llfi_index !924
  store %"struct.std::_Rb_tree_node"* %13, %"struct.std::_Rb_tree_node"** %__y, align 8, !llfi_index !925
  %14 = load %"struct.std::_Rb_tree_node"** %2, align 8, !llfi_index !926
  %fi7 = call %"struct.std::_Rb_tree_node"* @injectFault14(i64 925, %"struct.std::_Rb_tree_node"* %14, i32 27, i32 0, i32 1, i32 0, i8* getelementptr inbounds ([5 x i8]* @load_namestr, i32 0, i32 0)), !llfi_injectfault !25
  call void @_ZNSt8_Rb_treeIP4NodeS1_St9_IdentityIS1_ESt4lessIS1_ESaIS1_EE12_M_drop_nodeEPSt13_Rb_tree_nodeIS1_E(%"class.std::_Rb_tree"* %fi, %"struct.std::_Rb_tree_node"* %fi7) #0, !llfi_index !927
  %15 = load %"struct.std::_Rb_tree_node"** %__y, align 8, !llfi_index !928
  %fi8 = call %"struct.std::_Rb_tree_node"* @injectFault14(i64 927, %"struct.std::_Rb_tree_node"* %15, i32 27, i32 0, i32 1, i32 0, i8* getelementptr inbounds ([5 x i8]* @load_namestr, i32 0, i32 0)), !llfi_injectfault !25
  store %"struct.std::_Rb_tree_node"* %fi8, %"struct.std::_Rb_tree_node"** %2, align 8, !llfi_index !929
  br label %4, !llfi_index !930

; <label>:16                                      ; preds = %4
  ret void, !llfi_index !931
}

; Function Attrs: nounwind uwtable
define linkonce_odr %"struct.std::_Rb_tree_node"* @_ZNSt8_Rb_treeIP4NodeS1_St9_IdentityIS1_ESt4lessIS1_ESaIS1_EE8_S_rightEPSt18_Rb_tree_node_base(%"struct.std::_Rb_tree_node_base"* %__x) #3 align 2 {
  %1 = alloca %"struct.std::_Rb_tree_node_base"*, align 8, !llfi_index !932
  store %"struct.std::_Rb_tree_node_base"* %__x, %"struct.std::_Rb_tree_node_base"** %1, align 8, !llfi_index !933
  %2 = load %"struct.std::_Rb_tree_node_base"** %1, align 8, !llfi_index !934
  %fi = call %"struct.std::_Rb_tree_node_base"* @injectFault6(i64 933, %"struct.std::_Rb_tree_node_base"* %2, i32 27, i32 0, i32 1, i32 0, i8* getelementptr inbounds ([5 x i8]* @load_namestr, i32 0, i32 0)), !llfi_injectfault !25
  %3 = getelementptr %"struct.std::_Rb_tree_node_base"* %fi, i32 0, i32 3, !llfi_index !935
  %fi1 = call %"struct.std::_Rb_tree_node_base"** @injectFault5(i64 934, %"struct.std::_Rb_tree_node_base"** %3, i32 29, i32 0, i32 1, i32 0, i8* getelementptr inbounds ([14 x i8]* @getelementptr_namestr, i32 0, i32 0)), !llfi_injectfault !25
  %4 = load %"struct.std::_Rb_tree_node_base"** %fi1, align 8, !llfi_index !936
  %fi2 = call %"struct.std::_Rb_tree_node_base"* @injectFault6(i64 935, %"struct.std::_Rb_tree_node_base"* %4, i32 27, i32 0, i32 1, i32 0, i8* getelementptr inbounds ([5 x i8]* @load_namestr, i32 0, i32 0)), !llfi_injectfault !25
  %5 = bitcast %"struct.std::_Rb_tree_node_base"* %fi2 to %"struct.std::_Rb_tree_node"*, !llfi_index !937
  %fi3 = call %"struct.std::_Rb_tree_node"* @injectFault14(i64 936, %"struct.std::_Rb_tree_node"* %5, i32 44, i32 0, i32 1, i32 0, i8* getelementptr inbounds ([8 x i8]* @bitcast_namestr, i32 0, i32 0)), !llfi_injectfault !25
  ret %"struct.std::_Rb_tree_node"* %fi3, !llfi_index !938
}

; Function Attrs: nounwind uwtable
define linkonce_odr %"struct.std::_Rb_tree_node"* @_ZNSt8_Rb_treeIP4NodeS1_St9_IdentityIS1_ESt4lessIS1_ESaIS1_EE7_S_leftEPSt18_Rb_tree_node_base(%"struct.std::_Rb_tree_node_base"* %__x) #3 align 2 {
  %1 = alloca %"struct.std::_Rb_tree_node_base"*, align 8, !llfi_index !939
  store %"struct.std::_Rb_tree_node_base"* %__x, %"struct.std::_Rb_tree_node_base"** %1, align 8, !llfi_index !940
  %2 = load %"struct.std::_Rb_tree_node_base"** %1, align 8, !llfi_index !941
  %fi = call %"struct.std::_Rb_tree_node_base"* @injectFault6(i64 940, %"struct.std::_Rb_tree_node_base"* %2, i32 27, i32 0, i32 1, i32 0, i8* getelementptr inbounds ([5 x i8]* @load_namestr, i32 0, i32 0)), !llfi_injectfault !25
  %3 = getelementptr %"struct.std::_Rb_tree_node_base"* %fi, i32 0, i32 2, !llfi_index !942
  %fi1 = call %"struct.std::_Rb_tree_node_base"** @injectFault5(i64 941, %"struct.std::_Rb_tree_node_base"** %3, i32 29, i32 0, i32 1, i32 0, i8* getelementptr inbounds ([14 x i8]* @getelementptr_namestr, i32 0, i32 0)), !llfi_injectfault !25
  %4 = load %"struct.std::_Rb_tree_node_base"** %fi1, align 8, !llfi_index !943
  %fi2 = call %"struct.std::_Rb_tree_node_base"* @injectFault6(i64 942, %"struct.std::_Rb_tree_node_base"* %4, i32 27, i32 0, i32 1, i32 0, i8* getelementptr inbounds ([5 x i8]* @load_namestr, i32 0, i32 0)), !llfi_injectfault !25
  %5 = bitcast %"struct.std::_Rb_tree_node_base"* %fi2 to %"struct.std::_Rb_tree_node"*, !llfi_index !944
  %fi3 = call %"struct.std::_Rb_tree_node"* @injectFault14(i64 943, %"struct.std::_Rb_tree_node"* %5, i32 44, i32 0, i32 1, i32 0, i8* getelementptr inbounds ([8 x i8]* @bitcast_namestr, i32 0, i32 0)), !llfi_injectfault !25
  ret %"struct.std::_Rb_tree_node"* %fi3, !llfi_index !945
}

; Function Attrs: nounwind uwtable
define linkonce_odr void @_ZNSt8_Rb_treeIP4NodeS1_St9_IdentityIS1_ESt4lessIS1_ESaIS1_EE12_M_drop_nodeEPSt13_Rb_tree_nodeIS1_E(%"class.std::_Rb_tree"* %this, %"struct.std::_Rb_tree_node"* %__p) #3 align 2 {
  %1 = alloca %"class.std::_Rb_tree"*, align 8, !llfi_index !946
  %2 = alloca %"struct.std::_Rb_tree_node"*, align 8, !llfi_index !947
  store %"class.std::_Rb_tree"* %this, %"class.std::_Rb_tree"** %1, align 8, !llfi_index !948
  store %"struct.std::_Rb_tree_node"* %__p, %"struct.std::_Rb_tree_node"** %2, align 8, !llfi_index !949
  %3 = load %"class.std::_Rb_tree"** %1, !llfi_index !950
  %fi = call %"class.std::_Rb_tree"* @injectFault19(i64 949, %"class.std::_Rb_tree"* %3, i32 27, i32 0, i32 1, i32 0, i8* getelementptr inbounds ([5 x i8]* @load_namestr, i32 0, i32 0)), !llfi_injectfault !25
  %4 = load %"struct.std::_Rb_tree_node"** %2, align 8, !llfi_index !951
  %fi1 = call %"struct.std::_Rb_tree_node"* @injectFault14(i64 950, %"struct.std::_Rb_tree_node"* %4, i32 27, i32 0, i32 1, i32 0, i8* getelementptr inbounds ([5 x i8]* @load_namestr, i32 0, i32 0)), !llfi_injectfault !25
  call void @_ZNSt8_Rb_treeIP4NodeS1_St9_IdentityIS1_ESt4lessIS1_ESaIS1_EE15_M_destroy_nodeEPSt13_Rb_tree_nodeIS1_E(%"class.std::_Rb_tree"* %fi, %"struct.std::_Rb_tree_node"* %fi1) #0, !llfi_index !952
  %5 = load %"struct.std::_Rb_tree_node"** %2, align 8, !llfi_index !953
  %fi2 = call %"struct.std::_Rb_tree_node"* @injectFault14(i64 952, %"struct.std::_Rb_tree_node"* %5, i32 27, i32 0, i32 1, i32 0, i8* getelementptr inbounds ([5 x i8]* @load_namestr, i32 0, i32 0)), !llfi_injectfault !25
  call void @_ZNSt8_Rb_treeIP4NodeS1_St9_IdentityIS1_ESt4lessIS1_ESaIS1_EE11_M_put_nodeEPSt13_Rb_tree_nodeIS1_E(%"class.std::_Rb_tree"* %fi, %"struct.std::_Rb_tree_node"* %fi2) #0, !llfi_index !954
  ret void, !llfi_index !955
}

; Function Attrs: nounwind uwtable
define linkonce_odr void @_ZNSt8_Rb_treeIP4NodeS1_St9_IdentityIS1_ESt4lessIS1_ESaIS1_EE15_M_destroy_nodeEPSt13_Rb_tree_nodeIS1_E(%"class.std::_Rb_tree"* %this, %"struct.std::_Rb_tree_node"* %__p) #3 align 2 {
  %1 = alloca %"class.std::_Rb_tree"*, align 8, !llfi_index !956
  %2 = alloca %"struct.std::_Rb_tree_node"*, align 8, !llfi_index !957
  store %"class.std::_Rb_tree"* %this, %"class.std::_Rb_tree"** %1, align 8, !llfi_index !958
  store %"struct.std::_Rb_tree_node"* %__p, %"struct.std::_Rb_tree_node"** %2, align 8, !llfi_index !959
  %3 = load %"class.std::_Rb_tree"** %1, !llfi_index !960
  %fi = call %"class.std::_Rb_tree"* @injectFault19(i64 959, %"class.std::_Rb_tree"* %3, i32 27, i32 0, i32 1, i32 0, i8* getelementptr inbounds ([5 x i8]* @load_namestr, i32 0, i32 0)), !llfi_injectfault !25
  %4 = call %"class.std::allocator.0"* @_ZNSt8_Rb_treeIP4NodeS1_St9_IdentityIS1_ESt4lessIS1_ESaIS1_EE21_M_get_Node_allocatorEv(%"class.std::_Rb_tree"* %fi) #0, !llfi_index !961
  %5 = load %"struct.std::_Rb_tree_node"** %2, align 8, !llfi_index !962
  %fi1 = call %"struct.std::_Rb_tree_node"* @injectFault14(i64 961, %"struct.std::_Rb_tree_node"* %5, i32 27, i32 0, i32 1, i32 0, i8* getelementptr inbounds ([5 x i8]* @load_namestr, i32 0, i32 0)), !llfi_injectfault !25
  %6 = call %struct.Node** @_ZNSt13_Rb_tree_nodeIP4NodeE9_M_valptrEv(%"struct.std::_Rb_tree_node"* %fi1), !llfi_index !963
  call void @_ZNSt16allocator_traitsISaISt13_Rb_tree_nodeIP4NodeEEE7destroyIS2_EEvRS4_PT_(%"class.std::allocator.0"* %4, %struct.Node** %6), !llfi_index !964
  %7 = load %"struct.std::_Rb_tree_node"** %2, align 8, !llfi_index !965
  %fi2 = call %"struct.std::_Rb_tree_node"* @injectFault14(i64 964, %"struct.std::_Rb_tree_node"* %7, i32 27, i32 0, i32 1, i32 0, i8* getelementptr inbounds ([5 x i8]* @load_namestr, i32 0, i32 0)), !llfi_injectfault !25
  ret void, !llfi_index !966
}

; Function Attrs: nounwind uwtable
define linkonce_odr void @_ZNSt8_Rb_treeIP4NodeS1_St9_IdentityIS1_ESt4lessIS1_ESaIS1_EE11_M_put_nodeEPSt13_Rb_tree_nodeIS1_E(%"class.std::_Rb_tree"* %this, %"struct.std::_Rb_tree_node"* %__p) #3 align 2 {
  %1 = alloca %"class.std::_Rb_tree"*, align 8, !llfi_index !967
  %2 = alloca %"struct.std::_Rb_tree_node"*, align 8, !llfi_index !968
  store %"class.std::_Rb_tree"* %this, %"class.std::_Rb_tree"** %1, align 8, !llfi_index !969
  store %"struct.std::_Rb_tree_node"* %__p, %"struct.std::_Rb_tree_node"** %2, align 8, !llfi_index !970
  %3 = load %"class.std::_Rb_tree"** %1, !llfi_index !971
  %fi = call %"class.std::_Rb_tree"* @injectFault19(i64 970, %"class.std::_Rb_tree"* %3, i32 27, i32 0, i32 1, i32 0, i8* getelementptr inbounds ([5 x i8]* @load_namestr, i32 0, i32 0)), !llfi_injectfault !25
  %4 = call %"class.std::allocator.0"* @_ZNSt8_Rb_treeIP4NodeS1_St9_IdentityIS1_ESt4lessIS1_ESaIS1_EE21_M_get_Node_allocatorEv(%"class.std::_Rb_tree"* %fi) #0, !llfi_index !972
  %5 = load %"struct.std::_Rb_tree_node"** %2, align 8, !llfi_index !973
  %fi1 = call %"struct.std::_Rb_tree_node"* @injectFault14(i64 972, %"struct.std::_Rb_tree_node"* %5, i32 27, i32 0, i32 1, i32 0, i8* getelementptr inbounds ([5 x i8]* @load_namestr, i32 0, i32 0)), !llfi_injectfault !25
  call void @_ZNSt16allocator_traitsISaISt13_Rb_tree_nodeIP4NodeEEE10deallocateERS4_PS3_m(%"class.std::allocator.0"* %4, %"struct.std::_Rb_tree_node"* %fi1, i64 1), !llfi_index !974
  ret void, !llfi_index !975
}

; Function Attrs: nounwind uwtable
define linkonce_odr void @_ZNSt16allocator_traitsISaISt13_Rb_tree_nodeIP4NodeEEE10deallocateERS4_PS3_m(%"class.std::allocator.0"* %__a, %"struct.std::_Rb_tree_node"* %__p, i64 %__n) #3 align 2 {
  %1 = alloca %"class.std::allocator.0"*, align 8, !llfi_index !976
  %2 = alloca %"struct.std::_Rb_tree_node"*, align 8, !llfi_index !977
  %3 = alloca i64, align 8, !llfi_index !978
  store %"class.std::allocator.0"* %__a, %"class.std::allocator.0"** %1, align 8, !llfi_index !979
  store %"struct.std::_Rb_tree_node"* %__p, %"struct.std::_Rb_tree_node"** %2, align 8, !llfi_index !980
  store i64 %__n, i64* %3, align 8, !llfi_index !981
  %4 = load %"class.std::allocator.0"** %1, align 8, !llfi_index !982
  %fi = call %"class.std::allocator.0"* @injectFault29(i64 981, %"class.std::allocator.0"* %4, i32 27, i32 0, i32 1, i32 0, i8* getelementptr inbounds ([5 x i8]* @load_namestr, i32 0, i32 0)), !llfi_injectfault !25
  %5 = bitcast %"class.std::allocator.0"* %fi to %"class.__gnu_cxx::new_allocator.1"*, !llfi_index !983
  %fi1 = call %"class.__gnu_cxx::new_allocator.1"* @injectFault34(i64 982, %"class.__gnu_cxx::new_allocator.1"* %5, i32 44, i32 0, i32 1, i32 0, i8* getelementptr inbounds ([8 x i8]* @bitcast_namestr, i32 0, i32 0)), !llfi_injectfault !25
  %6 = load %"struct.std::_Rb_tree_node"** %2, align 8, !llfi_index !984
  %fi2 = call %"struct.std::_Rb_tree_node"* @injectFault14(i64 983, %"struct.std::_Rb_tree_node"* %6, i32 27, i32 0, i32 1, i32 0, i8* getelementptr inbounds ([5 x i8]* @load_namestr, i32 0, i32 0)), !llfi_injectfault !25
  %7 = load i64* %3, align 8, !llfi_index !985
  %fi3 = call i64 @injectFault12(i64 984, i64 %7, i32 27, i32 0, i32 1, i32 0, i8* getelementptr inbounds ([5 x i8]* @load_namestr, i32 0, i32 0)), !llfi_injectfault !25
  call void @_ZN9__gnu_cxx13new_allocatorISt13_Rb_tree_nodeIP4NodeEE10deallocateEPS4_m(%"class.__gnu_cxx::new_allocator.1"* %fi1, %"struct.std::_Rb_tree_node"* %fi2, i64 %fi3), !llfi_index !986
  ret void, !llfi_index !987
}

; Function Attrs: nounwind uwtable
define linkonce_odr %"class.std::allocator.0"* @_ZNSt8_Rb_treeIP4NodeS1_St9_IdentityIS1_ESt4lessIS1_ESaIS1_EE21_M_get_Node_allocatorEv(%"class.std::_Rb_tree"* %this) #3 align 2 {
  %1 = alloca %"class.std::_Rb_tree"*, align 8, !llfi_index !988
  store %"class.std::_Rb_tree"* %this, %"class.std::_Rb_tree"** %1, align 8, !llfi_index !989
  %2 = load %"class.std::_Rb_tree"** %1, !llfi_index !990
  %fi = call %"class.std::_Rb_tree"* @injectFault19(i64 989, %"class.std::_Rb_tree"* %2, i32 27, i32 0, i32 1, i32 0, i8* getelementptr inbounds ([5 x i8]* @load_namestr, i32 0, i32 0)), !llfi_injectfault !25
  %3 = getelementptr %"class.std::_Rb_tree"* %fi, i32 0, i32 0, !llfi_index !991
  %fi1 = call %"struct.std::_Rb_tree<Node *, Node *, std::_Identity<Node *>, std::less<Node *>, std::allocator<Node *> >::_Rb_tree_impl"* @injectFault28(i64 990, %"struct.std::_Rb_tree<Node *, Node *, std::_Identity<Node *>, std::less<Node *>, std::allocator<Node *> >::_Rb_tree_impl"* %3, i32 29, i32 0, i32 1, i32 0, i8* getelementptr inbounds ([14 x i8]* @getelementptr_namestr, i32 0, i32 0)), !llfi_injectfault !25
  %4 = bitcast %"struct.std::_Rb_tree<Node *, Node *, std::_Identity<Node *>, std::less<Node *>, std::allocator<Node *> >::_Rb_tree_impl"* %fi1 to %"class.std::allocator.0"*, !llfi_index !992
  %fi2 = call %"class.std::allocator.0"* @injectFault29(i64 991, %"class.std::allocator.0"* %4, i32 44, i32 0, i32 1, i32 0, i8* getelementptr inbounds ([8 x i8]* @bitcast_namestr, i32 0, i32 0)), !llfi_injectfault !25
  ret %"class.std::allocator.0"* %fi2, !llfi_index !993
}

; Function Attrs: nounwind uwtable
define linkonce_odr void @_ZN9__gnu_cxx13new_allocatorISt13_Rb_tree_nodeIP4NodeEE10deallocateEPS4_m(%"class.__gnu_cxx::new_allocator.1"* %this, %"struct.std::_Rb_tree_node"* %__p, i64) #3 align 2 {
  %2 = alloca %"class.__gnu_cxx::new_allocator.1"*, align 8, !llfi_index !994
  %3 = alloca %"struct.std::_Rb_tree_node"*, align 8, !llfi_index !995
  %4 = alloca i64, align 8, !llfi_index !996
  store %"class.__gnu_cxx::new_allocator.1"* %this, %"class.__gnu_cxx::new_allocator.1"** %2, align 8, !llfi_index !997
  store %"struct.std::_Rb_tree_node"* %__p, %"struct.std::_Rb_tree_node"** %3, align 8, !llfi_index !998
  store i64 %0, i64* %4, align 8, !llfi_index !999
  %5 = load %"class.__gnu_cxx::new_allocator.1"** %2, !llfi_index !1000
  %fi = call %"class.__gnu_cxx::new_allocator.1"* @injectFault34(i64 999, %"class.__gnu_cxx::new_allocator.1"* %5, i32 27, i32 0, i32 1, i32 0, i8* getelementptr inbounds ([5 x i8]* @load_namestr, i32 0, i32 0)), !llfi_injectfault !25
  %6 = load %"struct.std::_Rb_tree_node"** %3, align 8, !llfi_index !1001
  %fi1 = call %"struct.std::_Rb_tree_node"* @injectFault14(i64 1000, %"struct.std::_Rb_tree_node"* %6, i32 27, i32 0, i32 1, i32 0, i8* getelementptr inbounds ([5 x i8]* @load_namestr, i32 0, i32 0)), !llfi_injectfault !25
  %7 = bitcast %"struct.std::_Rb_tree_node"* %fi1 to i8*, !llfi_index !1002
  %fi2 = call i8* @injectFault7(i64 1001, i8* %7, i32 44, i32 0, i32 1, i32 0, i8* getelementptr inbounds ([8 x i8]* @bitcast_namestr, i32 0, i32 0)), !llfi_injectfault !25
  call void @_ZdlPv(i8* %fi2) #0, !llfi_index !1003
  ret void, !llfi_index !1004
}

; Function Attrs: nounwind uwtable
define linkonce_odr void @_ZNSt16allocator_traitsISaISt13_Rb_tree_nodeIP4NodeEEE7destroyIS2_EEvRS4_PT_(%"class.std::allocator.0"* %__a, %struct.Node** %__p) #3 align 2 {
  %1 = alloca %"class.std::allocator.0"*, align 8, !llfi_index !1005
  %2 = alloca %struct.Node**, align 8, !llfi_index !1006
  store %"class.std::allocator.0"* %__a, %"class.std::allocator.0"** %1, align 8, !llfi_index !1007
  store %struct.Node** %__p, %struct.Node*** %2, align 8, !llfi_index !1008
  %3 = load %"class.std::allocator.0"** %1, align 8, !llfi_index !1009
  %fi = call %"class.std::allocator.0"* @injectFault29(i64 1008, %"class.std::allocator.0"* %3, i32 27, i32 0, i32 1, i32 0, i8* getelementptr inbounds ([5 x i8]* @load_namestr, i32 0, i32 0)), !llfi_injectfault !25
  %4 = bitcast %"class.std::allocator.0"* %fi to %"class.__gnu_cxx::new_allocator.1"*, !llfi_index !1010
  %fi1 = call %"class.__gnu_cxx::new_allocator.1"* @injectFault34(i64 1009, %"class.__gnu_cxx::new_allocator.1"* %4, i32 44, i32 0, i32 1, i32 0, i8* getelementptr inbounds ([8 x i8]* @bitcast_namestr, i32 0, i32 0)), !llfi_injectfault !25
  %5 = load %struct.Node*** %2, align 8, !llfi_index !1011
  %fi2 = call %struct.Node** @injectFault11(i64 1010, %struct.Node** %5, i32 27, i32 0, i32 1, i32 0, i8* getelementptr inbounds ([5 x i8]* @load_namestr, i32 0, i32 0)), !llfi_injectfault !25
  call void @_ZN9__gnu_cxx13new_allocatorISt13_Rb_tree_nodeIP4NodeEE7destroyIS3_EEvPT_(%"class.__gnu_cxx::new_allocator.1"* %fi1, %struct.Node** %fi2), !llfi_index !1012
  ret void, !llfi_index !1013
}

; Function Attrs: nounwind uwtable
define linkonce_odr %struct.Node** @_ZNSt13_Rb_tree_nodeIP4NodeE9_M_valptrEv(%"struct.std::_Rb_tree_node"* %this) #3 align 2 {
  %1 = alloca %"struct.std::_Rb_tree_node"*, align 8, !llfi_index !1014
  store %"struct.std::_Rb_tree_node"* %this, %"struct.std::_Rb_tree_node"** %1, align 8, !llfi_index !1015
  %2 = load %"struct.std::_Rb_tree_node"** %1, !llfi_index !1016
  %fi = call %"struct.std::_Rb_tree_node"* @injectFault14(i64 1015, %"struct.std::_Rb_tree_node"* %2, i32 27, i32 0, i32 1, i32 0, i8* getelementptr inbounds ([5 x i8]* @load_namestr, i32 0, i32 0)), !llfi_injectfault !25
  %3 = getelementptr %"struct.std::_Rb_tree_node"* %fi, i32 0, i32 1, !llfi_index !1017
  %fi1 = call %"struct.__gnu_cxx::__aligned_membuf"* @injectFault35(i64 1016, %"struct.__gnu_cxx::__aligned_membuf"* %3, i32 29, i32 0, i32 1, i32 0, i8* getelementptr inbounds ([14 x i8]* @getelementptr_namestr, i32 0, i32 0)), !llfi_injectfault !25
  %4 = call %struct.Node** @_ZN9__gnu_cxx16__aligned_membufIP4NodeE6_M_ptrEv(%"struct.__gnu_cxx::__aligned_membuf"* %fi1) #0, !llfi_index !1018
  ret %struct.Node** %4, !llfi_index !1019
}

; Function Attrs: nounwind uwtable
define linkonce_odr %struct.Node** @_ZN9__gnu_cxx16__aligned_membufIP4NodeE6_M_ptrEv(%"struct.__gnu_cxx::__aligned_membuf"* %this) #3 align 2 {
  %1 = alloca %"struct.__gnu_cxx::__aligned_membuf"*, align 8, !llfi_index !1020
  store %"struct.__gnu_cxx::__aligned_membuf"* %this, %"struct.__gnu_cxx::__aligned_membuf"** %1, align 8, !llfi_index !1021
  %2 = load %"struct.__gnu_cxx::__aligned_membuf"** %1, !llfi_index !1022
  %fi = call %"struct.__gnu_cxx::__aligned_membuf"* @injectFault35(i64 1021, %"struct.__gnu_cxx::__aligned_membuf"* %2, i32 27, i32 0, i32 1, i32 0, i8* getelementptr inbounds ([5 x i8]* @load_namestr, i32 0, i32 0)), !llfi_injectfault !25
  %3 = call i8* @_ZN9__gnu_cxx16__aligned_membufIP4NodeE7_M_addrEv(%"struct.__gnu_cxx::__aligned_membuf"* %fi) #0, !llfi_index !1023
  %4 = bitcast i8* %3 to %struct.Node**, !llfi_index !1024
  %fi1 = call %struct.Node** @injectFault11(i64 1023, %struct.Node** %4, i32 44, i32 0, i32 1, i32 0, i8* getelementptr inbounds ([8 x i8]* @bitcast_namestr, i32 0, i32 0)), !llfi_injectfault !25
  ret %struct.Node** %fi1, !llfi_index !1025
}

; Function Attrs: nounwind uwtable
define linkonce_odr i8* @_ZN9__gnu_cxx16__aligned_membufIP4NodeE7_M_addrEv(%"struct.__gnu_cxx::__aligned_membuf"* %this) #3 align 2 {
  %1 = alloca %"struct.__gnu_cxx::__aligned_membuf"*, align 8, !llfi_index !1026
  store %"struct.__gnu_cxx::__aligned_membuf"* %this, %"struct.__gnu_cxx::__aligned_membuf"** %1, align 8, !llfi_index !1027
  %2 = load %"struct.__gnu_cxx::__aligned_membuf"** %1, !llfi_index !1028
  %fi = call %"struct.__gnu_cxx::__aligned_membuf"* @injectFault35(i64 1027, %"struct.__gnu_cxx::__aligned_membuf"* %2, i32 27, i32 0, i32 1, i32 0, i8* getelementptr inbounds ([5 x i8]* @load_namestr, i32 0, i32 0)), !llfi_injectfault !25
  %3 = getelementptr %"struct.__gnu_cxx::__aligned_membuf"* %fi, i32 0, i32 0, !llfi_index !1029
  %fi1 = call [8 x i8]* @injectFault36(i64 1028, [8 x i8]* %3, i32 29, i32 0, i32 1, i32 0, i8* getelementptr inbounds ([14 x i8]* @getelementptr_namestr, i32 0, i32 0)), !llfi_injectfault !25
  %4 = bitcast [8 x i8]* %fi1 to i8*, !llfi_index !1030
  %fi2 = call i8* @injectFault7(i64 1029, i8* %4, i32 44, i32 0, i32 1, i32 0, i8* getelementptr inbounds ([8 x i8]* @bitcast_namestr, i32 0, i32 0)), !llfi_injectfault !25
  ret i8* %fi2, !llfi_index !1031
}

; Function Attrs: nounwind uwtable
define linkonce_odr void @_ZN9__gnu_cxx13new_allocatorISt13_Rb_tree_nodeIP4NodeEE7destroyIS3_EEvPT_(%"class.__gnu_cxx::new_allocator.1"* %this, %struct.Node** %__p) #3 align 2 {
  %1 = alloca %"class.__gnu_cxx::new_allocator.1"*, align 8, !llfi_index !1032
  %2 = alloca %struct.Node**, align 8, !llfi_index !1033
  store %"class.__gnu_cxx::new_allocator.1"* %this, %"class.__gnu_cxx::new_allocator.1"** %1, align 8, !llfi_index !1034
  store %struct.Node** %__p, %struct.Node*** %2, align 8, !llfi_index !1035
  %3 = load %"class.__gnu_cxx::new_allocator.1"** %1, !llfi_index !1036
  %fi = call %"class.__gnu_cxx::new_allocator.1"* @injectFault34(i64 1035, %"class.__gnu_cxx::new_allocator.1"* %3, i32 27, i32 0, i32 1, i32 0, i8* getelementptr inbounds ([5 x i8]* @load_namestr, i32 0, i32 0)), !llfi_injectfault !25
  %4 = load %struct.Node*** %2, align 8, !llfi_index !1037
  %fi1 = call %struct.Node** @injectFault11(i64 1036, %struct.Node** %4, i32 27, i32 0, i32 1, i32 0, i8* getelementptr inbounds ([5 x i8]* @load_namestr, i32 0, i32 0)), !llfi_injectfault !25
  ret void, !llfi_index !1038
}

; Function Attrs: nounwind uwtable
define linkonce_odr %"struct.std::_Rb_tree_node_base"* @_ZNSt18_Rb_tree_node_base10_S_maximumEPS_(%"struct.std::_Rb_tree_node_base"* %__x) #3 align 2 {
  %1 = alloca %"struct.std::_Rb_tree_node_base"*, align 8, !llfi_index !1039
  store %"struct.std::_Rb_tree_node_base"* %__x, %"struct.std::_Rb_tree_node_base"** %1, align 8, !llfi_index !1040
  br label %2, !llfi_index !1041

; <label>:2                                       ; preds = %7, %0
  %3 = load %"struct.std::_Rb_tree_node_base"** %1, align 8, !llfi_index !1042
  %fi = call %"struct.std::_Rb_tree_node_base"* @injectFault6(i64 1041, %"struct.std::_Rb_tree_node_base"* %3, i32 27, i32 0, i32 1, i32 0, i8* getelementptr inbounds ([5 x i8]* @load_namestr, i32 0, i32 0)), !llfi_injectfault !25
  %4 = getelementptr %"struct.std::_Rb_tree_node_base"* %fi, i32 0, i32 3, !llfi_index !1043
  %fi1 = call %"struct.std::_Rb_tree_node_base"** @injectFault5(i64 1042, %"struct.std::_Rb_tree_node_base"** %4, i32 29, i32 0, i32 1, i32 0, i8* getelementptr inbounds ([14 x i8]* @getelementptr_namestr, i32 0, i32 0)), !llfi_injectfault !25
  %5 = load %"struct.std::_Rb_tree_node_base"** %fi1, align 8, !llfi_index !1044
  %fi2 = call %"struct.std::_Rb_tree_node_base"* @injectFault6(i64 1043, %"struct.std::_Rb_tree_node_base"* %5, i32 27, i32 0, i32 1, i32 0, i8* getelementptr inbounds ([5 x i8]* @load_namestr, i32 0, i32 0)), !llfi_injectfault !25
  %6 = icmp ne %"struct.std::_Rb_tree_node_base"* %fi2, null, !llfi_index !1045
  %fi3 = call i1 @injectFault3(i64 1044, i1 %6, i32 46, i32 0, i32 1, i32 0, i8* getelementptr inbounds ([5 x i8]* @icmp_namestr, i32 0, i32 0)), !llfi_injectfault !25
  br i1 %fi3, label %7, label %11, !llfi_index !1046

; <label>:7                                       ; preds = %2
  %8 = load %"struct.std::_Rb_tree_node_base"** %1, align 8, !llfi_index !1047
  %fi4 = call %"struct.std::_Rb_tree_node_base"* @injectFault6(i64 1046, %"struct.std::_Rb_tree_node_base"* %8, i32 27, i32 0, i32 1, i32 0, i8* getelementptr inbounds ([5 x i8]* @load_namestr, i32 0, i32 0)), !llfi_injectfault !25
  %9 = getelementptr %"struct.std::_Rb_tree_node_base"* %fi4, i32 0, i32 3, !llfi_index !1048
  %fi5 = call %"struct.std::_Rb_tree_node_base"** @injectFault5(i64 1047, %"struct.std::_Rb_tree_node_base"** %9, i32 29, i32 0, i32 1, i32 0, i8* getelementptr inbounds ([14 x i8]* @getelementptr_namestr, i32 0, i32 0)), !llfi_injectfault !25
  %10 = load %"struct.std::_Rb_tree_node_base"** %fi5, align 8, !llfi_index !1049
  %fi6 = call %"struct.std::_Rb_tree_node_base"* @injectFault6(i64 1048, %"struct.std::_Rb_tree_node_base"* %10, i32 27, i32 0, i32 1, i32 0, i8* getelementptr inbounds ([5 x i8]* @load_namestr, i32 0, i32 0)), !llfi_injectfault !25
  store %"struct.std::_Rb_tree_node_base"* %fi6, %"struct.std::_Rb_tree_node_base"** %1, align 8, !llfi_index !1050
  br label %2, !llfi_index !1051

; <label>:11                                      ; preds = %2
  %12 = load %"struct.std::_Rb_tree_node_base"** %1, align 8, !llfi_index !1052
  %fi7 = call %"struct.std::_Rb_tree_node_base"* @injectFault6(i64 1051, %"struct.std::_Rb_tree_node_base"* %12, i32 27, i32 0, i32 1, i32 0, i8* getelementptr inbounds ([5 x i8]* @load_namestr, i32 0, i32 0)), !llfi_injectfault !25
  ret %"struct.std::_Rb_tree_node_base"* %fi7, !llfi_index !1053
}

; Function Attrs: nounwind uwtable
define linkonce_odr %"struct.std::_Rb_tree_node_base"* @_ZNSt18_Rb_tree_node_base10_S_minimumEPS_(%"struct.std::_Rb_tree_node_base"* %__x) #3 align 2 {
  %1 = alloca %"struct.std::_Rb_tree_node_base"*, align 8, !llfi_index !1054
  store %"struct.std::_Rb_tree_node_base"* %__x, %"struct.std::_Rb_tree_node_base"** %1, align 8, !llfi_index !1055
  br label %2, !llfi_index !1056

; <label>:2                                       ; preds = %7, %0
  %3 = load %"struct.std::_Rb_tree_node_base"** %1, align 8, !llfi_index !1057
  %fi = call %"struct.std::_Rb_tree_node_base"* @injectFault6(i64 1056, %"struct.std::_Rb_tree_node_base"* %3, i32 27, i32 0, i32 1, i32 0, i8* getelementptr inbounds ([5 x i8]* @load_namestr, i32 0, i32 0)), !llfi_injectfault !25
  %4 = getelementptr %"struct.std::_Rb_tree_node_base"* %fi, i32 0, i32 2, !llfi_index !1058
  %fi1 = call %"struct.std::_Rb_tree_node_base"** @injectFault5(i64 1057, %"struct.std::_Rb_tree_node_base"** %4, i32 29, i32 0, i32 1, i32 0, i8* getelementptr inbounds ([14 x i8]* @getelementptr_namestr, i32 0, i32 0)), !llfi_injectfault !25
  %5 = load %"struct.std::_Rb_tree_node_base"** %fi1, align 8, !llfi_index !1059
  %fi2 = call %"struct.std::_Rb_tree_node_base"* @injectFault6(i64 1058, %"struct.std::_Rb_tree_node_base"* %5, i32 27, i32 0, i32 1, i32 0, i8* getelementptr inbounds ([5 x i8]* @load_namestr, i32 0, i32 0)), !llfi_injectfault !25
  %6 = icmp ne %"struct.std::_Rb_tree_node_base"* %fi2, null, !llfi_index !1060
  %fi3 = call i1 @injectFault3(i64 1059, i1 %6, i32 46, i32 0, i32 1, i32 0, i8* getelementptr inbounds ([5 x i8]* @icmp_namestr, i32 0, i32 0)), !llfi_injectfault !25
  br i1 %fi3, label %7, label %11, !llfi_index !1061

; <label>:7                                       ; preds = %2
  %8 = load %"struct.std::_Rb_tree_node_base"** %1, align 8, !llfi_index !1062
  %fi4 = call %"struct.std::_Rb_tree_node_base"* @injectFault6(i64 1061, %"struct.std::_Rb_tree_node_base"* %8, i32 27, i32 0, i32 1, i32 0, i8* getelementptr inbounds ([5 x i8]* @load_namestr, i32 0, i32 0)), !llfi_injectfault !25
  %9 = getelementptr %"struct.std::_Rb_tree_node_base"* %fi4, i32 0, i32 2, !llfi_index !1063
  %fi5 = call %"struct.std::_Rb_tree_node_base"** @injectFault5(i64 1062, %"struct.std::_Rb_tree_node_base"** %9, i32 29, i32 0, i32 1, i32 0, i8* getelementptr inbounds ([14 x i8]* @getelementptr_namestr, i32 0, i32 0)), !llfi_injectfault !25
  %10 = load %"struct.std::_Rb_tree_node_base"** %fi5, align 8, !llfi_index !1064
  %fi6 = call %"struct.std::_Rb_tree_node_base"* @injectFault6(i64 1063, %"struct.std::_Rb_tree_node_base"* %10, i32 27, i32 0, i32 1, i32 0, i8* getelementptr inbounds ([5 x i8]* @load_namestr, i32 0, i32 0)), !llfi_injectfault !25
  store %"struct.std::_Rb_tree_node_base"* %fi6, %"struct.std::_Rb_tree_node_base"** %1, align 8, !llfi_index !1065
  br label %2, !llfi_index !1066

; <label>:11                                      ; preds = %2
  %12 = load %"struct.std::_Rb_tree_node_base"** %1, align 8, !llfi_index !1067
  %fi7 = call %"struct.std::_Rb_tree_node_base"* @injectFault6(i64 1066, %"struct.std::_Rb_tree_node_base"* %12, i32 27, i32 0, i32 1, i32 0, i8* getelementptr inbounds ([5 x i8]* @load_namestr, i32 0, i32 0)), !llfi_injectfault !25
  ret %"struct.std::_Rb_tree_node_base"* %fi7, !llfi_index !1068
}

; Function Attrs: nounwind uwtable
define linkonce_odr %"struct.std::_Rb_tree_node"* @_ZNSt8_Rb_treeIP4NodeS1_St9_IdentityIS1_ESt4lessIS1_ESaIS1_EE13_M_clone_nodeINS7_20_Reuse_or_alloc_nodeEEEPSt13_Rb_tree_nodeIS1_EPKSB_RT_(%"class.std::_Rb_tree"* %this, %"struct.std::_Rb_tree_node"* %__x, %"struct.std::_Rb_tree<Node *, Node *, std::_Identity<Node *>, std::less<Node *>, std::allocator<Node *> >::_Reuse_or_alloc_node"* %__node_gen) #3 align 2 {
  %1 = alloca %"class.std::_Rb_tree"*, align 8, !llfi_index !1069
  %2 = alloca %"struct.std::_Rb_tree_node"*, align 8, !llfi_index !1070
  %3 = alloca %"struct.std::_Rb_tree<Node *, Node *, std::_Identity<Node *>, std::less<Node *>, std::allocator<Node *> >::_Reuse_or_alloc_node"*, align 8, !llfi_index !1071
  %__tmp = alloca %"struct.std::_Rb_tree_node"*, align 8, !llfi_index !1072
  store %"class.std::_Rb_tree"* %this, %"class.std::_Rb_tree"** %1, align 8, !llfi_index !1073
  store %"struct.std::_Rb_tree_node"* %__x, %"struct.std::_Rb_tree_node"** %2, align 8, !llfi_index !1074
  store %"struct.std::_Rb_tree<Node *, Node *, std::_Identity<Node *>, std::less<Node *>, std::allocator<Node *> >::_Reuse_or_alloc_node"* %__node_gen, %"struct.std::_Rb_tree<Node *, Node *, std::_Identity<Node *>, std::less<Node *>, std::allocator<Node *> >::_Reuse_or_alloc_node"** %3, align 8, !llfi_index !1075
  %4 = load %"class.std::_Rb_tree"** %1, !llfi_index !1076
  %fi = call %"class.std::_Rb_tree"* @injectFault19(i64 1075, %"class.std::_Rb_tree"* %4, i32 27, i32 0, i32 1, i32 0, i8* getelementptr inbounds ([5 x i8]* @load_namestr, i32 0, i32 0)), !llfi_injectfault !25
  %5 = load %"struct.std::_Rb_tree<Node *, Node *, std::_Identity<Node *>, std::less<Node *>, std::allocator<Node *> >::_Reuse_or_alloc_node"** %3, align 8, !llfi_index !1077
  %fi1 = call %"struct.std::_Rb_tree<Node *, Node *, std::_Identity<Node *>, std::less<Node *>, std::allocator<Node *> >::_Reuse_or_alloc_node"* @injectFault27(i64 1076, %"struct.std::_Rb_tree<Node *, Node *, std::_Identity<Node *>, std::less<Node *>, std::allocator<Node *> >::_Reuse_or_alloc_node"* %5, i32 27, i32 0, i32 1, i32 0, i8* getelementptr inbounds ([5 x i8]* @load_namestr, i32 0, i32 0)), !llfi_injectfault !25
  %6 = load %"struct.std::_Rb_tree_node"** %2, align 8, !llfi_index !1078
  %fi2 = call %"struct.std::_Rb_tree_node"* @injectFault14(i64 1077, %"struct.std::_Rb_tree_node"* %6, i32 27, i32 0, i32 1, i32 0, i8* getelementptr inbounds ([5 x i8]* @load_namestr, i32 0, i32 0)), !llfi_injectfault !25
  %7 = call %struct.Node** @_ZNKSt13_Rb_tree_nodeIP4NodeE9_M_valptrEv(%"struct.std::_Rb_tree_node"* %fi2), !llfi_index !1079
  %8 = call %"struct.std::_Rb_tree_node"* @_ZNSt8_Rb_treeIP4NodeS1_St9_IdentityIS1_ESt4lessIS1_ESaIS1_EE20_Reuse_or_alloc_nodeclIRKS1_EEPSt13_Rb_tree_nodeIS1_EOT_(%"struct.std::_Rb_tree<Node *, Node *, std::_Identity<Node *>, std::less<Node *>, std::allocator<Node *> >::_Reuse_or_alloc_node"* %fi1, %struct.Node** %7), !llfi_index !1080
  store %"struct.std::_Rb_tree_node"* %8, %"struct.std::_Rb_tree_node"** %__tmp, align 8, !llfi_index !1081
  %9 = load %"struct.std::_Rb_tree_node"** %2, align 8, !llfi_index !1082
  %fi3 = call %"struct.std::_Rb_tree_node"* @injectFault14(i64 1081, %"struct.std::_Rb_tree_node"* %9, i32 27, i32 0, i32 1, i32 0, i8* getelementptr inbounds ([5 x i8]* @load_namestr, i32 0, i32 0)), !llfi_injectfault !25
  %10 = bitcast %"struct.std::_Rb_tree_node"* %fi3 to %"struct.std::_Rb_tree_node_base"*, !llfi_index !1083
  %fi4 = call %"struct.std::_Rb_tree_node_base"* @injectFault6(i64 1082, %"struct.std::_Rb_tree_node_base"* %10, i32 44, i32 0, i32 1, i32 0, i8* getelementptr inbounds ([8 x i8]* @bitcast_namestr, i32 0, i32 0)), !llfi_injectfault !25
  %11 = getelementptr %"struct.std::_Rb_tree_node_base"* %fi4, i32 0, i32 0, !llfi_index !1084
  %fi6 = call i32* @injectFault10(i64 1083, i32* %11, i32 29, i32 0, i32 1, i32 0, i8* getelementptr inbounds ([14 x i8]* @getelementptr_namestr, i32 0, i32 0)), !llfi_injectfault !25
  %12 = load i32* %fi6, align 4, !llfi_index !1085
  %fi7 = call i32 @injectFault0(i64 1084, i32 %12, i32 27, i32 0, i32 1, i32 0, i8* getelementptr inbounds ([5 x i8]* @load_namestr, i32 0, i32 0)), !llfi_injectfault !25
  %13 = load %"struct.std::_Rb_tree_node"** %__tmp, align 8, !llfi_index !1086
  %fi8 = call %"struct.std::_Rb_tree_node"* @injectFault14(i64 1085, %"struct.std::_Rb_tree_node"* %13, i32 27, i32 0, i32 1, i32 0, i8* getelementptr inbounds ([5 x i8]* @load_namestr, i32 0, i32 0)), !llfi_injectfault !25
  %14 = bitcast %"struct.std::_Rb_tree_node"* %fi8 to %"struct.std::_Rb_tree_node_base"*, !llfi_index !1087
  %fi9 = call %"struct.std::_Rb_tree_node_base"* @injectFault6(i64 1086, %"struct.std::_Rb_tree_node_base"* %14, i32 44, i32 0, i32 1, i32 0, i8* getelementptr inbounds ([8 x i8]* @bitcast_namestr, i32 0, i32 0)), !llfi_injectfault !25
  %15 = getelementptr %"struct.std::_Rb_tree_node_base"* %fi9, i32 0, i32 0, !llfi_index !1088
  %fi10 = call i32* @injectFault10(i64 1087, i32* %15, i32 29, i32 0, i32 1, i32 0, i8* getelementptr inbounds ([14 x i8]* @getelementptr_namestr, i32 0, i32 0)), !llfi_injectfault !25
  store i32 %fi7, i32* %fi10, align 4, !llfi_index !1089
  %16 = load %"struct.std::_Rb_tree_node"** %__tmp, align 8, !llfi_index !1090
  %fi11 = call %"struct.std::_Rb_tree_node"* @injectFault14(i64 1089, %"struct.std::_Rb_tree_node"* %16, i32 27, i32 0, i32 1, i32 0, i8* getelementptr inbounds ([5 x i8]* @load_namestr, i32 0, i32 0)), !llfi_injectfault !25
  %17 = bitcast %"struct.std::_Rb_tree_node"* %fi11 to %"struct.std::_Rb_tree_node_base"*, !llfi_index !1091
  %fi5 = call %"struct.std::_Rb_tree_node_base"* @injectFault6(i64 1090, %"struct.std::_Rb_tree_node_base"* %17, i32 44, i32 0, i32 1, i32 0, i8* getelementptr inbounds ([8 x i8]* @bitcast_namestr, i32 0, i32 0)), !llfi_injectfault !25
  %18 = getelementptr %"struct.std::_Rb_tree_node_base"* %fi5, i32 0, i32 2, !llfi_index !1092
  %fi12 = call %"struct.std::_Rb_tree_node_base"** @injectFault5(i64 1091, %"struct.std::_Rb_tree_node_base"** %18, i32 29, i32 0, i32 1, i32 0, i8* getelementptr inbounds ([14 x i8]* @getelementptr_namestr, i32 0, i32 0)), !llfi_injectfault !25
  store %"struct.std::_Rb_tree_node_base"* null, %"struct.std::_Rb_tree_node_base"** %fi12, align 8, !llfi_index !1093
  %19 = load %"struct.std::_Rb_tree_node"** %__tmp, align 8, !llfi_index !1094
  %fi13 = call %"struct.std::_Rb_tree_node"* @injectFault14(i64 1093, %"struct.std::_Rb_tree_node"* %19, i32 27, i32 0, i32 1, i32 0, i8* getelementptr inbounds ([5 x i8]* @load_namestr, i32 0, i32 0)), !llfi_injectfault !25
  %20 = bitcast %"struct.std::_Rb_tree_node"* %fi13 to %"struct.std::_Rb_tree_node_base"*, !llfi_index !1095
  %fi14 = call %"struct.std::_Rb_tree_node_base"* @injectFault6(i64 1094, %"struct.std::_Rb_tree_node_base"* %20, i32 44, i32 0, i32 1, i32 0, i8* getelementptr inbounds ([8 x i8]* @bitcast_namestr, i32 0, i32 0)), !llfi_injectfault !25
  %21 = getelementptr %"struct.std::_Rb_tree_node_base"* %fi14, i32 0, i32 3, !llfi_index !1096
  %fi15 = call %"struct.std::_Rb_tree_node_base"** @injectFault5(i64 1095, %"struct.std::_Rb_tree_node_base"** %21, i32 29, i32 0, i32 1, i32 0, i8* getelementptr inbounds ([14 x i8]* @getelementptr_namestr, i32 0, i32 0)), !llfi_injectfault !25
  store %"struct.std::_Rb_tree_node_base"* null, %"struct.std::_Rb_tree_node_base"** %fi15, align 8, !llfi_index !1097
  %22 = load %"struct.std::_Rb_tree_node"** %__tmp, align 8, !llfi_index !1098
  %fi16 = call %"struct.std::_Rb_tree_node"* @injectFault14(i64 1097, %"struct.std::_Rb_tree_node"* %22, i32 27, i32 0, i32 1, i32 0, i8* getelementptr inbounds ([5 x i8]* @load_namestr, i32 0, i32 0)), !llfi_injectfault !25
  ret %"struct.std::_Rb_tree_node"* %fi16, !llfi_index !1099
}

; Function Attrs: nounwind uwtable
define linkonce_odr %"struct.std::_Rb_tree_node"* @_ZNSt8_Rb_treeIP4NodeS1_St9_IdentityIS1_ESt4lessIS1_ESaIS1_EE8_S_rightEPKSt18_Rb_tree_node_base(%"struct.std::_Rb_tree_node_base"* %__x) #3 align 2 {
  %1 = alloca %"struct.std::_Rb_tree_node_base"*, align 8, !llfi_index !1100
  store %"struct.std::_Rb_tree_node_base"* %__x, %"struct.std::_Rb_tree_node_base"** %1, align 8, !llfi_index !1101
  %2 = load %"struct.std::_Rb_tree_node_base"** %1, align 8, !llfi_index !1102
  %fi = call %"struct.std::_Rb_tree_node_base"* @injectFault6(i64 1101, %"struct.std::_Rb_tree_node_base"* %2, i32 27, i32 0, i32 1, i32 0, i8* getelementptr inbounds ([5 x i8]* @load_namestr, i32 0, i32 0)), !llfi_injectfault !25
  %3 = getelementptr %"struct.std::_Rb_tree_node_base"* %fi, i32 0, i32 3, !llfi_index !1103
  %fi1 = call %"struct.std::_Rb_tree_node_base"** @injectFault5(i64 1102, %"struct.std::_Rb_tree_node_base"** %3, i32 29, i32 0, i32 1, i32 0, i8* getelementptr inbounds ([14 x i8]* @getelementptr_namestr, i32 0, i32 0)), !llfi_injectfault !25
  %4 = load %"struct.std::_Rb_tree_node_base"** %fi1, align 8, !llfi_index !1104
  %fi2 = call %"struct.std::_Rb_tree_node_base"* @injectFault6(i64 1103, %"struct.std::_Rb_tree_node_base"* %4, i32 27, i32 0, i32 1, i32 0, i8* getelementptr inbounds ([5 x i8]* @load_namestr, i32 0, i32 0)), !llfi_injectfault !25
  %5 = bitcast %"struct.std::_Rb_tree_node_base"* %fi2 to %"struct.std::_Rb_tree_node"*, !llfi_index !1105
  %fi3 = call %"struct.std::_Rb_tree_node"* @injectFault14(i64 1104, %"struct.std::_Rb_tree_node"* %5, i32 44, i32 0, i32 1, i32 0, i8* getelementptr inbounds ([8 x i8]* @bitcast_namestr, i32 0, i32 0)), !llfi_injectfault !25
  ret %"struct.std::_Rb_tree_node"* %fi3, !llfi_index !1106
}

; Function Attrs: nounwind uwtable
define linkonce_odr %"struct.std::_Rb_tree_node"* @_ZNSt8_Rb_treeIP4NodeS1_St9_IdentityIS1_ESt4lessIS1_ESaIS1_EE7_S_leftEPKSt18_Rb_tree_node_base(%"struct.std::_Rb_tree_node_base"* %__x) #3 align 2 {
  %1 = alloca %"struct.std::_Rb_tree_node_base"*, align 8, !llfi_index !1107
  store %"struct.std::_Rb_tree_node_base"* %__x, %"struct.std::_Rb_tree_node_base"** %1, align 8, !llfi_index !1108
  %2 = load %"struct.std::_Rb_tree_node_base"** %1, align 8, !llfi_index !1109
  %fi = call %"struct.std::_Rb_tree_node_base"* @injectFault6(i64 1108, %"struct.std::_Rb_tree_node_base"* %2, i32 27, i32 0, i32 1, i32 0, i8* getelementptr inbounds ([5 x i8]* @load_namestr, i32 0, i32 0)), !llfi_injectfault !25
  %3 = getelementptr %"struct.std::_Rb_tree_node_base"* %fi, i32 0, i32 2, !llfi_index !1110
  %fi1 = call %"struct.std::_Rb_tree_node_base"** @injectFault5(i64 1109, %"struct.std::_Rb_tree_node_base"** %3, i32 29, i32 0, i32 1, i32 0, i8* getelementptr inbounds ([14 x i8]* @getelementptr_namestr, i32 0, i32 0)), !llfi_injectfault !25
  %4 = load %"struct.std::_Rb_tree_node_base"** %fi1, align 8, !llfi_index !1111
  %fi2 = call %"struct.std::_Rb_tree_node_base"* @injectFault6(i64 1110, %"struct.std::_Rb_tree_node_base"* %4, i32 27, i32 0, i32 1, i32 0, i8* getelementptr inbounds ([5 x i8]* @load_namestr, i32 0, i32 0)), !llfi_injectfault !25
  %5 = bitcast %"struct.std::_Rb_tree_node_base"* %fi2 to %"struct.std::_Rb_tree_node"*, !llfi_index !1112
  %fi3 = call %"struct.std::_Rb_tree_node"* @injectFault14(i64 1111, %"struct.std::_Rb_tree_node"* %5, i32 44, i32 0, i32 1, i32 0, i8* getelementptr inbounds ([8 x i8]* @bitcast_namestr, i32 0, i32 0)), !llfi_injectfault !25
  ret %"struct.std::_Rb_tree_node"* %fi3, !llfi_index !1113
}

; Function Attrs: nounwind uwtable
define linkonce_odr %"struct.std::_Rb_tree_node"* @_ZNSt8_Rb_treeIP4NodeS1_St9_IdentityIS1_ESt4lessIS1_ESaIS1_EE20_Reuse_or_alloc_nodeclIRKS1_EEPSt13_Rb_tree_nodeIS1_EOT_(%"struct.std::_Rb_tree<Node *, Node *, std::_Identity<Node *>, std::less<Node *>, std::allocator<Node *> >::_Reuse_or_alloc_node"* %this, %struct.Node** %__arg) #3 align 2 {
  %1 = alloca %"struct.std::_Rb_tree_node"*, align 8, !llfi_index !1114
  %2 = alloca %"struct.std::_Rb_tree<Node *, Node *, std::_Identity<Node *>, std::less<Node *>, std::allocator<Node *> >::_Reuse_or_alloc_node"*, align 8, !llfi_index !1115
  %3 = alloca %struct.Node**, align 8, !llfi_index !1116
  %__node = alloca %"struct.std::_Rb_tree_node"*, align 8, !llfi_index !1117
  store %"struct.std::_Rb_tree<Node *, Node *, std::_Identity<Node *>, std::less<Node *>, std::allocator<Node *> >::_Reuse_or_alloc_node"* %this, %"struct.std::_Rb_tree<Node *, Node *, std::_Identity<Node *>, std::less<Node *>, std::allocator<Node *> >::_Reuse_or_alloc_node"** %2, align 8, !llfi_index !1118
  store %struct.Node** %__arg, %struct.Node*** %3, align 8, !llfi_index !1119
  %4 = load %"struct.std::_Rb_tree<Node *, Node *, std::_Identity<Node *>, std::less<Node *>, std::allocator<Node *> >::_Reuse_or_alloc_node"** %2, !llfi_index !1120
  %fi = call %"struct.std::_Rb_tree<Node *, Node *, std::_Identity<Node *>, std::less<Node *>, std::allocator<Node *> >::_Reuse_or_alloc_node"* @injectFault27(i64 1119, %"struct.std::_Rb_tree<Node *, Node *, std::_Identity<Node *>, std::less<Node *>, std::allocator<Node *> >::_Reuse_or_alloc_node"* %4, i32 27, i32 0, i32 1, i32 0, i8* getelementptr inbounds ([5 x i8]* @load_namestr, i32 0, i32 0)), !llfi_injectfault !25
  %5 = call %"struct.std::_Rb_tree_node_base"* @_ZNSt8_Rb_treeIP4NodeS1_St9_IdentityIS1_ESt4lessIS1_ESaIS1_EE20_Reuse_or_alloc_node10_M_extractEv(%"struct.std::_Rb_tree<Node *, Node *, std::_Identity<Node *>, std::less<Node *>, std::allocator<Node *> >::_Reuse_or_alloc_node"* %fi), !llfi_index !1121
  %6 = bitcast %"struct.std::_Rb_tree_node_base"* %5 to %"struct.std::_Rb_tree_node"*, !llfi_index !1122
  %fi1 = call %"struct.std::_Rb_tree_node"* @injectFault14(i64 1121, %"struct.std::_Rb_tree_node"* %6, i32 44, i32 0, i32 1, i32 0, i8* getelementptr inbounds ([8 x i8]* @bitcast_namestr, i32 0, i32 0)), !llfi_injectfault !25
  store %"struct.std::_Rb_tree_node"* %fi1, %"struct.std::_Rb_tree_node"** %__node, align 8, !llfi_index !1123
  %7 = load %"struct.std::_Rb_tree_node"** %__node, align 8, !llfi_index !1124
  %fi2 = call %"struct.std::_Rb_tree_node"* @injectFault14(i64 1123, %"struct.std::_Rb_tree_node"* %7, i32 27, i32 0, i32 1, i32 0, i8* getelementptr inbounds ([5 x i8]* @load_namestr, i32 0, i32 0)), !llfi_injectfault !25
  %8 = icmp ne %"struct.std::_Rb_tree_node"* %fi2, null, !llfi_index !1125
  %fi3 = call i1 @injectFault3(i64 1124, i1 %8, i32 46, i32 0, i32 1, i32 0, i8* getelementptr inbounds ([5 x i8]* @icmp_namestr, i32 0, i32 0)), !llfi_injectfault !25
  br i1 %fi3, label %9, label %19, !llfi_index !1126

; <label>:9                                       ; preds = %0
  %10 = getelementptr %"struct.std::_Rb_tree<Node *, Node *, std::_Identity<Node *>, std::less<Node *>, std::allocator<Node *> >::_Reuse_or_alloc_node"* %fi, i32 0, i32 2, !llfi_index !1127
  %fi4 = call %"class.std::_Rb_tree"** @injectFault32(i64 1126, %"class.std::_Rb_tree"** %10, i32 29, i32 0, i32 1, i32 0, i8* getelementptr inbounds ([14 x i8]* @getelementptr_namestr, i32 0, i32 0)), !llfi_injectfault !25
  %11 = load %"class.std::_Rb_tree"** %fi4, align 8, !llfi_index !1128
  %fi5 = call %"class.std::_Rb_tree"* @injectFault19(i64 1127, %"class.std::_Rb_tree"* %11, i32 27, i32 0, i32 1, i32 0, i8* getelementptr inbounds ([5 x i8]* @load_namestr, i32 0, i32 0)), !llfi_injectfault !25
  %12 = load %"struct.std::_Rb_tree_node"** %__node, align 8, !llfi_index !1129
  %fi6 = call %"struct.std::_Rb_tree_node"* @injectFault14(i64 1128, %"struct.std::_Rb_tree_node"* %12, i32 27, i32 0, i32 1, i32 0, i8* getelementptr inbounds ([5 x i8]* @load_namestr, i32 0, i32 0)), !llfi_injectfault !25
  call void @_ZNSt8_Rb_treeIP4NodeS1_St9_IdentityIS1_ESt4lessIS1_ESaIS1_EE15_M_destroy_nodeEPSt13_Rb_tree_nodeIS1_E(%"class.std::_Rb_tree"* %fi5, %"struct.std::_Rb_tree_node"* %fi6) #0, !llfi_index !1130
  %13 = getelementptr %"struct.std::_Rb_tree<Node *, Node *, std::_Identity<Node *>, std::less<Node *>, std::allocator<Node *> >::_Reuse_or_alloc_node"* %fi, i32 0, i32 2, !llfi_index !1131
  %fi7 = call %"class.std::_Rb_tree"** @injectFault32(i64 1130, %"class.std::_Rb_tree"** %13, i32 29, i32 0, i32 1, i32 0, i8* getelementptr inbounds ([14 x i8]* @getelementptr_namestr, i32 0, i32 0)), !llfi_injectfault !25
  %14 = load %"class.std::_Rb_tree"** %fi7, align 8, !llfi_index !1132
  %fi8 = call %"class.std::_Rb_tree"* @injectFault19(i64 1131, %"class.std::_Rb_tree"* %14, i32 27, i32 0, i32 1, i32 0, i8* getelementptr inbounds ([5 x i8]* @load_namestr, i32 0, i32 0)), !llfi_injectfault !25
  %15 = load %"struct.std::_Rb_tree_node"** %__node, align 8, !llfi_index !1133
  %fi9 = call %"struct.std::_Rb_tree_node"* @injectFault14(i64 1132, %"struct.std::_Rb_tree_node"* %15, i32 27, i32 0, i32 1, i32 0, i8* getelementptr inbounds ([5 x i8]* @load_namestr, i32 0, i32 0)), !llfi_injectfault !25
  %16 = load %struct.Node*** %3, align 8, !llfi_index !1134
  %fi10 = call %struct.Node** @injectFault11(i64 1133, %struct.Node** %16, i32 27, i32 0, i32 1, i32 0, i8* getelementptr inbounds ([5 x i8]* @load_namestr, i32 0, i32 0)), !llfi_injectfault !25
  %17 = call %struct.Node** @_ZSt7forwardIRKP4NodeEOT_RNSt16remove_referenceIS4_E4typeE(%struct.Node** %fi10) #0, !llfi_index !1135
  call void @_ZNSt8_Rb_treeIP4NodeS1_St9_IdentityIS1_ESt4lessIS1_ESaIS1_EE17_M_construct_nodeIJRKS1_EEEvPSt13_Rb_tree_nodeIS1_EDpOT_(%"class.std::_Rb_tree"* %fi8, %"struct.std::_Rb_tree_node"* %fi9, %struct.Node** %17), !llfi_index !1136
  %18 = load %"struct.std::_Rb_tree_node"** %__node, align 8, !llfi_index !1137
  %fi11 = call %"struct.std::_Rb_tree_node"* @injectFault14(i64 1136, %"struct.std::_Rb_tree_node"* %18, i32 27, i32 0, i32 1, i32 0, i8* getelementptr inbounds ([5 x i8]* @load_namestr, i32 0, i32 0)), !llfi_injectfault !25
  store %"struct.std::_Rb_tree_node"* %fi11, %"struct.std::_Rb_tree_node"** %1, !llfi_index !1138
  br label %25, !llfi_index !1139

; <label>:19                                      ; preds = %0
  %20 = getelementptr %"struct.std::_Rb_tree<Node *, Node *, std::_Identity<Node *>, std::less<Node *>, std::allocator<Node *> >::_Reuse_or_alloc_node"* %fi, i32 0, i32 2, !llfi_index !1140
  %fi12 = call %"class.std::_Rb_tree"** @injectFault32(i64 1139, %"class.std::_Rb_tree"** %20, i32 29, i32 0, i32 1, i32 0, i8* getelementptr inbounds ([14 x i8]* @getelementptr_namestr, i32 0, i32 0)), !llfi_injectfault !25
  %21 = load %"class.std::_Rb_tree"** %fi12, align 8, !llfi_index !1141
  %fi13 = call %"class.std::_Rb_tree"* @injectFault19(i64 1140, %"class.std::_Rb_tree"* %21, i32 27, i32 0, i32 1, i32 0, i8* getelementptr inbounds ([5 x i8]* @load_namestr, i32 0, i32 0)), !llfi_injectfault !25
  %22 = load %struct.Node*** %3, align 8, !llfi_index !1142
