; ModuleID = '/home/foo/ResearchAlgorithms/po_17_visitor.ll'
target datalayout = "e-p:64:64:64-i1:8:8-i8:8:8-i16:16:16-i32:32:32-i64:64:64-f32:32:32-f64:64:64-v64:64:64-v128:128:128-a0:0:64-s0:64:64-f80:128:128-n8:16:32:64-S128"
target triple = "x86_64-unknown-linux-gnu"

%"class.std::ios_base::Init" = type { i8 }
%"class.std::basic_ostream" = type { i32 (...)**, %"class.std::basic_ios" }
%"class.std::basic_ios" = type { %"class.std::ios_base", %"class.std::basic_ostream"*, i8, i8, %"class.std::basic_streambuf"*, %"class.std::ctype"*, %"class.std::num_put"*, %"class.std::num_get"* }
%"class.std::ios_base" = type { i32 (...)**, i64, i64, i32, i32, i32, %"struct.std::ios_base::_Callback_list"*, %"struct.std::ios_base::_Words", [8 x %"struct.std::ios_base::_Words"], i32, %"struct.std::ios_base::_Words"*, %"class.std::locale" }
%"struct.std::ios_base::_Callback_list" = type { %"struct.std::ios_base::_Callback_list"*, void (i32, %"class.std::ios_base"*, i32)*, i32, i32 }
%"struct.std::ios_base::_Words" = type { i8*, i64 }
%"class.std::locale" = type { %"class.std::locale::_Impl"* }
%"class.std::locale::_Impl" = type { i32, %"class.std::locale::facet"**, i64, %"class.std::locale::facet"**, i8** }
%"class.std::locale::facet" = type { i32 (...)**, i32 }
%"class.std::basic_streambuf" = type { i32 (...)**, i8*, i8*, i8*, i8*, i8*, i8*, %"class.std::locale" }
%"class.std::ctype" = type { %"class.std::locale::facet", %struct.__locale_struct*, i8, i32*, i32*, i16*, i8, [256 x i8], [256 x i8], i8 }
%struct.__locale_struct = type { [13 x %struct.__locale_data*], i16*, i32*, i32*, [13 x i8*] }
%struct.__locale_data = type opaque
%"class.std::num_put" = type { %"class.std::locale::facet" }
%"class.std::num_get" = type { %"class.std::locale::facet" }
%struct.TreeNode = type { i32, %struct.TreeNode*, %struct.TreeNode* }
%"class.std::__cxx11::basic_string" = type { %"struct.std::__cxx11::basic_string<char, std::char_traits<char>, std::allocator<char> >::_Alloc_hider", i64, %union.anon }
%"struct.std::__cxx11::basic_string<char, std::char_traits<char>, std::allocator<char> >::_Alloc_hider" = type { i8* }
%union.anon = type { i64, [8 x i8] }
%"class.std::allocator" = type { i8 }
%"class.std::basic_ifstream" = type { %"class.std::basic_istream.base", %"class.std::basic_filebuf", %"class.std::basic_ios" }
%"class.std::basic_istream.base" = type { i32 (...)**, i64 }
%"class.std::basic_filebuf" = type { %"class.std::basic_streambuf", %union.pthread_mutex_t, %"class.std::__basic_file", i32, %struct.__mbstate_t, %struct.__mbstate_t, %struct.__mbstate_t, i8*, i64, i8, i8, i8, i8, i8*, i8*, i8, %"class.std::codecvt"*, i8*, i64, i8*, i8* }
%union.pthread_mutex_t = type { %"struct.<anonymous union>::__pthread_mutex_s" }
%"struct.<anonymous union>::__pthread_mutex_s" = type { i32, i32, i32, i32, i32, i16, i16, %struct.__pthread_internal_list }
%struct.__pthread_internal_list = type { %struct.__pthread_internal_list*, %struct.__pthread_internal_list* }
%"class.std::__basic_file" = type { %struct._IO_FILE*, i8 }
%struct._IO_FILE = type { i32, i8*, i8*, i8*, i8*, i8*, i8*, i8*, i8*, i8*, i8*, i8*, %struct._IO_marker*, %struct._IO_FILE*, i32, i32, i64, i16, i8, [1 x i8], i8*, i64, i8*, i8*, i8*, i8*, i64, i32, [20 x i8] }
%struct._IO_marker = type { %struct._IO_marker*, %struct._IO_FILE*, i32 }
%struct.__mbstate_t = type { i32, %union.anon.0 }
%union.anon.0 = type { i32 }
%"class.std::codecvt" = type { %"class.std::__codecvt_abstract_base", %struct.__locale_struct* }
%"class.std::__codecvt_abstract_base" = type { %"class.std::locale::facet" }
%"class.std::vector" = type { %"struct.std::_Vector_base" }
%"struct.std::_Vector_base" = type { %"struct.std::_Vector_base<int, std::allocator<int> >::_Vector_impl" }
%"struct.std::_Vector_base<int, std::allocator<int> >::_Vector_impl" = type { i32*, i32*, i32* }
%class.Solution = type { i8 }
%"class.std::basic_istream" = type { i32 (...)**, i64, %"class.std::basic_ios" }
%"class.std::allocator.1" = type { i8 }
%class.VectorVisitor = type { %class.NodeVisitor, %"class.std::vector"* }
%class.NodeVisitor = type { i32 (...)** }
%"class.__gnu_cxx::new_allocator.2" = type { i8 }
%"class.std::move_iterator" = type { i32* }

@_ZStL8__ioinit = internal global %"class.std::ios_base::Init" zeroinitializer, align 1
@__dso_handle = external global i8
@.str = private unnamed_addr constant [12 x i8] c"numbers.txt\00", align 1
@_ZSt4cout = external global %"class.std::basic_ostream"
@.str1 = private unnamed_addr constant [2 x i8] c" \00", align 1
@.str2 = private unnamed_addr constant [28 x i8] c"vector::_M_emplace_back_aux\00", align 1
@_ZTV13VectorVisitor = linkonce_odr unnamed_addr constant [5 x i8*] [i8* null, i8* bitcast ({ i8*, i8*, i8* }* @_ZTI13VectorVisitor to i8*), i8* bitcast (void (%class.VectorVisitor*)* @_ZN13VectorVisitorD2Ev to i8*), i8* bitcast (void (%class.VectorVisitor*)* @_ZN13VectorVisitorD0Ev to i8*), i8* bitcast (void (%class.VectorVisitor*, i32)* @_ZN13VectorVisitor5visitEi to i8*)]
@_ZTVN10__cxxabiv120__si_class_type_infoE = external global i8*
@_ZTS13VectorVisitor = linkonce_odr constant [16 x i8] c"13VectorVisitor\00"
@_ZTVN10__cxxabiv117__class_type_infoE = external global i8*
@_ZTS11NodeVisitor = linkonce_odr constant [14 x i8] c"11NodeVisitor\00"
@_ZTI11NodeVisitor = linkonce_odr unnamed_addr constant { i8*, i8* } { i8* bitcast (i8** getelementptr inbounds (i8** @_ZTVN10__cxxabiv117__class_type_infoE, i64 2) to i8*), i8* getelementptr inbounds ([14 x i8]* @_ZTS11NodeVisitor, i32 0, i32 0) }
@_ZTI13VectorVisitor = linkonce_odr unnamed_addr constant { i8*, i8*, i8* } { i8* bitcast (i8** getelementptr inbounds (i8** @_ZTVN10__cxxabiv120__si_class_type_infoE, i64 2) to i8*), i8* getelementptr inbounds ([16 x i8]* @_ZTS13VectorVisitor, i32 0, i32 0), i8* bitcast ({ i8*, i8* }* @_ZTI11NodeVisitor to i8*) }
@_ZTV11NodeVisitor = linkonce_odr unnamed_addr constant [5 x i8*] [i8* null, i8* bitcast ({ i8*, i8* }* @_ZTI11NodeVisitor to i8*), i8* bitcast (void (%class.NodeVisitor*)* @_ZN11NodeVisitorD2Ev to i8*), i8* bitcast (void (%class.NodeVisitor*)* @_ZN11NodeVisitorD0Ev to i8*), i8* bitcast (void ()* @__cxa_pure_virtual to i8*)]
@llvm.global_ctors = appending global [1 x { i32, void ()* }] [{ i32, void ()* } { i32 65535, void ()* @_GLOBAL__I_a }]

; Function Attrs: nounwind
define internal void @__cxx_global_var_init() #0 section ".text.startup" {
  call void @_ZNSt8ios_base4InitC1Ev(%"class.std::ios_base::Init"* @_ZStL8__ioinit), !llfi_index !1
  %1 = call i32 @__cxa_atexit(void (i8*)* bitcast (void (%"class.std::ios_base::Init"*)* @_ZNSt8ios_base4InitD1Ev to void (i8*)*), i8* getelementptr inbounds (%"class.std::ios_base::Init"* @_ZStL8__ioinit, i32 0, i32 0), i8* @__dso_handle) #0, !llfi_index !2
  ret void, !llfi_index !3
}

declare void @_ZNSt8ios_base4InitC1Ev(%"class.std::ios_base::Init"*) #1

; Function Attrs: nounwind
declare void @_ZNSt8ios_base4InitD1Ev(%"class.std::ios_base::Init"*) #2

; Function Attrs: nounwind
declare i32 @__cxa_atexit(void (i8*)*, i8*, i8*) #0

; Function Attrs: nounwind uwtable
define %struct.TreeNode* @_Z6insertP8TreeNodei(%struct.TreeNode* %root, i32 %val) #3 {
  %1 = alloca %struct.TreeNode*, align 8, !llfi_index !4
  %2 = alloca %struct.TreeNode*, align 8, !llfi_index !5
  %3 = alloca i32, align 4, !llfi_index !6
  store %struct.TreeNode* %root, %struct.TreeNode** %2, align 8, !llfi_index !7
  store i32 %val, i32* %3, align 4, !llfi_index !8
  %4 = load %struct.TreeNode** %2, align 8, !llfi_index !9
  %5 = icmp ne %struct.TreeNode* %4, null, !llfi_index !10
  br i1 %5, label %10, label %6, !llfi_index !11

; <label>:6                                       ; preds = %0
  %7 = call noalias i8* @_Znwm(i64 24) #8, !llfi_index !12
  %8 = bitcast i8* %7 to %struct.TreeNode*, !llfi_index !13
  %9 = load i32* %3, align 4, !llfi_index !14
  call void @_ZN8TreeNodeC2Ei(%struct.TreeNode* %8, i32 %9), !llfi_index !15
  store %struct.TreeNode* %8, %struct.TreeNode** %1, !llfi_index !16
  br label %34, !llfi_index !17

; <label>:10                                      ; preds = %0
  %11 = load i32* %3, align 4, !llfi_index !18
  %12 = load %struct.TreeNode** %2, align 8, !llfi_index !19
  %13 = getelementptr inbounds %struct.TreeNode* %12, i32 0, i32 0, !llfi_index !20
  %14 = load i32* %13, align 4, !llfi_index !21
  %15 = icmp slt i32 %11, %14, !llfi_index !22
  br i1 %15, label %16, label %24, !llfi_index !23

; <label>:16                                      ; preds = %10
  %17 = load %struct.TreeNode** %2, align 8, !llfi_index !24
  %18 = getelementptr inbounds %struct.TreeNode* %17, i32 0, i32 1, !llfi_index !25
  %19 = load %struct.TreeNode** %18, align 8, !llfi_index !26
  %20 = load i32* %3, align 4, !llfi_index !27
  %21 = call %struct.TreeNode* @_Z6insertP8TreeNodei(%struct.TreeNode* %19, i32 %20), !llfi_index !28
  %22 = load %struct.TreeNode** %2, align 8, !llfi_index !29
  %23 = getelementptr inbounds %struct.TreeNode* %22, i32 0, i32 1, !llfi_index !30
  store %struct.TreeNode* %21, %struct.TreeNode** %23, align 8, !llfi_index !31
  br label %32, !llfi_index !32

; <label>:24                                      ; preds = %10
  %25 = load %struct.TreeNode** %2, align 8, !llfi_index !33
  %26 = getelementptr inbounds %struct.TreeNode* %25, i32 0, i32 2, !llfi_index !34
  %27 = load %struct.TreeNode** %26, align 8, !llfi_index !35
  %28 = load i32* %3, align 4, !llfi_index !36
  %29 = call %struct.TreeNode* @_Z6insertP8TreeNodei(%struct.TreeNode* %27, i32 %28), !llfi_index !37
  %30 = load %struct.TreeNode** %2, align 8, !llfi_index !38
  %31 = getelementptr inbounds %struct.TreeNode* %30, i32 0, i32 2, !llfi_index !39
  store %struct.TreeNode* %29, %struct.TreeNode** %31, align 8, !llfi_index !40
  br label %32, !llfi_index !41

; <label>:32                                      ; preds = %24, %16
  %33 = load %struct.TreeNode** %2, align 8, !llfi_index !42
  store %struct.TreeNode* %33, %struct.TreeNode** %1, !llfi_index !43
  br label %34, !llfi_index !44

; <label>:34                                      ; preds = %32, %6
  %35 = load %struct.TreeNode** %1, !llfi_index !45
  ret %struct.TreeNode* %35, !llfi_index !46
}

; Function Attrs: nobuiltin
declare noalias i8* @_Znwm(i64) #4

; Function Attrs: nounwind uwtable
define linkonce_odr void @_ZN8TreeNodeC2Ei(%struct.TreeNode* %this, i32 %x) unnamed_addr #3 align 2 {
  %1 = alloca %struct.TreeNode*, align 8, !llfi_index !47
  %2 = alloca i32, align 4, !llfi_index !48
  store %struct.TreeNode* %this, %struct.TreeNode** %1, align 8, !llfi_index !49
  store i32 %x, i32* %2, align 4, !llfi_index !50
  %3 = load %struct.TreeNode** %1, !llfi_index !51
  %4 = getelementptr inbounds %struct.TreeNode* %3, i32 0, i32 0, !llfi_index !52
  %5 = load i32* %2, align 4, !llfi_index !53
  store i32 %5, i32* %4, align 4, !llfi_index !54
  %6 = getelementptr inbounds %struct.TreeNode* %3, i32 0, i32 1, !llfi_index !55
  store %struct.TreeNode* null, %struct.TreeNode** %6, align 8, !llfi_index !56
  %7 = getelementptr inbounds %struct.TreeNode* %3, i32 0, i32 2, !llfi_index !57
  store %struct.TreeNode* null, %struct.TreeNode** %7, align 8, !llfi_index !58
  ret void, !llfi_index !59
}

; Function Attrs: nounwind uwtable
define i32 @main(i32 %argc, i8** %argv) #3 {
  %1 = alloca i32, align 4, !llfi_index !60
  %2 = alloca i32, align 4, !llfi_index !61
  %3 = alloca i8**, align 8, !llfi_index !62
  %filename = alloca %"class.std::__cxx11::basic_string", align 8, !llfi_index !63
  %4 = alloca %"class.std::allocator", align 1, !llfi_index !64
  %file = alloca %"class.std::basic_ifstream", align 8, !llfi_index !65
  %num = alloca i32, align 4, !llfi_index !66
  %root = alloca %struct.TreeNode*, align 8, !llfi_index !67
  %f = alloca %"class.std::vector", align 8, !llfi_index !68
  %5 = alloca i32, align 4, !llfi_index !69
  %6 = alloca i32, align 4, !llfi_index !70
  %7 = alloca i32, align 4, !llfi_index !71
  %8 = alloca i32, align 4, !llfi_index !72
  %9 = alloca i32, align 4, !llfi_index !73
  %i = alloca i64, align 8, !llfi_index !74
  %sol = alloca %class.Solution, align 1, !llfi_index !75
  %result = alloca %"class.std::vector", align 8, !llfi_index !76
  %i1 = alloca i64, align 8, !llfi_index !77
  %10 = alloca i32, !llfi_index !78
  store i32 0, i32* %1, !llfi_index !79
  store i32 %argc, i32* %2, align 4, !llfi_index !80
  store i8** %argv, i8*** %3, align 8, !llfi_index !81
  call void @_ZNSaIcEC1Ev(%"class.std::allocator"* %4) #0, !llfi_index !82
  call void @_ZNSt7__cxx1112basic_stringIcSt11char_traitsIcESaIcEEC1EPKcRKS3_(%"class.std::__cxx11::basic_string"* %filename, i8* getelementptr inbounds ([12 x i8]* @.str, i32 0, i32 0), %"class.std::allocator"* %4), !llfi_index !83
  call void @_ZNSaIcED1Ev(%"class.std::allocator"* %4) #0, !llfi_index !84
  %11 = load i32* %2, align 4, !llfi_index !85
  %12 = icmp sgt i32 %11, 1, !llfi_index !86
  br i1 %12, label %13, label %18, !llfi_index !87

; <label>:13                                      ; preds = %0
  %14 = load i8*** %3, align 8, !llfi_index !88
  %15 = getelementptr inbounds i8** %14, i64 1, !llfi_index !89
  %16 = load i8** %15, align 8, !llfi_index !90
  %17 = call %"class.std::__cxx11::basic_string"* @_ZNSt7__cxx1112basic_stringIcSt11char_traitsIcESaIcEEaSEPKc(%"class.std::__cxx11::basic_string"* %filename, i8* %16), !llfi_index !91
  br label %18, !llfi_index !92

; <label>:18                                      ; preds = %13, %0
  %19 = call i8* @_ZNKSt7__cxx1112basic_stringIcSt11char_traitsIcESaIcEE5c_strEv(%"class.std::__cxx11::basic_string"* %filename) #0, !llfi_index !93
  call void @_ZNSt14basic_ifstreamIcSt11char_traitsIcEEC1EPKcSt13_Ios_Openmode(%"class.std::basic_ifstream"* %file, i8* %19, i32 8), !llfi_index !94
  store %struct.TreeNode* null, %struct.TreeNode** %root, align 8, !llfi_index !95
  %20 = call zeroext i1 @_ZNSt14basic_ifstreamIcSt11char_traitsIcEE7is_openEv(%"class.std::basic_ifstream"* %file), !llfi_index !96
  br i1 %20, label %36, label %21, !llfi_index !97

; <label>:21                                      ; preds = %18
  call void @_ZNSt6vectorIiSaIiEEC2Ev(%"class.std::vector"* %f) #0, !llfi_index !98
  store i32 1, i32* %5, !llfi_index !99
  call void @_ZNSt6vectorIiSaIiEE9push_backEOi(%"class.std::vector"* %f, i32* %5), !llfi_index !100
  store i32 2, i32* %6, !llfi_index !101
  call void @_ZNSt6vectorIiSaIiEE9push_backEOi(%"class.std::vector"* %f, i32* %6), !llfi_index !102
  store i32 3, i32* %7, !llfi_index !103
  call void @_ZNSt6vectorIiSaIiEE9push_backEOi(%"class.std::vector"* %f, i32* %7), !llfi_index !104
  store i32 4, i32* %8, !llfi_index !105
  call void @_ZNSt6vectorIiSaIiEE9push_backEOi(%"class.std::vector"* %f, i32* %8), !llfi_index !106
  store i32 5, i32* %9, !llfi_index !107
  call void @_ZNSt6vectorIiSaIiEE9push_backEOi(%"class.std::vector"* %f, i32* %9), !llfi_index !108
  store i64 0, i64* %i, align 8, !llfi_index !109
  br label %22, !llfi_index !110

; <label>:22                                      ; preds = %32, %21
  %23 = load i64* %i, align 8, !llfi_index !111
  %24 = call i64 @_ZNKSt6vectorIiSaIiEE4sizeEv(%"class.std::vector"* %f) #0, !llfi_index !112
  %25 = icmp ult i64 %23, %24, !llfi_index !113
  br i1 %25, label %26, label %35, !llfi_index !114

; <label>:26                                      ; preds = %22
  %27 = load %struct.TreeNode** %root, align 8, !llfi_index !115
  %28 = load i64* %i, align 8, !llfi_index !116
  %29 = call i32* @_ZNSt6vectorIiSaIiEEixEm(%"class.std::vector"* %f, i64 %28) #0, !llfi_index !117
  %30 = load i32* %29, !llfi_index !118
  %31 = call %struct.TreeNode* @_Z6insertP8TreeNodei(%struct.TreeNode* %27, i32 %30), !llfi_index !119
  store %struct.TreeNode* %31, %struct.TreeNode** %root, align 8, !llfi_index !120
  br label %32, !llfi_index !121

; <label>:32                                      ; preds = %26
  %33 = load i64* %i, align 8, !llfi_index !122
  %34 = add i64 %33, 1, !llfi_index !123
  store i64 %34, i64* %i, align 8, !llfi_index !124
  br label %22, !llfi_index !125

; <label>:35                                      ; preds = %22
  call void @_ZNSt6vectorIiSaIiEED2Ev(%"class.std::vector"* %f) #0, !llfi_index !126
  br label %54, !llfi_index !127

; <label>:36                                      ; preds = %18
  br label %37, !llfi_index !128

; <label>:37                                      ; preds = %49, %36
  %38 = bitcast %"class.std::basic_ifstream"* %file to %"class.std::basic_istream"*, !llfi_index !129
  %39 = call %"class.std::basic_istream"* @_ZNSirsERi(%"class.std::basic_istream"* %38, i32* %num), !llfi_index !130
  %40 = bitcast %"class.std::basic_istream"* %39 to i8**, !llfi_index !131
  %41 = load i8** %40, !llfi_index !132
  %42 = getelementptr i8* %41, i64 -24, !llfi_index !133
  %43 = bitcast i8* %42 to i64*, !llfi_index !134
  %44 = load i64* %43, !llfi_index !135
  %45 = bitcast %"class.std::basic_istream"* %39 to i8*, !llfi_index !136
  %46 = getelementptr inbounds i8* %45, i64 %44, !llfi_index !137
  %47 = bitcast i8* %46 to %"class.std::basic_ios"*, !llfi_index !138
  %48 = call zeroext i1 @_ZNKSt9basic_iosIcSt11char_traitsIcEEcvbEv(%"class.std::basic_ios"* %47), !llfi_index !139
  br i1 %48, label %49, label %53, !llfi_index !140

; <label>:49                                      ; preds = %37
  %50 = load %struct.TreeNode** %root, align 8, !llfi_index !141
  %51 = load i32* %num, align 4, !llfi_index !142
  %52 = call %struct.TreeNode* @_Z6insertP8TreeNodei(%struct.TreeNode* %50, i32 %51), !llfi_index !143
  store %struct.TreeNode* %52, %struct.TreeNode** %root, align 8, !llfi_index !144
  br label %37, !llfi_index !145

; <label>:53                                      ; preds = %37
  call void @_ZNSt14basic_ifstreamIcSt11char_traitsIcEE5closeEv(%"class.std::basic_ifstream"* %file), !llfi_index !146
  br label %54, !llfi_index !147

; <label>:54                                      ; preds = %53, %35
  %55 = load %struct.TreeNode** %root, align 8, !llfi_index !148
  call void @_ZN8Solution18postorderTraversalEP8TreeNode(%"class.std::vector"* sret %result, %class.Solution* %sol, %struct.TreeNode* %55), !llfi_index !149
  store i64 0, i64* %i1, align 8, !llfi_index !150
  br label %56, !llfi_index !151

; <label>:56                                      ; preds = %66, %54
  %57 = load i64* %i1, align 8, !llfi_index !152
  %58 = call i64 @_ZNKSt6vectorIiSaIiEE4sizeEv(%"class.std::vector"* %result) #0, !llfi_index !153
  %59 = icmp ult i64 %57, %58, !llfi_index !154
  br i1 %59, label %60, label %69, !llfi_index !155

; <label>:60                                      ; preds = %56
  %61 = load i64* %i1, align 8, !llfi_index !156
  %62 = call i32* @_ZNSt6vectorIiSaIiEEixEm(%"class.std::vector"* %result, i64 %61) #0, !llfi_index !157
  %63 = load i32* %62, !llfi_index !158
  %64 = call %"class.std::basic_ostream"* @_ZNSolsEi(%"class.std::basic_ostream"* @_ZSt4cout, i32 %63), !llfi_index !159
  %65 = call %"class.std::basic_ostream"* @_ZStlsISt11char_traitsIcEERSt13basic_ostreamIcT_ES5_PKc(%"class.std::basic_ostream"* %64, i8* getelementptr inbounds ([2 x i8]* @.str1, i32 0, i32 0)), !llfi_index !160
  br label %66, !llfi_index !161

; <label>:66                                      ; preds = %60
  %67 = load i64* %i1, align 8, !llfi_index !162
  %68 = add i64 %67, 1, !llfi_index !163
  store i64 %68, i64* %i1, align 8, !llfi_index !164
  br label %56, !llfi_index !165

; <label>:69                                      ; preds = %56
  %70 = call %"class.std::basic_ostream"* @_ZNSolsEPFRSoS_E(%"class.std::basic_ostream"* @_ZSt4cout, %"class.std::basic_ostream"* (%"class.std::basic_ostream"*)* @_ZSt4endlIcSt11char_traitsIcEERSt13basic_ostreamIT_T0_ES6_), !llfi_index !166
  store i32 0, i32* %1, !llfi_index !167
  store i32 1, i32* %10, !llfi_index !168
  call void @_ZNSt6vectorIiSaIiEED2Ev(%"class.std::vector"* %result) #0, !llfi_index !169
  call void @_ZNSt14basic_ifstreamIcSt11char_traitsIcEED1Ev(%"class.std::basic_ifstream"* %file) #0, !llfi_index !170
  call void @_ZNSt7__cxx1112basic_stringIcSt11char_traitsIcESaIcEED1Ev(%"class.std::__cxx11::basic_string"* %filename) #0, !llfi_index !171
  %71 = load i32* %1, !llfi_index !172
  ret i32 %71, !llfi_index !173
}

declare void @_ZNSt7__cxx1112basic_stringIcSt11char_traitsIcESaIcEEC1EPKcRKS3_(%"class.std::__cxx11::basic_string"*, i8*, %"class.std::allocator"*) #1

; Function Attrs: nounwind
declare void @_ZNSaIcEC1Ev(%"class.std::allocator"*) #2

; Function Attrs: nounwind
declare void @_ZNSaIcED1Ev(%"class.std::allocator"*) #2

declare %"class.std::__cxx11::basic_string"* @_ZNSt7__cxx1112basic_stringIcSt11char_traitsIcESaIcEEaSEPKc(%"class.std::__cxx11::basic_string"*, i8*) #1

declare void @_ZNSt14basic_ifstreamIcSt11char_traitsIcEEC1EPKcSt13_Ios_Openmode(%"class.std::basic_ifstream"*, i8*, i32) #1

; Function Attrs: nounwind
declare i8* @_ZNKSt7__cxx1112basic_stringIcSt11char_traitsIcESaIcEE5c_strEv(%"class.std::__cxx11::basic_string"*) #2

declare zeroext i1 @_ZNSt14basic_ifstreamIcSt11char_traitsIcEE7is_openEv(%"class.std::basic_ifstream"*) #1

; Function Attrs: nounwind uwtable
define linkonce_odr void @_ZNSt6vectorIiSaIiEEC2Ev(%"class.std::vector"* %this) unnamed_addr #3 align 2 {
  %1 = alloca %"class.std::vector"*, align 8, !llfi_index !174
  store %"class.std::vector"* %this, %"class.std::vector"** %1, align 8, !llfi_index !175
  %2 = load %"class.std::vector"** %1, !llfi_index !176
  %3 = bitcast %"class.std::vector"* %2 to %"struct.std::_Vector_base"*, !llfi_index !177
  call void @_ZNSt12_Vector_baseIiSaIiEEC2Ev(%"struct.std::_Vector_base"* %3), !llfi_index !178
  ret void, !llfi_index !179
}

; Function Attrs: nounwind uwtable
define linkonce_odr void @_ZNSt6vectorIiSaIiEE9push_backEOi(%"class.std::vector"* %this, i32* %__x) #3 align 2 {
  %1 = alloca %"class.std::vector"*, align 8, !llfi_index !180
  %2 = alloca i32*, align 8, !llfi_index !181
  store %"class.std::vector"* %this, %"class.std::vector"** %1, align 8, !llfi_index !182
  store i32* %__x, i32** %2, align 8, !llfi_index !183
  %3 = load %"class.std::vector"** %1, !llfi_index !184
  %4 = load i32** %2, align 8, !llfi_index !185
  %5 = call i32* @_ZSt4moveIRiEONSt16remove_referenceIT_E4typeEOS2_(i32* %4) #0, !llfi_index !186
  call void @_ZNSt6vectorIiSaIiEE12emplace_backIJiEEEvDpOT_(%"class.std::vector"* %3, i32* %5), !llfi_index !187
  ret void, !llfi_index !188
}

; Function Attrs: nounwind uwtable
define linkonce_odr i64 @_ZNKSt6vectorIiSaIiEE4sizeEv(%"class.std::vector"* %this) #3 align 2 {
  %1 = alloca %"class.std::vector"*, align 8, !llfi_index !189
  store %"class.std::vector"* %this, %"class.std::vector"** %1, align 8, !llfi_index !190
  %2 = load %"class.std::vector"** %1, !llfi_index !191
  %3 = bitcast %"class.std::vector"* %2 to %"struct.std::_Vector_base"*, !llfi_index !192
  %4 = getelementptr inbounds %"struct.std::_Vector_base"* %3, i32 0, i32 0, !llfi_index !193
  %5 = getelementptr inbounds %"struct.std::_Vector_base<int, std::allocator<int> >::_Vector_impl"* %4, i32 0, i32 1, !llfi_index !194
  %6 = load i32** %5, align 8, !llfi_index !195
  %7 = bitcast %"class.std::vector"* %2 to %"struct.std::_Vector_base"*, !llfi_index !196
  %8 = getelementptr inbounds %"struct.std::_Vector_base"* %7, i32 0, i32 0, !llfi_index !197
  %9 = getelementptr inbounds %"struct.std::_Vector_base<int, std::allocator<int> >::_Vector_impl"* %8, i32 0, i32 0, !llfi_index !198
  %10 = load i32** %9, align 8, !llfi_index !199
  %11 = ptrtoint i32* %6 to i64, !llfi_index !200
  %12 = ptrtoint i32* %10 to i64, !llfi_index !201
  %13 = sub i64 %11, %12, !llfi_index !202
  %14 = sdiv exact i64 %13, 4, !llfi_index !203
  ret i64 %14, !llfi_index !204
}

; Function Attrs: nounwind uwtable
define linkonce_odr i32* @_ZNSt6vectorIiSaIiEEixEm(%"class.std::vector"* %this, i64 %__n) #3 align 2 {
  %1 = alloca %"class.std::vector"*, align 8, !llfi_index !205
  %2 = alloca i64, align 8, !llfi_index !206
  store %"class.std::vector"* %this, %"class.std::vector"** %1, align 8, !llfi_index !207
  store i64 %__n, i64* %2, align 8, !llfi_index !208
  %3 = load %"class.std::vector"** %1, !llfi_index !209
  %4 = bitcast %"class.std::vector"* %3 to %"struct.std::_Vector_base"*, !llfi_index !210
  %5 = getelementptr inbounds %"struct.std::_Vector_base"* %4, i32 0, i32 0, !llfi_index !211
  %6 = getelementptr inbounds %"struct.std::_Vector_base<int, std::allocator<int> >::_Vector_impl"* %5, i32 0, i32 0, !llfi_index !212
  %7 = load i32** %6, align 8, !llfi_index !213
  %8 = load i64* %2, align 8, !llfi_index !214
  %9 = getelementptr inbounds i32* %7, i64 %8, !llfi_index !215
  ret i32* %9, !llfi_index !216
}

; Function Attrs: nounwind uwtable
define linkonce_odr void @_ZNSt6vectorIiSaIiEED2Ev(%"class.std::vector"* %this) unnamed_addr #3 align 2 {
  %1 = alloca %"class.std::vector"*, align 8, !llfi_index !217
  store %"class.std::vector"* %this, %"class.std::vector"** %1, align 8, !llfi_index !218
  %2 = load %"class.std::vector"** %1, !llfi_index !219
  %3 = bitcast %"class.std::vector"* %2 to %"struct.std::_Vector_base"*, !llfi_index !220
  %4 = getelementptr inbounds %"struct.std::_Vector_base"* %3, i32 0, i32 0, !llfi_index !221
  %5 = getelementptr inbounds %"struct.std::_Vector_base<int, std::allocator<int> >::_Vector_impl"* %4, i32 0, i32 0, !llfi_index !222
  %6 = load i32** %5, align 8, !llfi_index !223
  %7 = bitcast %"class.std::vector"* %2 to %"struct.std::_Vector_base"*, !llfi_index !224
  %8 = getelementptr inbounds %"struct.std::_Vector_base"* %7, i32 0, i32 0, !llfi_index !225
  %9 = getelementptr inbounds %"struct.std::_Vector_base<int, std::allocator<int> >::_Vector_impl"* %8, i32 0, i32 1, !llfi_index !226
  %10 = load i32** %9, align 8, !llfi_index !227
  %11 = bitcast %"class.std::vector"* %2 to %"struct.std::_Vector_base"*, !llfi_index !228
  %12 = call %"class.std::allocator.1"* @_ZNSt12_Vector_baseIiSaIiEE19_M_get_Tp_allocatorEv(%"struct.std::_Vector_base"* %11) #0, !llfi_index !229
  call void @_ZSt8_DestroyIPiiEvT_S1_RSaIT0_E(i32* %6, i32* %10, %"class.std::allocator.1"* %12), !llfi_index !230
  %13 = bitcast %"class.std::vector"* %2 to %"struct.std::_Vector_base"*, !llfi_index !231
  call void @_ZNSt12_Vector_baseIiSaIiEED2Ev(%"struct.std::_Vector_base"* %13) #0, !llfi_index !232
  ret void, !llfi_index !233
}

declare %"class.std::basic_istream"* @_ZNSirsERi(%"class.std::basic_istream"*, i32*) #1

declare zeroext i1 @_ZNKSt9basic_iosIcSt11char_traitsIcEEcvbEv(%"class.std::basic_ios"*) #1

declare void @_ZNSt14basic_ifstreamIcSt11char_traitsIcEE5closeEv(%"class.std::basic_ifstream"*) #1

; Function Attrs: nounwind uwtable
define linkonce_odr void @_ZN8Solution18postorderTraversalEP8TreeNode(%"class.std::vector"* noalias sret %agg.result, %class.Solution* %this, %struct.TreeNode* %root) #3 align 2 {
  %1 = alloca %class.Solution*, align 8, !llfi_index !234
  %2 = alloca %struct.TreeNode*, align 8, !llfi_index !235
  %3 = alloca i1, !llfi_index !236
  %adapter = alloca %class.VectorVisitor, align 8, !llfi_index !237
  %4 = alloca i32, !llfi_index !238
  store %class.Solution* %this, %class.Solution** %1, align 8, !llfi_index !239
  store %struct.TreeNode* %root, %struct.TreeNode** %2, align 8, !llfi_index !240
  %5 = load %class.Solution** %1, !llfi_index !241
  store i1 false, i1* %3, !llfi_index !242
  call void @_ZNSt6vectorIiSaIiEEC2Ev(%"class.std::vector"* %agg.result) #0, !llfi_index !243
  call void @_ZN13VectorVisitorC2ERSt6vectorIiSaIiEE(%class.VectorVisitor* %adapter, %"class.std::vector"* %agg.result), !llfi_index !244
  %6 = load %struct.TreeNode** %2, align 8, !llfi_index !245
  %7 = bitcast %class.VectorVisitor* %adapter to %class.NodeVisitor*, !llfi_index !246
  call void @_ZN8Solution18postorderTraversalEP8TreeNodeR11NodeVisitor(%class.Solution* %5, %struct.TreeNode* %6, %class.NodeVisitor* %7), !llfi_index !247
  store i1 true, i1* %3, !llfi_index !248
  store i32 1, i32* %4, !llfi_index !249
  call void @_ZN13VectorVisitorD2Ev(%class.VectorVisitor* %adapter) #0, !llfi_index !250
  %8 = load i1* %3, !llfi_index !251
  br i1 %8, label %10, label %9, !llfi_index !252

; <label>:9                                       ; preds = %0
  call void @_ZNSt6vectorIiSaIiEED2Ev(%"class.std::vector"* %agg.result) #0, !llfi_index !253
  br label %10, !llfi_index !254

; <label>:10                                      ; preds = %9, %0
  ret void, !llfi_index !255
}

declare %"class.std::basic_ostream"* @_ZStlsISt11char_traitsIcEERSt13basic_ostreamIcT_ES5_PKc(%"class.std::basic_ostream"*, i8*) #1

declare %"class.std::basic_ostream"* @_ZNSolsEi(%"class.std::basic_ostream"*, i32) #1

declare %"class.std::basic_ostream"* @_ZNSolsEPFRSoS_E(%"class.std::basic_ostream"*, %"class.std::basic_ostream"* (%"class.std::basic_ostream"*)*) #1

declare %"class.std::basic_ostream"* @_ZSt4endlIcSt11char_traitsIcEERSt13basic_ostreamIT_T0_ES6_(%"class.std::basic_ostream"*) #1

; Function Attrs: nounwind
declare void @_ZNSt14basic_ifstreamIcSt11char_traitsIcEED1Ev(%"class.std::basic_ifstream"*) #2

; Function Attrs: nounwind
declare void @_ZNSt7__cxx1112basic_stringIcSt11char_traitsIcESaIcEED1Ev(%"class.std::__cxx11::basic_string"*) #2

; Function Attrs: nounwind uwtable
define linkonce_odr void @_ZNSt6vectorIiSaIiEE12emplace_backIJiEEEvDpOT_(%"class.std::vector"* %this, i32* %__args) #3 align 2 {
  %1 = alloca %"class.std::vector"*, align 8, !llfi_index !256
  %2 = alloca i32*, align 8, !llfi_index !257
  store %"class.std::vector"* %this, %"class.std::vector"** %1, align 8, !llfi_index !258
  store i32* %__args, i32** %2, align 8, !llfi_index !259
  %3 = load %"class.std::vector"** %1, !llfi_index !260
  %4 = bitcast %"class.std::vector"* %3 to %"struct.std::_Vector_base"*, !llfi_index !261
  %5 = getelementptr inbounds %"struct.std::_Vector_base"* %4, i32 0, i32 0, !llfi_index !262
  %6 = getelementptr inbounds %"struct.std::_Vector_base<int, std::allocator<int> >::_Vector_impl"* %5, i32 0, i32 1, !llfi_index !263
  %7 = load i32** %6, align 8, !llfi_index !264
  %8 = bitcast %"class.std::vector"* %3 to %"struct.std::_Vector_base"*, !llfi_index !265
  %9 = getelementptr inbounds %"struct.std::_Vector_base"* %8, i32 0, i32 0, !llfi_index !266
  %10 = getelementptr inbounds %"struct.std::_Vector_base<int, std::allocator<int> >::_Vector_impl"* %9, i32 0, i32 2, !llfi_index !267
  %11 = load i32** %10, align 8, !llfi_index !268
  %12 = icmp ne i32* %7, %11, !llfi_index !269
  br i1 %12, label %13, label %28, !llfi_index !270

; <label>:13                                      ; preds = %0
  %14 = bitcast %"class.std::vector"* %3 to %"struct.std::_Vector_base"*, !llfi_index !271
  %15 = getelementptr inbounds %"struct.std::_Vector_base"* %14, i32 0, i32 0, !llfi_index !272
  %16 = bitcast %"struct.std::_Vector_base<int, std::allocator<int> >::_Vector_impl"* %15 to %"class.std::allocator.1"*, !llfi_index !273
  %17 = bitcast %"class.std::vector"* %3 to %"struct.std::_Vector_base"*, !llfi_index !274
  %18 = getelementptr inbounds %"struct.std::_Vector_base"* %17, i32 0, i32 0, !llfi_index !275
  %19 = getelementptr inbounds %"struct.std::_Vector_base<int, std::allocator<int> >::_Vector_impl"* %18, i32 0, i32 1, !llfi_index !276
  %20 = load i32** %19, align 8, !llfi_index !277
  %21 = load i32** %2, align 8, !llfi_index !278
  %22 = call i32* @_ZSt7forwardIiEOT_RNSt16remove_referenceIS0_E4typeE(i32* %21) #0, !llfi_index !279
  call void @_ZNSt16allocator_traitsISaIiEE9constructIiJiEEEvRS0_PT_DpOT0_(%"class.std::allocator.1"* %16, i32* %20, i32* %22), !llfi_index !280
  %23 = bitcast %"class.std::vector"* %3 to %"struct.std::_Vector_base"*, !llfi_index !281
  %24 = getelementptr inbounds %"struct.std::_Vector_base"* %23, i32 0, i32 0, !llfi_index !282
  %25 = getelementptr inbounds %"struct.std::_Vector_base<int, std::allocator<int> >::_Vector_impl"* %24, i32 0, i32 1, !llfi_index !283
  %26 = load i32** %25, align 8, !llfi_index !284
  %27 = getelementptr inbounds i32* %26, i32 1, !llfi_index !285
  store i32* %27, i32** %25, align 8, !llfi_index !286
  br label %31, !llfi_index !287

; <label>:28                                      ; preds = %0
  %29 = load i32** %2, align 8, !llfi_index !288
  %30 = call i32* @_ZSt7forwardIiEOT_RNSt16remove_referenceIS0_E4typeE(i32* %29) #0, !llfi_index !289
  call void @_ZNSt6vectorIiSaIiEE19_M_emplace_back_auxIJiEEEvDpOT_(%"class.std::vector"* %3, i32* %30), !llfi_index !290
  br label %31, !llfi_index !291

; <label>:31                                      ; preds = %28, %13
  ret void, !llfi_index !292
}

; Function Attrs: nounwind uwtable
define linkonce_odr i32* @_ZSt4moveIRiEONSt16remove_referenceIT_E4typeEOS2_(i32* %__t) #3 {
  %1 = alloca i32*, align 8, !llfi_index !293
  store i32* %__t, i32** %1, align 8, !llfi_index !294
  %2 = load i32** %1, align 8, !llfi_index !295
  ret i32* %2, !llfi_index !296
}

; Function Attrs: nounwind uwtable
define linkonce_odr void @_ZNSt16allocator_traitsISaIiEE9constructIiJiEEEvRS0_PT_DpOT0_(%"class.std::allocator.1"* %__a, i32* %__p, i32* %__args) #3 align 2 {
  %1 = alloca %"class.std::allocator.1"*, align 8, !llfi_index !297
  %2 = alloca i32*, align 8, !llfi_index !298
  %3 = alloca i32*, align 8, !llfi_index !299
  store %"class.std::allocator.1"* %__a, %"class.std::allocator.1"** %1, align 8, !llfi_index !300
  store i32* %__p, i32** %2, align 8, !llfi_index !301
  store i32* %__args, i32** %3, align 8, !llfi_index !302
  %4 = load %"class.std::allocator.1"** %1, align 8, !llfi_index !303
  %5 = bitcast %"class.std::allocator.1"* %4 to %"class.__gnu_cxx::new_allocator.2"*, !llfi_index !304
  %6 = load i32** %2, align 8, !llfi_index !305
  %7 = load i32** %3, align 8, !llfi_index !306
  %8 = call i32* @_ZSt7forwardIiEOT_RNSt16remove_referenceIS0_E4typeE(i32* %7) #0, !llfi_index !307
  call void @_ZN9__gnu_cxx13new_allocatorIiE9constructIiJiEEEvPT_DpOT0_(%"class.__gnu_cxx::new_allocator.2"* %5, i32* %6, i32* %8), !llfi_index !308
  ret void, !llfi_index !309
}

; Function Attrs: nounwind uwtable
define linkonce_odr i32* @_ZSt7forwardIiEOT_RNSt16remove_referenceIS0_E4typeE(i32* %__t) #3 {
  %1 = alloca i32*, align 8, !llfi_index !310
  store i32* %__t, i32** %1, align 8, !llfi_index !311
  %2 = load i32** %1, align 8, !llfi_index !312
  ret i32* %2, !llfi_index !313
}

; Function Attrs: nounwind uwtable
define linkonce_odr void @_ZNSt6vectorIiSaIiEE19_M_emplace_back_auxIJiEEEvDpOT_(%"class.std::vector"* %this, i32* %__args) #3 align 2 {
  %1 = alloca %"class.std::vector"*, align 8, !llfi_index !314
  %2 = alloca i32*, align 8, !llfi_index !315
  %__len = alloca i64, align 8, !llfi_index !316
  %__new_start = alloca i32*, align 8, !llfi_index !317
  %__new_finish = alloca i32*, align 8, !llfi_index !318
  store %"class.std::vector"* %this, %"class.std::vector"** %1, align 8, !llfi_index !319
  store i32* %__args, i32** %2, align 8, !llfi_index !320
  %3 = load %"class.std::vector"** %1, !llfi_index !321
  %4 = call i64 @_ZNKSt6vectorIiSaIiEE12_M_check_lenEmPKc(%"class.std::vector"* %3, i64 1, i8* getelementptr inbounds ([28 x i8]* @.str2, i32 0, i32 0)), !llfi_index !322
  store i64 %4, i64* %__len, align 8, !llfi_index !323
  %5 = bitcast %"class.std::vector"* %3 to %"struct.std::_Vector_base"*, !llfi_index !324
  %6 = load i64* %__len, align 8, !llfi_index !325
  %7 = call i32* @_ZNSt12_Vector_baseIiSaIiEE11_M_allocateEm(%"struct.std::_Vector_base"* %5, i64 %6), !llfi_index !326
  store i32* %7, i32** %__new_start, align 8, !llfi_index !327
  %8 = load i32** %__new_start, align 8, !llfi_index !328
  store i32* %8, i32** %__new_finish, align 8, !llfi_index !329
  %9 = bitcast %"class.std::vector"* %3 to %"struct.std::_Vector_base"*, !llfi_index !330
  %10 = getelementptr inbounds %"struct.std::_Vector_base"* %9, i32 0, i32 0, !llfi_index !331
  %11 = bitcast %"struct.std::_Vector_base<int, std::allocator<int> >::_Vector_impl"* %10 to %"class.std::allocator.1"*, !llfi_index !332
  %12 = load i32** %__new_start, align 8, !llfi_index !333
  %13 = call i64 @_ZNKSt6vectorIiSaIiEE4sizeEv(%"class.std::vector"* %3) #0, !llfi_index !334
  %14 = getelementptr inbounds i32* %12, i64 %13, !llfi_index !335
  %15 = load i32** %2, align 8, !llfi_index !336
  %16 = call i32* @_ZSt7forwardIiEOT_RNSt16remove_referenceIS0_E4typeE(i32* %15) #0, !llfi_index !337
  call void @_ZNSt16allocator_traitsISaIiEE9constructIiJiEEEvRS0_PT_DpOT0_(%"class.std::allocator.1"* %11, i32* %14, i32* %16), !llfi_index !338
  store i32* null, i32** %__new_finish, align 8, !llfi_index !339
  %17 = bitcast %"class.std::vector"* %3 to %"struct.std::_Vector_base"*, !llfi_index !340
  %18 = getelementptr inbounds %"struct.std::_Vector_base"* %17, i32 0, i32 0, !llfi_index !341
  %19 = getelementptr inbounds %"struct.std::_Vector_base<int, std::allocator<int> >::_Vector_impl"* %18, i32 0, i32 0, !llfi_index !342
  %20 = load i32** %19, align 8, !llfi_index !343
  %21 = bitcast %"class.std::vector"* %3 to %"struct.std::_Vector_base"*, !llfi_index !344
  %22 = getelementptr inbounds %"struct.std::_Vector_base"* %21, i32 0, i32 0, !llfi_index !345
  %23 = getelementptr inbounds %"struct.std::_Vector_base<int, std::allocator<int> >::_Vector_impl"* %22, i32 0, i32 1, !llfi_index !346
  %24 = load i32** %23, align 8, !llfi_index !347
  %25 = load i32** %__new_start, align 8, !llfi_index !348
  %26 = bitcast %"class.std::vector"* %3 to %"struct.std::_Vector_base"*, !llfi_index !349
  %27 = call %"class.std::allocator.1"* @_ZNSt12_Vector_baseIiSaIiEE19_M_get_Tp_allocatorEv(%"struct.std::_Vector_base"* %26) #0, !llfi_index !350
  %28 = call i32* @_ZSt34__uninitialized_move_if_noexcept_aIPiS0_SaIiEET0_T_S3_S2_RT1_(i32* %20, i32* %24, i32* %25, %"class.std::allocator.1"* %27), !llfi_index !351
  store i32* %28, i32** %__new_finish, align 8, !llfi_index !352
  %29 = load i32** %__new_finish, align 8, !llfi_index !353
  %30 = getelementptr inbounds i32* %29, i32 1, !llfi_index !354
  store i32* %30, i32** %__new_finish, align 8, !llfi_index !355
  %31 = bitcast %"class.std::vector"* %3 to %"struct.std::_Vector_base"*, !llfi_index !356
  %32 = getelementptr inbounds %"struct.std::_Vector_base"* %31, i32 0, i32 0, !llfi_index !357
  %33 = getelementptr inbounds %"struct.std::_Vector_base<int, std::allocator<int> >::_Vector_impl"* %32, i32 0, i32 0, !llfi_index !358
  %34 = load i32** %33, align 8, !llfi_index !359
  %35 = bitcast %"class.std::vector"* %3 to %"struct.std::_Vector_base"*, !llfi_index !360
  %36 = getelementptr inbounds %"struct.std::_Vector_base"* %35, i32 0, i32 0, !llfi_index !361
  %37 = getelementptr inbounds %"struct.std::_Vector_base<int, std::allocator<int> >::_Vector_impl"* %36, i32 0, i32 1, !llfi_index !362
  %38 = load i32** %37, align 8, !llfi_index !363
  %39 = bitcast %"class.std::vector"* %3 to %"struct.std::_Vector_base"*, !llfi_index !364
  %40 = call %"class.std::allocator.1"* @_ZNSt12_Vector_baseIiSaIiEE19_M_get_Tp_allocatorEv(%"struct.std::_Vector_base"* %39) #0, !llfi_index !365
  call void @_ZSt8_DestroyIPiiEvT_S1_RSaIT0_E(i32* %34, i32* %38, %"class.std::allocator.1"* %40), !llfi_index !366
  %41 = bitcast %"class.std::vector"* %3 to %"struct.std::_Vector_base"*, !llfi_index !367
  %42 = bitcast %"class.std::vector"* %3 to %"struct.std::_Vector_base"*, !llfi_index !368
  %43 = getelementptr inbounds %"struct.std::_Vector_base"* %42, i32 0, i32 0, !llfi_index !369
  %44 = getelementptr inbounds %"struct.std::_Vector_base<int, std::allocator<int> >::_Vector_impl"* %43, i32 0, i32 0, !llfi_index !370
  %45 = load i32** %44, align 8, !llfi_index !371
  %46 = bitcast %"class.std::vector"* %3 to %"struct.std::_Vector_base"*, !llfi_index !372
  %47 = getelementptr inbounds %"struct.std::_Vector_base"* %46, i32 0, i32 0, !llfi_index !373
  %48 = getelementptr inbounds %"struct.std::_Vector_base<int, std::allocator<int> >::_Vector_impl"* %47, i32 0, i32 2, !llfi_index !374
  %49 = load i32** %48, align 8, !llfi_index !375
  %50 = bitcast %"class.std::vector"* %3 to %"struct.std::_Vector_base"*, !llfi_index !376
  %51 = getelementptr inbounds %"struct.std::_Vector_base"* %50, i32 0, i32 0, !llfi_index !377
  %52 = getelementptr inbounds %"struct.std::_Vector_base<int, std::allocator<int> >::_Vector_impl"* %51, i32 0, i32 0, !llfi_index !378
  %53 = load i32** %52, align 8, !llfi_index !379
  %54 = ptrtoint i32* %49 to i64, !llfi_index !380
  %55 = ptrtoint i32* %53 to i64, !llfi_index !381
  %56 = sub i64 %54, %55, !llfi_index !382
  %57 = sdiv exact i64 %56, 4, !llfi_index !383
  call void @_ZNSt12_Vector_baseIiSaIiEE13_M_deallocateEPim(%"struct.std::_Vector_base"* %41, i32* %45, i64 %57), !llfi_index !384
  %58 = load i32** %__new_start, align 8, !llfi_index !385
  %59 = bitcast %"class.std::vector"* %3 to %"struct.std::_Vector_base"*, !llfi_index !386
  %60 = getelementptr inbounds %"struct.std::_Vector_base"* %59, i32 0, i32 0, !llfi_index !387
  %61 = getelementptr inbounds %"struct.std::_Vector_base<int, std::allocator<int> >::_Vector_impl"* %60, i32 0, i32 0, !llfi_index !388
  store i32* %58, i32** %61, align 8, !llfi_index !389
  %62 = load i32** %__new_finish, align 8, !llfi_index !390
  %63 = bitcast %"class.std::vector"* %3 to %"struct.std::_Vector_base"*, !llfi_index !391
  %64 = getelementptr inbounds %"struct.std::_Vector_base"* %63, i32 0, i32 0, !llfi_index !392
  %65 = getelementptr inbounds %"struct.std::_Vector_base<int, std::allocator<int> >::_Vector_impl"* %64, i32 0, i32 1, !llfi_index !393
  store i32* %62, i32** %65, align 8, !llfi_index !394
  %66 = load i32** %__new_start, align 8, !llfi_index !395
  %67 = load i64* %__len, align 8, !llfi_index !396
  %68 = getelementptr inbounds i32* %66, i64 %67, !llfi_index !397
  %69 = bitcast %"class.std::vector"* %3 to %"struct.std::_Vector_base"*, !llfi_index !398
  %70 = getelementptr inbounds %"struct.std::_Vector_base"* %69, i32 0, i32 0, !llfi_index !399
  %71 = getelementptr inbounds %"struct.std::_Vector_base<int, std::allocator<int> >::_Vector_impl"* %70, i32 0, i32 2, !llfi_index !400
  store i32* %68, i32** %71, align 8, !llfi_index !401
  ret void, !llfi_index !402
}

; Function Attrs: nounwind uwtable
define linkonce_odr i64 @_ZNKSt6vectorIiSaIiEE12_M_check_lenEmPKc(%"class.std::vector"* %this, i64 %__n, i8* %__s) #3 align 2 {
  %1 = alloca %"class.std::vector"*, align 8, !llfi_index !403
  %2 = alloca i64, align 8, !llfi_index !404
  %3 = alloca i8*, align 8, !llfi_index !405
  %__len = alloca i64, align 8, !llfi_index !406
  %4 = alloca i64, align 8, !llfi_index !407
  store %"class.std::vector"* %this, %"class.std::vector"** %1, align 8, !llfi_index !408
  store i64 %__n, i64* %2, align 8, !llfi_index !409
  store i8* %__s, i8** %3, align 8, !llfi_index !410
  %5 = load %"class.std::vector"** %1, !llfi_index !411
  %6 = call i64 @_ZNKSt6vectorIiSaIiEE8max_sizeEv(%"class.std::vector"* %5) #0, !llfi_index !412
  %7 = call i64 @_ZNKSt6vectorIiSaIiEE4sizeEv(%"class.std::vector"* %5) #0, !llfi_index !413
  %8 = sub i64 %6, %7, !llfi_index !414
  %9 = load i64* %2, align 8, !llfi_index !415
  %10 = icmp ult i64 %8, %9, !llfi_index !416
  br i1 %10, label %11, label %13, !llfi_index !417

; <label>:11                                      ; preds = %0
  %12 = load i8** %3, align 8, !llfi_index !418
  call void @_ZSt20__throw_length_errorPKc(i8* %12) #9, !llfi_index !419
  unreachable, !llfi_index !420

; <label>:13                                      ; preds = %0
  %14 = call i64 @_ZNKSt6vectorIiSaIiEE4sizeEv(%"class.std::vector"* %5) #0, !llfi_index !421
  %15 = call i64 @_ZNKSt6vectorIiSaIiEE4sizeEv(%"class.std::vector"* %5) #0, !llfi_index !422
  store i64 %15, i64* %4, !llfi_index !423
  %16 = call i64* @_ZSt3maxImERKT_S2_S2_(i64* %4, i64* %2), !llfi_index !424
  %17 = load i64* %16, !llfi_index !425
  %18 = add i64 %14, %17, !llfi_index !426
  store i64 %18, i64* %__len, align 8, !llfi_index !427
  %19 = load i64* %__len, align 8, !llfi_index !428
  %20 = call i64 @_ZNKSt6vectorIiSaIiEE4sizeEv(%"class.std::vector"* %5) #0, !llfi_index !429
  %21 = icmp ult i64 %19, %20, !llfi_index !430
  br i1 %21, label %26, label %22, !llfi_index !431

; <label>:22                                      ; preds = %13
  %23 = load i64* %__len, align 8, !llfi_index !432
  %24 = call i64 @_ZNKSt6vectorIiSaIiEE8max_sizeEv(%"class.std::vector"* %5) #0, !llfi_index !433
  %25 = icmp ugt i64 %23, %24, !llfi_index !434
  br i1 %25, label %26, label %28, !llfi_index !435

; <label>:26                                      ; preds = %22, %13
  %27 = call i64 @_ZNKSt6vectorIiSaIiEE8max_sizeEv(%"class.std::vector"* %5) #0, !llfi_index !436
  br label %30, !llfi_index !437

; <label>:28                                      ; preds = %22
  %29 = load i64* %__len, align 8, !llfi_index !438
  br label %30, !llfi_index !439

; <label>:30                                      ; preds = %28, %26
  %31 = phi i64 [ %27, %26 ], [ %29, %28 ], !llfi_index !440
  ret i64 %31, !llfi_index !441
}

; Function Attrs: nounwind uwtable
define linkonce_odr i32* @_ZNSt12_Vector_baseIiSaIiEE11_M_allocateEm(%"struct.std::_Vector_base"* %this, i64 %__n) #3 align 2 {
  %1 = alloca %"struct.std::_Vector_base"*, align 8, !llfi_index !442
  %2 = alloca i64, align 8, !llfi_index !443
  store %"struct.std::_Vector_base"* %this, %"struct.std::_Vector_base"** %1, align 8, !llfi_index !444
  store i64 %__n, i64* %2, align 8, !llfi_index !445
  %3 = load %"struct.std::_Vector_base"** %1, !llfi_index !446
  %4 = load i64* %2, align 8, !llfi_index !447
  %5 = icmp ne i64 %4, 0, !llfi_index !448
  br i1 %5, label %6, label %11, !llfi_index !449

; <label>:6                                       ; preds = %0
  %7 = getelementptr inbounds %"struct.std::_Vector_base"* %3, i32 0, i32 0, !llfi_index !450
  %8 = bitcast %"struct.std::_Vector_base<int, std::allocator<int> >::_Vector_impl"* %7 to %"class.std::allocator.1"*, !llfi_index !451
  %9 = load i64* %2, align 8, !llfi_index !452
  %10 = call i32* @_ZNSt16allocator_traitsISaIiEE8allocateERS0_m(%"class.std::allocator.1"* %8, i64 %9), !llfi_index !453
  br label %12, !llfi_index !454

; <label>:11                                      ; preds = %0
  br label %12, !llfi_index !455

; <label>:12                                      ; preds = %11, %6
  %13 = phi i32* [ %10, %6 ], [ null, %11 ], !llfi_index !456
  ret i32* %13, !llfi_index !457
}

; Function Attrs: inlinehint nounwind uwtable
define linkonce_odr i32* @_ZSt34__uninitialized_move_if_noexcept_aIPiS0_SaIiEET0_T_S3_S2_RT1_(i32* %__first, i32* %__last, i32* %__result, %"class.std::allocator.1"* %__alloc) #5 {
  %1 = alloca i32*, align 8, !llfi_index !458
  %2 = alloca i32*, align 8, !llfi_index !459
  %3 = alloca i32*, align 8, !llfi_index !460
  %4 = alloca %"class.std::allocator.1"*, align 8, !llfi_index !461
  %5 = alloca %"class.std::move_iterator", align 8, !llfi_index !462
  %6 = alloca %"class.std::move_iterator", align 8, !llfi_index !463
  store i32* %__first, i32** %1, align 8, !llfi_index !464
  store i32* %__last, i32** %2, align 8, !llfi_index !465
  store i32* %__result, i32** %3, align 8, !llfi_index !466
  store %"class.std::allocator.1"* %__alloc, %"class.std::allocator.1"** %4, align 8, !llfi_index !467
  %7 = load i32** %1, align 8, !llfi_index !468
  %8 = call i32* @_ZSt32__make_move_if_noexcept_iteratorIPiSt13move_iteratorIS0_EET0_T_(i32* %7), !llfi_index !469
  %9 = getelementptr %"class.std::move_iterator"* %5, i32 0, i32 0, !llfi_index !470
  store i32* %8, i32** %9, !llfi_index !471
  %10 = load i32** %2, align 8, !llfi_index !472
  %11 = call i32* @_ZSt32__make_move_if_noexcept_iteratorIPiSt13move_iteratorIS0_EET0_T_(i32* %10), !llfi_index !473
  %12 = getelementptr %"class.std::move_iterator"* %6, i32 0, i32 0, !llfi_index !474
  store i32* %11, i32** %12, !llfi_index !475
  %13 = load i32** %3, align 8, !llfi_index !476
  %14 = load %"class.std::allocator.1"** %4, align 8, !llfi_index !477
  %15 = getelementptr %"class.std::move_iterator"* %5, i32 0, i32 0, !llfi_index !478
  %16 = load i32** %15, !llfi_index !479
  %17 = getelementptr %"class.std::move_iterator"* %6, i32 0, i32 0, !llfi_index !480
  %18 = load i32** %17, !llfi_index !481
  %19 = call i32* @_ZSt22__uninitialized_copy_aISt13move_iteratorIPiES1_iET0_T_S4_S3_RSaIT1_E(i32* %16, i32* %18, i32* %13, %"class.std::allocator.1"* %14), !llfi_index !482
  ret i32* %19, !llfi_index !483
}

; Function Attrs: nounwind uwtable
define linkonce_odr %"class.std::allocator.1"* @_ZNSt12_Vector_baseIiSaIiEE19_M_get_Tp_allocatorEv(%"struct.std::_Vector_base"* %this) #3 align 2 {
  %1 = alloca %"struct.std::_Vector_base"*, align 8, !llfi_index !484
  store %"struct.std::_Vector_base"* %this, %"struct.std::_Vector_base"** %1, align 8, !llfi_index !485
  %2 = load %"struct.std::_Vector_base"** %1, !llfi_index !486
  %3 = getelementptr inbounds %"struct.std::_Vector_base"* %2, i32 0, i32 0, !llfi_index !487
  %4 = bitcast %"struct.std::_Vector_base<int, std::allocator<int> >::_Vector_impl"* %3 to %"class.std::allocator.1"*, !llfi_index !488
  ret %"class.std::allocator.1"* %4, !llfi_index !489
}

; Function Attrs: inlinehint nounwind uwtable
define linkonce_odr void @_ZSt8_DestroyIPiiEvT_S1_RSaIT0_E(i32* %__first, i32* %__last, %"class.std::allocator.1"*) #5 {
  %2 = alloca i32*, align 8, !llfi_index !490
  %3 = alloca i32*, align 8, !llfi_index !491
  %4 = alloca %"class.std::allocator.1"*, align 8, !llfi_index !492
  store i32* %__first, i32** %2, align 8, !llfi_index !493
  store i32* %__last, i32** %3, align 8, !llfi_index !494
  store %"class.std::allocator.1"* %0, %"class.std::allocator.1"** %4, align 8, !llfi_index !495
  %5 = load i32** %2, align 8, !llfi_index !496
  %6 = load i32** %3, align 8, !llfi_index !497
  call void @_ZSt8_DestroyIPiEvT_S1_(i32* %5, i32* %6), !llfi_index !498
  ret void, !llfi_index !499
}

; Function Attrs: nounwind uwtable
define linkonce_odr void @_ZNSt12_Vector_baseIiSaIiEE13_M_deallocateEPim(%"struct.std::_Vector_base"* %this, i32* %__p, i64 %__n) #3 align 2 {
  %1 = alloca %"struct.std::_Vector_base"*, align 8, !llfi_index !500
  %2 = alloca i32*, align 8, !llfi_index !501
  %3 = alloca i64, align 8, !llfi_index !502
  store %"struct.std::_Vector_base"* %this, %"struct.std::_Vector_base"** %1, align 8, !llfi_index !503
  store i32* %__p, i32** %2, align 8, !llfi_index !504
  store i64 %__n, i64* %3, align 8, !llfi_index !505
  %4 = load %"struct.std::_Vector_base"** %1, !llfi_index !506
  %5 = load i32** %2, align 8, !llfi_index !507
  %6 = icmp ne i32* %5, null, !llfi_index !508
  br i1 %6, label %7, label %12, !llfi_index !509

; <label>:7                                       ; preds = %0
  %8 = getelementptr inbounds %"struct.std::_Vector_base"* %4, i32 0, i32 0, !llfi_index !510
  %9 = bitcast %"struct.std::_Vector_base<int, std::allocator<int> >::_Vector_impl"* %8 to %"class.std::allocator.1"*, !llfi_index !511
  %10 = load i32** %2, align 8, !llfi_index !512
  %11 = load i64* %3, align 8, !llfi_index !513
  call void @_ZNSt16allocator_traitsISaIiEE10deallocateERS0_Pim(%"class.std::allocator.1"* %9, i32* %10, i64 %11), !llfi_index !514
  br label %12, !llfi_index !515

; <label>:12                                      ; preds = %7, %0
  ret void, !llfi_index !516
}

; Function Attrs: nounwind uwtable
define linkonce_odr void @_ZNSt16allocator_traitsISaIiEE10deallocateERS0_Pim(%"class.std::allocator.1"* %__a, i32* %__p, i64 %__n) #3 align 2 {
  %1 = alloca %"class.std::allocator.1"*, align 8, !llfi_index !517
  %2 = alloca i32*, align 8, !llfi_index !518
  %3 = alloca i64, align 8, !llfi_index !519
  store %"class.std::allocator.1"* %__a, %"class.std::allocator.1"** %1, align 8, !llfi_index !520
  store i32* %__p, i32** %2, align 8, !llfi_index !521
  store i64 %__n, i64* %3, align 8, !llfi_index !522
  %4 = load %"class.std::allocator.1"** %1, align 8, !llfi_index !523
  %5 = bitcast %"class.std::allocator.1"* %4 to %"class.__gnu_cxx::new_allocator.2"*, !llfi_index !524
  %6 = load i32** %2, align 8, !llfi_index !525
  %7 = load i64* %3, align 8, !llfi_index !526
  call void @_ZN9__gnu_cxx13new_allocatorIiE10deallocateEPim(%"class.__gnu_cxx::new_allocator.2"* %5, i32* %6, i64 %7), !llfi_index !527
  ret void, !llfi_index !528
}

; Function Attrs: nounwind uwtable
define linkonce_odr void @_ZN9__gnu_cxx13new_allocatorIiE10deallocateEPim(%"class.__gnu_cxx::new_allocator.2"* %this, i32* %__p, i64) #3 align 2 {
  %2 = alloca %"class.__gnu_cxx::new_allocator.2"*, align 8, !llfi_index !529
  %3 = alloca i32*, align 8, !llfi_index !530
  %4 = alloca i64, align 8, !llfi_index !531
  store %"class.__gnu_cxx::new_allocator.2"* %this, %"class.__gnu_cxx::new_allocator.2"** %2, align 8, !llfi_index !532
  store i32* %__p, i32** %3, align 8, !llfi_index !533
  store i64 %0, i64* %4, align 8, !llfi_index !534
  %5 = load %"class.__gnu_cxx::new_allocator.2"** %2, !llfi_index !535
  %6 = load i32** %3, align 8, !llfi_index !536
  %7 = bitcast i32* %6 to i8*, !llfi_index !537
  call void @_ZdlPv(i8* %7) #0, !llfi_index !538
  ret void, !llfi_index !539
}

; Function Attrs: nobuiltin nounwind
declare void @_ZdlPv(i8*) #6

; Function Attrs: inlinehint nounwind uwtable
define linkonce_odr void @_ZSt8_DestroyIPiEvT_S1_(i32* %__first, i32* %__last) #5 {
  %1 = alloca i32*, align 8, !llfi_index !540
  %2 = alloca i32*, align 8, !llfi_index !541
  store i32* %__first, i32** %1, align 8, !llfi_index !542
  store i32* %__last, i32** %2, align 8, !llfi_index !543
  %3 = load i32** %1, align 8, !llfi_index !544
  %4 = load i32** %2, align 8, !llfi_index !545
  call void @_ZNSt12_Destroy_auxILb1EE9__destroyIPiEEvT_S3_(i32* %3, i32* %4), !llfi_index !546
  ret void, !llfi_index !547
}

; Function Attrs: nounwind uwtable
define linkonce_odr void @_ZNSt12_Destroy_auxILb1EE9__destroyIPiEEvT_S3_(i32*, i32*) #3 align 2 {
  %3 = alloca i32*, align 8, !llfi_index !548
  %4 = alloca i32*, align 8, !llfi_index !549
  store i32* %0, i32** %3, align 8, !llfi_index !550
  store i32* %1, i32** %4, align 8, !llfi_index !551
  ret void, !llfi_index !552
}

; Function Attrs: inlinehint nounwind uwtable
define linkonce_odr i32* @_ZSt22__uninitialized_copy_aISt13move_iteratorIPiES1_iET0_T_S4_S3_RSaIT1_E(i32* %__first.coerce, i32* %__last.coerce, i32* %__result, %"class.std::allocator.1"*) #5 {
  %__first = alloca %"class.std::move_iterator", align 8, !llfi_index !553
  %__last = alloca %"class.std::move_iterator", align 8, !llfi_index !554
  %2 = alloca i32*, align 8, !llfi_index !555
  %3 = alloca %"class.std::allocator.1"*, align 8, !llfi_index !556
  %4 = alloca %"class.std::move_iterator", align 8, !llfi_index !557
  %5 = alloca %"class.std::move_iterator", align 8, !llfi_index !558
  %6 = getelementptr %"class.std::move_iterator"* %__first, i32 0, i32 0, !llfi_index !559
  store i32* %__first.coerce, i32** %6, !llfi_index !560
  %7 = getelementptr %"class.std::move_iterator"* %__last, i32 0, i32 0, !llfi_index !561
  store i32* %__last.coerce, i32** %7, !llfi_index !562
  store i32* %__result, i32** %2, align 8, !llfi_index !563
  store %"class.std::allocator.1"* %0, %"class.std::allocator.1"** %3, align 8, !llfi_index !564
  %8 = bitcast %"class.std::move_iterator"* %4 to i8*, !llfi_index !565
  %9 = bitcast %"class.std::move_iterator"* %__first to i8*, !llfi_index !566
  call void @llvm.memcpy.p0i8.p0i8.i64(i8* %8, i8* %9, i64 8, i32 8, i1 false), !llfi_index !567
  %10 = bitcast %"class.std::move_iterator"* %5 to i8*, !llfi_index !568
  %11 = bitcast %"class.std::move_iterator"* %__last to i8*, !llfi_index !569
  call void @llvm.memcpy.p0i8.p0i8.i64(i8* %10, i8* %11, i64 8, i32 8, i1 false), !llfi_index !570
  %12 = load i32** %2, align 8, !llfi_index !571
  %13 = getelementptr %"class.std::move_iterator"* %4, i32 0, i32 0, !llfi_index !572
  %14 = load i32** %13, !llfi_index !573
  %15 = getelementptr %"class.std::move_iterator"* %5, i32 0, i32 0, !llfi_index !574
  %16 = load i32** %15, !llfi_index !575
  %17 = call i32* @_ZSt18uninitialized_copyISt13move_iteratorIPiES1_ET0_T_S4_S3_(i32* %14, i32* %16, i32* %12), !llfi_index !576
  ret i32* %17, !llfi_index !577
}

; Function Attrs: inlinehint nounwind uwtable
define linkonce_odr i32* @_ZSt32__make_move_if_noexcept_iteratorIPiSt13move_iteratorIS0_EET0_T_(i32* %__i) #5 {
  %1 = alloca %"class.std::move_iterator", align 8, !llfi_index !578
  %2 = alloca i32*, align 8, !llfi_index !579
  store i32* %__i, i32** %2, align 8, !llfi_index !580
  %3 = load i32** %2, align 8, !llfi_index !581
  call void @_ZNSt13move_iteratorIPiEC2ES0_(%"class.std::move_iterator"* %1, i32* %3), !llfi_index !582
  %4 = getelementptr %"class.std::move_iterator"* %1, i32 0, i32 0, !llfi_index !583
  %5 = load i32** %4, !llfi_index !584
  ret i32* %5, !llfi_index !585
}

; Function Attrs: nounwind uwtable
define linkonce_odr void @_ZNSt13move_iteratorIPiEC2ES0_(%"class.std::move_iterator"* %this, i32* %__i) unnamed_addr #3 align 2 {
  %1 = alloca %"class.std::move_iterator"*, align 8, !llfi_index !586
  %2 = alloca i32*, align 8, !llfi_index !587
  store %"class.std::move_iterator"* %this, %"class.std::move_iterator"** %1, align 8, !llfi_index !588
  store i32* %__i, i32** %2, align 8, !llfi_index !589
  %3 = load %"class.std::move_iterator"** %1, !llfi_index !590
  %4 = getelementptr inbounds %"class.std::move_iterator"* %3, i32 0, i32 0, !llfi_index !591
  %5 = load i32** %2, align 8, !llfi_index !592
  store i32* %5, i32** %4, align 8, !llfi_index !593
  ret void, !llfi_index !594
}

; Function Attrs: inlinehint nounwind uwtable
define linkonce_odr i32* @_ZSt18uninitialized_copyISt13move_iteratorIPiES1_ET0_T_S4_S3_(i32* %__first.coerce, i32* %__last.coerce, i32* %__result) #5 {
  %__first = alloca %"class.std::move_iterator", align 8, !llfi_index !595
  %__last = alloca %"class.std::move_iterator", align 8, !llfi_index !596
  %1 = alloca i32*, align 8, !llfi_index !597
  %__assignable = alloca i8, align 1, !llfi_index !598
  %2 = alloca %"class.std::move_iterator", align 8, !llfi_index !599
  %3 = alloca %"class.std::move_iterator", align 8, !llfi_index !600
  %4 = getelementptr %"class.std::move_iterator"* %__first, i32 0, i32 0, !llfi_index !601
  store i32* %__first.coerce, i32** %4, !llfi_index !602
  %5 = getelementptr %"class.std::move_iterator"* %__last, i32 0, i32 0, !llfi_index !603
  store i32* %__last.coerce, i32** %5, !llfi_index !604
  store i32* %__result, i32** %1, align 8, !llfi_index !605
  store i8 1, i8* %__assignable, align 1, !llfi_index !606
  %6 = bitcast %"class.std::move_iterator"* %2 to i8*, !llfi_index !607
  %7 = bitcast %"class.std::move_iterator"* %__first to i8*, !llfi_index !608
  call void @llvm.memcpy.p0i8.p0i8.i64(i8* %6, i8* %7, i64 8, i32 8, i1 false), !llfi_index !609
  %8 = bitcast %"class.std::move_iterator"* %3 to i8*, !llfi_index !610
  %9 = bitcast %"class.std::move_iterator"* %__last to i8*, !llfi_index !611
  call void @llvm.memcpy.p0i8.p0i8.i64(i8* %8, i8* %9, i64 8, i32 8, i1 false), !llfi_index !612
  %10 = load i32** %1, align 8, !llfi_index !613
  %11 = getelementptr %"class.std::move_iterator"* %2, i32 0, i32 0, !llfi_index !614
  %12 = load i32** %11, !llfi_index !615
  %13 = getelementptr %"class.std::move_iterator"* %3, i32 0, i32 0, !llfi_index !616
  %14 = load i32** %13, !llfi_index !617
  %15 = call i32* @_ZNSt20__uninitialized_copyILb1EE13__uninit_copyISt13move_iteratorIPiES3_EET0_T_S6_S5_(i32* %12, i32* %14, i32* %10), !llfi_index !618
  ret i32* %15, !llfi_index !619
}

; Function Attrs: nounwind
declare void @llvm.memcpy.p0i8.p0i8.i64(i8* nocapture, i8* nocapture readonly, i64, i32, i1) #0

; Function Attrs: nounwind uwtable
define linkonce_odr i32* @_ZNSt20__uninitialized_copyILb1EE13__uninit_copyISt13move_iteratorIPiES3_EET0_T_S6_S5_(i32* %__first.coerce, i32* %__last.coerce, i32* %__result) #3 align 2 {
  %__first = alloca %"class.std::move_iterator", align 8, !llfi_index !620
  %__last = alloca %"class.std::move_iterator", align 8, !llfi_index !621
  %1 = alloca i32*, align 8, !llfi_index !622
  %2 = alloca %"class.std::move_iterator", align 8, !llfi_index !623
  %3 = alloca %"class.std::move_iterator", align 8, !llfi_index !624
  %4 = getelementptr %"class.std::move_iterator"* %__first, i32 0, i32 0, !llfi_index !625
  store i32* %__first.coerce, i32** %4, !llfi_index !626
  %5 = getelementptr %"class.std::move_iterator"* %__last, i32 0, i32 0, !llfi_index !627
  store i32* %__last.coerce, i32** %5, !llfi_index !628
  store i32* %__result, i32** %1, align 8, !llfi_index !629
  %6 = bitcast %"class.std::move_iterator"* %2 to i8*, !llfi_index !630
  %7 = bitcast %"class.std::move_iterator"* %__first to i8*, !llfi_index !631
  call void @llvm.memcpy.p0i8.p0i8.i64(i8* %6, i8* %7, i64 8, i32 8, i1 false), !llfi_index !632
  %8 = bitcast %"class.std::move_iterator"* %3 to i8*, !llfi_index !633
  %9 = bitcast %"class.std::move_iterator"* %__last to i8*, !llfi_index !634
  call void @llvm.memcpy.p0i8.p0i8.i64(i8* %8, i8* %9, i64 8, i32 8, i1 false), !llfi_index !635
  %10 = load i32** %1, align 8, !llfi_index !636
  %11 = getelementptr %"class.std::move_iterator"* %2, i32 0, i32 0, !llfi_index !637
  %12 = load i32** %11, !llfi_index !638
  %13 = getelementptr %"class.std::move_iterator"* %3, i32 0, i32 0, !llfi_index !639
  %14 = load i32** %13, !llfi_index !640
  %15 = call i32* @_ZSt4copyISt13move_iteratorIPiES1_ET0_T_S4_S3_(i32* %12, i32* %14, i32* %10), !llfi_index !641
  ret i32* %15, !llfi_index !642
}

; Function Attrs: inlinehint nounwind uwtable
define linkonce_odr i32* @_ZSt4copyISt13move_iteratorIPiES1_ET0_T_S4_S3_(i32* %__first.coerce, i32* %__last.coerce, i32* %__result) #5 {
  %__first = alloca %"class.std::move_iterator", align 8, !llfi_index !643
  %__last = alloca %"class.std::move_iterator", align 8, !llfi_index !644
  %1 = alloca i32*, align 8, !llfi_index !645
  %2 = alloca %"class.std::move_iterator", align 8, !llfi_index !646
  %3 = alloca %"class.std::move_iterator", align 8, !llfi_index !647
  %4 = getelementptr %"class.std::move_iterator"* %__first, i32 0, i32 0, !llfi_index !648
  store i32* %__first.coerce, i32** %4, !llfi_index !649
  %5 = getelementptr %"class.std::move_iterator"* %__last, i32 0, i32 0, !llfi_index !650
  store i32* %__last.coerce, i32** %5, !llfi_index !651
  store i32* %__result, i32** %1, align 8, !llfi_index !652
  %6 = bitcast %"class.std::move_iterator"* %2 to i8*, !llfi_index !653
  %7 = bitcast %"class.std::move_iterator"* %__first to i8*, !llfi_index !654
  call void @llvm.memcpy.p0i8.p0i8.i64(i8* %6, i8* %7, i64 8, i32 8, i1 false), !llfi_index !655
  %8 = getelementptr %"class.std::move_iterator"* %2, i32 0, i32 0, !llfi_index !656
  %9 = load i32** %8, !llfi_index !657
  %10 = call i32* @_ZSt12__miter_baseISt13move_iteratorIPiEENSt11_Miter_baseIT_E13iterator_typeES4_(i32* %9), !llfi_index !658
  %11 = bitcast %"class.std::move_iterator"* %3 to i8*, !llfi_index !659
  %12 = bitcast %"class.std::move_iterator"* %__last to i8*, !llfi_index !660
  call void @llvm.memcpy.p0i8.p0i8.i64(i8* %11, i8* %12, i64 8, i32 8, i1 false), !llfi_index !661
  %13 = getelementptr %"class.std::move_iterator"* %3, i32 0, i32 0, !llfi_index !662
  %14 = load i32** %13, !llfi_index !663
  %15 = call i32* @_ZSt12__miter_baseISt13move_iteratorIPiEENSt11_Miter_baseIT_E13iterator_typeES4_(i32* %14), !llfi_index !664
  %16 = load i32** %1, align 8, !llfi_index !665
  %17 = call i32* @_ZSt14__copy_move_a2ILb1EPiS0_ET1_T0_S2_S1_(i32* %10, i32* %15, i32* %16), !llfi_index !666
  ret i32* %17, !llfi_index !667
}

; Function Attrs: inlinehint nounwind uwtable
define linkonce_odr i32* @_ZSt14__copy_move_a2ILb1EPiS0_ET1_T0_S2_S1_(i32* %__first, i32* %__last, i32* %__result) #5 {
  %1 = alloca i32*, align 8, !llfi_index !668
  %2 = alloca i32*, align 8, !llfi_index !669
  %3 = alloca i32*, align 8, !llfi_index !670
  store i32* %__first, i32** %1, align 8, !llfi_index !671
  store i32* %__last, i32** %2, align 8, !llfi_index !672
  store i32* %__result, i32** %3, align 8, !llfi_index !673
  %4 = load i32** %1, align 8, !llfi_index !674
  %5 = call i32* @_ZSt12__niter_baseIPiENSt11_Niter_baseIT_E13iterator_typeES2_(i32* %4), !llfi_index !675
  %6 = load i32** %2, align 8, !llfi_index !676
  %7 = call i32* @_ZSt12__niter_baseIPiENSt11_Niter_baseIT_E13iterator_typeES2_(i32* %6), !llfi_index !677
  %8 = load i32** %3, align 8, !llfi_index !678
  %9 = call i32* @_ZSt12__niter_baseIPiENSt11_Niter_baseIT_E13iterator_typeES2_(i32* %8), !llfi_index !679
  %10 = call i32* @_ZSt13__copy_move_aILb1EPiS0_ET1_T0_S2_S1_(i32* %5, i32* %7, i32* %9), !llfi_index !680
  ret i32* %10, !llfi_index !681
}

; Function Attrs: inlinehint nounwind uwtable
define linkonce_odr i32* @_ZSt12__miter_baseISt13move_iteratorIPiEENSt11_Miter_baseIT_E13iterator_typeES4_(i32* %__it.coerce) #5 {
  %__it = alloca %"class.std::move_iterator", align 8, !llfi_index !682
  %1 = alloca %"class.std::move_iterator", align 8, !llfi_index !683
  %2 = getelementptr %"class.std::move_iterator"* %__it, i32 0, i32 0, !llfi_index !684
  store i32* %__it.coerce, i32** %2, !llfi_index !685
  %3 = bitcast %"class.std::move_iterator"* %1 to i8*, !llfi_index !686
  %4 = bitcast %"class.std::move_iterator"* %__it to i8*, !llfi_index !687
  call void @llvm.memcpy.p0i8.p0i8.i64(i8* %3, i8* %4, i64 8, i32 8, i1 false), !llfi_index !688
  %5 = getelementptr %"class.std::move_iterator"* %1, i32 0, i32 0, !llfi_index !689
  %6 = load i32** %5, !llfi_index !690
  %7 = call i32* @_ZNSt10_Iter_baseISt13move_iteratorIPiELb1EE7_S_baseES2_(i32* %6), !llfi_index !691
  ret i32* %7, !llfi_index !692
}

; Function Attrs: nounwind uwtable
define linkonce_odr i32* @_ZNSt10_Iter_baseISt13move_iteratorIPiELb1EE7_S_baseES2_(i32* %__it.coerce) #3 align 2 {
  %__it = alloca %"class.std::move_iterator", align 8, !llfi_index !693
  %1 = getelementptr %"class.std::move_iterator"* %__it, i32 0, i32 0, !llfi_index !694
  store i32* %__it.coerce, i32** %1, !llfi_index !695
  %2 = call i32* @_ZNKSt13move_iteratorIPiE4baseEv(%"class.std::move_iterator"* %__it), !llfi_index !696
  ret i32* %2, !llfi_index !697
}

; Function Attrs: nounwind uwtable
define linkonce_odr i32* @_ZNKSt13move_iteratorIPiE4baseEv(%"class.std::move_iterator"* %this) #3 align 2 {
  %1 = alloca %"class.std::move_iterator"*, align 8, !llfi_index !698
  store %"class.std::move_iterator"* %this, %"class.std::move_iterator"** %1, align 8, !llfi_index !699
  %2 = load %"class.std::move_iterator"** %1, !llfi_index !700
  %3 = getelementptr inbounds %"class.std::move_iterator"* %2, i32 0, i32 0, !llfi_index !701
  %4 = load i32** %3, align 8, !llfi_index !702
  ret i32* %4, !llfi_index !703
}

; Function Attrs: inlinehint nounwind uwtable
define linkonce_odr i32* @_ZSt13__copy_move_aILb1EPiS0_ET1_T0_S2_S1_(i32* %__first, i32* %__last, i32* %__result) #5 {
  %1 = alloca i32*, align 8, !llfi_index !704
  %2 = alloca i32*, align 8, !llfi_index !705
  %3 = alloca i32*, align 8, !llfi_index !706
  %__simple = alloca i8, align 1, !llfi_index !707
  store i32* %__first, i32** %1, align 8, !llfi_index !708
  store i32* %__last, i32** %2, align 8, !llfi_index !709
  store i32* %__result, i32** %3, align 8, !llfi_index !710
  store i8 1, i8* %__simple, align 1, !llfi_index !711
  %4 = load i32** %1, align 8, !llfi_index !712
  %5 = load i32** %2, align 8, !llfi_index !713
  %6 = load i32** %3, align 8, !llfi_index !714
  %7 = call i32* @_ZNSt11__copy_moveILb1ELb1ESt26random_access_iterator_tagE8__copy_mIiEEPT_PKS3_S6_S4_(i32* %4, i32* %5, i32* %6), !llfi_index !715
  ret i32* %7, !llfi_index !716
}

; Function Attrs: inlinehint nounwind uwtable
define linkonce_odr i32* @_ZSt12__niter_baseIPiENSt11_Niter_baseIT_E13iterator_typeES2_(i32* %__it) #5 {
  %1 = alloca i32*, align 8, !llfi_index !717
  store i32* %__it, i32** %1, align 8, !llfi_index !718
  %2 = load i32** %1, align 8, !llfi_index !719
  %3 = call i32* @_ZNSt10_Iter_baseIPiLb0EE7_S_baseES0_(i32* %2), !llfi_index !720
  ret i32* %3, !llfi_index !721
}

; Function Attrs: nounwind uwtable
define linkonce_odr i32* @_ZNSt10_Iter_baseIPiLb0EE7_S_baseES0_(i32* %__it) #3 align 2 {
  %1 = alloca i32*, align 8, !llfi_index !722
  store i32* %__it, i32** %1, align 8, !llfi_index !723
  %2 = load i32** %1, align 8, !llfi_index !724
  ret i32* %2, !llfi_index !725
}

; Function Attrs: nounwind uwtable
define linkonce_odr i32* @_ZNSt11__copy_moveILb1ELb1ESt26random_access_iterator_tagE8__copy_mIiEEPT_PKS3_S6_S4_(i32* %__first, i32* %__last, i32* %__result) #3 align 2 {
  %1 = alloca i32*, align 8, !llfi_index !726
  %2 = alloca i32*, align 8, !llfi_index !727
  %3 = alloca i32*, align 8, !llfi_index !728
  %_Num = alloca i64, align 8, !llfi_index !729
  store i32* %__first, i32** %1, align 8, !llfi_index !730
  store i32* %__last, i32** %2, align 8, !llfi_index !731
  store i32* %__result, i32** %3, align 8, !llfi_index !732
  %4 = load i32** %2, align 8, !llfi_index !733
  %5 = load i32** %1, align 8, !llfi_index !734
  %6 = ptrtoint i32* %4 to i64, !llfi_index !735
  %7 = ptrtoint i32* %5 to i64, !llfi_index !736
  %8 = sub i64 %6, %7, !llfi_index !737
  %9 = sdiv exact i64 %8, 4, !llfi_index !738
  store i64 %9, i64* %_Num, align 8, !llfi_index !739
  %10 = load i64* %_Num, align 8, !llfi_index !740
  %11 = icmp ne i64 %10, 0, !llfi_index !741
  br i1 %11, label %12, label %19, !llfi_index !742

; <label>:12                                      ; preds = %0
  %13 = load i32** %3, align 8, !llfi_index !743
  %14 = bitcast i32* %13 to i8*, !llfi_index !744
  %15 = load i32** %1, align 8, !llfi_index !745
  %16 = bitcast i32* %15 to i8*, !llfi_index !746
  %17 = load i64* %_Num, align 8, !llfi_index !747
  %18 = mul i64 4, %17, !llfi_index !748
  call void @llvm.memmove.p0i8.p0i8.i64(i8* %14, i8* %16, i64 %18, i32 4, i1 false), !llfi_index !749
  br label %19, !llfi_index !750

; <label>:19                                      ; preds = %12, %0
  %20 = load i32** %3, align 8, !llfi_index !751
  %21 = load i64* %_Num, align 8, !llfi_index !752
  %22 = getelementptr inbounds i32* %20, i64 %21, !llfi_index !753
  ret i32* %22, !llfi_index !754
}

; Function Attrs: nounwind
declare void @llvm.memmove.p0i8.p0i8.i64(i8* nocapture, i8* nocapture readonly, i64, i32, i1) #0

; Function Attrs: nounwind uwtable
define linkonce_odr i32* @_ZNSt16allocator_traitsISaIiEE8allocateERS0_m(%"class.std::allocator.1"* %__a, i64 %__n) #3 align 2 {
  %1 = alloca %"class.std::allocator.1"*, align 8, !llfi_index !755
  %2 = alloca i64, align 8, !llfi_index !756
  store %"class.std::allocator.1"* %__a, %"class.std::allocator.1"** %1, align 8, !llfi_index !757
  store i64 %__n, i64* %2, align 8, !llfi_index !758
  %3 = load %"class.std::allocator.1"** %1, align 8, !llfi_index !759
  %4 = bitcast %"class.std::allocator.1"* %3 to %"class.__gnu_cxx::new_allocator.2"*, !llfi_index !760
  %5 = load i64* %2, align 8, !llfi_index !761
  %6 = call i32* @_ZN9__gnu_cxx13new_allocatorIiE8allocateEmPKv(%"class.__gnu_cxx::new_allocator.2"* %4, i64 %5, i8* null), !llfi_index !762
  ret i32* %6, !llfi_index !763
}

; Function Attrs: nounwind uwtable
define linkonce_odr i32* @_ZN9__gnu_cxx13new_allocatorIiE8allocateEmPKv(%"class.__gnu_cxx::new_allocator.2"* %this, i64 %__n, i8*) #3 align 2 {
  %2 = alloca %"class.__gnu_cxx::new_allocator.2"*, align 8, !llfi_index !764
  %3 = alloca i64, align 8, !llfi_index !765
  %4 = alloca i8*, align 8, !llfi_index !766
  store %"class.__gnu_cxx::new_allocator.2"* %this, %"class.__gnu_cxx::new_allocator.2"** %2, align 8, !llfi_index !767
  store i64 %__n, i64* %3, align 8, !llfi_index !768
  store i8* %0, i8** %4, align 8, !llfi_index !769
  %5 = load %"class.__gnu_cxx::new_allocator.2"** %2, !llfi_index !770
  %6 = load i64* %3, align 8, !llfi_index !771
  %7 = call i64 @_ZNK9__gnu_cxx13new_allocatorIiE8max_sizeEv(%"class.__gnu_cxx::new_allocator.2"* %5) #0, !llfi_index !772
  %8 = icmp ugt i64 %6, %7, !llfi_index !773
  br i1 %8, label %9, label %10, !llfi_index !774

; <label>:9                                       ; preds = %1
  call void @_ZSt17__throw_bad_allocv() #9, !llfi_index !775
  unreachable, !llfi_index !776

; <label>:10                                      ; preds = %1
  %11 = load i64* %3, align 8, !llfi_index !777
  %12 = mul i64 %11, 4, !llfi_index !778
  %13 = call noalias i8* @_Znwm(i64 %12), !llfi_index !779
  %14 = bitcast i8* %13 to i32*, !llfi_index !780
  ret i32* %14, !llfi_index !781
}

; Function Attrs: nounwind uwtable
define linkonce_odr i64 @_ZNK9__gnu_cxx13new_allocatorIiE8max_sizeEv(%"class.__gnu_cxx::new_allocator.2"* %this) #3 align 2 {
  %1 = alloca %"class.__gnu_cxx::new_allocator.2"*, align 8, !llfi_index !782
  store %"class.__gnu_cxx::new_allocator.2"* %this, %"class.__gnu_cxx::new_allocator.2"** %1, align 8, !llfi_index !783
  %2 = load %"class.__gnu_cxx::new_allocator.2"** %1, !llfi_index !784
  ret i64 4611686018427387903, !llfi_index !785
}

; Function Attrs: noreturn
declare void @_ZSt17__throw_bad_allocv() #7

; Function Attrs: nounwind uwtable
define linkonce_odr i64 @_ZNKSt6vectorIiSaIiEE8max_sizeEv(%"class.std::vector"* %this) #3 align 2 {
  %1 = alloca %"class.std::vector"*, align 8, !llfi_index !786
  store %"class.std::vector"* %this, %"class.std::vector"** %1, align 8, !llfi_index !787
  %2 = load %"class.std::vector"** %1, !llfi_index !788
  %3 = bitcast %"class.std::vector"* %2 to %"struct.std::_Vector_base"*, !llfi_index !789
  %4 = call %"class.std::allocator.1"* @_ZNKSt12_Vector_baseIiSaIiEE19_M_get_Tp_allocatorEv(%"struct.std::_Vector_base"* %3) #0, !llfi_index !790
  %5 = call i64 @_ZNSt16allocator_traitsISaIiEE8max_sizeERKS0_(%"class.std::allocator.1"* %4) #0, !llfi_index !791
  ret i64 %5, !llfi_index !792
}

; Function Attrs: noreturn
declare void @_ZSt20__throw_length_errorPKc(i8*) #7

; Function Attrs: nounwind uwtable
define linkonce_odr i64* @_ZSt3maxImERKT_S2_S2_(i64* %__a, i64* %__b) #3 {
  %1 = alloca i64*, align 8, !llfi_index !793
  %2 = alloca i64*, align 8, !llfi_index !794
  %3 = alloca i64*, align 8, !llfi_index !795
  store i64* %__a, i64** %2, align 8, !llfi_index !796
  store i64* %__b, i64** %3, align 8, !llfi_index !797
  %4 = load i64** %2, align 8, !llfi_index !798
  %5 = load i64* %4, align 8, !llfi_index !799
  %6 = load i64** %3, align 8, !llfi_index !800
  %7 = load i64* %6, align 8, !llfi_index !801
  %8 = icmp ult i64 %5, %7, !llfi_index !802
  br i1 %8, label %9, label %11, !llfi_index !803

; <label>:9                                       ; preds = %0
  %10 = load i64** %3, align 8, !llfi_index !804
  store i64* %10, i64** %1, !llfi_index !805
  br label %13, !llfi_index !806

; <label>:11                                      ; preds = %0
  %12 = load i64** %2, align 8, !llfi_index !807
  store i64* %12, i64** %1, !llfi_index !808
  br label %13, !llfi_index !809

; <label>:13                                      ; preds = %11, %9
  %14 = load i64** %1, !llfi_index !810
  ret i64* %14, !llfi_index !811
}

; Function Attrs: nounwind uwtable
define linkonce_odr i64 @_ZNSt16allocator_traitsISaIiEE8max_sizeERKS0_(%"class.std::allocator.1"* %__a) #3 align 2 {
  %1 = alloca %"class.std::allocator.1"*, align 8, !llfi_index !812
  store %"class.std::allocator.1"* %__a, %"class.std::allocator.1"** %1, align 8, !llfi_index !813
  %2 = load %"class.std::allocator.1"** %1, align 8, !llfi_index !814
  %3 = bitcast %"class.std::allocator.1"* %2 to %"class.__gnu_cxx::new_allocator.2"*, !llfi_index !815
  %4 = call i64 @_ZNK9__gnu_cxx13new_allocatorIiE8max_sizeEv(%"class.__gnu_cxx::new_allocator.2"* %3) #0, !llfi_index !816
  ret i64 %4, !llfi_index !817
}

; Function Attrs: nounwind uwtable
define linkonce_odr %"class.std::allocator.1"* @_ZNKSt12_Vector_baseIiSaIiEE19_M_get_Tp_allocatorEv(%"struct.std::_Vector_base"* %this) #3 align 2 {
  %1 = alloca %"struct.std::_Vector_base"*, align 8, !llfi_index !818
  store %"struct.std::_Vector_base"* %this, %"struct.std::_Vector_base"** %1, align 8, !llfi_index !819
  %2 = load %"struct.std::_Vector_base"** %1, !llfi_index !820
  %3 = getelementptr inbounds %"struct.std::_Vector_base"* %2, i32 0, i32 0, !llfi_index !821
  %4 = bitcast %"struct.std::_Vector_base<int, std::allocator<int> >::_Vector_impl"* %3 to %"class.std::allocator.1"*, !llfi_index !822
  ret %"class.std::allocator.1"* %4, !llfi_index !823
}

; Function Attrs: nounwind uwtable
define linkonce_odr void @_ZN9__gnu_cxx13new_allocatorIiE9constructIiJiEEEvPT_DpOT0_(%"class.__gnu_cxx::new_allocator.2"* %this, i32* %__p, i32* %__args) #3 align 2 {
  %1 = alloca %"class.__gnu_cxx::new_allocator.2"*, align 8, !llfi_index !824
  %2 = alloca i32*, align 8, !llfi_index !825
  %3 = alloca i32*, align 8, !llfi_index !826
  store %"class.__gnu_cxx::new_allocator.2"* %this, %"class.__gnu_cxx::new_allocator.2"** %1, align 8, !llfi_index !827
  store i32* %__p, i32** %2, align 8, !llfi_index !828
  store i32* %__args, i32** %3, align 8, !llfi_index !829
  %4 = load %"class.__gnu_cxx::new_allocator.2"** %1, !llfi_index !830
  %5 = load i32** %2, align 8, !llfi_index !831
  %6 = bitcast i32* %5 to i8*, !llfi_index !832
  %7 = icmp eq i8* %6, null, !llfi_index !833
  br i1 %7, label %13, label %8, !llfi_index !834

; <label>:8                                       ; preds = %0
  %9 = bitcast i8* %6 to i32*, !llfi_index !835
  %10 = load i32** %3, align 8, !llfi_index !836
  %11 = call i32* @_ZSt7forwardIiEOT_RNSt16remove_referenceIS0_E4typeE(i32* %10) #0, !llfi_index !837
  %12 = load i32* %11, !llfi_index !838
  store i32 %12, i32* %9, align 4, !llfi_index !839
  br label %13, !llfi_index !840

; <label>:13                                      ; preds = %8, %0
  %14 = phi i32* [ %9, %8 ], [ null, %0 ], !llfi_index !841
  ret void, !llfi_index !842
}

; Function Attrs: nounwind uwtable
define linkonce_odr void @_ZNSt12_Vector_baseIiSaIiEED2Ev(%"struct.std::_Vector_base"* %this) unnamed_addr #3 align 2 {
  %1 = alloca %"struct.std::_Vector_base"*, align 8, !llfi_index !843
  store %"struct.std::_Vector_base"* %this, %"struct.std::_Vector_base"** %1, align 8, !llfi_index !844
  %2 = load %"struct.std::_Vector_base"** %1, !llfi_index !845
  %3 = getelementptr inbounds %"struct.std::_Vector_base"* %2, i32 0, i32 0, !llfi_index !846
  %4 = getelementptr inbounds %"struct.std::_Vector_base<int, std::allocator<int> >::_Vector_impl"* %3, i32 0, i32 0, !llfi_index !847
  %5 = load i32** %4, align 8, !llfi_index !848
  %6 = getelementptr inbounds %"struct.std::_Vector_base"* %2, i32 0, i32 0, !llfi_index !849
  %7 = getelementptr inbounds %"struct.std::_Vector_base<int, std::allocator<int> >::_Vector_impl"* %6, i32 0, i32 2, !llfi_index !850
  %8 = load i32** %7, align 8, !llfi_index !851
  %9 = getelementptr inbounds %"struct.std::_Vector_base"* %2, i32 0, i32 0, !llfi_index !852
  %10 = getelementptr inbounds %"struct.std::_Vector_base<int, std::allocator<int> >::_Vector_impl"* %9, i32 0, i32 0, !llfi_index !853
  %11 = load i32** %10, align 8, !llfi_index !854
  %12 = ptrtoint i32* %8 to i64, !llfi_index !855
  %13 = ptrtoint i32* %11 to i64, !llfi_index !856
  %14 = sub i64 %12, %13, !llfi_index !857
  %15 = sdiv exact i64 %14, 4, !llfi_index !858
  call void @_ZNSt12_Vector_baseIiSaIiEE13_M_deallocateEPim(%"struct.std::_Vector_base"* %2, i32* %5, i64 %15), !llfi_index !859
  %16 = getelementptr inbounds %"struct.std::_Vector_base"* %2, i32 0, i32 0, !llfi_index !860
  call void @_ZNSt12_Vector_baseIiSaIiEE12_Vector_implD2Ev(%"struct.std::_Vector_base<int, std::allocator<int> >::_Vector_impl"* %16) #0, !llfi_index !861
  ret void, !llfi_index !862
}

; Function Attrs: inlinehint nounwind uwtable
define linkonce_odr void @_ZNSt12_Vector_baseIiSaIiEE12_Vector_implD2Ev(%"struct.std::_Vector_base<int, std::allocator<int> >::_Vector_impl"* %this) unnamed_addr #5 align 2 {
  %1 = alloca %"struct.std::_Vector_base<int, std::allocator<int> >::_Vector_impl"*, align 8, !llfi_index !863
  store %"struct.std::_Vector_base<int, std::allocator<int> >::_Vector_impl"* %this, %"struct.std::_Vector_base<int, std::allocator<int> >::_Vector_impl"** %1, align 8, !llfi_index !864
  %2 = load %"struct.std::_Vector_base<int, std::allocator<int> >::_Vector_impl"** %1, !llfi_index !865
  %3 = bitcast %"struct.std::_Vector_base<int, std::allocator<int> >::_Vector_impl"* %2 to %"class.std::allocator.1"*, !llfi_index !866
  call void @_ZNSaIiED2Ev(%"class.std::allocator.1"* %3) #0, !llfi_index !867
  ret void, !llfi_index !868
}

; Function Attrs: nounwind uwtable
define linkonce_odr void @_ZNSaIiED2Ev(%"class.std::allocator.1"* %this) unnamed_addr #3 align 2 {
  %1 = alloca %"class.std::allocator.1"*, align 8, !llfi_index !869
  store %"class.std::allocator.1"* %this, %"class.std::allocator.1"** %1, align 8, !llfi_index !870
  %2 = load %"class.std::allocator.1"** %1, !llfi_index !871
  %3 = bitcast %"class.std::allocator.1"* %2 to %"class.__gnu_cxx::new_allocator.2"*, !llfi_index !872
  call void @_ZN9__gnu_cxx13new_allocatorIiED2Ev(%"class.__gnu_cxx::new_allocator.2"* %3) #0, !llfi_index !873
  ret void, !llfi_index !874
}

; Function Attrs: nounwind uwtable
define linkonce_odr void @_ZN9__gnu_cxx13new_allocatorIiED2Ev(%"class.__gnu_cxx::new_allocator.2"* %this) unnamed_addr #3 align 2 {
  %1 = alloca %"class.__gnu_cxx::new_allocator.2"*, align 8, !llfi_index !875
  store %"class.__gnu_cxx::new_allocator.2"* %this, %"class.__gnu_cxx::new_allocator.2"** %1, align 8, !llfi_index !876
  %2 = load %"class.__gnu_cxx::new_allocator.2"** %1, !llfi_index !877
  ret void, !llfi_index !878
}

; Function Attrs: nounwind uwtable
define linkonce_odr void @_ZNSt12_Vector_baseIiSaIiEEC2Ev(%"struct.std::_Vector_base"* %this) unnamed_addr #3 align 2 {
  %1 = alloca %"struct.std::_Vector_base"*, align 8, !llfi_index !879
  store %"struct.std::_Vector_base"* %this, %"struct.std::_Vector_base"** %1, align 8, !llfi_index !880
  %2 = load %"struct.std::_Vector_base"** %1, !llfi_index !881
  %3 = getelementptr inbounds %"struct.std::_Vector_base"* %2, i32 0, i32 0, !llfi_index !882
  call void @_ZNSt12_Vector_baseIiSaIiEE12_Vector_implC2Ev(%"struct.std::_Vector_base<int, std::allocator<int> >::_Vector_impl"* %3), !llfi_index !883
  ret void, !llfi_index !884
}

; Function Attrs: nounwind uwtable
define linkonce_odr void @_ZNSt12_Vector_baseIiSaIiEE12_Vector_implC2Ev(%"struct.std::_Vector_base<int, std::allocator<int> >::_Vector_impl"* %this) unnamed_addr #3 align 2 {
  %1 = alloca %"struct.std::_Vector_base<int, std::allocator<int> >::_Vector_impl"*, align 8, !llfi_index !885
  store %"struct.std::_Vector_base<int, std::allocator<int> >::_Vector_impl"* %this, %"struct.std::_Vector_base<int, std::allocator<int> >::_Vector_impl"** %1, align 8, !llfi_index !886
  %2 = load %"struct.std::_Vector_base<int, std::allocator<int> >::_Vector_impl"** %1, !llfi_index !887
  %3 = bitcast %"struct.std::_Vector_base<int, std::allocator<int> >::_Vector_impl"* %2 to %"class.std::allocator.1"*, !llfi_index !888
  call void @_ZNSaIiEC2Ev(%"class.std::allocator.1"* %3) #0, !llfi_index !889
  %4 = getelementptr inbounds %"struct.std::_Vector_base<int, std::allocator<int> >::_Vector_impl"* %2, i32 0, i32 0, !llfi_index !890
  store i32* null, i32** %4, align 8, !llfi_index !891
  %5 = getelementptr inbounds %"struct.std::_Vector_base<int, std::allocator<int> >::_Vector_impl"* %2, i32 0, i32 1, !llfi_index !892
  store i32* null, i32** %5, align 8, !llfi_index !893
  %6 = getelementptr inbounds %"struct.std::_Vector_base<int, std::allocator<int> >::_Vector_impl"* %2, i32 0, i32 2, !llfi_index !894
  store i32* null, i32** %6, align 8, !llfi_index !895
  ret void, !llfi_index !896
}

; Function Attrs: nounwind uwtable
define linkonce_odr void @_ZNSaIiEC2Ev(%"class.std::allocator.1"* %this) unnamed_addr #3 align 2 {
  %1 = alloca %"class.std::allocator.1"*, align 8, !llfi_index !897
  store %"class.std::allocator.1"* %this, %"class.std::allocator.1"** %1, align 8, !llfi_index !898
  %2 = load %"class.std::allocator.1"** %1, !llfi_index !899
  %3 = bitcast %"class.std::allocator.1"* %2 to %"class.__gnu_cxx::new_allocator.2"*, !llfi_index !900
  call void @_ZN9__gnu_cxx13new_allocatorIiEC2Ev(%"class.__gnu_cxx::new_allocator.2"* %3) #0, !llfi_index !901
  ret void, !llfi_index !902
}

; Function Attrs: nounwind uwtable
define linkonce_odr void @_ZN9__gnu_cxx13new_allocatorIiEC2Ev(%"class.__gnu_cxx::new_allocator.2"* %this) unnamed_addr #3 align 2 {
  %1 = alloca %"class.__gnu_cxx::new_allocator.2"*, align 8, !llfi_index !903
  store %"class.__gnu_cxx::new_allocator.2"* %this, %"class.__gnu_cxx::new_allocator.2"** %1, align 8, !llfi_index !904
  %2 = load %"class.__gnu_cxx::new_allocator.2"** %1, !llfi_index !905
  ret void, !llfi_index !906
}

; Function Attrs: nounwind uwtable
define linkonce_odr void @_ZN13VectorVisitorC2ERSt6vectorIiSaIiEE(%class.VectorVisitor* %this, %"class.std::vector"* %r) unnamed_addr #3 align 2 {
  %1 = alloca %class.VectorVisitor*, align 8, !llfi_index !907
  %2 = alloca %"class.std::vector"*, align 8, !llfi_index !908
  store %class.VectorVisitor* %this, %class.VectorVisitor** %1, align 8, !llfi_index !909
  store %"class.std::vector"* %r, %"class.std::vector"** %2, align 8, !llfi_index !910
  %3 = load %class.VectorVisitor** %1, !llfi_index !911
  %4 = bitcast %class.VectorVisitor* %3 to %class.NodeVisitor*, !llfi_index !912
  call void @_ZN11NodeVisitorC2Ev(%class.NodeVisitor* %4) #0, !llfi_index !913
  %5 = bitcast %class.VectorVisitor* %3 to i8***, !llfi_index !914
  store i8** getelementptr inbounds ([5 x i8*]* @_ZTV13VectorVisitor, i64 0, i64 2), i8*** %5, !llfi_index !915
  %6 = getelementptr inbounds %class.VectorVisitor* %3, i32 0, i32 1, !llfi_index !916
  %7 = load %"class.std::vector"** %2, align 8, !llfi_index !917
  store %"class.std::vector"* %7, %"class.std::vector"** %6, align 8, !llfi_index !918
  ret void, !llfi_index !919
}

; Function Attrs: nounwind uwtable
define linkonce_odr void @_ZN8Solution18postorderTraversalEP8TreeNodeR11NodeVisitor(%class.Solution* %this, %struct.TreeNode* %root, %class.NodeVisitor* %visitor) #3 align 2 {
  %1 = alloca %class.Solution*, align 8, !llfi_index !920
  %2 = alloca %struct.TreeNode*, align 8, !llfi_index !921
  %3 = alloca %class.NodeVisitor*, align 8, !llfi_index !922
  store %class.Solution* %this, %class.Solution** %1, align 8, !llfi_index !923
  store %struct.TreeNode* %root, %struct.TreeNode** %2, align 8, !llfi_index !924
  store %class.NodeVisitor* %visitor, %class.NodeVisitor** %3, align 8, !llfi_index !925
  %4 = load %class.Solution** %1, !llfi_index !926
  %5 = load %struct.TreeNode** %2, align 8, !llfi_index !927
  %6 = icmp eq %struct.TreeNode* %5, null, !llfi_index !928
  br i1 %6, label %7, label %8, !llfi_index !929

; <label>:7                                       ; preds = %0
  br label %25, !llfi_index !930

; <label>:8                                       ; preds = %0
  %9 = load %struct.TreeNode** %2, align 8, !llfi_index !931
  %10 = getelementptr inbounds %struct.TreeNode* %9, i32 0, i32 1, !llfi_index !932
  %11 = load %struct.TreeNode** %10, align 8, !llfi_index !933
  %12 = load %class.NodeVisitor** %3, align 8, !llfi_index !934
  call void @_ZN8Solution18postorderTraversalEP8TreeNodeR11NodeVisitor(%class.Solution* %4, %struct.TreeNode* %11, %class.NodeVisitor* %12), !llfi_index !935
  %13 = load %struct.TreeNode** %2, align 8, !llfi_index !936
  %14 = getelementptr inbounds %struct.TreeNode* %13, i32 0, i32 2, !llfi_index !937
  %15 = load %struct.TreeNode** %14, align 8, !llfi_index !938
  %16 = load %class.NodeVisitor** %3, align 8, !llfi_index !939
  call void @_ZN8Solution18postorderTraversalEP8TreeNodeR11NodeVisitor(%class.Solution* %4, %struct.TreeNode* %15, %class.NodeVisitor* %16), !llfi_index !940
  %17 = load %class.NodeVisitor** %3, align 8, !llfi_index !941
  %18 = bitcast %class.NodeVisitor* %17 to void (%class.NodeVisitor*, i32)***, !llfi_index !942
  %19 = load void (%class.NodeVisitor*, i32)*** %18, !llfi_index !943
  %20 = getelementptr inbounds void (%class.NodeVisitor*, i32)** %19, i64 2, !llfi_index !944
  %21 = load void (%class.NodeVisitor*, i32)** %20, !llfi_index !945
  %22 = load %struct.TreeNode** %2, align 8, !llfi_index !946
  %23 = getelementptr inbounds %struct.TreeNode* %22, i32 0, i32 0, !llfi_index !947
  %24 = load i32* %23, align 4, !llfi_index !948
  call void %21(%class.NodeVisitor* %17, i32 %24), !llfi_index !949
  br label %25, !llfi_index !950

; <label>:25                                      ; preds = %8, %7
  ret void, !llfi_index !951
}

; Function Attrs: inlinehint nounwind uwtable
define linkonce_odr void @_ZN13VectorVisitorD2Ev(%class.VectorVisitor* %this) unnamed_addr #5 align 2 {
  %1 = alloca %class.VectorVisitor*, align 8, !llfi_index !952
  store %class.VectorVisitor* %this, %class.VectorVisitor** %1, align 8, !llfi_index !953
  %2 = load %class.VectorVisitor** %1, !llfi_index !954
  %3 = bitcast %class.VectorVisitor* %2 to %class.NodeVisitor*, !llfi_index !955
  call void @_ZN11NodeVisitorD2Ev(%class.NodeVisitor* %3) #0, !llfi_index !956
  ret void, !llfi_index !957
}

; Function Attrs: inlinehint nounwind uwtable
define linkonce_odr void @_ZN11NodeVisitorC2Ev(%class.NodeVisitor* %this) unnamed_addr #5 align 2 {
  %1 = alloca %class.NodeVisitor*, align 8, !llfi_index !958
  store %class.NodeVisitor* %this, %class.NodeVisitor** %1, align 8, !llfi_index !959
  %2 = load %class.NodeVisitor** %1, !llfi_index !960
  %3 = bitcast %class.NodeVisitor* %2 to i8***, !llfi_index !961
  store i8** getelementptr inbounds ([5 x i8*]* @_ZTV11NodeVisitor, i64 0, i64 2), i8*** %3, !llfi_index !962
  ret void, !llfi_index !963
}

; Function Attrs: inlinehint nounwind uwtable
define linkonce_odr void @_ZN13VectorVisitorD0Ev(%class.VectorVisitor* %this) unnamed_addr #5 align 2 {
  %1 = alloca %class.VectorVisitor*, align 8, !llfi_index !964
  store %class.VectorVisitor* %this, %class.VectorVisitor** %1, align 8, !llfi_index !965
  %2 = load %class.VectorVisitor** %1, !llfi_index !966
  call void @_ZN13VectorVisitorD2Ev(%class.VectorVisitor* %2) #0, !llfi_index !967
  %3 = bitcast %class.VectorVisitor* %2 to i8*, !llfi_index !968
  call void @_ZdlPv(i8* %3) #10, !llfi_index !969
  ret void, !llfi_index !970
}

; Function Attrs: nounwind uwtable
define linkonce_odr void @_ZN13VectorVisitor5visitEi(%class.VectorVisitor* %this, i32 %val) unnamed_addr #3 align 2 {
  %1 = alloca %class.VectorVisitor*, align 8, !llfi_index !971
  %2 = alloca i32, align 4, !llfi_index !972
  store %class.VectorVisitor* %this, %class.VectorVisitor** %1, align 8, !llfi_index !973
  store i32 %val, i32* %2, align 4, !llfi_index !974
  %3 = load %class.VectorVisitor** %1, !llfi_index !975
  %4 = getelementptr inbounds %class.VectorVisitor* %3, i32 0, i32 1, !llfi_index !976
  %5 = load %"class.std::vector"** %4, align 8, !llfi_index !977
  call void @_ZNSt6vectorIiSaIiEE9push_backERKi(%"class.std::vector"* %5, i32* %2), !llfi_index !978
  ret void, !llfi_index !979
}

; Function Attrs: nounwind uwtable
define linkonce_odr void @_ZNSt6vectorIiSaIiEE9push_backERKi(%"class.std::vector"* %this, i32* %__x) #3 align 2 {
  %1 = alloca %"class.std::vector"*, align 8, !llfi_index !980
  %2 = alloca i32*, align 8, !llfi_index !981
  store %"class.std::vector"* %this, %"class.std::vector"** %1, align 8, !llfi_index !982
  store i32* %__x, i32** %2, align 8, !llfi_index !983
  %3 = load %"class.std::vector"** %1, !llfi_index !984
  %4 = bitcast %"class.std::vector"* %3 to %"struct.std::_Vector_base"*, !llfi_index !985
  %5 = getelementptr inbounds %"struct.std::_Vector_base"* %4, i32 0, i32 0, !llfi_index !986
  %6 = getelementptr inbounds %"struct.std::_Vector_base<int, std::allocator<int> >::_Vector_impl"* %5, i32 0, i32 1, !llfi_index !987
  %7 = load i32** %6, align 8, !llfi_index !988
  %8 = bitcast %"class.std::vector"* %3 to %"struct.std::_Vector_base"*, !llfi_index !989
  %9 = getelementptr inbounds %"struct.std::_Vector_base"* %8, i32 0, i32 0, !llfi_index !990
  %10 = getelementptr inbounds %"struct.std::_Vector_base<int, std::allocator<int> >::_Vector_impl"* %9, i32 0, i32 2, !llfi_index !991
  %11 = load i32** %10, align 8, !llfi_index !992
  %12 = icmp ne i32* %7, %11, !llfi_index !993
  br i1 %12, label %13, label %27, !llfi_index !994

; <label>:13                                      ; preds = %0
  %14 = bitcast %"class.std::vector"* %3 to %"struct.std::_Vector_base"*, !llfi_index !995
  %15 = getelementptr inbounds %"struct.std::_Vector_base"* %14, i32 0, i32 0, !llfi_index !996
  %16 = bitcast %"struct.std::_Vector_base<int, std::allocator<int> >::_Vector_impl"* %15 to %"class.std::allocator.1"*, !llfi_index !997
  %17 = bitcast %"class.std::vector"* %3 to %"struct.std::_Vector_base"*, !llfi_index !998
  %18 = getelementptr inbounds %"struct.std::_Vector_base"* %17, i32 0, i32 0, !llfi_index !999
  %19 = getelementptr inbounds %"struct.std::_Vector_base<int, std::allocator<int> >::_Vector_impl"* %18, i32 0, i32 1, !llfi_index !1000
  %20 = load i32** %19, align 8, !llfi_index !1001
  %21 = load i32** %2, align 8, !llfi_index !1002
  call void @_ZNSt16allocator_traitsISaIiEE9constructIiJRKiEEEvRS0_PT_DpOT0_(%"class.std::allocator.1"* %16, i32* %20, i32* %21), !llfi_index !1003
  %22 = bitcast %"class.std::vector"* %3 to %"struct.std::_Vector_base"*, !llfi_index !1004
  %23 = getelementptr inbounds %"struct.std::_Vector_base"* %22, i32 0, i32 0, !llfi_index !1005
  %24 = getelementptr inbounds %"struct.std::_Vector_base<int, std::allocator<int> >::_Vector_impl"* %23, i32 0, i32 1, !llfi_index !1006
  %25 = load i32** %24, align 8, !llfi_index !1007
  %26 = getelementptr inbounds i32* %25, i32 1, !llfi_index !1008
  store i32* %26, i32** %24, align 8, !llfi_index !1009
  br label %29, !llfi_index !1010

; <label>:27                                      ; preds = %0
  %28 = load i32** %2, align 8, !llfi_index !1011
  call void @_ZNSt6vectorIiSaIiEE19_M_emplace_back_auxIJRKiEEEvDpOT_(%"class.std::vector"* %3, i32* %28), !llfi_index !1012
  br label %29, !llfi_index !1013

; <label>:29                                      ; preds = %27, %13
  ret void, !llfi_index !1014
}

; Function Attrs: nounwind uwtable
define linkonce_odr void @_ZNSt16allocator_traitsISaIiEE9constructIiJRKiEEEvRS0_PT_DpOT0_(%"class.std::allocator.1"* %__a, i32* %__p, i32* %__args) #3 align 2 {
  %1 = alloca %"class.std::allocator.1"*, align 8, !llfi_index !1015
  %2 = alloca i32*, align 8, !llfi_index !1016
  %3 = alloca i32*, align 8, !llfi_index !1017
  store %"class.std::allocator.1"* %__a, %"class.std::allocator.1"** %1, align 8, !llfi_index !1018
  store i32* %__p, i32** %2, align 8, !llfi_index !1019
  store i32* %__args, i32** %3, align 8, !llfi_index !1020
  %4 = load %"class.std::allocator.1"** %1, align 8, !llfi_index !1021
  %5 = bitcast %"class.std::allocator.1"* %4 to %"class.__gnu_cxx::new_allocator.2"*, !llfi_index !1022
  %6 = load i32** %2, align 8, !llfi_index !1023
  %7 = load i32** %3, align 8, !llfi_index !1024
  %8 = call i32* @_ZSt7forwardIRKiEOT_RNSt16remove_referenceIS2_E4typeE(i32* %7) #0, !llfi_index !1025
  call void @_ZN9__gnu_cxx13new_allocatorIiE9constructIiJRKiEEEvPT_DpOT0_(%"class.__gnu_cxx::new_allocator.2"* %5, i32* %6, i32* %8), !llfi_index !1026
  ret void, !llfi_index !1027
}

; Function Attrs: nounwind uwtable
define linkonce_odr void @_ZNSt6vectorIiSaIiEE19_M_emplace_back_auxIJRKiEEEvDpOT_(%"class.std::vector"* %this, i32* %__args) #3 align 2 {
  %1 = alloca %"class.std::vector"*, align 8, !llfi_index !1028
  %2 = alloca i32*, align 8, !llfi_index !1029
  %__len = alloca i64, align 8, !llfi_index !1030
  %__new_start = alloca i32*, align 8, !llfi_index !1031
  %__new_finish = alloca i32*, align 8, !llfi_index !1032
  store %"class.std::vector"* %this, %"class.std::vector"** %1, align 8, !llfi_index !1033
  store i32* %__args, i32** %2, align 8, !llfi_index !1034
  %3 = load %"class.std::vector"** %1, !llfi_index !1035
  %4 = call i64 @_ZNKSt6vectorIiSaIiEE12_M_check_lenEmPKc(%"class.std::vector"* %3, i64 1, i8* getelementptr inbounds ([28 x i8]* @.str2, i32 0, i32 0)), !llfi_index !1036
  store i64 %4, i64* %__len, align 8, !llfi_index !1037
  %5 = bitcast %"class.std::vector"* %3 to %"struct.std::_Vector_base"*, !llfi_index !1038
  %6 = load i64* %__len, align 8, !llfi_index !1039
  %7 = call i32* @_ZNSt12_Vector_baseIiSaIiEE11_M_allocateEm(%"struct.std::_Vector_base"* %5, i64 %6), !llfi_index !1040
  store i32* %7, i32** %__new_start, align 8, !llfi_index !1041
  %8 = load i32** %__new_start, align 8, !llfi_index !1042
  store i32* %8, i32** %__new_finish, align 8, !llfi_index !1043
  %9 = bitcast %"class.std::vector"* %3 to %"struct.std::_Vector_base"*, !llfi_index !1044
  %10 = getelementptr inbounds %"struct.std::_Vector_base"* %9, i32 0, i32 0, !llfi_index !1045
  %11 = bitcast %"struct.std::_Vector_base<int, std::allocator<int> >::_Vector_impl"* %10 to %"class.std::allocator.1"*, !llfi_index !1046
  %12 = load i32** %__new_start, align 8, !llfi_index !1047
  %13 = call i64 @_ZNKSt6vectorIiSaIiEE4sizeEv(%"class.std::vector"* %3) #0, !llfi_index !1048
  %14 = getelementptr inbounds i32* %12, i64 %13, !llfi_index !1049
  %15 = load i32** %2, align 8, !llfi_index !1050
  %16 = call i32* @_ZSt7forwardIRKiEOT_RNSt16remove_referenceIS2_E4typeE(i32* %15) #0, !llfi_index !1051
  call void @_ZNSt16allocator_traitsISaIiEE9constructIiJRKiEEEvRS0_PT_DpOT0_(%"class.std::allocator.1"* %11, i32* %14, i32* %16), !llfi_index !1052
  store i32* null, i32** %__new_finish, align 8, !llfi_index !1053
  %17 = bitcast %"class.std::vector"* %3 to %"struct.std::_Vector_base"*, !llfi_index !1054
  %18 = getelementptr inbounds %"struct.std::_Vector_base"* %17, i32 0, i32 0, !llfi_index !1055
  %19 = getelementptr inbounds %"struct.std::_Vector_base<int, std::allocator<int> >::_Vector_impl"* %18, i32 0, i32 0, !llfi_index !1056
  %20 = load i32** %19, align 8, !llfi_index !1057
  %21 = bitcast %"class.std::vector"* %3 to %"struct.std::_Vector_base"*, !llfi_index !1058
  %22 = getelementptr inbounds %"struct.std::_Vector_base"* %21, i32 0, i32 0, !llfi_index !1059
  %23 = getelementptr inbounds %"struct.std::_Vector_base<int, std::allocator<int> >::_Vector_impl"* %22, i32 0, i32 1, !llfi_index !1060
  %24 = load i32** %23, align 8, !llfi_index !1061
  %25 = load i32** %__new_start, align 8, !llfi_index !1062
  %26 = bitcast %"class.std::vector"* %3 to %"struct.std::_Vector_base"*, !llfi_index !1063
  %27 = call %"class.std::allocator.1"* @_ZNSt12_Vector_baseIiSaIiEE19_M_get_Tp_allocatorEv(%"struct.std::_Vector_base"* %26) #0, !llfi_index !1064
  %28 = call i32* @_ZSt34__uninitialized_move_if_noexcept_aIPiS0_SaIiEET0_T_S3_S2_RT1_(i32* %20, i32* %24, i32* %25, %"class.std::allocator.1"* %27), !llfi_index !1065
  store i32* %28, i32** %__new_finish, align 8, !llfi_index !1066
  %29 = load i32** %__new_finish, align 8, !llfi_index !1067
  %30 = getelementptr inbounds i32* %29, i32 1, !llfi_index !1068
  store i32* %30, i32** %__new_finish, align 8, !llfi_index !1069
  %31 = bitcast %"class.std::vector"* %3 to %"struct.std::_Vector_base"*, !llfi_index !1070
  %32 = getelementptr inbounds %"struct.std::_Vector_base"* %31, i32 0, i32 0, !llfi_index !1071
  %33 = getelementptr inbounds %"struct.std::_Vector_base<int, std::allocator<int> >::_Vector_impl"* %32, i32 0, i32 0, !llfi_index !1072
  %34 = load i32** %33, align 8, !llfi_index !1073
  %35 = bitcast %"class.std::vector"* %3 to %"struct.std::_Vector_base"*, !llfi_index !1074
  %36 = getelementptr inbounds %"struct.std::_Vector_base"* %35, i32 0, i32 0, !llfi_index !1075
  %37 = getelementptr inbounds %"struct.std::_Vector_base<int, std::allocator<int> >::_Vector_impl"* %36, i32 0, i32 1, !llfi_index !1076
  %38 = load i32** %37, align 8, !llfi_index !1077
  %39 = bitcast %"class.std::vector"* %3 to %"struct.std::_Vector_base"*, !llfi_index !1078
  %40 = call %"class.std::allocator.1"* @_ZNSt12_Vector_baseIiSaIiEE19_M_get_Tp_allocatorEv(%"struct.std::_Vector_base"* %39) #0, !llfi_index !1079
  call void @_ZSt8_DestroyIPiiEvT_S1_RSaIT0_E(i32* %34, i32* %38, %"class.std::allocator.1"* %40), !llfi_index !1080
  %41 = bitcast %"class.std::vector"* %3 to %"struct.std::_Vector_base"*, !llfi_index !1081
  %42 = bitcast %"class.std::vector"* %3 to %"struct.std::_Vector_base"*, !llfi_index !1082
  %43 = getelementptr inbounds %"struct.std::_Vector_base"* %42, i32 0, i32 0, !llfi_index !1083
  %44 = getelementptr inbounds %"struct.std::_Vector_base<int, std::allocator<int> >::_Vector_impl"* %43, i32 0, i32 0, !llfi_index !1084
  %45 = load i32** %44, align 8, !llfi_index !1085
  %46 = bitcast %"class.std::vector"* %3 to %"struct.std::_Vector_base"*, !llfi_index !1086
  %47 = getelementptr inbounds %"struct.std::_Vector_base"* %46, i32 0, i32 0, !llfi_index !1087
  %48 = getelementptr inbounds %"struct.std::_Vector_base<int, std::allocator<int> >::_Vector_impl"* %47, i32 0, i32 2, !llfi_index !1088
  %49 = load i32** %48, align 8, !llfi_index !1089
  %50 = bitcast %"class.std::vector"* %3 to %"struct.std::_Vector_base"*, !llfi_index !1090
  %51 = getelementptr inbounds %"struct.std::_Vector_base"* %50, i32 0, i32 0, !llfi_index !1091
  %52 = getelementptr inbounds %"struct.std::_Vector_base<int, std::allocator<int> >::_Vector_impl"* %51, i32 0, i32 0, !llfi_index !1092
  %53 = load i32** %52, align 8, !llfi_index !1093
  %54 = ptrtoint i32* %49 to i64, !llfi_index !1094
  %55 = ptrtoint i32* %53 to i64, !llfi_index !1095
  %56 = sub i64 %54, %55, !llfi_index !1096
  %57 = sdiv exact i64 %56, 4, !llfi_index !1097
  call void @_ZNSt12_Vector_baseIiSaIiEE13_M_deallocateEPim(%"struct.std::_Vector_base"* %41, i32* %45, i64 %57), !llfi_index !1098
  %58 = load i32** %__new_start, align 8, !llfi_index !1099
  %59 = bitcast %"class.std::vector"* %3 to %"struct.std::_Vector_base"*, !llfi_index !1100
  %60 = getelementptr inbounds %"struct.std::_Vector_base"* %59, i32 0, i32 0, !llfi_index !1101
  %61 = getelementptr inbounds %"struct.std::_Vector_base<int, std::allocator<int> >::_Vector_impl"* %60, i32 0, i32 0, !llfi_index !1102
  store i32* %58, i32** %61, align 8, !llfi_index !1103
  %62 = load i32** %__new_finish, align 8, !llfi_index !1104
  %63 = bitcast %"class.std::vector"* %3 to %"struct.std::_Vector_base"*, !llfi_index !1105
  %64 = getelementptr inbounds %"struct.std::_Vector_base"* %63, i32 0, i32 0, !llfi_index !1106
  %65 = getelementptr inbounds %"struct.std::_Vector_base<int, std::allocator<int> >::_Vector_impl"* %64, i32 0, i32 1, !llfi_index !1107
  store i32* %62, i32** %65, align 8, !llfi_index !1108
  %66 = load i32** %__new_start, align 8, !llfi_index !1109
  %67 = load i64* %__len, align 8, !llfi_index !1110
  %68 = getelementptr inbounds i32* %66, i64 %67, !llfi_index !1111
  %69 = bitcast %"class.std::vector"* %3 to %"struct.std::_Vector_base"*, !llfi_index !1112
  %70 = getelementptr inbounds %"struct.std::_Vector_base"* %69, i32 0, i32 0, !llfi_index !1113
  %71 = getelementptr inbounds %"struct.std::_Vector_base<int, std::allocator<int> >::_Vector_impl"* %70, i32 0, i32 2, !llfi_index !1114
  store i32* %68, i32** %71, align 8, !llfi_index !1115
  ret void, !llfi_index !1116
}

; Function Attrs: nounwind uwtable
define linkonce_odr i32* @_ZSt7forwardIRKiEOT_RNSt16remove_referenceIS2_E4typeE(i32* %__t) #3 {
  %1 = alloca i32*, align 8, !llfi_index !1117
  store i32* %__t, i32** %1, align 8, !llfi_index !1118
  %2 = load i32** %1, align 8, !llfi_index !1119
  ret i32* %2, !llfi_index !1120
}

; Function Attrs: nounwind uwtable
define linkonce_odr void @_ZN9__gnu_cxx13new_allocatorIiE9constructIiJRKiEEEvPT_DpOT0_(%"class.__gnu_cxx::new_allocator.2"* %this, i32* %__p, i32* %__args) #3 align 2 {
  %1 = alloca %"class.__gnu_cxx::new_allocator.2"*, align 8, !llfi_index !1121
  %2 = alloca i32*, align 8, !llfi_index !1122
  %3 = alloca i32*, align 8, !llfi_index !1123
  store %"class.__gnu_cxx::new_allocator.2"* %this, %"class.__gnu_cxx::new_allocator.2"** %1, align 8, !llfi_index !1124
  store i32* %__p, i32** %2, align 8, !llfi_index !1125
  store i32* %__args, i32** %3, align 8, !llfi_index !1126
  %4 = load %"class.__gnu_cxx::new_allocator.2"** %1, !llfi_index !1127
  %5 = load i32** %2, align 8, !llfi_index !1128
  %6 = bitcast i32* %5 to i8*, !llfi_index !1129
  %7 = icmp eq i8* %6, null, !llfi_index !1130
  br i1 %7, label %13, label %8, !llfi_index !1131

; <label>:8                                       ; preds = %0
  %9 = bitcast i8* %6 to i32*, !llfi_index !1132
  %10 = load i32** %3, align 8, !llfi_index !1133
  %11 = call i32* @_ZSt7forwardIRKiEOT_RNSt16remove_referenceIS2_E4typeE(i32* %10) #0, !llfi_index !1134
  %12 = load i32* %11, !llfi_index !1135
  store i32 %12, i32* %9, align 4, !llfi_index !1136
  br label %13, !llfi_index !1137

; <label>:13                                      ; preds = %8, %0
  %14 = phi i32* [ %9, %8 ], [ null, %0 ], !llfi_index !1138
  ret void, !llfi_index !1139
}

; Function Attrs: nounwind uwtable
define linkonce_odr void @_ZN11NodeVisitorD2Ev(%class.NodeVisitor* %this) unnamed_addr #3 align 2 {
  %1 = alloca %class.NodeVisitor*, align 8, !llfi_index !1140
  store %class.NodeVisitor* %this, %class.NodeVisitor** %1, align 8, !llfi_index !1141
  %2 = load %class.NodeVisitor** %1, !llfi_index !1142
  ret void, !llfi_index !1143
}

; Function Attrs: nounwind uwtable
define linkonce_odr void @_ZN11NodeVisitorD0Ev(%class.NodeVisitor* %this) unnamed_addr #3 align 2 {
  %1 = alloca %class.NodeVisitor*, align 8, !llfi_index !1144
  store %class.NodeVisitor* %this, %class.NodeVisitor** %1, align 8, !llfi_index !1145
  %2 = load %class.NodeVisitor** %1, !llfi_index !1146
  call void @_ZN11NodeVisitorD2Ev(%class.NodeVisitor* %2) #0, !llfi_index !1147
  %3 = bitcast %class.NodeVisitor* %2 to i8*, !llfi_index !1148
  call void @_ZdlPv(i8* %3) #10, !llfi_index !1149
  ret void, !llfi_index !1150
}

declare void @__cxa_pure_virtual()

; Function Attrs: nounwind
define internal void @_GLOBAL__I_a() #0 section ".text.startup" {
  call void @__cxx_global_var_init(), !llfi_index !1151
  ret void, !llfi_index !1152
}

attributes #0 = { nounwind }
attributes #1 = { "less-precise-fpmad"="false" "no-frame-pointer-elim"="true" "no-frame-pointer-elim-non-leaf" "no-infs-fp-math"="false" "no-nans-fp-math"="false" "stack-protector-buffer-size"="8" "unsafe-fp-math"="false" "use-soft-float"="false" }
attributes #2 = { nounwind "less-precise-fpmad"="false" "no-frame-pointer-elim"="true" "no-frame-pointer-elim-non-leaf" "no-infs-fp-math"="false" "no-nans-fp-math"="false" "stack-protector-buffer-size"="8" "unsafe-fp-math"="false" "use-soft-float"="false" }
attributes #3 = { nounwind uwtable "less-precise-fpmad"="false" "no-frame-pointer-elim"="true" "no-frame-pointer-elim-non-leaf" "no-infs-fp-math"="false" "no-nans-fp-math"="false" "stack-protector-buffer-size"="8" "unsafe-fp-math"="false" "use-soft-float"="false" }
attributes #4 = { nobuiltin "less-precise-fpmad"="false" "no-frame-pointer-elim"="true" "no-frame-pointer-elim-non-leaf" "no-infs-fp-math"="false" "no-nans-fp-math"="false" "stack-protector-buffer-size"="8" "unsafe-fp-math"="false" "use-soft-float"="false" }
attributes #5 = { inlinehint nounwind uwtable "less-precise-fpmad"="false" "no-frame-pointer-elim"="true" "no-frame-pointer-elim-non-leaf" "no-infs-fp-math"="false" "no-nans-fp-math"="false" "stack-protector-buffer-size"="8" "unsafe-fp-math"="false" "use-soft-float"="false" }
attributes #6 = { nobuiltin nounwind "less-precise-fpmad"="false" "no-frame-pointer-elim"="true" "no-frame-pointer-elim-non-leaf" "no-infs-fp-math"="false" "no-nans-fp-math"="false" "stack-protector-buffer-size"="8" "unsafe-fp-math"="false" "use-soft-float"="false" }
attributes #7 = { noreturn "less-precise-fpmad"="false" "no-frame-pointer-elim"="true" "no-frame-pointer-elim-non-leaf" "no-infs-fp-math"="false" "no-nans-fp-math"="false" "stack-protector-buffer-size"="8" "unsafe-fp-math"="false" "use-soft-float"="false" }
attributes #8 = { builtin }
attributes #9 = { noreturn }
attributes #10 = { builtin nounwind }

!llvm.ident = !{!0}

!0 = metadata !{metadata !"clang version 3.4 (tags/RELEASE_34/final)"}
!1 = metadata !{i64 1}
!2 = metadata !{i64 2}
!3 = metadata !{i64 3}
!4 = metadata !{i64 4}
!5 = metadata !{i64 5}
!6 = metadata !{i64 6}
!7 = metadata !{i64 7}
!8 = metadata !{i64 8}
!9 = metadata !{i64 9}
!10 = metadata !{i64 10}
!11 = metadata !{i64 11}
!12 = metadata !{i64 12}
!13 = metadata !{i64 13}
!14 = metadata !{i64 14}
!15 = metadata !{i64 15}
!16 = metadata !{i64 16}
!17 = metadata !{i64 17}
!18 = metadata !{i64 18}
!19 = metadata !{i64 19}
!20 = metadata !{i64 20}
!21 = metadata !{i64 21}
!22 = metadata !{i64 22}
!23 = metadata !{i64 23}
!24 = metadata !{i64 24}
!25 = metadata !{i64 25}
!26 = metadata !{i64 26}
!27 = metadata !{i64 27}
!28 = metadata !{i64 28}
!29 = metadata !{i64 29}
!30 = metadata !{i64 30}
!31 = metadata !{i64 31}
!32 = metadata !{i64 32}
!33 = metadata !{i64 33}
!34 = metadata !{i64 34}
!35 = metadata !{i64 35}
!36 = metadata !{i64 36}
!37 = metadata !{i64 37}
!38 = metadata !{i64 38}
!39 = metadata !{i64 39}
!40 = metadata !{i64 40}
!41 = metadata !{i64 41}
!42 = metadata !{i64 42}
!43 = metadata !{i64 43}
!44 = metadata !{i64 44}
!45 = metadata !{i64 45}
!46 = metadata !{i64 46}
!47 = metadata !{i64 47}
!48 = metadata !{i64 48}
!49 = metadata !{i64 49}
!50 = metadata !{i64 50}
!51 = metadata !{i64 51}
!52 = metadata !{i64 52}
!53 = metadata !{i64 53}
!54 = metadata !{i64 54}
!55 = metadata !{i64 55}
!56 = metadata !{i64 56}
!57 = metadata !{i64 57}
!58 = metadata !{i64 58}
!59 = metadata !{i64 59}
!60 = metadata !{i64 60}
!61 = metadata !{i64 61}
!62 = metadata !{i64 62}
!63 = metadata !{i64 63}
!64 = metadata !{i64 64}
!65 = metadata !{i64 65}
!66 = metadata !{i64 66}
!67 = metadata !{i64 67}
!68 = metadata !{i64 68}
!69 = metadata !{i64 69}
!70 = metadata !{i64 70}
!71 = metadata !{i64 71}
!72 = metadata !{i64 72}
!73 = metadata !{i64 73}
!74 = metadata !{i64 74}
!75 = metadata !{i64 75}
!76 = metadata !{i64 76}
!77 = metadata !{i64 77}
!78 = metadata !{i64 78}
!79 = metadata !{i64 79}
!80 = metadata !{i64 80}
!81 = metadata !{i64 81}
!82 = metadata !{i64 82}
!83 = metadata !{i64 83}
!84 = metadata !{i64 84}
!85 = metadata !{i64 85}
!86 = metadata !{i64 86}
!87 = metadata !{i64 87}
!88 = metadata !{i64 88}
!89 = metadata !{i64 89}
!90 = metadata !{i64 90}
!91 = metadata !{i64 91}
!92 = metadata !{i64 92}
!93 = metadata !{i64 93}
!94 = metadata !{i64 94}
!95 = metadata !{i64 95}
!96 = metadata !{i64 96}
!97 = metadata !{i64 97}
!98 = metadata !{i64 98}
!99 = metadata !{i64 99}
!100 = metadata !{i64 100}
!101 = metadata !{i64 101}
!102 = metadata !{i64 102}
!103 = metadata !{i64 103}
!104 = metadata !{i64 104}
!105 = metadata !{i64 105}
!106 = metadata !{i64 106}
!107 = metadata !{i64 107}
!108 = metadata !{i64 108}
!109 = metadata !{i64 109}
!110 = metadata !{i64 110}
!111 = metadata !{i64 111}
!112 = metadata !{i64 112}
!113 = metadata !{i64 113}
!114 = metadata !{i64 114}
!115 = metadata !{i64 115}
!116 = metadata !{i64 116}
!117 = metadata !{i64 117}
!118 = metadata !{i64 118}
!119 = metadata !{i64 119}
!120 = metadata !{i64 120}
!121 = metadata !{i64 121}
!122 = metadata !{i64 122}
!123 = metadata !{i64 123}
!124 = metadata !{i64 124}
!125 = metadata !{i64 125}
!126 = metadata !{i64 126}
!127 = metadata !{i64 127}
!128 = metadata !{i64 128}
!129 = metadata !{i64 129}
!130 = metadata !{i64 130}
!131 = metadata !{i64 131}
!132 = metadata !{i64 132}
!133 = metadata !{i64 133}
!134 = metadata !{i64 134}
!135 = metadata !{i64 135}
!136 = metadata !{i64 136}
!137 = metadata !{i64 137}
!138 = metadata !{i64 138}
!139 = metadata !{i64 139}
!140 = metadata !{i64 140}
!141 = metadata !{i64 141}
!142 = metadata !{i64 142}
!143 = metadata !{i64 143}
!144 = metadata !{i64 144}
!145 = metadata !{i64 145}
!146 = metadata !{i64 146}
!147 = metadata !{i64 147}
!148 = metadata !{i64 148}
!149 = metadata !{i64 149}
!150 = metadata !{i64 150}
!151 = metadata !{i64 151}
!152 = metadata !{i64 152}
!153 = metadata !{i64 153}
!154 = metadata !{i64 154}
!155 = metadata !{i64 155}
!156 = metadata !{i64 156}
!157 = metadata !{i64 157}
!158 = metadata !{i64 158}
!159 = metadata !{i64 159}
!160 = metadata !{i64 160}
!161 = metadata !{i64 161}
!162 = metadata !{i64 162}
!163 = metadata !{i64 163}
!164 = metadata !{i64 164}
!165 = metadata !{i64 165}
!166 = metadata !{i64 166}
!167 = metadata !{i64 167}
!168 = metadata !{i64 168}
!169 = metadata !{i64 169}
!170 = metadata !{i64 170}
!171 = metadata !{i64 171}
!172 = metadata !{i64 172}
!173 = metadata !{i64 173}
!174 = metadata !{i64 174}
!175 = metadata !{i64 175}
!176 = metadata !{i64 176}
!177 = metadata !{i64 177}
!178 = metadata !{i64 178}
!179 = metadata !{i64 179}
!180 = metadata !{i64 180}
!181 = metadata !{i64 181}
!182 = metadata !{i64 182}
!183 = metadata !{i64 183}
!184 = metadata !{i64 184}
!185 = metadata !{i64 185}
!186 = metadata !{i64 186}
!187 = metadata !{i64 187}
!188 = metadata !{i64 188}
!189 = metadata !{i64 189}
!190 = metadata !{i64 190}
!191 = metadata !{i64 191}
!192 = metadata !{i64 192}
!193 = metadata !{i64 193}
!194 = metadata !{i64 194}
!195 = metadata !{i64 195}
!196 = metadata !{i64 196}
!197 = metadata !{i64 197}
!198 = metadata !{i64 198}
!199 = metadata !{i64 199}
!200 = metadata !{i64 200}
!201 = metadata !{i64 201}
!202 = metadata !{i64 202}
!203 = metadata !{i64 203}
!204 = metadata !{i64 204}
!205 = metadata !{i64 205}
!206 = metadata !{i64 206}
!207 = metadata !{i64 207}
!208 = metadata !{i64 208}
!209 = metadata !{i64 209}
!210 = metadata !{i64 210}
!211 = metadata !{i64 211}
!212 = metadata !{i64 212}
!213 = metadata !{i64 213}
!214 = metadata !{i64 214}
!215 = metadata !{i64 215}
!216 = metadata !{i64 216}
!217 = metadata !{i64 217}
!218 = metadata !{i64 218}
!219 = metadata !{i64 219}
!220 = metadata !{i64 220}
!221 = metadata !{i64 221}
!222 = metadata !{i64 222}
!223 = metadata !{i64 223}
!224 = metadata !{i64 224}
!225 = metadata !{i64 225}
!226 = metadata !{i64 226}
!227 = metadata !{i64 227}
!228 = metadata !{i64 228}
!229 = metadata !{i64 229}
!230 = metadata !{i64 230}
!231 = metadata !{i64 231}
!232 = metadata !{i64 232}
!233 = metadata !{i64 233}
!234 = metadata !{i64 234}
!235 = metadata !{i64 235}
!236 = metadata !{i64 236}
!237 = metadata !{i64 237}
!238 = metadata !{i64 238}
!239 = metadata !{i64 239}
!240 = metadata !{i64 240}
!241 = metadata !{i64 241}
!242 = metadata !{i64 242}
!243 = metadata !{i64 243}
!244 = metadata !{i64 244}
!245 = metadata !{i64 245}
!246 = metadata !{i64 246}
!247 = metadata !{i64 247}
!248 = metadata !{i64 248}
!249 = metadata !{i64 249}
!250 = metadata !{i64 250}
!251 = metadata !{i64 251}
!252 = metadata !{i64 252}
!253 = metadata !{i64 253}
!254 = metadata !{i64 254}
!255 = metadata !{i64 255}
!256 = metadata !{i64 256}
!257 = metadata !{i64 257}
!258 = metadata !{i64 258}
!259 = metadata !{i64 259}
!260 = metadata !{i64 260}
!261 = metadata !{i64 261}
!262 = metadata !{i64 262}
!263 = metadata !{i64 263}
!264 = metadata !{i64 264}
!265 = metadata !{i64 265}
!266 = metadata !{i64 266}
!267 = metadata !{i64 267}
!268 = metadata !{i64 268}
!269 = metadata !{i64 269}
!270 = metadata !{i64 270}
!271 = metadata !{i64 271}
!272 = metadata !{i64 272}
!273 = metadata !{i64 273}
!274 = metadata !{i64 274}
!275 = metadata !{i64 275}
!276 = metadata !{i64 276}
!277 = metadata !{i64 277}
!278 = metadata !{i64 278}
!279 = metadata !{i64 279}
!280 = metadata !{i64 280}
!281 = metadata !{i64 281}
!282 = metadata !{i64 282}
!283 = metadata !{i64 283}
!284 = metadata !{i64 284}
!285 = metadata !{i64 285}
!286 = metadata !{i64 286}
!287 = metadata !{i64 287}
!288 = metadata !{i64 288}
!289 = metadata !{i64 289}
!290 = metadata !{i64 290}
!291 = metadata !{i64 291}
!292 = metadata !{i64 292}
!293 = metadata !{i64 293}
!294 = metadata !{i64 294}
!295 = metadata !{i64 295}
!296 = metadata !{i64 296}
!297 = metadata !{i64 297}
!298 = metadata !{i64 298}
!299 = metadata !{i64 299}
!300 = metadata !{i64 300}
!301 = metadata !{i64 301}
!302 = metadata !{i64 302}
!303 = metadata !{i64 303}
!304 = metadata !{i64 304}
!305 = metadata !{i64 305}
!306 = metadata !{i64 306}
!307 = metadata !{i64 307}
!308 = metadata !{i64 308}
!309 = metadata !{i64 309}
!310 = metadata !{i64 310}
!311 = metadata !{i64 311}
!312 = metadata !{i64 312}
!313 = metadata !{i64 313}
!314 = metadata !{i64 314}
!315 = metadata !{i64 315}
!316 = metadata !{i64 316}
!317 = metadata !{i64 317}
!318 = metadata !{i64 318}
!319 = metadata !{i64 319}
!320 = metadata !{i64 320}
!321 = metadata !{i64 321}
!322 = metadata !{i64 322}
!323 = metadata !{i64 323}
!324 = metadata !{i64 324}
!325 = metadata !{i64 325}
!326 = metadata !{i64 326}
!327 = metadata !{i64 327}
!328 = metadata !{i64 328}
!329 = metadata !{i64 329}
!330 = metadata !{i64 330}
!331 = metadata !{i64 331}
!332 = metadata !{i64 332}
!333 = metadata !{i64 333}
!334 = metadata !{i64 334}
!335 = metadata !{i64 335}
!336 = metadata !{i64 336}
!337 = metadata !{i64 337}
!338 = metadata !{i64 338}
!339 = metadata !{i64 339}
!340 = metadata !{i64 340}
!341 = metadata !{i64 341}
!342 = metadata !{i64 342}
!343 = metadata !{i64 343}
!344 = metadata !{i64 344}
!345 = metadata !{i64 345}
!346 = metadata !{i64 346}
!347 = metadata !{i64 347}
!348 = metadata !{i64 348}
!349 = metadata !{i64 349}
!350 = metadata !{i64 350}
!351 = metadata !{i64 351}
!352 = metadata !{i64 352}
!353 = metadata !{i64 353}
!354 = metadata !{i64 354}
!355 = metadata !{i64 355}
!356 = metadata !{i64 356}
!357 = metadata !{i64 357}
!358 = metadata !{i64 358}
!359 = metadata !{i64 359}
!360 = metadata !{i64 360}
!361 = metadata !{i64 361}
!362 = metadata !{i64 362}
!363 = metadata !{i64 363}
!364 = metadata !{i64 364}
!365 = metadata !{i64 365}
!366 = metadata !{i64 366}
!367 = metadata !{i64 367}
!368 = metadata !{i64 368}
!369 = metadata !{i64 369}
!370 = metadata !{i64 370}
!371 = metadata !{i64 371}
!372 = metadata !{i64 372}
!373 = metadata !{i64 373}
!374 = metadata !{i64 374}
!375 = metadata !{i64 375}
!376 = metadata !{i64 376}
!377 = metadata !{i64 377}
!378 = metadata !{i64 378}
!379 = metadata !{i64 379}
!380 = metadata !{i64 380}
!381 = metadata !{i64 381}
!382 = metadata !{i64 382}
!383 = metadata !{i64 383}
!384 = metadata !{i64 384}
!385 = metadata !{i64 385}
!386 = metadata !{i64 386}
!387 = metadata !{i64 387}
!388 = metadata !{i64 388}
!389 = metadata !{i64 389}
!390 = metadata !{i64 390}
!391 = metadata !{i64 391}
!392 = metadata !{i64 392}
!393 = metadata !{i64 393}
!394 = metadata !{i64 394}
!395 = metadata !{i64 395}
!396 = metadata !{i64 396}
!397 = metadata !{i64 397}
!398 = metadata !{i64 398}
!399 = metadata !{i64 399}
!400 = metadata !{i64 400}
!401 = metadata !{i64 401}
!402 = metadata !{i64 402}
!403 = metadata !{i64 403}
!404 = metadata !{i64 404}
!405 = metadata !{i64 405}
!406 = metadata !{i64 406}
!407 = metadata !{i64 407}
!408 = metadata !{i64 408}
!409 = metadata !{i64 409}
!410 = metadata !{i64 410}
!411 = metadata !{i64 411}
!412 = metadata !{i64 412}
!413 = metadata !{i64 413}
!414 = metadata !{i64 414}
!415 = metadata !{i64 415}
!416 = metadata !{i64 416}
!417 = metadata !{i64 417}
!418 = metadata !{i64 418}
!419 = metadata !{i64 419}
!420 = metadata !{i64 420}
!421 = metadata !{i64 421}
!422 = metadata !{i64 422}
!423 = metadata !{i64 423}
!424 = metadata !{i64 424}
!425 = metadata !{i64 425}
!426 = metadata !{i64 426}
!427 = metadata !{i64 427}
!428 = metadata !{i64 428}
!429 = metadata !{i64 429}
!430 = metadata !{i64 430}
!431 = metadata !{i64 431}
!432 = metadata !{i64 432}
!433 = metadata !{i64 433}
!434 = metadata !{i64 434}
!435 = metadata !{i64 435}
!436 = metadata !{i64 436}
!437 = metadata !{i64 437}
!438 = metadata !{i64 438}
!439 = metadata !{i64 439}
!440 = metadata !{i64 440}
!441 = metadata !{i64 441}
!442 = metadata !{i64 442}
!443 = metadata !{i64 443}
!444 = metadata !{i64 444}
!445 = metadata !{i64 445}
!446 = metadata !{i64 446}
!447 = metadata !{i64 447}
!448 = metadata !{i64 448}
!449 = metadata !{i64 449}
!450 = metadata !{i64 450}
!451 = metadata !{i64 451}
!452 = metadata !{i64 452}
!453 = metadata !{i64 453}
!454 = metadata !{i64 454}
!455 = metadata !{i64 455}
!456 = metadata !{i64 456}
!457 = metadata !{i64 457}
!458 = metadata !{i64 458}
!459 = metadata !{i64 459}
!460 = metadata !{i64 460}
!461 = metadata !{i64 461}
!462 = metadata !{i64 462}
!463 = metadata !{i64 463}
!464 = metadata !{i64 464}
!465 = metadata !{i64 465}
!466 = metadata !{i64 466}
!467 = metadata !{i64 467}
!468 = metadata !{i64 468}
!469 = metadata !{i64 469}
!470 = metadata !{i64 470}
!471 = metadata !{i64 471}
!472 = metadata !{i64 472}
!473 = metadata !{i64 473}
!474 = metadata !{i64 474}
!475 = metadata !{i64 475}
!476 = metadata !{i64 476}
!477 = metadata !{i64 477}
!478 = metadata !{i64 478}
!479 = metadata !{i64 479}
!480 = metadata !{i64 480}
!481 = metadata !{i64 481}
!482 = metadata !{i64 482}
!483 = metadata !{i64 483}
!484 = metadata !{i64 484}
!485 = metadata !{i64 485}
!486 = metadata !{i64 486}
!487 = metadata !{i64 487}
!488 = metadata !{i64 488}
!489 = metadata !{i64 489}
!490 = metadata !{i64 490}
!491 = metadata !{i64 491}
!492 = metadata !{i64 492}
!493 = metadata !{i64 493}
!494 = metadata !{i64 494}
!495 = metadata !{i64 495}
!496 = metadata !{i64 496}
!497 = metadata !{i64 497}
!498 = metadata !{i64 498}
!499 = metadata !{i64 499}
!500 = metadata !{i64 500}
!501 = metadata !{i64 501}
!502 = metadata !{i64 502}
!503 = metadata !{i64 503}
!504 = metadata !{i64 504}
!505 = metadata !{i64 505}
!506 = metadata !{i64 506}
!507 = metadata !{i64 507}
!508 = metadata !{i64 508}
!509 = metadata !{i64 509}
!510 = metadata !{i64 510}
!511 = metadata !{i64 511}
!512 = metadata !{i64 512}
!513 = metadata !{i64 513}
!514 = metadata !{i64 514}
!515 = metadata !{i64 515}
!516 = metadata !{i64 516}
!517 = metadata !{i64 517}
!518 = metadata !{i64 518}
!519 = metadata !{i64 519}
!520 = metadata !{i64 520}
!521 = metadata !{i64 521}
!522 = metadata !{i64 522}
!523 = metadata !{i64 523}
!524 = metadata !{i64 524}
!525 = metadata !{i64 525}
!526 = metadata !{i64 526}
!527 = metadata !{i64 527}
!528 = metadata !{i64 528}
!529 = metadata !{i64 529}
!530 = metadata !{i64 530}
!531 = metadata !{i64 531}
!532 = metadata !{i64 532}
!533 = metadata !{i64 533}
!534 = metadata !{i64 534}
!535 = metadata !{i64 535}
!536 = metadata !{i64 536}
!537 = metadata !{i64 537}
!538 = metadata !{i64 538}
!539 = metadata !{i64 539}
!540 = metadata !{i64 540}
!541 = metadata !{i64 541}
!542 = metadata !{i64 542}
!543 = metadata !{i64 543}
!544 = metadata !{i64 544}
!545 = metadata !{i64 545}
!546 = metadata !{i64 546}
!547 = metadata !{i64 547}
!548 = metadata !{i64 548}
!549 = metadata !{i64 549}
!550 = metadata !{i64 550}
!551 = metadata !{i64 551}
!552 = metadata !{i64 552}
!553 = metadata !{i64 553}
!554 = metadata !{i64 554}
!555 = metadata !{i64 555}
!556 = metadata !{i64 556}
!557 = metadata !{i64 557}
!558 = metadata !{i64 558}
!559 = metadata !{i64 559}
!560 = metadata !{i64 560}
!561 = metadata !{i64 561}
!562 = metadata !{i64 562}
!563 = metadata !{i64 563}
!564 = metadata !{i64 564}
!565 = metadata !{i64 565}
!566 = metadata !{i64 566}
!567 = metadata !{i64 567}
!568 = metadata !{i64 568}
!569 = metadata !{i64 569}
!570 = metadata !{i64 570}
!571 = metadata !{i64 571}
!572 = metadata !{i64 572}
!573 = metadata !{i64 573}
!574 = metadata !{i64 574}
!575 = metadata !{i64 575}
!576 = metadata !{i64 576}
!577 = metadata !{i64 577}
!578 = metadata !{i64 578}
!579 = metadata !{i64 579}
!580 = metadata !{i64 580}
!581 = metadata !{i64 581}
!582 = metadata !{i64 582}
!583 = metadata !{i64 583}
!584 = metadata !{i64 584}
!585 = metadata !{i64 585}
!586 = metadata !{i64 586}
!587 = metadata !{i64 587}
!588 = metadata !{i64 588}
!589 = metadata !{i64 589}
!590 = metadata !{i64 590}
!591 = metadata !{i64 591}
!592 = metadata !{i64 592}
!593 = metadata !{i64 593}
!594 = metadata !{i64 594}
!595 = metadata !{i64 595}
!596 = metadata !{i64 596}
!597 = metadata !{i64 597}
!598 = metadata !{i64 598}
!599 = metadata !{i64 599}
!600 = metadata !{i64 600}
!601 = metadata !{i64 601}
!602 = metadata !{i64 602}
!603 = metadata !{i64 603}
!604 = metadata !{i64 604}
!605 = metadata !{i64 605}
!606 = metadata !{i64 606}
!607 = metadata !{i64 607}
!608 = metadata !{i64 608}
!609 = metadata !{i64 609}
!610 = metadata !{i64 610}
!611 = metadata !{i64 611}
!612 = metadata !{i64 612}
!613 = metadata !{i64 613}
!614 = metadata !{i64 614}
!615 = metadata !{i64 615}
!616 = metadata !{i64 616}
!617 = metadata !{i64 617}
!618 = metadata !{i64 618}
!619 = metadata !{i64 619}
!620 = metadata !{i64 620}
!621 = metadata !{i64 621}
!622 = metadata !{i64 622}
!623 = metadata !{i64 623}
!624 = metadata !{i64 624}
!625 = metadata !{i64 625}
!626 = metadata !{i64 626}
!627 = metadata !{i64 627}
!628 = metadata !{i64 628}
!629 = metadata !{i64 629}
!630 = metadata !{i64 630}
!631 = metadata !{i64 631}
!632 = metadata !{i64 632}
!633 = metadata !{i64 633}
!634 = metadata !{i64 634}
!635 = metadata !{i64 635}
!636 = metadata !{i64 636}
!637 = metadata !{i64 637}
!638 = metadata !{i64 638}
!639 = metadata !{i64 639}
!640 = metadata !{i64 640}
!641 = metadata !{i64 641}
!642 = metadata !{i64 642}
!643 = metadata !{i64 643}
!644 = metadata !{i64 644}
!645 = metadata !{i64 645}
!646 = metadata !{i64 646}
!647 = metadata !{i64 647}
!648 = metadata !{i64 648}
!649 = metadata !{i64 649}
!650 = metadata !{i64 650}
!651 = metadata !{i64 651}
!652 = metadata !{i64 652}
!653 = metadata !{i64 653}
!654 = metadata !{i64 654}
!655 = metadata !{i64 655}
!656 = metadata !{i64 656}
!657 = metadata !{i64 657}
!658 = metadata !{i64 658}
!659 = metadata !{i64 659}
!660 = metadata !{i64 660}
!661 = metadata !{i64 661}
!662 = metadata !{i64 662}
!663 = metadata !{i64 663}
!664 = metadata !{i64 664}
!665 = metadata !{i64 665}
!666 = metadata !{i64 666}
!667 = metadata !{i64 667}
!668 = metadata !{i64 668}
!669 = metadata !{i64 669}
!670 = metadata !{i64 670}
!671 = metadata !{i64 671}
!672 = metadata !{i64 672}
!673 = metadata !{i64 673}
!674 = metadata !{i64 674}
!675 = metadata !{i64 675}
!676 = metadata !{i64 676}
!677 = metadata !{i64 677}
!678 = metadata !{i64 678}
!679 = metadata !{i64 679}
!680 = metadata !{i64 680}
!681 = metadata !{i64 681}
!682 = metadata !{i64 682}
!683 = metadata !{i64 683}
!684 = metadata !{i64 684}
!685 = metadata !{i64 685}
!686 = metadata !{i64 686}
!687 = metadata !{i64 687}
!688 = metadata !{i64 688}
!689 = metadata !{i64 689}
!690 = metadata !{i64 690}
!691 = metadata !{i64 691}
!692 = metadata !{i64 692}
!693 = metadata !{i64 693}
!694 = metadata !{i64 694}
!695 = metadata !{i64 695}
!696 = metadata !{i64 696}
!697 = metadata !{i64 697}
!698 = metadata !{i64 698}
!699 = metadata !{i64 699}
!700 = metadata !{i64 700}
!701 = metadata !{i64 701}
!702 = metadata !{i64 702}
!703 = metadata !{i64 703}
!704 = metadata !{i64 704}
!705 = metadata !{i64 705}
!706 = metadata !{i64 706}
!707 = metadata !{i64 707}
!708 = metadata !{i64 708}
!709 = metadata !{i64 709}
!710 = metadata !{i64 710}
!711 = metadata !{i64 711}
!712 = metadata !{i64 712}
!713 = metadata !{i64 713}
!714 = metadata !{i64 714}
!715 = metadata !{i64 715}
!716 = metadata !{i64 716}
!717 = metadata !{i64 717}
!718 = metadata !{i64 718}
!719 = metadata !{i64 719}
!720 = metadata !{i64 720}
!721 = metadata !{i64 721}
!722 = metadata !{i64 722}
!723 = metadata !{i64 723}
!724 = metadata !{i64 724}
!725 = metadata !{i64 725}
!726 = metadata !{i64 726}
!727 = metadata !{i64 727}
!728 = metadata !{i64 728}
!729 = metadata !{i64 729}
!730 = metadata !{i64 730}
!731 = metadata !{i64 731}
!732 = metadata !{i64 732}
!733 = metadata !{i64 733}
!734 = metadata !{i64 734}
!735 = metadata !{i64 735}
!736 = metadata !{i64 736}
!737 = metadata !{i64 737}
!738 = metadata !{i64 738}
!739 = metadata !{i64 739}
!740 = metadata !{i64 740}
!741 = metadata !{i64 741}
!742 = metadata !{i64 742}
!743 = metadata !{i64 743}
!744 = metadata !{i64 744}
!745 = metadata !{i64 745}
!746 = metadata !{i64 746}
!747 = metadata !{i64 747}
!748 = metadata !{i64 748}
!749 = metadata !{i64 749}
!750 = metadata !{i64 750}
!751 = metadata !{i64 751}
!752 = metadata !{i64 752}
!753 = metadata !{i64 753}
!754 = metadata !{i64 754}
!755 = metadata !{i64 755}
!756 = metadata !{i64 756}
!757 = metadata !{i64 757}
!758 = metadata !{i64 758}
!759 = metadata !{i64 759}
!760 = metadata !{i64 760}
!761 = metadata !{i64 761}
!762 = metadata !{i64 762}
!763 = metadata !{i64 763}
!764 = metadata !{i64 764}
!765 = metadata !{i64 765}
!766 = metadata !{i64 766}
!767 = metadata !{i64 767}
!768 = metadata !{i64 768}
!769 = metadata !{i64 769}
!770 = metadata !{i64 770}
!771 = metadata !{i64 771}
!772 = metadata !{i64 772}
!773 = metadata !{i64 773}
!774 = metadata !{i64 774}
!775 = metadata !{i64 775}
!776 = metadata !{i64 776}
!777 = metadata !{i64 777}
!778 = metadata !{i64 778}
!779 = metadata !{i64 779}
!780 = metadata !{i64 780}
!781 = metadata !{i64 781}
!782 = metadata !{i64 782}
!783 = metadata !{i64 783}
!784 = metadata !{i64 784}
!785 = metadata !{i64 785}
!786 = metadata !{i64 786}
!787 = metadata !{i64 787}
!788 = metadata !{i64 788}
!789 = metadata !{i64 789}
!790 = metadata !{i64 790}
!791 = metadata !{i64 791}
!792 = metadata !{i64 792}
!793 = metadata !{i64 793}
!794 = metadata !{i64 794}
!795 = metadata !{i64 795}
!796 = metadata !{i64 796}
!797 = metadata !{i64 797}
!798 = metadata !{i64 798}
!799 = metadata !{i64 799}
!800 = metadata !{i64 800}
!801 = metadata !{i64 801}
!802 = metadata !{i64 802}
!803 = metadata !{i64 803}
!804 = metadata !{i64 804}
!805 = metadata !{i64 805}
!806 = metadata !{i64 806}
!807 = metadata !{i64 807}
!808 = metadata !{i64 808}
!809 = metadata !{i64 809}
!810 = metadata !{i64 810}
!811 = metadata !{i64 811}
!812 = metadata !{i64 812}
!813 = metadata !{i64 813}
!814 = metadata !{i64 814}
!815 = metadata !{i64 815}
!816 = metadata !{i64 816}
!817 = metadata !{i64 817}
!818 = metadata !{i64 818}
!819 = metadata !{i64 819}
!820 = metadata !{i64 820}
!821 = metadata !{i64 821}
!822 = metadata !{i64 822}
!823 = metadata !{i64 823}
!824 = metadata !{i64 824}
!825 = metadata !{i64 825}
!826 = metadata !{i64 826}
!827 = metadata !{i64 827}
!828 = metadata !{i64 828}
!829 = metadata !{i64 829}
!830 = metadata !{i64 830}
!831 = metadata !{i64 831}
!832 = metadata !{i64 832}
!833 = metadata !{i64 833}
!834 = metadata !{i64 834}
!835 = metadata !{i64 835}
!836 = metadata !{i64 836}
!837 = metadata !{i64 837}
!838 = metadata !{i64 838}
!839 = metadata !{i64 839}
!840 = metadata !{i64 840}
!841 = metadata !{i64 841}
!842 = metadata !{i64 842}
!843 = metadata !{i64 843}
!844 = metadata !{i64 844}
!845 = metadata !{i64 845}
!846 = metadata !{i64 846}
!847 = metadata !{i64 847}
!848 = metadata !{i64 848}
!849 = metadata !{i64 849}
!850 = metadata !{i64 850}
!851 = metadata !{i64 851}
!852 = metadata !{i64 852}
!853 = metadata !{i64 853}
!854 = metadata !{i64 854}
!855 = metadata !{i64 855}
!856 = metadata !{i64 856}
!857 = metadata !{i64 857}
!858 = metadata !{i64 858}
!859 = metadata !{i64 859}
!860 = metadata !{i64 860}
!861 = metadata !{i64 861}
!862 = metadata !{i64 862}
!863 = metadata !{i64 863}
!864 = metadata !{i64 864}
!865 = metadata !{i64 865}
!866 = metadata !{i64 866}
!867 = metadata !{i64 867}
!868 = metadata !{i64 868}
!869 = metadata !{i64 869}
!870 = metadata !{i64 870}
!871 = metadata !{i64 871}
!872 = metadata !{i64 872}
!873 = metadata !{i64 873}
!874 = metadata !{i64 874}
!875 = metadata !{i64 875}
!876 = metadata !{i64 876}
!877 = metadata !{i64 877}
!878 = metadata !{i64 878}
!879 = metadata !{i64 879}
!880 = metadata !{i64 880}
!881 = metadata !{i64 881}
!882 = metadata !{i64 882}
!883 = metadata !{i64 883}
!884 = metadata !{i64 884}
!885 = metadata !{i64 885}
!886 = metadata !{i64 886}
!887 = metadata !{i64 887}
!888 = metadata !{i64 888}
!889 = metadata !{i64 889}
!890 = metadata !{i64 890}
!891 = metadata !{i64 891}
!892 = metadata !{i64 892}
!893 = metadata !{i64 893}
!894 = metadata !{i64 894}
!895 = metadata !{i64 895}
!896 = metadata !{i64 896}
!897 = metadata !{i64 897}
!898 = metadata !{i64 898}
!899 = metadata !{i64 899}
!900 = metadata !{i64 900}
!901 = metadata !{i64 901}
!902 = metadata !{i64 902}
!903 = metadata !{i64 903}
!904 = metadata !{i64 904}
!905 = metadata !{i64 905}
!906 = metadata !{i64 906}
!907 = metadata !{i64 907}
!908 = metadata !{i64 908}
!909 = metadata !{i64 909}
!910 = metadata !{i64 910}
!911 = metadata !{i64 911}
!912 = metadata !{i64 912}
!913 = metadata !{i64 913}
!914 = metadata !{i64 914}
!915 = metadata !{i64 915}
!916 = metadata !{i64 916}
!917 = metadata !{i64 917}
!918 = metadata !{i64 918}
!919 = metadata !{i64 919}
!920 = metadata !{i64 920}
!921 = metadata !{i64 921}
!922 = metadata !{i64 922}
!923 = metadata !{i64 923}
!924 = metadata !{i64 924}
!925 = metadata !{i64 925}
!926 = metadata !{i64 926}
!927 = metadata !{i64 927}
!928 = metadata !{i64 928}
!929 = metadata !{i64 929}
!930 = metadata !{i64 930}
!931 = metadata !{i64 931}
!932 = metadata !{i64 932}
!933 = metadata !{i64 933}
!934 = metadata !{i64 934}
!935 = metadata !{i64 935}
!936 = metadata !{i64 936}
!937 = metadata !{i64 937}
!938 = metadata !{i64 938}
!939 = metadata !{i64 939}
!940 = metadata !{i64 940}
!941 = metadata !{i64 941}
!942 = metadata !{i64 942}
!943 = metadata !{i64 943}
!944 = metadata !{i64 944}
!945 = metadata !{i64 945}
!946 = metadata !{i64 946}
!947 = metadata !{i64 947}
!948 = metadata !{i64 948}
!949 = metadata !{i64 949}
!950 = metadata !{i64 950}
!951 = metadata !{i64 951}
!952 = metadata !{i64 952}
!953 = metadata !{i64 953}
!954 = metadata !{i64 954}
!955 = metadata !{i64 955}
!956 = metadata !{i64 956}
!957 = metadata !{i64 957}
!958 = metadata !{i64 958}
!959 = metadata !{i64 959}
!960 = metadata !{i64 960}
!961 = metadata !{i64 961}
!962 = metadata !{i64 962}
!963 = metadata !{i64 963}
!964 = metadata !{i64 964}
!965 = metadata !{i64 965}
!966 = metadata !{i64 966}
!967 = metadata !{i64 967}
!968 = metadata !{i64 968}
!969 = metadata !{i64 969}
!970 = metadata !{i64 970}
!971 = metadata !{i64 971}
!972 = metadata !{i64 972}
!973 = metadata !{i64 973}
!974 = metadata !{i64 974}
!975 = metadata !{i64 975}
!976 = metadata !{i64 976}
!977 = metadata !{i64 977}
!978 = metadata !{i64 978}
!979 = metadata !{i64 979}
!980 = metadata !{i64 980}
!981 = metadata !{i64 981}
!982 = metadata !{i64 982}
!983 = metadata !{i64 983}
!984 = metadata !{i64 984}
!985 = metadata !{i64 985}
!986 = metadata !{i64 986}
!987 = metadata !{i64 987}
!988 = metadata !{i64 988}
!989 = metadata !{i64 989}
!990 = metadata !{i64 990}
!991 = metadata !{i64 991}
!992 = metadata !{i64 992}
!993 = metadata !{i64 993}
!994 = metadata !{i64 994}
!995 = metadata !{i64 995}
!996 = metadata !{i64 996}
!997 = metadata !{i64 997}
!998 = metadata !{i64 998}
!999 = metadata !{i64 999}
!1000 = metadata !{i64 1000}
!1001 = metadata !{i64 1001}
!1002 = metadata !{i64 1002}
!1003 = metadata !{i64 1003}
!1004 = metadata !{i64 1004}
!1005 = metadata !{i64 1005}
!1006 = metadata !{i64 1006}
!1007 = metadata !{i64 1007}
!1008 = metadata !{i64 1008}
!1009 = metadata !{i64 1009}
!1010 = metadata !{i64 1010}
!1011 = metadata !{i64 1011}
!1012 = metadata !{i64 1012}
!1013 = metadata !{i64 1013}
!1014 = metadata !{i64 1014}
!1015 = metadata !{i64 1015}
!1016 = metadata !{i64 1016}
!1017 = metadata !{i64 1017}
!1018 = metadata !{i64 1018}
!1019 = metadata !{i64 1019}
!1020 = metadata !{i64 1020}
!1021 = metadata !{i64 1021}
!1022 = metadata !{i64 1022}
!1023 = metadata !{i64 1023}
!1024 = metadata !{i64 1024}
!1025 = metadata !{i64 1025}
!1026 = metadata !{i64 1026}
!1027 = metadata !{i64 1027}
!1028 = metadata !{i64 1028}
!1029 = metadata !{i64 1029}
!1030 = metadata !{i64 1030}
!1031 = metadata !{i64 1031}
!1032 = metadata !{i64 1032}
!1033 = metadata !{i64 1033}
!1034 = metadata !{i64 1034}
!1035 = metadata !{i64 1035}
!1036 = metadata !{i64 1036}
!1037 = metadata !{i64 1037}
!1038 = metadata !{i64 1038}
!1039 = metadata !{i64 1039}
!1040 = metadata !{i64 1040}
!1041 = metadata !{i64 1041}
!1042 = metadata !{i64 1042}
!1043 = metadata !{i64 1043}
!1044 = metadata !{i64 1044}
!1045 = metadata !{i64 1045}
!1046 = metadata !{i64 1046}
!1047 = metadata !{i64 1047}
!1048 = metadata !{i64 1048}
!1049 = metadata !{i64 1049}
!1050 = metadata !{i64 1050}
!1051 = metadata !{i64 1051}
!1052 = metadata !{i64 1052}
!1053 = metadata !{i64 1053}
!1054 = metadata !{i64 1054}
!1055 = metadata !{i64 1055}
!1056 = metadata !{i64 1056}
!1057 = metadata !{i64 1057}
!1058 = metadata !{i64 1058}
!1059 = metadata !{i64 1059}
!1060 = metadata !{i64 1060}
!1061 = metadata !{i64 1061}
!1062 = metadata !{i64 1062}
!1063 = metadata !{i64 1063}
!1064 = metadata !{i64 1064}
!1065 = metadata !{i64 1065}
!1066 = metadata !{i64 1066}
!1067 = metadata !{i64 1067}
!1068 = metadata !{i64 1068}
!1069 = metadata !{i64 1069}
!1070 = metadata !{i64 1070}
!1071 = metadata !{i64 1071}
!1072 = metadata !{i64 1072}
!1073 = metadata !{i64 1073}
!1074 = metadata !{i64 1074}
!1075 = metadata !{i64 1075}
!1076 = metadata !{i64 1076}
!1077 = metadata !{i64 1077}
!1078 = metadata !{i64 1078}
!1079 = metadata !{i64 1079}
!1080 = metadata !{i64 1080}
!1081 = metadata !{i64 1081}
!1082 = metadata !{i64 1082}
!1083 = metadata !{i64 1083}
!1084 = metadata !{i64 1084}
!1085 = metadata !{i64 1085}
!1086 = metadata !{i64 1086}
!1087 = metadata !{i64 1087}
!1088 = metadata !{i64 1088}
!1089 = metadata !{i64 1089}
!1090 = metadata !{i64 1090}
!1091 = metadata !{i64 1091}
!1092 = metadata !{i64 1092}
!1093 = metadata !{i64 1093}
!1094 = metadata !{i64 1094}
!1095 = metadata !{i64 1095}
!1096 = metadata !{i64 1096}
!1097 = metadata !{i64 1097}
!1098 = metadata !{i64 1098}
!1099 = metadata !{i64 1099}
!1100 = metadata !{i64 1100}
!1101 = metadata !{i64 1101}
!1102 = metadata !{i64 1102}
!1103 = metadata !{i64 1103}
!1104 = metadata !{i64 1104}
!1105 = metadata !{i64 1105}
!1106 = metadata !{i64 1106}
!1107 = metadata !{i64 1107}
!1108 = metadata !{i64 1108}
!1109 = metadata !{i64 1109}
!1110 = metadata !{i64 1110}
!1111 = metadata !{i64 1111}
!1112 = metadata !{i64 1112}
!1113 = metadata !{i64 1113}
!1114 = metadata !{i64 1114}
!1115 = metadata !{i64 1115}
!1116 = metadata !{i64 1116}
!1117 = metadata !{i64 1117}
!1118 = metadata !{i64 1118}
!1119 = metadata !{i64 1119}
!1120 = metadata !{i64 1120}
!1121 = metadata !{i64 1121}
!1122 = metadata !{i64 1122}
!1123 = metadata !{i64 1123}
!1124 = metadata !{i64 1124}
!1125 = metadata !{i64 1125}
!1126 = metadata !{i64 1126}
!1127 = metadata !{i64 1127}
!1128 = metadata !{i64 1128}
!1129 = metadata !{i64 1129}
!1130 = metadata !{i64 1130}
!1131 = metadata !{i64 1131}
!1132 = metadata !{i64 1132}
!1133 = metadata !{i64 1133}
!1134 = metadata !{i64 1134}
!1135 = metadata !{i64 1135}
!1136 = metadata !{i64 1136}
!1137 = metadata !{i64 1137}
!1138 = metadata !{i64 1138}
!1139 = metadata !{i64 1139}
!1140 = metadata !{i64 1140}
!1141 = metadata !{i64 1141}
!1142 = metadata !{i64 1142}
!1143 = metadata !{i64 1143}
!1144 = metadata !{i64 1144}
!1145 = metadata !{i64 1145}
!1146 = metadata !{i64 1146}
!1147 = metadata !{i64 1147}
!1148 = metadata !{i64 1148}
!1149 = metadata !{i64 1149}
!1150 = metadata !{i64 1150}
!1151 = metadata !{i64 1151}
!1152 = metadata !{i64 1152}
