; ModuleID = '/home/foo/ResearchAlgorithms/llfi/bfs_21_bottom_up-llfi_index.ll'
target datalayout = "e-p:64:64:64-i1:8:8-i8:8:8-i16:16:16-i32:32:32-i64:64:64-f32:32:32-f64:64:64-v64:64:64-v128:128:128-a0:0:64-s0:64:64-f80:128:128-n8:16:32:64-S128"
target triple = "x86_64-unknown-linux-gnu"

%"class.std::ios_base::Init" = type { i8 }
%"class.std::basic_ostream" = type { i32 (...)**, %"class.std::basic_ios" }
%"class.std::basic_ios" = type { %"class.std::ios_base", %"class.std::basic_ostream"*, i8, i8, %"class.std::basic_streambuf"*, %"class.std::ctype"*, %"class.std::num_put"*, %"class.std::num_get"* }
%"class.std::ios_base" = type { i32 (...)**, i64, i64, i32, i32, i32, %"struct.std::ios_base::_Callback_list"*, %"struct.std::ios_base::_Words", [8 x %"struct.std::ios_base::_Words"], i32, %"struct.std::ios_base::_Words"*, %"class.std::locale" }
%"struct.std::ios_base::_Callback_list" = type { %"struct.std::ios_base::_Callback_list"*, void (i32, %"class.std::ios_base"*, i32)*, i32, i32 }
%"struct.std::ios_base::_Words" = type { i8*, i64 }
%"class.std::locale" = type { %"class.std::locale::_Impl"* }
%"class.std::locale::_Impl" = type { i32, %"class.std::locale::facet"**, i64, %"class.std::locale::facet"**, i8** }
%"class.std::locale::facet" = type { i32 (...)**, i32 }
%"class.std::basic_streambuf" = type { i32 (...)**, i8*, i8*, i8*, i8*, i8*, i8*, %"class.std::locale" }
%"class.std::ctype" = type { %"class.std::locale::facet", %struct.__locale_struct*, i8, i32*, i32*, i16*, i8, [256 x i8], [256 x i8], i8 }
%struct.__locale_struct = type { [13 x %struct.__locale_data*], i16*, i32*, i32*, [13 x i8*] }
%struct.__locale_data = type opaque
%"class.std::num_put" = type { %"class.std::locale::facet" }
%"class.std::num_get" = type { %"class.std::locale::facet" }
%"struct.std::piecewise_construct_t" = type { i8 }
%struct.Node = type { i32, %struct.Node*, %struct.Node*, %struct.Node* }
%"class.std::vector" = type { %"struct.std::_Vector_base" }
%"struct.std::_Vector_base" = type { %"struct.std::_Vector_base<Node *, std::allocator<Node *> >::_Vector_impl" }
%"struct.std::_Vector_base<Node *, std::allocator<Node *> >::_Vector_impl" = type { %struct.Node**, %struct.Node**, %struct.Node** }
%"class.std::vector.0" = type { %"struct.std::_Vector_base.1" }
%"struct.std::_Vector_base.1" = type { %"struct.std::_Vector_base<int, std::allocator<int> >::_Vector_impl" }
%"struct.std::_Vector_base<int, std::allocator<int> >::_Vector_impl" = type { i32*, i32*, i32* }
%"class.std::map" = type { %"class.std::_Rb_tree" }
%"class.std::_Rb_tree" = type { %"struct.std::_Rb_tree<Node *, std::pair<Node *const, int>, std::_Select1st<std::pair<Node *const, int> >, std::less<Node *>, std::allocator<std::pair<Node *const, int> > >::_Rb_tree_impl" }
%"struct.std::_Rb_tree<Node *, std::pair<Node *const, int>, std::_Select1st<std::pair<Node *const, int> >, std::less<Node *>, std::allocator<std::pair<Node *const, int> > >::_Rb_tree_impl" = type { %"struct.std::less", %"struct.std::_Rb_tree_node_base", i64 }
%"struct.std::less" = type { i8 }
%"struct.std::_Rb_tree_node_base" = type { i32, %"struct.std::_Rb_tree_node_base"*, %"struct.std::_Rb_tree_node_base"*, %"struct.std::_Rb_tree_node_base"* }
%"class.__gnu_cxx::__normal_iterator" = type { %struct.Node** }
%"class.__gnu_cxx::__normal_iterator.8" = type { %struct.Node** }
%"struct.std::_Rb_tree_iterator" = type { %"struct.std::_Rb_tree_node_base"* }
%"struct.std::_Rb_tree_const_iterator" = type { %"struct.std::_Rb_tree_node_base"* }
%"class.std::tuple" = type { %"struct.std::_Tuple_impl" }
%"struct.std::_Tuple_impl" = type { %"struct.std::_Head_base" }
%"struct.std::_Head_base" = type { %struct.Node** }
%"class.std::tuple.14" = type { i8 }
%"struct.std::pair" = type { %struct.Node*, i32 }
%"class.std::allocator" = type { i8 }
%"class.std::allocator.2" = type { i8 }
%"class.std::__cxx11::basic_string" = type { %"struct.std::__cxx11::basic_string<char, std::char_traits<char>, std::allocator<char> >::_Alloc_hider", i64, %union.anon }
%"struct.std::__cxx11::basic_string<char, std::char_traits<char>, std::allocator<char> >::_Alloc_hider" = type { i8* }
%union.anon = type { i64, [8 x i8] }
%"class.std::allocator.9" = type { i8 }
%"class.std::basic_ifstream" = type { %"class.std::basic_istream.base", %"class.std::basic_filebuf", %"class.std::basic_ios" }
%"class.std::basic_istream.base" = type { i32 (...)**, i64 }
%"class.std::basic_filebuf" = type { %"class.std::basic_streambuf", %union.pthread_mutex_t, %"class.std::__basic_file", i32, %struct.__mbstate_t, %struct.__mbstate_t, %struct.__mbstate_t, i8*, i64, i8, i8, i8, i8, i8*, i8*, i8, %"class.std::codecvt"*, i8*, i64, i8*, i8* }
%union.pthread_mutex_t = type { %"struct.<anonymous union>::__pthread_mutex_s" }
%"struct.<anonymous union>::__pthread_mutex_s" = type { i32, i32, i32, i32, i32, i16, i16, %struct.__pthread_internal_list }
%struct.__pthread_internal_list = type { %struct.__pthread_internal_list*, %struct.__pthread_internal_list* }
%"class.std::__basic_file" = type { %struct._IO_FILE*, i8 }
%struct._IO_FILE = type { i32, i8*, i8*, i8*, i8*, i8*, i8*, i8*, i8*, i8*, i8*, i8*, %struct._IO_marker*, %struct._IO_FILE*, i32, i32, i64, i16, i8, [1 x i8], i8*, i64, i8*, i8*, i8*, i8*, i64, i32, [20 x i8] }
%struct._IO_marker = type { %struct._IO_marker*, %struct._IO_FILE*, i32 }
%struct.__mbstate_t = type { i32, %union.anon.12 }
%union.anon.12 = type { i32 }
%"class.std::codecvt" = type { %"class.std::__codecvt_abstract_base", %struct.__locale_struct* }
%"class.std::__codecvt_abstract_base" = type { %"class.std::locale::facet" }
%"class.std::basic_istream" = type { i32 (...)**, i64, %"class.std::basic_ios" }
%"class.__gnu_cxx::new_allocator.3" = type { i8 }
%"class.__gnu_cxx::new_allocator" = type { i8 }
%"class.std::move_iterator" = type { i32* }
%"class.std::move_iterator.13" = type { %struct.Node** }
%"struct.std::_Rb_tree_node" = type { %"struct.std::_Rb_tree_node_base", %"struct.__gnu_cxx::__aligned_membuf" }
%"struct.__gnu_cxx::__aligned_membuf" = type { [16 x i8] }
%"struct.std::pair.15" = type { %"struct.std::_Rb_tree_node_base"*, %"struct.std::_Rb_tree_node_base"* }
%"struct.std::_Select1st" = type { i8 }
%"class.std::allocator.5" = type { i8 }
%"class.__gnu_cxx::new_allocator.6" = type { i8 }
%"struct.std::_Index_tuple" = type { i8 }
%"struct.std::_Index_tuple.16" = type { i8 }

@_ZStL8__ioinit = internal global %"class.std::ios_base::Init" zeroinitializer, align 1
@__dso_handle = external global i8
@.str = private unnamed_addr constant [18 x i8] c"../../numbers.txt\00", align 1
@_ZSt4cerr = external global %"class.std::basic_ostream"
@.str1 = private unnamed_addr constant [23 x i8] c"Error: Could not open \00", align 1
@_ZSt4cout = external global %"class.std::basic_ostream"
@.str2 = private unnamed_addr constant [2 x i8] c" \00", align 1
@.str3 = private unnamed_addr constant [28 x i8] c"vector::_M_emplace_back_aux\00", align 1
@_ZStL19piecewise_construct = internal constant %"struct.std::piecewise_construct_t" undef, align 1
@llvm.global_ctors = appending global [1 x { i32, void ()* }] [{ i32, void ()* } { i32 65535, void ()* @_GLOBAL__I_a }]
@load_namestr = internal constant [5 x i8] c"load\00"
@add_namestr = internal constant [4 x i8] c"add\00"
@getelementptr_namestr = internal constant [14 x i8] c"getelementptr\00"
@icmp_namestr = internal constant [5 x i8] c"icmp\00"
@xor_namestr = internal constant [4 x i8] c"xor\00"
@bitcast_namestr = internal constant [8 x i8] c"bitcast\00"
@trunc_namestr = internal constant [6 x i8] c"trunc\00"
@ptrtoint_namestr = internal constant [9 x i8] c"ptrtoint\00"
@sub_namestr = internal constant [4 x i8] c"sub\00"
@sdiv_namestr = internal constant [5 x i8] c"sdiv\00"
@mul_namestr = internal constant [4 x i8] c"mul\00"
@extractvalue_namestr = internal constant [13 x i8] c"extractvalue\00"
@zext_namestr = internal constant [5 x i8] c"zext\00"

; Function Attrs: nounwind
define internal void @__cxx_global_var_init() #0 section ".text.startup" {
  call void @_ZNSt8ios_base4InitC1Ev(%"class.std::ios_base::Init"* @_ZStL8__ioinit), !llfi_index !1
  %1 = call i32 @__cxa_atexit(void (i8*)* bitcast (void (%"class.std::ios_base::Init"*)* @_ZNSt8ios_base4InitD1Ev to void (i8*)*), i8* getelementptr inbounds (%"class.std::ios_base::Init"* @_ZStL8__ioinit, i32 0, i32 0), i8* @__dso_handle) #0, !llfi_index !2
  ret void, !llfi_index !3
}

declare void @_ZNSt8ios_base4InitC1Ev(%"class.std::ios_base::Init"*) #1

; Function Attrs: nounwind
declare void @_ZNSt8ios_base4InitD1Ev(%"class.std::ios_base::Init"*) #2

; Function Attrs: nounwind
declare i32 @__cxa_atexit(void (i8*)*, i8*, i8*) #0

; Function Attrs: nounwind uwtable
define void @_Z13bfs_bottom_upP4NodeRKSt6vectorIS0_SaIS0_EERS1_IiSaIiEE(%struct.Node* %root, %"class.std::vector"* %all_nodes, %"class.std::vector.0"* %result) #3 {
  %1 = alloca %struct.Node*, align 8, !llfi_index !4
  %2 = alloca %"class.std::vector"*, align 8, !llfi_index !5
  %3 = alloca %"class.std::vector.0"*, align 8, !llfi_index !6
  %dist = alloca %"class.std::map", align 8, !llfi_index !7
  %__range = alloca %"class.std::vector"*, align 8, !llfi_index !8
  %__begin = alloca %"class.__gnu_cxx::__normal_iterator", align 8, !llfi_index !9
  %__end = alloca %"class.__gnu_cxx::__normal_iterator", align 8, !llfi_index !10
  %n = alloca %struct.Node*, align 8, !llfi_index !11
  %frontier = alloca %"class.std::vector", align 8, !llfi_index !12
  %next_frontier = alloca %"class.std::vector", align 8, !llfi_index !13
  %level = alloca i32, align 4, !llfi_index !14
  %__range1 = alloca %"class.std::vector"*, align 8, !llfi_index !15
  %__begin2 = alloca %"class.__gnu_cxx::__normal_iterator", align 8, !llfi_index !16
  %__end3 = alloca %"class.__gnu_cxx::__normal_iterator", align 8, !llfi_index !17
  %v = alloca %struct.Node*, align 8, !llfi_index !18
  %neighbors = alloca [3 x %struct.Node*], align 16, !llfi_index !19
  %parent_found = alloca i8, align 1, !llfi_index !20
  %__range4 = alloca [3 x %struct.Node*]*, align 8, !llfi_index !21
  %__begin5 = alloca %struct.Node**, align 8, !llfi_index !22
  %__end6 = alloca %struct.Node**, align 8, !llfi_index !23
  %u = alloca %struct.Node*, align 8, !llfi_index !24
  %__range7 = alloca %"class.std::vector"*, align 8, !llfi_index !25
  %__begin8 = alloca %"class.__gnu_cxx::__normal_iterator.8", align 8, !llfi_index !26
  %__end9 = alloca %"class.__gnu_cxx::__normal_iterator.8", align 8, !llfi_index !27
  %f = alloca %struct.Node*, align 8, !llfi_index !28
  store %struct.Node* %root, %struct.Node** %1, align 8, !llfi_index !29
  store %"class.std::vector"* %all_nodes, %"class.std::vector"** %2, align 8, !llfi_index !30
  store %"class.std::vector.0"* %result, %"class.std::vector.0"** %3, align 8, !llfi_index !31
  %4 = load %struct.Node** %1, align 8, !llfi_index !32
  %fi2 = call %struct.Node* @injectFault2(i64 32, %struct.Node* %4, i32 27, i32 0, i32 1, i32 0, i8* getelementptr inbounds ([5 x i8]* @load_namestr, i32 0, i32 0)), !llfi_injectfault !33
  %5 = icmp ne %struct.Node* %fi2, null, !llfi_index !34
  %fi3 = call i1 @injectFault5(i64 33, i1 %5, i32 46, i32 0, i32 1, i32 0, i8* getelementptr inbounds ([5 x i8]* @icmp_namestr, i32 0, i32 0)), !llfi_injectfault !33
  br i1 %fi3, label %7, label %6, !llfi_index !35

; <label>:6                                       ; preds = %0
  br label %120, !llfi_index !36

; <label>:7                                       ; preds = %0
  call void @_ZNSt3mapIP4NodeiSt4lessIS1_ESaISt4pairIKS1_iEEEC2Ev(%"class.std::map"* %dist) #0, !llfi_index !37
  %8 = load %"class.std::vector"** %2, align 8, !llfi_index !38
  %fi4 = call %"class.std::vector"* @injectFault0(i64 37, %"class.std::vector"* %8, i32 27, i32 0, i32 1, i32 0, i8* getelementptr inbounds ([5 x i8]* @load_namestr, i32 0, i32 0)), !llfi_injectfault !33
  store %"class.std::vector"* %fi4, %"class.std::vector"** %__range, align 8, !llfi_index !39
  %9 = load %"class.std::vector"** %__range, align 8, !llfi_index !40
  %fi5 = call %"class.std::vector"* @injectFault0(i64 39, %"class.std::vector"* %9, i32 27, i32 0, i32 1, i32 0, i8* getelementptr inbounds ([5 x i8]* @load_namestr, i32 0, i32 0)), !llfi_injectfault !33
  %10 = call %struct.Node** @_ZNKSt6vectorIP4NodeSaIS1_EE5beginEv(%"class.std::vector"* %fi5) #0, !llfi_index !41
  %11 = getelementptr %"class.__gnu_cxx::__normal_iterator"* %__begin, i32 0, i32 0, !llfi_index !42
  %fi6 = call %struct.Node*** @injectFault3(i64 41, %struct.Node*** %11, i32 29, i32 0, i32 1, i32 0, i8* getelementptr inbounds ([14 x i8]* @getelementptr_namestr, i32 0, i32 0)), !llfi_injectfault !33
  store %struct.Node** %10, %struct.Node*** %fi6, !llfi_index !43
  %12 = load %"class.std::vector"** %__range, align 8, !llfi_index !44
  %fi7 = call %"class.std::vector"* @injectFault0(i64 43, %"class.std::vector"* %12, i32 27, i32 0, i32 1, i32 0, i8* getelementptr inbounds ([5 x i8]* @load_namestr, i32 0, i32 0)), !llfi_injectfault !33
  %13 = call %struct.Node** @_ZNKSt6vectorIP4NodeSaIS1_EE3endEv(%"class.std::vector"* %fi7) #0, !llfi_index !45
  %14 = getelementptr %"class.__gnu_cxx::__normal_iterator"* %__end, i32 0, i32 0, !llfi_index !46
  %fi8 = call %struct.Node*** @injectFault3(i64 45, %struct.Node*** %14, i32 29, i32 0, i32 1, i32 0, i8* getelementptr inbounds ([14 x i8]* @getelementptr_namestr, i32 0, i32 0)), !llfi_injectfault !33
  store %struct.Node** %13, %struct.Node*** %fi8, !llfi_index !47
  br label %15, !llfi_index !48

; <label>:15                                      ; preds = %21, %7
  %16 = call zeroext i1 @_ZN9__gnu_cxxneIPKP4NodeSt6vectorIS2_SaIS2_EEEEbRKNS_17__normal_iteratorIT_T0_EESD_(%"class.__gnu_cxx::__normal_iterator"* %__begin, %"class.__gnu_cxx::__normal_iterator"* %__end) #0, !llfi_index !49
  br i1 %16, label %17, label %23, !llfi_index !50

; <label>:17                                      ; preds = %15
  %18 = call %struct.Node** @_ZNK9__gnu_cxx17__normal_iteratorIPKP4NodeSt6vectorIS2_SaIS2_EEEdeEv(%"class.__gnu_cxx::__normal_iterator"* %__begin) #0, !llfi_index !51
  %19 = load %struct.Node** %18, !llfi_index !52
  %fi1 = call %struct.Node* @injectFault2(i64 51, %struct.Node* %19, i32 27, i32 0, i32 1, i32 0, i8* getelementptr inbounds ([5 x i8]* @load_namestr, i32 0, i32 0)), !llfi_injectfault !33
  store %struct.Node* %fi1, %struct.Node** %n, align 8, !llfi_index !53
  %20 = call i32* @_ZNSt3mapIP4NodeiSt4lessIS1_ESaISt4pairIKS1_iEEEixERS5_(%"class.std::map"* %dist, %struct.Node** %n), !llfi_index !54
  store i32 -1, i32* %20, !llfi_index !55
  br label %21, !llfi_index !56

; <label>:21                                      ; preds = %17
  %22 = call %"class.__gnu_cxx::__normal_iterator"* @_ZN9__gnu_cxx17__normal_iteratorIPKP4NodeSt6vectorIS2_SaIS2_EEEppEv(%"class.__gnu_cxx::__normal_iterator"* %__begin) #0, !llfi_index !57
  br label %15, !llfi_index !58

; <label>:23                                      ; preds = %15
  call void @_ZNSt6vectorIP4NodeSaIS1_EEC2Ev(%"class.std::vector"* %frontier) #0, !llfi_index !59
  call void @_ZNSt6vectorIP4NodeSaIS1_EEC2Ev(%"class.std::vector"* %next_frontier) #0, !llfi_index !60
  %24 = call i32* @_ZNSt3mapIP4NodeiSt4lessIS1_ESaISt4pairIKS1_iEEEixERS5_(%"class.std::map"* %dist, %struct.Node** %1), !llfi_index !61
  store i32 0, i32* %24, !llfi_index !62
  call void @_ZNSt6vectorIP4NodeSaIS1_EE9push_backERKS1_(%"class.std::vector"* %frontier, %struct.Node** %1), !llfi_index !63
  %25 = load %"class.std::vector.0"** %3, align 8, !llfi_index !64
  %fi24 = call %"class.std::vector.0"* @injectFault7(i64 63, %"class.std::vector.0"* %25, i32 27, i32 0, i32 1, i32 0, i8* getelementptr inbounds ([5 x i8]* @load_namestr, i32 0, i32 0)), !llfi_injectfault !33
  %26 = load %struct.Node** %1, align 8, !llfi_index !65
  %fi25 = call %struct.Node* @injectFault2(i64 64, %struct.Node* %26, i32 27, i32 0, i32 1, i32 0, i8* getelementptr inbounds ([5 x i8]* @load_namestr, i32 0, i32 0)), !llfi_injectfault !33
  %27 = getelementptr %struct.Node* %fi25, i32 0, i32 0, !llfi_index !66
  %fi26 = call i32* @injectFault8(i64 65, i32* %27, i32 29, i32 0, i32 1, i32 0, i8* getelementptr inbounds ([14 x i8]* @getelementptr_namestr, i32 0, i32 0)), !llfi_injectfault !33
  call void @_ZNSt6vectorIiSaIiEE9push_backERKi(%"class.std::vector.0"* %fi24, i32* %fi26), !llfi_index !67
  store i32 0, i32* %level, align 4, !llfi_index !68
  br label %28, !llfi_index !69

; <label>:28                                      ; preds = %117, %23
  %29 = call zeroext i1 @_ZNKSt6vectorIP4NodeSaIS1_EE5emptyEv(%"class.std::vector"* %frontier) #0, !llfi_index !70
  %30 = xor i1 %29, true, !llfi_index !71
  %fi27 = call i1 @injectFault5(i64 70, i1 %30, i32 25, i32 0, i32 1, i32 0, i8* getelementptr inbounds ([4 x i8]* @xor_namestr, i32 0, i32 0)), !llfi_injectfault !33
  br i1 %fi27, label %31, label %119, !llfi_index !72

; <label>:31                                      ; preds = %28
  %32 = load i32* %level, align 4, !llfi_index !73
  %fi28 = call i32 @injectFault1(i64 72, i32 %32, i32 27, i32 0, i32 1, i32 0, i8* getelementptr inbounds ([5 x i8]* @load_namestr, i32 0, i32 0)), !llfi_injectfault !33
  %33 = add nsw i32 %fi28, 1, !llfi_index !74
  %fi = call i32 @injectFault1(i64 73, i32 %33, i32 8, i32 0, i32 1, i32 0, i8* getelementptr inbounds ([4 x i8]* @add_namestr, i32 0, i32 0)), !llfi_injectfault !33
  store i32 %fi, i32* %level, align 4, !llfi_index !75
  call void @_ZNSt6vectorIP4NodeSaIS1_EE5clearEv(%"class.std::vector"* %next_frontier) #0, !llfi_index !76
  %34 = load %"class.std::vector"** %2, align 8, !llfi_index !77
  %fi30 = call %"class.std::vector"* @injectFault0(i64 76, %"class.std::vector"* %34, i32 27, i32 0, i32 1, i32 0, i8* getelementptr inbounds ([5 x i8]* @load_namestr, i32 0, i32 0)), !llfi_injectfault !33
  store %"class.std::vector"* %fi30, %"class.std::vector"** %__range1, align 8, !llfi_index !78
  %35 = load %"class.std::vector"** %__range1, align 8, !llfi_index !79
  %fi31 = call %"class.std::vector"* @injectFault0(i64 78, %"class.std::vector"* %35, i32 27, i32 0, i32 1, i32 0, i8* getelementptr inbounds ([5 x i8]* @load_namestr, i32 0, i32 0)), !llfi_injectfault !33
  %36 = call %struct.Node** @_ZNKSt6vectorIP4NodeSaIS1_EE5beginEv(%"class.std::vector"* %fi31) #0, !llfi_index !80
  %37 = getelementptr %"class.__gnu_cxx::__normal_iterator"* %__begin2, i32 0, i32 0, !llfi_index !81
  %fi32 = call %struct.Node*** @injectFault3(i64 80, %struct.Node*** %37, i32 29, i32 0, i32 1, i32 0, i8* getelementptr inbounds ([14 x i8]* @getelementptr_namestr, i32 0, i32 0)), !llfi_injectfault !33
  store %struct.Node** %36, %struct.Node*** %fi32, !llfi_index !82
  %38 = load %"class.std::vector"** %__range1, align 8, !llfi_index !83
  %fi33 = call %"class.std::vector"* @injectFault0(i64 82, %"class.std::vector"* %38, i32 27, i32 0, i32 1, i32 0, i8* getelementptr inbounds ([5 x i8]* @load_namestr, i32 0, i32 0)), !llfi_injectfault !33
  %39 = call %struct.Node** @_ZNKSt6vectorIP4NodeSaIS1_EE3endEv(%"class.std::vector"* %fi33) #0, !llfi_index !84
  %40 = getelementptr %"class.__gnu_cxx::__normal_iterator"* %__end3, i32 0, i32 0, !llfi_index !85
  %fi34 = call %struct.Node*** @injectFault3(i64 84, %struct.Node*** %40, i32 29, i32 0, i32 1, i32 0, i8* getelementptr inbounds ([14 x i8]* @getelementptr_namestr, i32 0, i32 0)), !llfi_injectfault !33
  store %struct.Node** %39, %struct.Node*** %fi34, !llfi_index !86
  br label %41, !llfi_index !87

; <label>:41                                      ; preds = %115, %31
  %42 = call zeroext i1 @_ZN9__gnu_cxxneIPKP4NodeSt6vectorIS2_SaIS2_EEEEbRKNS_17__normal_iteratorIT_T0_EESD_(%"class.__gnu_cxx::__normal_iterator"* %__begin2, %"class.__gnu_cxx::__normal_iterator"* %__end3) #0, !llfi_index !88
  br i1 %42, label %43, label %117, !llfi_index !89

; <label>:43                                      ; preds = %41
  %44 = call %struct.Node** @_ZNK9__gnu_cxx17__normal_iteratorIPKP4NodeSt6vectorIS2_SaIS2_EEEdeEv(%"class.__gnu_cxx::__normal_iterator"* %__begin2) #0, !llfi_index !90
  %45 = load %struct.Node** %44, !llfi_index !91
  %fi35 = call %struct.Node* @injectFault2(i64 90, %struct.Node* %45, i32 27, i32 0, i32 1, i32 0, i8* getelementptr inbounds ([5 x i8]* @load_namestr, i32 0, i32 0)), !llfi_injectfault !33
  store %struct.Node* %fi35, %struct.Node** %v, align 8, !llfi_index !92
  %46 = call i32* @_ZNSt3mapIP4NodeiSt4lessIS1_ESaISt4pairIKS1_iEEEixERS5_(%"class.std::map"* %dist, %struct.Node** %v), !llfi_index !93
  %47 = load i32* %46, !llfi_index !94
  %fi36 = call i32 @injectFault1(i64 93, i32 %47, i32 27, i32 0, i32 1, i32 0, i8* getelementptr inbounds ([5 x i8]* @load_namestr, i32 0, i32 0)), !llfi_injectfault !33
  %48 = icmp eq i32 %fi36, -1, !llfi_index !95
  %fi37 = call i1 @injectFault5(i64 94, i1 %48, i32 46, i32 0, i32 1, i32 0, i8* getelementptr inbounds ([5 x i8]* @icmp_namestr, i32 0, i32 0)), !llfi_injectfault !33
  br i1 %fi37, label %49, label %114, !llfi_index !96

; <label>:49                                      ; preds = %43
  %50 = getelementptr [3 x %struct.Node*]* %neighbors, i64 0, i64 0, !llfi_index !97
  %fi38 = call %struct.Node** @injectFault4(i64 96, %struct.Node** %50, i32 29, i32 0, i32 1, i32 0, i8* getelementptr inbounds ([14 x i8]* @getelementptr_namestr, i32 0, i32 0)), !llfi_injectfault !33
  %51 = load %struct.Node** %v, align 8, !llfi_index !98
  %fi9 = call %struct.Node* @injectFault2(i64 97, %struct.Node* %51, i32 27, i32 0, i32 1, i32 0, i8* getelementptr inbounds ([5 x i8]* @load_namestr, i32 0, i32 0)), !llfi_injectfault !33
  %52 = getelementptr %struct.Node* %fi9, i32 0, i32 3, !llfi_index !99
  %fi10 = call %struct.Node** @injectFault4(i64 98, %struct.Node** %52, i32 29, i32 0, i32 1, i32 0, i8* getelementptr inbounds ([14 x i8]* @getelementptr_namestr, i32 0, i32 0)), !llfi_injectfault !33
  %53 = load %struct.Node** %fi10, align 8, !llfi_index !100
  %fi11 = call %struct.Node* @injectFault2(i64 99, %struct.Node* %53, i32 27, i32 0, i32 1, i32 0, i8* getelementptr inbounds ([5 x i8]* @load_namestr, i32 0, i32 0)), !llfi_injectfault !33
  store %struct.Node* %fi11, %struct.Node** %fi38, !llfi_index !101
  %54 = getelementptr %struct.Node** %fi38, i64 1, !llfi_index !102
  %fi12 = call %struct.Node** @injectFault4(i64 101, %struct.Node** %54, i32 29, i32 0, i32 1, i32 0, i8* getelementptr inbounds ([14 x i8]* @getelementptr_namestr, i32 0, i32 0)), !llfi_injectfault !33
  %55 = load %struct.Node** %v, align 8, !llfi_index !103
  %fi13 = call %struct.Node* @injectFault2(i64 102, %struct.Node* %55, i32 27, i32 0, i32 1, i32 0, i8* getelementptr inbounds ([5 x i8]* @load_namestr, i32 0, i32 0)), !llfi_injectfault !33
  %56 = getelementptr %struct.Node* %fi13, i32 0, i32 1, !llfi_index !104
  %fi14 = call %struct.Node** @injectFault4(i64 103, %struct.Node** %56, i32 29, i32 0, i32 1, i32 0, i8* getelementptr inbounds ([14 x i8]* @getelementptr_namestr, i32 0, i32 0)), !llfi_injectfault !33
  %57 = load %struct.Node** %fi14, align 8, !llfi_index !105
  %fi15 = call %struct.Node* @injectFault2(i64 104, %struct.Node* %57, i32 27, i32 0, i32 1, i32 0, i8* getelementptr inbounds ([5 x i8]* @load_namestr, i32 0, i32 0)), !llfi_injectfault !33
  store %struct.Node* %fi15, %struct.Node** %fi12, !llfi_index !106
  %58 = getelementptr %struct.Node** %fi12, i64 1, !llfi_index !107
  %fi16 = call %struct.Node** @injectFault4(i64 106, %struct.Node** %58, i32 29, i32 0, i32 1, i32 0, i8* getelementptr inbounds ([14 x i8]* @getelementptr_namestr, i32 0, i32 0)), !llfi_injectfault !33
  %59 = load %struct.Node** %v, align 8, !llfi_index !108
  %fi17 = call %struct.Node* @injectFault2(i64 107, %struct.Node* %59, i32 27, i32 0, i32 1, i32 0, i8* getelementptr inbounds ([5 x i8]* @load_namestr, i32 0, i32 0)), !llfi_injectfault !33
  %60 = getelementptr %struct.Node* %fi17, i32 0, i32 2, !llfi_index !109
  %fi18 = call %struct.Node** @injectFault4(i64 108, %struct.Node** %60, i32 29, i32 0, i32 1, i32 0, i8* getelementptr inbounds ([14 x i8]* @getelementptr_namestr, i32 0, i32 0)), !llfi_injectfault !33
  %61 = load %struct.Node** %fi18, align 8, !llfi_index !110
  %fi19 = call %struct.Node* @injectFault2(i64 109, %struct.Node* %61, i32 27, i32 0, i32 1, i32 0, i8* getelementptr inbounds ([5 x i8]* @load_namestr, i32 0, i32 0)), !llfi_injectfault !33
  store %struct.Node* %fi19, %struct.Node** %fi16, !llfi_index !111
  store i8 0, i8* %parent_found, align 1, !llfi_index !112
  store [3 x %struct.Node*]* %neighbors, [3 x %struct.Node*]** %__range4, align 8, !llfi_index !113
  %62 = load [3 x %struct.Node*]** %__range4, align 8, !llfi_index !114
  %fi20 = call [3 x %struct.Node*]* @injectFault6(i64 113, [3 x %struct.Node*]* %62, i32 27, i32 0, i32 1, i32 0, i8* getelementptr inbounds ([5 x i8]* @load_namestr, i32 0, i32 0)), !llfi_injectfault !33
  %63 = getelementptr [3 x %struct.Node*]* %fi20, i32 0, i32 0, !llfi_index !115
  %fi21 = call %struct.Node** @injectFault4(i64 114, %struct.Node** %63, i32 29, i32 0, i32 1, i32 0, i8* getelementptr inbounds ([14 x i8]* @getelementptr_namestr, i32 0, i32 0)), !llfi_injectfault !33
  store %struct.Node** %fi21, %struct.Node*** %__begin5, align 8, !llfi_index !116
  %64 = load [3 x %struct.Node*]** %__range4, align 8, !llfi_index !117
  %fi22 = call [3 x %struct.Node*]* @injectFault6(i64 116, [3 x %struct.Node*]* %64, i32 27, i32 0, i32 1, i32 0, i8* getelementptr inbounds ([5 x i8]* @load_namestr, i32 0, i32 0)), !llfi_injectfault !33
  %65 = getelementptr [3 x %struct.Node*]* %fi22, i32 0, i32 0, !llfi_index !118
  %fi23 = call %struct.Node** @injectFault4(i64 117, %struct.Node** %65, i32 29, i32 0, i32 1, i32 0, i8* getelementptr inbounds ([14 x i8]* @getelementptr_namestr, i32 0, i32 0)), !llfi_injectfault !33
  %66 = getelementptr %struct.Node** %fi23, i64 3, !llfi_index !119
  %fi29 = call %struct.Node** @injectFault4(i64 118, %struct.Node** %66, i32 29, i32 0, i32 1, i32 0, i8* getelementptr inbounds ([14 x i8]* @getelementptr_namestr, i32 0, i32 0)), !llfi_injectfault !33
  store %struct.Node** %fi29, %struct.Node*** %__end6, align 8, !llfi_index !120
  br label %67, !llfi_index !121

; <label>:67                                      ; preds = %101, %49
  %68 = load %struct.Node*** %__begin5, align 8, !llfi_index !122
  %fi39 = call %struct.Node** @injectFault4(i64 121, %struct.Node** %68, i32 27, i32 0, i32 1, i32 0, i8* getelementptr inbounds ([5 x i8]* @load_namestr, i32 0, i32 0)), !llfi_injectfault !33
  %69 = load %struct.Node*** %__end6, align 8, !llfi_index !123
  %fi40 = call %struct.Node** @injectFault4(i64 122, %struct.Node** %69, i32 27, i32 0, i32 1, i32 0, i8* getelementptr inbounds ([5 x i8]* @load_namestr, i32 0, i32 0)), !llfi_injectfault !33
  %70 = icmp ne %struct.Node** %fi39, %fi40, !llfi_index !124
  %fi41 = call i1 @injectFault5(i64 123, i1 %70, i32 46, i32 0, i32 1, i32 0, i8* getelementptr inbounds ([5 x i8]* @icmp_namestr, i32 0, i32 0)), !llfi_injectfault !33
  br i1 %fi41, label %71, label %104, !llfi_index !125

; <label>:71                                      ; preds = %67
  %72 = load %struct.Node*** %__begin5, align 8, !llfi_index !126
  %fi42 = call %struct.Node** @injectFault4(i64 125, %struct.Node** %72, i32 27, i32 0, i32 1, i32 0, i8* getelementptr inbounds ([5 x i8]* @load_namestr, i32 0, i32 0)), !llfi_injectfault !33
  %73 = load %struct.Node** %fi42, align 8, !llfi_index !127
  %fi43 = call %struct.Node* @injectFault2(i64 126, %struct.Node* %73, i32 27, i32 0, i32 1, i32 0, i8* getelementptr inbounds ([5 x i8]* @load_namestr, i32 0, i32 0)), !llfi_injectfault !33
  store %struct.Node* %fi43, %struct.Node** %u, align 8, !llfi_index !128
  %74 = load %struct.Node** %u, align 8, !llfi_index !129
  %fi44 = call %struct.Node* @injectFault2(i64 128, %struct.Node* %74, i32 27, i32 0, i32 1, i32 0, i8* getelementptr inbounds ([5 x i8]* @load_namestr, i32 0, i32 0)), !llfi_injectfault !33
  %75 = icmp ne %struct.Node* %fi44, null, !llfi_index !130
  %fi45 = call i1 @injectFault5(i64 129, i1 %75, i32 46, i32 0, i32 1, i32 0, i8* getelementptr inbounds ([5 x i8]* @icmp_namestr, i32 0, i32 0)), !llfi_injectfault !33
  br i1 %fi45, label %77, label %76, !llfi_index !131

; <label>:76                                      ; preds = %71
  br label %101, !llfi_index !132

; <label>:77                                      ; preds = %71
  store %"class.std::vector"* %frontier, %"class.std::vector"** %__range7, align 8, !llfi_index !133
  %78 = load %"class.std::vector"** %__range7, align 8, !llfi_index !134
  %fi46 = call %"class.std::vector"* @injectFault0(i64 133, %"class.std::vector"* %78, i32 27, i32 0, i32 1, i32 0, i8* getelementptr inbounds ([5 x i8]* @load_namestr, i32 0, i32 0)), !llfi_injectfault !33
  %79 = call %struct.Node** @_ZNSt6vectorIP4NodeSaIS1_EE5beginEv(%"class.std::vector"* %fi46) #0, !llfi_index !135
  %80 = getelementptr %"class.__gnu_cxx::__normal_iterator.8"* %__begin8, i32 0, i32 0, !llfi_index !136
  %fi47 = call %struct.Node*** @injectFault3(i64 135, %struct.Node*** %80, i32 29, i32 0, i32 1, i32 0, i8* getelementptr inbounds ([14 x i8]* @getelementptr_namestr, i32 0, i32 0)), !llfi_injectfault !33
  store %struct.Node** %79, %struct.Node*** %fi47, !llfi_index !137
  %81 = load %"class.std::vector"** %__range7, align 8, !llfi_index !138
  %fi48 = call %"class.std::vector"* @injectFault0(i64 137, %"class.std::vector"* %81, i32 27, i32 0, i32 1, i32 0, i8* getelementptr inbounds ([5 x i8]* @load_namestr, i32 0, i32 0)), !llfi_injectfault !33
  %82 = call %struct.Node** @_ZNSt6vectorIP4NodeSaIS1_EE3endEv(%"class.std::vector"* %fi48) #0, !llfi_index !139
  %83 = getelementptr %"class.__gnu_cxx::__normal_iterator.8"* %__end9, i32 0, i32 0, !llfi_index !140
  %fi49 = call %struct.Node*** @injectFault3(i64 139, %struct.Node*** %83, i32 29, i32 0, i32 1, i32 0, i8* getelementptr inbounds ([14 x i8]* @getelementptr_namestr, i32 0, i32 0)), !llfi_injectfault !33
  store %struct.Node** %82, %struct.Node*** %fi49, !llfi_index !141
  br label %84, !llfi_index !142

; <label>:84                                      ; preds = %94, %77
  %85 = call zeroext i1 @_ZN9__gnu_cxxneIPP4NodeSt6vectorIS2_SaIS2_EEEEbRKNS_17__normal_iteratorIT_T0_EESC_(%"class.__gnu_cxx::__normal_iterator.8"* %__begin8, %"class.__gnu_cxx::__normal_iterator.8"* %__end9) #0, !llfi_index !143
  br i1 %85, label %86, label %96, !llfi_index !144

; <label>:86                                      ; preds = %84
  %87 = call %struct.Node** @_ZNK9__gnu_cxx17__normal_iteratorIPP4NodeSt6vectorIS2_SaIS2_EEEdeEv(%"class.__gnu_cxx::__normal_iterator.8"* %__begin8) #0, !llfi_index !145
  %88 = load %struct.Node** %87, !llfi_index !146
  %fi50 = call %struct.Node* @injectFault2(i64 145, %struct.Node* %88, i32 27, i32 0, i32 1, i32 0, i8* getelementptr inbounds ([5 x i8]* @load_namestr, i32 0, i32 0)), !llfi_injectfault !33
  store %struct.Node* %fi50, %struct.Node** %f, align 8, !llfi_index !147
  %89 = load %struct.Node** %f, align 8, !llfi_index !148
  %fi51 = call %struct.Node* @injectFault2(i64 147, %struct.Node* %89, i32 27, i32 0, i32 1, i32 0, i8* getelementptr inbounds ([5 x i8]* @load_namestr, i32 0, i32 0)), !llfi_injectfault !33
  %90 = load %struct.Node** %u, align 8, !llfi_index !149
  %fi52 = call %struct.Node* @injectFault2(i64 148, %struct.Node* %90, i32 27, i32 0, i32 1, i32 0, i8* getelementptr inbounds ([5 x i8]* @load_namestr, i32 0, i32 0)), !llfi_injectfault !33
  %91 = icmp eq %struct.Node* %fi51, %fi52, !llfi_index !150
  %fi53 = call i1 @injectFault5(i64 149, i1 %91, i32 46, i32 0, i32 1, i32 0, i8* getelementptr inbounds ([5 x i8]* @icmp_namestr, i32 0, i32 0)), !llfi_injectfault !33
  br i1 %fi53, label %92, label %93, !llfi_index !151

; <label>:92                                      ; preds = %86
  store i8 1, i8* %parent_found, align 1, !llfi_index !152
  br label %96, !llfi_index !153

; <label>:93                                      ; preds = %86
  br label %94, !llfi_index !154

; <label>:94                                      ; preds = %93
  %95 = call %"class.__gnu_cxx::__normal_iterator.8"* @_ZN9__gnu_cxx17__normal_iteratorIPP4NodeSt6vectorIS2_SaIS2_EEEppEv(%"class.__gnu_cxx::__normal_iterator.8"* %__begin8) #0, !llfi_index !155
  br label %84, !llfi_index !156

; <label>:96                                      ; preds = %92, %84
  %97 = load i8* %parent_found, align 1, !llfi_index !157
  %fi54 = call i8 @injectFault13(i64 156, i8 %97, i32 27, i32 0, i32 1, i32 0, i8* getelementptr inbounds ([5 x i8]* @load_namestr, i32 0, i32 0)), !llfi_injectfault !33
  %98 = trunc i8 %fi54 to i1, !llfi_index !158
  %fi55 = call i1 @injectFault5(i64 157, i1 %98, i32 33, i32 0, i32 1, i32 0, i8* getelementptr inbounds ([6 x i8]* @trunc_namestr, i32 0, i32 0)), !llfi_injectfault !33
  br i1 %fi55, label %99, label %100, !llfi_index !159

; <label>:99                                      ; preds = %96
  br label %104, !llfi_index !160

; <label>:100                                     ; preds = %96
  br label %101, !llfi_index !161

; <label>:101                                     ; preds = %100, %76
  %102 = load %struct.Node*** %__begin5, align 8, !llfi_index !162
  %fi56 = call %struct.Node** @injectFault4(i64 161, %struct.Node** %102, i32 27, i32 0, i32 1, i32 0, i8* getelementptr inbounds ([5 x i8]* @load_namestr, i32 0, i32 0)), !llfi_injectfault !33
  %103 = getelementptr %struct.Node** %fi56, i32 1, !llfi_index !163
  %fi57 = call %struct.Node** @injectFault4(i64 162, %struct.Node** %103, i32 29, i32 0, i32 1, i32 0, i8* getelementptr inbounds ([14 x i8]* @getelementptr_namestr, i32 0, i32 0)), !llfi_injectfault !33
  store %struct.Node** %fi57, %struct.Node*** %__begin5, align 8, !llfi_index !164
  br label %67, !llfi_index !165

; <label>:104                                     ; preds = %99, %67
  %105 = load i8* %parent_found, align 1, !llfi_index !166
  %fi58 = call i8 @injectFault13(i64 165, i8 %105, i32 27, i32 0, i32 1, i32 0, i8* getelementptr inbounds ([5 x i8]* @load_namestr, i32 0, i32 0)), !llfi_injectfault !33
  %106 = trunc i8 %fi58 to i1, !llfi_index !167
  %fi59 = call i1 @injectFault5(i64 166, i1 %106, i32 33, i32 0, i32 1, i32 0, i8* getelementptr inbounds ([6 x i8]* @trunc_namestr, i32 0, i32 0)), !llfi_injectfault !33
  br i1 %fi59, label %107, label %113, !llfi_index !168

; <label>:107                                     ; preds = %104
  %108 = load i32* %level, align 4, !llfi_index !169
  %fi60 = call i32 @injectFault1(i64 168, i32 %108, i32 27, i32 0, i32 1, i32 0, i8* getelementptr inbounds ([5 x i8]* @load_namestr, i32 0, i32 0)), !llfi_injectfault !33
  %109 = call i32* @_ZNSt3mapIP4NodeiSt4lessIS1_ESaISt4pairIKS1_iEEEixERS5_(%"class.std::map"* %dist, %struct.Node** %v), !llfi_index !170
  store i32 %fi60, i32* %109, !llfi_index !171
  call void @_ZNSt6vectorIP4NodeSaIS1_EE9push_backERKS1_(%"class.std::vector"* %next_frontier, %struct.Node** %v), !llfi_index !172
  %110 = load %"class.std::vector.0"** %3, align 8, !llfi_index !173
  %fi61 = call %"class.std::vector.0"* @injectFault7(i64 172, %"class.std::vector.0"* %110, i32 27, i32 0, i32 1, i32 0, i8* getelementptr inbounds ([5 x i8]* @load_namestr, i32 0, i32 0)), !llfi_injectfault !33
  %111 = load %struct.Node** %v, align 8, !llfi_index !174
  %fi62 = call %struct.Node* @injectFault2(i64 173, %struct.Node* %111, i32 27, i32 0, i32 1, i32 0, i8* getelementptr inbounds ([5 x i8]* @load_namestr, i32 0, i32 0)), !llfi_injectfault !33
  %112 = getelementptr %struct.Node* %fi62, i32 0, i32 0, !llfi_index !175
  %fi63 = call i32* @injectFault8(i64 174, i32* %112, i32 29, i32 0, i32 1, i32 0, i8* getelementptr inbounds ([14 x i8]* @getelementptr_namestr, i32 0, i32 0)), !llfi_injectfault !33
  call void @_ZNSt6vectorIiSaIiEE9push_backERKi(%"class.std::vector.0"* %fi61, i32* %fi63), !llfi_index !176
  br label %113, !llfi_index !177

; <label>:113                                     ; preds = %107, %104
  br label %114, !llfi_index !178

; <label>:114                                     ; preds = %113, %43
  br label %115, !llfi_index !179

; <label>:115                                     ; preds = %114
  %116 = call %"class.__gnu_cxx::__normal_iterator"* @_ZN9__gnu_cxx17__normal_iteratorIPKP4NodeSt6vectorIS2_SaIS2_EEEppEv(%"class.__gnu_cxx::__normal_iterator"* %__begin2) #0, !llfi_index !180
  br label %41, !llfi_index !181

; <label>:117                                     ; preds = %41
  %118 = call %"class.std::vector"* @_ZNSt6vectorIP4NodeSaIS1_EEaSERKS3_(%"class.std::vector"* %frontier, %"class.std::vector"* %next_frontier), !llfi_index !182
  br label %28, !llfi_index !183

; <label>:119                                     ; preds = %28
  call void @_ZNSt6vectorIP4NodeSaIS1_EED2Ev(%"class.std::vector"* %next_frontier) #0, !llfi_index !184
  call void @_ZNSt6vectorIP4NodeSaIS1_EED2Ev(%"class.std::vector"* %frontier) #0, !llfi_index !185
  call void @_ZNSt3mapIP4NodeiSt4lessIS1_ESaISt4pairIKS1_iEEED2Ev(%"class.std::map"* %dist) #0, !llfi_index !186
  br label %120, !llfi_index !187

; <label>:120                                     ; preds = %119, %6
  ret void, !llfi_index !188
}

; Function Attrs: nounwind uwtable
define linkonce_odr void @_ZNSt3mapIP4NodeiSt4lessIS1_ESaISt4pairIKS1_iEEEC2Ev(%"class.std::map"* %this) unnamed_addr #3 align 2 {
  %1 = alloca %"class.std::map"*, align 8, !llfi_index !189
  store %"class.std::map"* %this, %"class.std::map"** %1, align 8, !llfi_index !190
  %2 = load %"class.std::map"** %1, !llfi_index !191
  %fi = call %"class.std::map"* @injectFault12(i64 190, %"class.std::map"* %2, i32 27, i32 0, i32 1, i32 0, i8* getelementptr inbounds ([5 x i8]* @load_namestr, i32 0, i32 0)), !llfi_injectfault !33
  %3 = getelementptr %"class.std::map"* %fi, i32 0, i32 0, !llfi_index !192
  %fi1 = call %"class.std::_Rb_tree"* @injectFault14(i64 191, %"class.std::_Rb_tree"* %3, i32 29, i32 0, i32 1, i32 0, i8* getelementptr inbounds ([14 x i8]* @getelementptr_namestr, i32 0, i32 0)), !llfi_injectfault !33
  call void @_ZNSt8_Rb_treeIP4NodeSt4pairIKS1_iESt10_Select1stIS4_ESt4lessIS1_ESaIS4_EEC2Ev(%"class.std::_Rb_tree"* %fi1), !llfi_index !193
  ret void, !llfi_index !194
}

; Function Attrs: nounwind uwtable
define linkonce_odr %struct.Node** @_ZNKSt6vectorIP4NodeSaIS1_EE5beginEv(%"class.std::vector"* %this) #3 align 2 {
  %1 = alloca %"class.__gnu_cxx::__normal_iterator", align 8, !llfi_index !195
  %2 = alloca %"class.std::vector"*, align 8, !llfi_index !196
  %3 = alloca %struct.Node**, align 8, !llfi_index !197
  store %"class.std::vector"* %this, %"class.std::vector"** %2, align 8, !llfi_index !198
  %4 = load %"class.std::vector"** %2, !llfi_index !199
  %fi = call %"class.std::vector"* @injectFault0(i64 198, %"class.std::vector"* %4, i32 27, i32 0, i32 1, i32 0, i8* getelementptr inbounds ([5 x i8]* @load_namestr, i32 0, i32 0)), !llfi_injectfault !33
  %5 = bitcast %"class.std::vector"* %fi to %"struct.std::_Vector_base"*, !llfi_index !200
  %fi1 = call %"struct.std::_Vector_base"* @injectFault9(i64 199, %"struct.std::_Vector_base"* %5, i32 44, i32 0, i32 1, i32 0, i8* getelementptr inbounds ([8 x i8]* @bitcast_namestr, i32 0, i32 0)), !llfi_injectfault !33
  %6 = getelementptr %"struct.std::_Vector_base"* %fi1, i32 0, i32 0, !llfi_index !201
  %fi2 = call %"struct.std::_Vector_base<Node *, std::allocator<Node *> >::_Vector_impl"* @injectFault10(i64 200, %"struct.std::_Vector_base<Node *, std::allocator<Node *> >::_Vector_impl"* %6, i32 29, i32 0, i32 1, i32 0, i8* getelementptr inbounds ([14 x i8]* @getelementptr_namestr, i32 0, i32 0)), !llfi_injectfault !33
  %7 = getelementptr %"struct.std::_Vector_base<Node *, std::allocator<Node *> >::_Vector_impl"* %fi2, i32 0, i32 0, !llfi_index !202
  %fi3 = call %struct.Node*** @injectFault3(i64 201, %struct.Node*** %7, i32 29, i32 0, i32 1, i32 0, i8* getelementptr inbounds ([14 x i8]* @getelementptr_namestr, i32 0, i32 0)), !llfi_injectfault !33
  %8 = load %struct.Node*** %fi3, align 8, !llfi_index !203
  %fi4 = call %struct.Node** @injectFault4(i64 202, %struct.Node** %8, i32 27, i32 0, i32 1, i32 0, i8* getelementptr inbounds ([5 x i8]* @load_namestr, i32 0, i32 0)), !llfi_injectfault !33
  store %struct.Node** %fi4, %struct.Node*** %3, !llfi_index !204
  call void @_ZN9__gnu_cxx17__normal_iteratorIPKP4NodeSt6vectorIS2_SaIS2_EEEC2ERKS4_(%"class.__gnu_cxx::__normal_iterator"* %1, %struct.Node*** %3) #0, !llfi_index !205
  %9 = getelementptr %"class.__gnu_cxx::__normal_iterator"* %1, i32 0, i32 0, !llfi_index !206
  %fi5 = call %struct.Node*** @injectFault3(i64 205, %struct.Node*** %9, i32 29, i32 0, i32 1, i32 0, i8* getelementptr inbounds ([14 x i8]* @getelementptr_namestr, i32 0, i32 0)), !llfi_injectfault !33
  %10 = load %struct.Node*** %fi5, !llfi_index !207
  %fi6 = call %struct.Node** @injectFault4(i64 206, %struct.Node** %10, i32 27, i32 0, i32 1, i32 0, i8* getelementptr inbounds ([5 x i8]* @load_namestr, i32 0, i32 0)), !llfi_injectfault !33
  ret %struct.Node** %fi6, !llfi_index !208
}

; Function Attrs: nounwind uwtable
define linkonce_odr %struct.Node** @_ZNKSt6vectorIP4NodeSaIS1_EE3endEv(%"class.std::vector"* %this) #3 align 2 {
  %1 = alloca %"class.__gnu_cxx::__normal_iterator", align 8, !llfi_index !209
  %2 = alloca %"class.std::vector"*, align 8, !llfi_index !210
  %3 = alloca %struct.Node**, align 8, !llfi_index !211
  store %"class.std::vector"* %this, %"class.std::vector"** %2, align 8, !llfi_index !212
  %4 = load %"class.std::vector"** %2, !llfi_index !213
  %fi = call %"class.std::vector"* @injectFault0(i64 212, %"class.std::vector"* %4, i32 27, i32 0, i32 1, i32 0, i8* getelementptr inbounds ([5 x i8]* @load_namestr, i32 0, i32 0)), !llfi_injectfault !33
  %5 = bitcast %"class.std::vector"* %fi to %"struct.std::_Vector_base"*, !llfi_index !214
  %fi1 = call %"struct.std::_Vector_base"* @injectFault9(i64 213, %"struct.std::_Vector_base"* %5, i32 44, i32 0, i32 1, i32 0, i8* getelementptr inbounds ([8 x i8]* @bitcast_namestr, i32 0, i32 0)), !llfi_injectfault !33
  %6 = getelementptr %"struct.std::_Vector_base"* %fi1, i32 0, i32 0, !llfi_index !215
  %fi2 = call %"struct.std::_Vector_base<Node *, std::allocator<Node *> >::_Vector_impl"* @injectFault10(i64 214, %"struct.std::_Vector_base<Node *, std::allocator<Node *> >::_Vector_impl"* %6, i32 29, i32 0, i32 1, i32 0, i8* getelementptr inbounds ([14 x i8]* @getelementptr_namestr, i32 0, i32 0)), !llfi_injectfault !33
  %7 = getelementptr %"struct.std::_Vector_base<Node *, std::allocator<Node *> >::_Vector_impl"* %fi2, i32 0, i32 1, !llfi_index !216
  %fi3 = call %struct.Node*** @injectFault3(i64 215, %struct.Node*** %7, i32 29, i32 0, i32 1, i32 0, i8* getelementptr inbounds ([14 x i8]* @getelementptr_namestr, i32 0, i32 0)), !llfi_injectfault !33
  %8 = load %struct.Node*** %fi3, align 8, !llfi_index !217
  %fi4 = call %struct.Node** @injectFault4(i64 216, %struct.Node** %8, i32 27, i32 0, i32 1, i32 0, i8* getelementptr inbounds ([5 x i8]* @load_namestr, i32 0, i32 0)), !llfi_injectfault !33
  store %struct.Node** %fi4, %struct.Node*** %3, !llfi_index !218
  call void @_ZN9__gnu_cxx17__normal_iteratorIPKP4NodeSt6vectorIS2_SaIS2_EEEC2ERKS4_(%"class.__gnu_cxx::__normal_iterator"* %1, %struct.Node*** %3) #0, !llfi_index !219
  %9 = getelementptr %"class.__gnu_cxx::__normal_iterator"* %1, i32 0, i32 0, !llfi_index !220
  %fi5 = call %struct.Node*** @injectFault3(i64 219, %struct.Node*** %9, i32 29, i32 0, i32 1, i32 0, i8* getelementptr inbounds ([14 x i8]* @getelementptr_namestr, i32 0, i32 0)), !llfi_injectfault !33
  %10 = load %struct.Node*** %fi5, !llfi_index !221
  %fi6 = call %struct.Node** @injectFault4(i64 220, %struct.Node** %10, i32 27, i32 0, i32 1, i32 0, i8* getelementptr inbounds ([5 x i8]* @load_namestr, i32 0, i32 0)), !llfi_injectfault !33
  ret %struct.Node** %fi6, !llfi_index !222
}

; Function Attrs: inlinehint nounwind uwtable
define linkonce_odr zeroext i1 @_ZN9__gnu_cxxneIPKP4NodeSt6vectorIS2_SaIS2_EEEEbRKNS_17__normal_iteratorIT_T0_EESD_(%"class.__gnu_cxx::__normal_iterator"* %__lhs, %"class.__gnu_cxx::__normal_iterator"* %__rhs) #4 {
  %1 = alloca %"class.__gnu_cxx::__normal_iterator"*, align 8, !llfi_index !223
  %2 = alloca %"class.__gnu_cxx::__normal_iterator"*, align 8, !llfi_index !224
  store %"class.__gnu_cxx::__normal_iterator"* %__lhs, %"class.__gnu_cxx::__normal_iterator"** %1, align 8, !llfi_index !225
  store %"class.__gnu_cxx::__normal_iterator"* %__rhs, %"class.__gnu_cxx::__normal_iterator"** %2, align 8, !llfi_index !226
  %3 = load %"class.__gnu_cxx::__normal_iterator"** %1, align 8, !llfi_index !227
  %fi = call %"class.__gnu_cxx::__normal_iterator"* @injectFault11(i64 226, %"class.__gnu_cxx::__normal_iterator"* %3, i32 27, i32 0, i32 1, i32 0, i8* getelementptr inbounds ([5 x i8]* @load_namestr, i32 0, i32 0)), !llfi_injectfault !33
  %4 = call %struct.Node*** @_ZNK9__gnu_cxx17__normal_iteratorIPKP4NodeSt6vectorIS2_SaIS2_EEE4baseEv(%"class.__gnu_cxx::__normal_iterator"* %fi) #0, !llfi_index !228
  %5 = load %struct.Node*** %4, !llfi_index !229
  %fi1 = call %struct.Node** @injectFault4(i64 228, %struct.Node** %5, i32 27, i32 0, i32 1, i32 0, i8* getelementptr inbounds ([5 x i8]* @load_namestr, i32 0, i32 0)), !llfi_injectfault !33
  %6 = load %"class.__gnu_cxx::__normal_iterator"** %2, align 8, !llfi_index !230
  %fi2 = call %"class.__gnu_cxx::__normal_iterator"* @injectFault11(i64 229, %"class.__gnu_cxx::__normal_iterator"* %6, i32 27, i32 0, i32 1, i32 0, i8* getelementptr inbounds ([5 x i8]* @load_namestr, i32 0, i32 0)), !llfi_injectfault !33
  %7 = call %struct.Node*** @_ZNK9__gnu_cxx17__normal_iteratorIPKP4NodeSt6vectorIS2_SaIS2_EEE4baseEv(%"class.__gnu_cxx::__normal_iterator"* %fi2) #0, !llfi_index !231
  %8 = load %struct.Node*** %7, !llfi_index !232
  %fi3 = call %struct.Node** @injectFault4(i64 231, %struct.Node** %8, i32 27, i32 0, i32 1, i32 0, i8* getelementptr inbounds ([5 x i8]* @load_namestr, i32 0, i32 0)), !llfi_injectfault !33
  %9 = icmp ne %struct.Node** %fi1, %fi3, !llfi_index !233
  %fi4 = call i1 @injectFault5(i64 232, i1 %9, i32 46, i32 0, i32 1, i32 0, i8* getelementptr inbounds ([5 x i8]* @icmp_namestr, i32 0, i32 0)), !llfi_injectfault !33
  ret i1 %fi4, !llfi_index !234
}

; Function Attrs: nounwind uwtable
define linkonce_odr %struct.Node** @_ZNK9__gnu_cxx17__normal_iteratorIPKP4NodeSt6vectorIS2_SaIS2_EEEdeEv(%"class.__gnu_cxx::__normal_iterator"* %this) #3 align 2 {
  %1 = alloca %"class.__gnu_cxx::__normal_iterator"*, align 8, !llfi_index !235
  store %"class.__gnu_cxx::__normal_iterator"* %this, %"class.__gnu_cxx::__normal_iterator"** %1, align 8, !llfi_index !236
  %2 = load %"class.__gnu_cxx::__normal_iterator"** %1, !llfi_index !237
  %fi = call %"class.__gnu_cxx::__normal_iterator"* @injectFault11(i64 236, %"class.__gnu_cxx::__normal_iterator"* %2, i32 27, i32 0, i32 1, i32 0, i8* getelementptr inbounds ([5 x i8]* @load_namestr, i32 0, i32 0)), !llfi_injectfault !33
  %3 = getelementptr %"class.__gnu_cxx::__normal_iterator"* %fi, i32 0, i32 0, !llfi_index !238
  %fi1 = call %struct.Node*** @injectFault3(i64 237, %struct.Node*** %3, i32 29, i32 0, i32 1, i32 0, i8* getelementptr inbounds ([14 x i8]* @getelementptr_namestr, i32 0, i32 0)), !llfi_injectfault !33
  %4 = load %struct.Node*** %fi1, align 8, !llfi_index !239
  %fi2 = call %struct.Node** @injectFault4(i64 238, %struct.Node** %4, i32 27, i32 0, i32 1, i32 0, i8* getelementptr inbounds ([5 x i8]* @load_namestr, i32 0, i32 0)), !llfi_injectfault !33
  ret %struct.Node** %fi2, !llfi_index !240
}

; Function Attrs: nounwind uwtable
define linkonce_odr i32* @_ZNSt3mapIP4NodeiSt4lessIS1_ESaISt4pairIKS1_iEEEixERS5_(%"class.std::map"* %this, %struct.Node** %__k) #3 align 2 {
  %1 = alloca %"class.std::map"*, align 8, !llfi_index !241
  %2 = alloca %struct.Node**, align 8, !llfi_index !242
  %__i = alloca %"struct.std::_Rb_tree_iterator", align 8, !llfi_index !243
  %3 = alloca %"struct.std::_Rb_tree_iterator", align 8, !llfi_index !244
  %4 = alloca %"struct.std::less", align 1, !llfi_index !245
  %5 = alloca %"struct.std::_Rb_tree_iterator", align 8, !llfi_index !246
  %6 = alloca %"struct.std::_Rb_tree_const_iterator", align 8, !llfi_index !247
  %7 = alloca %"class.std::tuple", align 8, !llfi_index !248
  %8 = alloca %"class.std::tuple.14", align 1, !llfi_index !249
  store %"class.std::map"* %this, %"class.std::map"** %1, align 8, !llfi_index !250
  store %struct.Node** %__k, %struct.Node*** %2, align 8, !llfi_index !251
  %9 = load %"class.std::map"** %1, !llfi_index !252
  %fi = call %"class.std::map"* @injectFault12(i64 251, %"class.std::map"* %9, i32 27, i32 0, i32 1, i32 0, i8* getelementptr inbounds ([5 x i8]* @load_namestr, i32 0, i32 0)), !llfi_injectfault !33
  %10 = load %struct.Node*** %2, align 8, !llfi_index !253
  %fi1 = call %struct.Node** @injectFault4(i64 252, %struct.Node** %10, i32 27, i32 0, i32 1, i32 0, i8* getelementptr inbounds ([5 x i8]* @load_namestr, i32 0, i32 0)), !llfi_injectfault !33
  %11 = call %"struct.std::_Rb_tree_node_base"* @_ZNSt3mapIP4NodeiSt4lessIS1_ESaISt4pairIKS1_iEEE11lower_boundERS5_(%"class.std::map"* %fi, %struct.Node** %fi1), !llfi_index !254
  %12 = getelementptr %"struct.std::_Rb_tree_iterator"* %__i, i32 0, i32 0, !llfi_index !255
  %fi2 = call %"struct.std::_Rb_tree_node_base"** @injectFault15(i64 254, %"struct.std::_Rb_tree_node_base"** %12, i32 29, i32 0, i32 1, i32 0, i8* getelementptr inbounds ([14 x i8]* @getelementptr_namestr, i32 0, i32 0)), !llfi_injectfault !33
  store %"struct.std::_Rb_tree_node_base"* %11, %"struct.std::_Rb_tree_node_base"** %fi2, !llfi_index !256
  %13 = call %"struct.std::_Rb_tree_node_base"* @_ZNSt3mapIP4NodeiSt4lessIS1_ESaISt4pairIKS1_iEEE3endEv(%"class.std::map"* %fi) #0, !llfi_index !257
  %14 = getelementptr %"struct.std::_Rb_tree_iterator"* %3, i32 0, i32 0, !llfi_index !258
  %fi3 = call %"struct.std::_Rb_tree_node_base"** @injectFault15(i64 257, %"struct.std::_Rb_tree_node_base"** %14, i32 29, i32 0, i32 1, i32 0, i8* getelementptr inbounds ([14 x i8]* @getelementptr_namestr, i32 0, i32 0)), !llfi_injectfault !33
  store %"struct.std::_Rb_tree_node_base"* %13, %"struct.std::_Rb_tree_node_base"** %fi3, !llfi_index !259
  %15 = call zeroext i1 @_ZNKSt17_Rb_tree_iteratorISt4pairIKP4NodeiEEeqERKS5_(%"struct.std::_Rb_tree_iterator"* %__i, %"struct.std::_Rb_tree_iterator"* %3) #0, !llfi_index !260
  br i1 %15, label %21, label %16, !llfi_index !261

; <label>:16                                      ; preds = %0
  call void @_ZNKSt3mapIP4NodeiSt4lessIS1_ESaISt4pairIKS1_iEEE8key_compEv(%"class.std::map"* %fi), !llfi_index !262
  %17 = load %struct.Node*** %2, align 8, !llfi_index !263
  %fi4 = call %struct.Node** @injectFault4(i64 262, %struct.Node** %17, i32 27, i32 0, i32 1, i32 0, i8* getelementptr inbounds ([5 x i8]* @load_namestr, i32 0, i32 0)), !llfi_injectfault !33
  %18 = call %"struct.std::pair"* @_ZNKSt17_Rb_tree_iteratorISt4pairIKP4NodeiEEdeEv(%"struct.std::_Rb_tree_iterator"* %__i) #0, !llfi_index !264
  %19 = getelementptr %"struct.std::pair"* %18, i32 0, i32 0, !llfi_index !265
  %fi5 = call %struct.Node** @injectFault4(i64 264, %struct.Node** %19, i32 29, i32 0, i32 1, i32 0, i8* getelementptr inbounds ([14 x i8]* @getelementptr_namestr, i32 0, i32 0)), !llfi_injectfault !33
  %20 = call zeroext i1 @_ZNKSt4lessIP4NodeEclERKS1_S4_(%"struct.std::less"* %4, %struct.Node** %fi4, %struct.Node** %fi5), !llfi_index !266
  br i1 %20, label %21, label %30, !llfi_index !267

; <label>:21                                      ; preds = %16, %0
  %22 = getelementptr %"class.std::map"* %fi, i32 0, i32 0, !llfi_index !268
  %fi6 = call %"class.std::_Rb_tree"* @injectFault14(i64 267, %"class.std::_Rb_tree"* %22, i32 29, i32 0, i32 1, i32 0, i8* getelementptr inbounds ([14 x i8]* @getelementptr_namestr, i32 0, i32 0)), !llfi_injectfault !33
  call void @_ZNSt23_Rb_tree_const_iteratorISt4pairIKP4NodeiEEC2ERKSt17_Rb_tree_iteratorIS4_E(%"struct.std::_Rb_tree_const_iterator"* %6, %"struct.std::_Rb_tree_iterator"* %__i) #0, !llfi_index !269
  %23 = load %struct.Node*** %2, align 8, !llfi_index !270
  %fi7 = call %struct.Node** @injectFault4(i64 269, %struct.Node** %23, i32 27, i32 0, i32 1, i32 0, i8* getelementptr inbounds ([5 x i8]* @load_namestr, i32 0, i32 0)), !llfi_injectfault !33
  call void @_ZNSt5tupleIJRKP4NodeEEC2ES3_(%"class.std::tuple"* %7, %struct.Node** %fi7), !llfi_index !271
  %24 = getelementptr %"struct.std::_Rb_tree_const_iterator"* %6, i32 0, i32 0, !llfi_index !272
  %fi8 = call %"struct.std::_Rb_tree_node_base"** @injectFault15(i64 271, %"struct.std::_Rb_tree_node_base"** %24, i32 29, i32 0, i32 1, i32 0, i8* getelementptr inbounds ([14 x i8]* @getelementptr_namestr, i32 0, i32 0)), !llfi_injectfault !33
  %25 = load %"struct.std::_Rb_tree_node_base"** %fi8, !llfi_index !273
  %fi9 = call %"struct.std::_Rb_tree_node_base"* @injectFault16(i64 272, %"struct.std::_Rb_tree_node_base"* %25, i32 27, i32 0, i32 1, i32 0, i8* getelementptr inbounds ([5 x i8]* @load_namestr, i32 0, i32 0)), !llfi_injectfault !33
  %26 = call %"struct.std::_Rb_tree_node_base"* @_ZNSt8_Rb_treeIP4NodeSt4pairIKS1_iESt10_Select1stIS4_ESt4lessIS1_ESaIS4_EE22_M_emplace_hint_uniqueIJRKSt21piecewise_construct_tSt5tupleIJRS3_EESF_IJEEEEESt17_Rb_tree_iteratorIS4_ESt23_Rb_tree_const_iteratorIS4_EDpOT_(%"class.std::_Rb_tree"* %fi6, %"struct.std::_Rb_tree_node_base"* %fi9, %"struct.std::piecewise_construct_t"* @_ZStL19piecewise_construct, %"class.std::tuple"* %7, %"class.std::tuple.14"* %8), !llfi_index !274
  %27 = getelementptr %"struct.std::_Rb_tree_iterator"* %5, i32 0, i32 0, !llfi_index !275
  %fi10 = call %"struct.std::_Rb_tree_node_base"** @injectFault15(i64 274, %"struct.std::_Rb_tree_node_base"** %27, i32 29, i32 0, i32 1, i32 0, i8* getelementptr inbounds ([14 x i8]* @getelementptr_namestr, i32 0, i32 0)), !llfi_injectfault !33
  store %"struct.std::_Rb_tree_node_base"* %26, %"struct.std::_Rb_tree_node_base"** %fi10, !llfi_index !276
  %28 = bitcast %"struct.std::_Rb_tree_iterator"* %__i to i8*, !llfi_index !277
  %fi11 = call i8* @injectFault18(i64 276, i8* %28, i32 44, i32 0, i32 1, i32 0, i8* getelementptr inbounds ([8 x i8]* @bitcast_namestr, i32 0, i32 0)), !llfi_injectfault !33
  %29 = bitcast %"struct.std::_Rb_tree_iterator"* %5 to i8*, !llfi_index !278
  %fi12 = call i8* @injectFault18(i64 277, i8* %29, i32 44, i32 0, i32 1, i32 0, i8* getelementptr inbounds ([8 x i8]* @bitcast_namestr, i32 0, i32 0)), !llfi_injectfault !33
  call void @llvm.memcpy.p0i8.p0i8.i64(i8* %fi11, i8* %fi12, i64 8, i32 8, i1 false), !llfi_index !279
  br label %30, !llfi_index !280

; <label>:30                                      ; preds = %21, %16
  %31 = call %"struct.std::pair"* @_ZNKSt17_Rb_tree_iteratorISt4pairIKP4NodeiEEdeEv(%"struct.std::_Rb_tree_iterator"* %__i) #0, !llfi_index !281
  %32 = getelementptr %"struct.std::pair"* %31, i32 0, i32 1, !llfi_index !282
  %fi13 = call i32* @injectFault8(i64 281, i32* %32, i32 29, i32 0, i32 1, i32 0, i8* getelementptr inbounds ([14 x i8]* @getelementptr_namestr, i32 0, i32 0)), !llfi_injectfault !33
  ret i32* %fi13, !llfi_index !283
}

; Function Attrs: nounwind uwtable
define linkonce_odr %"class.__gnu_cxx::__normal_iterator"* @_ZN9__gnu_cxx17__normal_iteratorIPKP4NodeSt6vectorIS2_SaIS2_EEEppEv(%"class.__gnu_cxx::__normal_iterator"* %this) #3 align 2 {
  %1 = alloca %"class.__gnu_cxx::__normal_iterator"*, align 8, !llfi_index !284
  store %"class.__gnu_cxx::__normal_iterator"* %this, %"class.__gnu_cxx::__normal_iterator"** %1, align 8, !llfi_index !285
  %2 = load %"class.__gnu_cxx::__normal_iterator"** %1, !llfi_index !286
  %fi = call %"class.__gnu_cxx::__normal_iterator"* @injectFault11(i64 285, %"class.__gnu_cxx::__normal_iterator"* %2, i32 27, i32 0, i32 1, i32 0, i8* getelementptr inbounds ([5 x i8]* @load_namestr, i32 0, i32 0)), !llfi_injectfault !33
  %3 = getelementptr %"class.__gnu_cxx::__normal_iterator"* %fi, i32 0, i32 0, !llfi_index !287
  %fi1 = call %struct.Node*** @injectFault3(i64 286, %struct.Node*** %3, i32 29, i32 0, i32 1, i32 0, i8* getelementptr inbounds ([14 x i8]* @getelementptr_namestr, i32 0, i32 0)), !llfi_injectfault !33
  %4 = load %struct.Node*** %fi1, align 8, !llfi_index !288
  %fi2 = call %struct.Node** @injectFault4(i64 287, %struct.Node** %4, i32 27, i32 0, i32 1, i32 0, i8* getelementptr inbounds ([5 x i8]* @load_namestr, i32 0, i32 0)), !llfi_injectfault !33
  %5 = getelementptr %struct.Node** %fi2, i32 1, !llfi_index !289
  %fi3 = call %struct.Node** @injectFault4(i64 288, %struct.Node** %5, i32 29, i32 0, i32 1, i32 0, i8* getelementptr inbounds ([14 x i8]* @getelementptr_namestr, i32 0, i32 0)), !llfi_injectfault !33
  store %struct.Node** %fi3, %struct.Node*** %fi1, align 8, !llfi_index !290
  ret %"class.__gnu_cxx::__normal_iterator"* %fi, !llfi_index !291
}

; Function Attrs: nounwind uwtable
define linkonce_odr void @_ZNSt6vectorIP4NodeSaIS1_EEC2Ev(%"class.std::vector"* %this) unnamed_addr #3 align 2 {
  %1 = alloca %"class.std::vector"*, align 8, !llfi_index !292
  store %"class.std::vector"* %this, %"class.std::vector"** %1, align 8, !llfi_index !293
  %2 = load %"class.std::vector"** %1, !llfi_index !294
  %fi = call %"class.std::vector"* @injectFault0(i64 293, %"class.std::vector"* %2, i32 27, i32 0, i32 1, i32 0, i8* getelementptr inbounds ([5 x i8]* @load_namestr, i32 0, i32 0)), !llfi_injectfault !33
  %3 = bitcast %"class.std::vector"* %fi to %"struct.std::_Vector_base"*, !llfi_index !295
  %fi1 = call %"struct.std::_Vector_base"* @injectFault9(i64 294, %"struct.std::_Vector_base"* %3, i32 44, i32 0, i32 1, i32 0, i8* getelementptr inbounds ([8 x i8]* @bitcast_namestr, i32 0, i32 0)), !llfi_injectfault !33
  call void @_ZNSt12_Vector_baseIP4NodeSaIS1_EEC2Ev(%"struct.std::_Vector_base"* %fi1), !llfi_index !296
  ret void, !llfi_index !297
}

; Function Attrs: nounwind uwtable
define linkonce_odr void @_ZNSt6vectorIP4NodeSaIS1_EE9push_backERKS1_(%"class.std::vector"* %this, %struct.Node** %__x) #3 align 2 {
  %1 = alloca %"class.std::vector"*, align 8, !llfi_index !298
  %2 = alloca %struct.Node**, align 8, !llfi_index !299
  store %"class.std::vector"* %this, %"class.std::vector"** %1, align 8, !llfi_index !300
  store %struct.Node** %__x, %struct.Node*** %2, align 8, !llfi_index !301
  %3 = load %"class.std::vector"** %1, !llfi_index !302
  %fi = call %"class.std::vector"* @injectFault0(i64 301, %"class.std::vector"* %3, i32 27, i32 0, i32 1, i32 0, i8* getelementptr inbounds ([5 x i8]* @load_namestr, i32 0, i32 0)), !llfi_injectfault !33
  %4 = bitcast %"class.std::vector"* %fi to %"struct.std::_Vector_base"*, !llfi_index !303
  %fi1 = call %"struct.std::_Vector_base"* @injectFault9(i64 302, %"struct.std::_Vector_base"* %4, i32 44, i32 0, i32 1, i32 0, i8* getelementptr inbounds ([8 x i8]* @bitcast_namestr, i32 0, i32 0)), !llfi_injectfault !33
  %5 = getelementptr %"struct.std::_Vector_base"* %fi1, i32 0, i32 0, !llfi_index !304
  %fi2 = call %"struct.std::_Vector_base<Node *, std::allocator<Node *> >::_Vector_impl"* @injectFault10(i64 303, %"struct.std::_Vector_base<Node *, std::allocator<Node *> >::_Vector_impl"* %5, i32 29, i32 0, i32 1, i32 0, i8* getelementptr inbounds ([14 x i8]* @getelementptr_namestr, i32 0, i32 0)), !llfi_injectfault !33
  %6 = getelementptr %"struct.std::_Vector_base<Node *, std::allocator<Node *> >::_Vector_impl"* %fi2, i32 0, i32 1, !llfi_index !305
  %fi3 = call %struct.Node*** @injectFault3(i64 304, %struct.Node*** %6, i32 29, i32 0, i32 1, i32 0, i8* getelementptr inbounds ([14 x i8]* @getelementptr_namestr, i32 0, i32 0)), !llfi_injectfault !33
  %7 = load %struct.Node*** %fi3, align 8, !llfi_index !306
  %fi4 = call %struct.Node** @injectFault4(i64 305, %struct.Node** %7, i32 27, i32 0, i32 1, i32 0, i8* getelementptr inbounds ([5 x i8]* @load_namestr, i32 0, i32 0)), !llfi_injectfault !33
  %8 = bitcast %"class.std::vector"* %fi to %"struct.std::_Vector_base"*, !llfi_index !307
  %fi5 = call %"struct.std::_Vector_base"* @injectFault9(i64 306, %"struct.std::_Vector_base"* %8, i32 44, i32 0, i32 1, i32 0, i8* getelementptr inbounds ([8 x i8]* @bitcast_namestr, i32 0, i32 0)), !llfi_injectfault !33
  %9 = getelementptr %"struct.std::_Vector_base"* %fi5, i32 0, i32 0, !llfi_index !308
  %fi7 = call %"struct.std::_Vector_base<Node *, std::allocator<Node *> >::_Vector_impl"* @injectFault10(i64 307, %"struct.std::_Vector_base<Node *, std::allocator<Node *> >::_Vector_impl"* %9, i32 29, i32 0, i32 1, i32 0, i8* getelementptr inbounds ([14 x i8]* @getelementptr_namestr, i32 0, i32 0)), !llfi_injectfault !33
  %10 = getelementptr %"struct.std::_Vector_base<Node *, std::allocator<Node *> >::_Vector_impl"* %fi7, i32 0, i32 2, !llfi_index !309
  %fi8 = call %struct.Node*** @injectFault3(i64 308, %struct.Node*** %10, i32 29, i32 0, i32 1, i32 0, i8* getelementptr inbounds ([14 x i8]* @getelementptr_namestr, i32 0, i32 0)), !llfi_injectfault !33
  %11 = load %struct.Node*** %fi8, align 8, !llfi_index !310
  %fi9 = call %struct.Node** @injectFault4(i64 309, %struct.Node** %11, i32 27, i32 0, i32 1, i32 0, i8* getelementptr inbounds ([5 x i8]* @load_namestr, i32 0, i32 0)), !llfi_injectfault !33
  %12 = icmp ne %struct.Node** %fi4, %fi9, !llfi_index !311
  %fi10 = call i1 @injectFault5(i64 310, i1 %12, i32 46, i32 0, i32 1, i32 0, i8* getelementptr inbounds ([5 x i8]* @icmp_namestr, i32 0, i32 0)), !llfi_injectfault !33
  br i1 %fi10, label %13, label %27, !llfi_index !312

; <label>:13                                      ; preds = %0
  %14 = bitcast %"class.std::vector"* %fi to %"struct.std::_Vector_base"*, !llfi_index !313
  %fi11 = call %"struct.std::_Vector_base"* @injectFault9(i64 312, %"struct.std::_Vector_base"* %14, i32 44, i32 0, i32 1, i32 0, i8* getelementptr inbounds ([8 x i8]* @bitcast_namestr, i32 0, i32 0)), !llfi_injectfault !33
  %15 = getelementptr %"struct.std::_Vector_base"* %fi11, i32 0, i32 0, !llfi_index !314
  %fi12 = call %"struct.std::_Vector_base<Node *, std::allocator<Node *> >::_Vector_impl"* @injectFault10(i64 313, %"struct.std::_Vector_base<Node *, std::allocator<Node *> >::_Vector_impl"* %15, i32 29, i32 0, i32 1, i32 0, i8* getelementptr inbounds ([14 x i8]* @getelementptr_namestr, i32 0, i32 0)), !llfi_injectfault !33
  %16 = bitcast %"struct.std::_Vector_base<Node *, std::allocator<Node *> >::_Vector_impl"* %fi12 to %"class.std::allocator"*, !llfi_index !315
  %fi13 = call %"class.std::allocator"* @injectFault20(i64 314, %"class.std::allocator"* %16, i32 44, i32 0, i32 1, i32 0, i8* getelementptr inbounds ([8 x i8]* @bitcast_namestr, i32 0, i32 0)), !llfi_injectfault !33
  %17 = bitcast %"class.std::vector"* %fi to %"struct.std::_Vector_base"*, !llfi_index !316
  %fi6 = call %"struct.std::_Vector_base"* @injectFault9(i64 315, %"struct.std::_Vector_base"* %17, i32 44, i32 0, i32 1, i32 0, i8* getelementptr inbounds ([8 x i8]* @bitcast_namestr, i32 0, i32 0)), !llfi_injectfault !33
  %18 = getelementptr %"struct.std::_Vector_base"* %fi6, i32 0, i32 0, !llfi_index !317
  %fi14 = call %"struct.std::_Vector_base<Node *, std::allocator<Node *> >::_Vector_impl"* @injectFault10(i64 316, %"struct.std::_Vector_base<Node *, std::allocator<Node *> >::_Vector_impl"* %18, i32 29, i32 0, i32 1, i32 0, i8* getelementptr inbounds ([14 x i8]* @getelementptr_namestr, i32 0, i32 0)), !llfi_injectfault !33
  %19 = getelementptr %"struct.std::_Vector_base<Node *, std::allocator<Node *> >::_Vector_impl"* %fi14, i32 0, i32 1, !llfi_index !318
  %fi15 = call %struct.Node*** @injectFault3(i64 317, %struct.Node*** %19, i32 29, i32 0, i32 1, i32 0, i8* getelementptr inbounds ([14 x i8]* @getelementptr_namestr, i32 0, i32 0)), !llfi_injectfault !33
  %20 = load %struct.Node*** %fi15, align 8, !llfi_index !319
  %fi16 = call %struct.Node** @injectFault4(i64 318, %struct.Node** %20, i32 27, i32 0, i32 1, i32 0, i8* getelementptr inbounds ([5 x i8]* @load_namestr, i32 0, i32 0)), !llfi_injectfault !33
  %21 = load %struct.Node*** %2, align 8, !llfi_index !320
  %fi17 = call %struct.Node** @injectFault4(i64 319, %struct.Node** %21, i32 27, i32 0, i32 1, i32 0, i8* getelementptr inbounds ([5 x i8]* @load_namestr, i32 0, i32 0)), !llfi_injectfault !33
  call void @_ZNSt16allocator_traitsISaIP4NodeEE9constructIS1_JRKS1_EEEvRS2_PT_DpOT0_(%"class.std::allocator"* %fi13, %struct.Node** %fi16, %struct.Node** %fi17), !llfi_index !321
  %22 = bitcast %"class.std::vector"* %fi to %"struct.std::_Vector_base"*, !llfi_index !322
  %fi18 = call %"struct.std::_Vector_base"* @injectFault9(i64 321, %"struct.std::_Vector_base"* %22, i32 44, i32 0, i32 1, i32 0, i8* getelementptr inbounds ([8 x i8]* @bitcast_namestr, i32 0, i32 0)), !llfi_injectfault !33
  %23 = getelementptr %"struct.std::_Vector_base"* %fi18, i32 0, i32 0, !llfi_index !323
  %fi19 = call %"struct.std::_Vector_base<Node *, std::allocator<Node *> >::_Vector_impl"* @injectFault10(i64 322, %"struct.std::_Vector_base<Node *, std::allocator<Node *> >::_Vector_impl"* %23, i32 29, i32 0, i32 1, i32 0, i8* getelementptr inbounds ([14 x i8]* @getelementptr_namestr, i32 0, i32 0)), !llfi_injectfault !33
  %24 = getelementptr %"struct.std::_Vector_base<Node *, std::allocator<Node *> >::_Vector_impl"* %fi19, i32 0, i32 1, !llfi_index !324
  %fi20 = call %struct.Node*** @injectFault3(i64 323, %struct.Node*** %24, i32 29, i32 0, i32 1, i32 0, i8* getelementptr inbounds ([14 x i8]* @getelementptr_namestr, i32 0, i32 0)), !llfi_injectfault !33
  %25 = load %struct.Node*** %fi20, align 8, !llfi_index !325
  %fi21 = call %struct.Node** @injectFault4(i64 324, %struct.Node** %25, i32 27, i32 0, i32 1, i32 0, i8* getelementptr inbounds ([5 x i8]* @load_namestr, i32 0, i32 0)), !llfi_injectfault !33
  %26 = getelementptr %struct.Node** %fi21, i32 1, !llfi_index !326
  %fi22 = call %struct.Node** @injectFault4(i64 325, %struct.Node** %26, i32 29, i32 0, i32 1, i32 0, i8* getelementptr inbounds ([14 x i8]* @getelementptr_namestr, i32 0, i32 0)), !llfi_injectfault !33
  store %struct.Node** %fi22, %struct.Node*** %fi20, align 8, !llfi_index !327
  br label %29, !llfi_index !328

; <label>:27                                      ; preds = %0
  %28 = load %struct.Node*** %2, align 8, !llfi_index !329
  %fi23 = call %struct.Node** @injectFault4(i64 328, %struct.Node** %28, i32 27, i32 0, i32 1, i32 0, i8* getelementptr inbounds ([5 x i8]* @load_namestr, i32 0, i32 0)), !llfi_injectfault !33
  call void @_ZNSt6vectorIP4NodeSaIS1_EE19_M_emplace_back_auxIJRKS1_EEEvDpOT_(%"class.std::vector"* %fi, %struct.Node** %fi23), !llfi_index !330
  br label %29, !llfi_index !331

; <label>:29                                      ; preds = %27, %13
  ret void, !llfi_index !332
}

; Function Attrs: nounwind uwtable
define linkonce_odr void @_ZNSt6vectorIiSaIiEE9push_backERKi(%"class.std::vector.0"* %this, i32* %__x) #3 align 2 {
  %1 = alloca %"class.std::vector.0"*, align 8, !llfi_index !333
  %2 = alloca i32*, align 8, !llfi_index !334
  store %"class.std::vector.0"* %this, %"class.std::vector.0"** %1, align 8, !llfi_index !335
  store i32* %__x, i32** %2, align 8, !llfi_index !336
  %3 = load %"class.std::vector.0"** %1, !llfi_index !337
  %fi = call %"class.std::vector.0"* @injectFault7(i64 336, %"class.std::vector.0"* %3, i32 27, i32 0, i32 1, i32 0, i8* getelementptr inbounds ([5 x i8]* @load_namestr, i32 0, i32 0)), !llfi_injectfault !33
  %4 = bitcast %"class.std::vector.0"* %fi to %"struct.std::_Vector_base.1"*, !llfi_index !338
  %fi1 = call %"struct.std::_Vector_base.1"* @injectFault19(i64 337, %"struct.std::_Vector_base.1"* %4, i32 44, i32 0, i32 1, i32 0, i8* getelementptr inbounds ([8 x i8]* @bitcast_namestr, i32 0, i32 0)), !llfi_injectfault !33
  %5 = getelementptr %"struct.std::_Vector_base.1"* %fi1, i32 0, i32 0, !llfi_index !339
  %fi2 = call %"struct.std::_Vector_base<int, std::allocator<int> >::_Vector_impl"* @injectFault21(i64 338, %"struct.std::_Vector_base<int, std::allocator<int> >::_Vector_impl"* %5, i32 29, i32 0, i32 1, i32 0, i8* getelementptr inbounds ([14 x i8]* @getelementptr_namestr, i32 0, i32 0)), !llfi_injectfault !33
  %6 = getelementptr %"struct.std::_Vector_base<int, std::allocator<int> >::_Vector_impl"* %fi2, i32 0, i32 1, !llfi_index !340
  %fi3 = call i32** @injectFault22(i64 339, i32** %6, i32 29, i32 0, i32 1, i32 0, i8* getelementptr inbounds ([14 x i8]* @getelementptr_namestr, i32 0, i32 0)), !llfi_injectfault !33
  %7 = load i32** %fi3, align 8, !llfi_index !341
  %fi4 = call i32* @injectFault8(i64 340, i32* %7, i32 27, i32 0, i32 1, i32 0, i8* getelementptr inbounds ([5 x i8]* @load_namestr, i32 0, i32 0)), !llfi_injectfault !33
  %8 = bitcast %"class.std::vector.0"* %fi to %"struct.std::_Vector_base.1"*, !llfi_index !342
  %fi5 = call %"struct.std::_Vector_base.1"* @injectFault19(i64 341, %"struct.std::_Vector_base.1"* %8, i32 44, i32 0, i32 1, i32 0, i8* getelementptr inbounds ([8 x i8]* @bitcast_namestr, i32 0, i32 0)), !llfi_injectfault !33
  %9 = getelementptr %"struct.std::_Vector_base.1"* %fi5, i32 0, i32 0, !llfi_index !343
  %fi7 = call %"struct.std::_Vector_base<int, std::allocator<int> >::_Vector_impl"* @injectFault21(i64 342, %"struct.std::_Vector_base<int, std::allocator<int> >::_Vector_impl"* %9, i32 29, i32 0, i32 1, i32 0, i8* getelementptr inbounds ([14 x i8]* @getelementptr_namestr, i32 0, i32 0)), !llfi_injectfault !33
  %10 = getelementptr %"struct.std::_Vector_base<int, std::allocator<int> >::_Vector_impl"* %fi7, i32 0, i32 2, !llfi_index !344
  %fi8 = call i32** @injectFault22(i64 343, i32** %10, i32 29, i32 0, i32 1, i32 0, i8* getelementptr inbounds ([14 x i8]* @getelementptr_namestr, i32 0, i32 0)), !llfi_injectfault !33
  %11 = load i32** %fi8, align 8, !llfi_index !345
  %fi9 = call i32* @injectFault8(i64 344, i32* %11, i32 27, i32 0, i32 1, i32 0, i8* getelementptr inbounds ([5 x i8]* @load_namestr, i32 0, i32 0)), !llfi_injectfault !33
  %12 = icmp ne i32* %fi4, %fi9, !llfi_index !346
  %fi10 = call i1 @injectFault5(i64 345, i1 %12, i32 46, i32 0, i32 1, i32 0, i8* getelementptr inbounds ([5 x i8]* @icmp_namestr, i32 0, i32 0)), !llfi_injectfault !33
  br i1 %fi10, label %13, label %27, !llfi_index !347

; <label>:13                                      ; preds = %0
  %14 = bitcast %"class.std::vector.0"* %fi to %"struct.std::_Vector_base.1"*, !llfi_index !348
  %fi11 = call %"struct.std::_Vector_base.1"* @injectFault19(i64 347, %"struct.std::_Vector_base.1"* %14, i32 44, i32 0, i32 1, i32 0, i8* getelementptr inbounds ([8 x i8]* @bitcast_namestr, i32 0, i32 0)), !llfi_injectfault !33
  %15 = getelementptr %"struct.std::_Vector_base.1"* %fi11, i32 0, i32 0, !llfi_index !349
  %fi12 = call %"struct.std::_Vector_base<int, std::allocator<int> >::_Vector_impl"* @injectFault21(i64 348, %"struct.std::_Vector_base<int, std::allocator<int> >::_Vector_impl"* %15, i32 29, i32 0, i32 1, i32 0, i8* getelementptr inbounds ([14 x i8]* @getelementptr_namestr, i32 0, i32 0)), !llfi_injectfault !33
  %16 = bitcast %"struct.std::_Vector_base<int, std::allocator<int> >::_Vector_impl"* %fi12 to %"class.std::allocator.2"*, !llfi_index !350
  %fi13 = call %"class.std::allocator.2"* @injectFault23(i64 349, %"class.std::allocator.2"* %16, i32 44, i32 0, i32 1, i32 0, i8* getelementptr inbounds ([8 x i8]* @bitcast_namestr, i32 0, i32 0)), !llfi_injectfault !33
  %17 = bitcast %"class.std::vector.0"* %fi to %"struct.std::_Vector_base.1"*, !llfi_index !351
  %fi6 = call %"struct.std::_Vector_base.1"* @injectFault19(i64 350, %"struct.std::_Vector_base.1"* %17, i32 44, i32 0, i32 1, i32 0, i8* getelementptr inbounds ([8 x i8]* @bitcast_namestr, i32 0, i32 0)), !llfi_injectfault !33
  %18 = getelementptr %"struct.std::_Vector_base.1"* %fi6, i32 0, i32 0, !llfi_index !352
  %fi14 = call %"struct.std::_Vector_base<int, std::allocator<int> >::_Vector_impl"* @injectFault21(i64 351, %"struct.std::_Vector_base<int, std::allocator<int> >::_Vector_impl"* %18, i32 29, i32 0, i32 1, i32 0, i8* getelementptr inbounds ([14 x i8]* @getelementptr_namestr, i32 0, i32 0)), !llfi_injectfault !33
  %19 = getelementptr %"struct.std::_Vector_base<int, std::allocator<int> >::_Vector_impl"* %fi14, i32 0, i32 1, !llfi_index !353
  %fi15 = call i32** @injectFault22(i64 352, i32** %19, i32 29, i32 0, i32 1, i32 0, i8* getelementptr inbounds ([14 x i8]* @getelementptr_namestr, i32 0, i32 0)), !llfi_injectfault !33
  %20 = load i32** %fi15, align 8, !llfi_index !354
  %fi16 = call i32* @injectFault8(i64 353, i32* %20, i32 27, i32 0, i32 1, i32 0, i8* getelementptr inbounds ([5 x i8]* @load_namestr, i32 0, i32 0)), !llfi_injectfault !33
  %21 = load i32** %2, align 8, !llfi_index !355
  %fi17 = call i32* @injectFault8(i64 354, i32* %21, i32 27, i32 0, i32 1, i32 0, i8* getelementptr inbounds ([5 x i8]* @load_namestr, i32 0, i32 0)), !llfi_injectfault !33
  call void @_ZNSt16allocator_traitsISaIiEE9constructIiJRKiEEEvRS0_PT_DpOT0_(%"class.std::allocator.2"* %fi13, i32* %fi16, i32* %fi17), !llfi_index !356
  %22 = bitcast %"class.std::vector.0"* %fi to %"struct.std::_Vector_base.1"*, !llfi_index !357
  %fi18 = call %"struct.std::_Vector_base.1"* @injectFault19(i64 356, %"struct.std::_Vector_base.1"* %22, i32 44, i32 0, i32 1, i32 0, i8* getelementptr inbounds ([8 x i8]* @bitcast_namestr, i32 0, i32 0)), !llfi_injectfault !33
  %23 = getelementptr %"struct.std::_Vector_base.1"* %fi18, i32 0, i32 0, !llfi_index !358
  %fi19 = call %"struct.std::_Vector_base<int, std::allocator<int> >::_Vector_impl"* @injectFault21(i64 357, %"struct.std::_Vector_base<int, std::allocator<int> >::_Vector_impl"* %23, i32 29, i32 0, i32 1, i32 0, i8* getelementptr inbounds ([14 x i8]* @getelementptr_namestr, i32 0, i32 0)), !llfi_injectfault !33
  %24 = getelementptr %"struct.std::_Vector_base<int, std::allocator<int> >::_Vector_impl"* %fi19, i32 0, i32 1, !llfi_index !359
  %fi20 = call i32** @injectFault22(i64 358, i32** %24, i32 29, i32 0, i32 1, i32 0, i8* getelementptr inbounds ([14 x i8]* @getelementptr_namestr, i32 0, i32 0)), !llfi_injectfault !33
  %25 = load i32** %fi20, align 8, !llfi_index !360
  %fi21 = call i32* @injectFault8(i64 359, i32* %25, i32 27, i32 0, i32 1, i32 0, i8* getelementptr inbounds ([5 x i8]* @load_namestr, i32 0, i32 0)), !llfi_injectfault !33
  %26 = getelementptr i32* %fi21, i32 1, !llfi_index !361
  %fi22 = call i32* @injectFault8(i64 360, i32* %26, i32 29, i32 0, i32 1, i32 0, i8* getelementptr inbounds ([14 x i8]* @getelementptr_namestr, i32 0, i32 0)), !llfi_injectfault !33
  store i32* %fi22, i32** %fi20, align 8, !llfi_index !362
  br label %29, !llfi_index !363

; <label>:27                                      ; preds = %0
  %28 = load i32** %2, align 8, !llfi_index !364
  %fi23 = call i32* @injectFault8(i64 363, i32* %28, i32 27, i32 0, i32 1, i32 0, i8* getelementptr inbounds ([5 x i8]* @load_namestr, i32 0, i32 0)), !llfi_injectfault !33
  call void @_ZNSt6vectorIiSaIiEE19_M_emplace_back_auxIJRKiEEEvDpOT_(%"class.std::vector.0"* %fi, i32* %fi23), !llfi_index !365
  br label %29, !llfi_index !366

; <label>:29                                      ; preds = %27, %13
  ret void, !llfi_index !367
}

; Function Attrs: nounwind uwtable
define linkonce_odr zeroext i1 @_ZNKSt6vectorIP4NodeSaIS1_EE5emptyEv(%"class.std::vector"* %this) #3 align 2 {
  %1 = alloca %"class.std::vector"*, align 8, !llfi_index !368
  %2 = alloca %"class.__gnu_cxx::__normal_iterator", align 8, !llfi_index !369
  %3 = alloca %"class.__gnu_cxx::__normal_iterator", align 8, !llfi_index !370
  store %"class.std::vector"* %this, %"class.std::vector"** %1, align 8, !llfi_index !371
  %4 = load %"class.std::vector"** %1, !llfi_index !372
  %fi = call %"class.std::vector"* @injectFault0(i64 371, %"class.std::vector"* %4, i32 27, i32 0, i32 1, i32 0, i8* getelementptr inbounds ([5 x i8]* @load_namestr, i32 0, i32 0)), !llfi_injectfault !33
  %5 = call %struct.Node** @_ZNKSt6vectorIP4NodeSaIS1_EE5beginEv(%"class.std::vector"* %fi) #0, !llfi_index !373
  %6 = getelementptr %"class.__gnu_cxx::__normal_iterator"* %2, i32 0, i32 0, !llfi_index !374
  %fi1 = call %struct.Node*** @injectFault3(i64 373, %struct.Node*** %6, i32 29, i32 0, i32 1, i32 0, i8* getelementptr inbounds ([14 x i8]* @getelementptr_namestr, i32 0, i32 0)), !llfi_injectfault !33
  store %struct.Node** %5, %struct.Node*** %fi1, !llfi_index !375
  %7 = call %struct.Node** @_ZNKSt6vectorIP4NodeSaIS1_EE3endEv(%"class.std::vector"* %fi) #0, !llfi_index !376
  %8 = getelementptr %"class.__gnu_cxx::__normal_iterator"* %3, i32 0, i32 0, !llfi_index !377
  %fi2 = call %struct.Node*** @injectFault3(i64 376, %struct.Node*** %8, i32 29, i32 0, i32 1, i32 0, i8* getelementptr inbounds ([14 x i8]* @getelementptr_namestr, i32 0, i32 0)), !llfi_injectfault !33
  store %struct.Node** %7, %struct.Node*** %fi2, !llfi_index !378
  %9 = call zeroext i1 @_ZN9__gnu_cxxeqIPKP4NodeSt6vectorIS2_SaIS2_EEEEbRKNS_17__normal_iteratorIT_T0_EESD_(%"class.__gnu_cxx::__normal_iterator"* %2, %"class.__gnu_cxx::__normal_iterator"* %3) #0, !llfi_index !379
  ret i1 %9, !llfi_index !380
}

; Function Attrs: nounwind uwtable
define linkonce_odr void @_ZNSt6vectorIP4NodeSaIS1_EE5clearEv(%"class.std::vector"* %this) #3 align 2 {
  %1 = alloca %"class.std::vector"*, align 8, !llfi_index !381
  store %"class.std::vector"* %this, %"class.std::vector"** %1, align 8, !llfi_index !382
  %2 = load %"class.std::vector"** %1, !llfi_index !383
  %fi2 = call %"class.std::vector"* @injectFault0(i64 382, %"class.std::vector"* %2, i32 27, i32 0, i32 1, i32 0, i8* getelementptr inbounds ([5 x i8]* @load_namestr, i32 0, i32 0)), !llfi_injectfault !33
  %3 = bitcast %"class.std::vector"* %fi2 to %"struct.std::_Vector_base"*, !llfi_index !384
  %fi3 = call %"struct.std::_Vector_base"* @injectFault9(i64 383, %"struct.std::_Vector_base"* %3, i32 44, i32 0, i32 1, i32 0, i8* getelementptr inbounds ([8 x i8]* @bitcast_namestr, i32 0, i32 0)), !llfi_injectfault !33
  %4 = getelementptr %"struct.std::_Vector_base"* %fi3, i32 0, i32 0, !llfi_index !385
  %fi4 = call %"struct.std::_Vector_base<Node *, std::allocator<Node *> >::_Vector_impl"* @injectFault10(i64 384, %"struct.std::_Vector_base<Node *, std::allocator<Node *> >::_Vector_impl"* %4, i32 29, i32 0, i32 1, i32 0, i8* getelementptr inbounds ([14 x i8]* @getelementptr_namestr, i32 0, i32 0)), !llfi_injectfault !33
  %5 = getelementptr %"struct.std::_Vector_base<Node *, std::allocator<Node *> >::_Vector_impl"* %fi4, i32 0, i32 0, !llfi_index !386
  %fi = call %struct.Node*** @injectFault3(i64 385, %struct.Node*** %5, i32 29, i32 0, i32 1, i32 0, i8* getelementptr inbounds ([14 x i8]* @getelementptr_namestr, i32 0, i32 0)), !llfi_injectfault !33
  %6 = load %struct.Node*** %fi, align 8, !llfi_index !387
  %fi1 = call %struct.Node** @injectFault4(i64 386, %struct.Node** %6, i32 27, i32 0, i32 1, i32 0, i8* getelementptr inbounds ([5 x i8]* @load_namestr, i32 0, i32 0)), !llfi_injectfault !33
  call void @_ZNSt6vectorIP4NodeSaIS1_EE15_M_erase_at_endEPS1_(%"class.std::vector"* %fi2, %struct.Node** %fi1) #0, !llfi_index !388
  ret void, !llfi_index !389
}

; Function Attrs: nounwind uwtable
define linkonce_odr %struct.Node** @_ZNSt6vectorIP4NodeSaIS1_EE5beginEv(%"class.std::vector"* %this) #3 align 2 {
  %1 = alloca %"class.__gnu_cxx::__normal_iterator.8", align 8, !llfi_index !390
  %2 = alloca %"class.std::vector"*, align 8, !llfi_index !391
  store %"class.std::vector"* %this, %"class.std::vector"** %2, align 8, !llfi_index !392
  %3 = load %"class.std::vector"** %2, !llfi_index !393
  %fi2 = call %"class.std::vector"* @injectFault0(i64 392, %"class.std::vector"* %3, i32 27, i32 0, i32 1, i32 0, i8* getelementptr inbounds ([5 x i8]* @load_namestr, i32 0, i32 0)), !llfi_injectfault !33
  %4 = bitcast %"class.std::vector"* %fi2 to %"struct.std::_Vector_base"*, !llfi_index !394
  %fi3 = call %"struct.std::_Vector_base"* @injectFault9(i64 393, %"struct.std::_Vector_base"* %4, i32 44, i32 0, i32 1, i32 0, i8* getelementptr inbounds ([8 x i8]* @bitcast_namestr, i32 0, i32 0)), !llfi_injectfault !33
  %5 = getelementptr %"struct.std::_Vector_base"* %fi3, i32 0, i32 0, !llfi_index !395
  %fi4 = call %"struct.std::_Vector_base<Node *, std::allocator<Node *> >::_Vector_impl"* @injectFault10(i64 394, %"struct.std::_Vector_base<Node *, std::allocator<Node *> >::_Vector_impl"* %5, i32 29, i32 0, i32 1, i32 0, i8* getelementptr inbounds ([14 x i8]* @getelementptr_namestr, i32 0, i32 0)), !llfi_injectfault !33
  %6 = getelementptr %"struct.std::_Vector_base<Node *, std::allocator<Node *> >::_Vector_impl"* %fi4, i32 0, i32 0, !llfi_index !396
  %fi5 = call %struct.Node*** @injectFault3(i64 395, %struct.Node*** %6, i32 29, i32 0, i32 1, i32 0, i8* getelementptr inbounds ([14 x i8]* @getelementptr_namestr, i32 0, i32 0)), !llfi_injectfault !33
  call void @_ZN9__gnu_cxx17__normal_iteratorIPP4NodeSt6vectorIS2_SaIS2_EEEC2ERKS3_(%"class.__gnu_cxx::__normal_iterator.8"* %1, %struct.Node*** %fi5) #0, !llfi_index !397
  %7 = getelementptr %"class.__gnu_cxx::__normal_iterator.8"* %1, i32 0, i32 0, !llfi_index !398
  %fi = call %struct.Node*** @injectFault3(i64 397, %struct.Node*** %7, i32 29, i32 0, i32 1, i32 0, i8* getelementptr inbounds ([14 x i8]* @getelementptr_namestr, i32 0, i32 0)), !llfi_injectfault !33
  %8 = load %struct.Node*** %fi, !llfi_index !399
  %fi1 = call %struct.Node** @injectFault4(i64 398, %struct.Node** %8, i32 27, i32 0, i32 1, i32 0, i8* getelementptr inbounds ([5 x i8]* @load_namestr, i32 0, i32 0)), !llfi_injectfault !33
  ret %struct.Node** %fi1, !llfi_index !400
}

; Function Attrs: nounwind uwtable
define linkonce_odr %struct.Node** @_ZNSt6vectorIP4NodeSaIS1_EE3endEv(%"class.std::vector"* %this) #3 align 2 {
  %1 = alloca %"class.__gnu_cxx::__normal_iterator.8", align 8, !llfi_index !401
  %2 = alloca %"class.std::vector"*, align 8, !llfi_index !402
  store %"class.std::vector"* %this, %"class.std::vector"** %2, align 8, !llfi_index !403
  %3 = load %"class.std::vector"** %2, !llfi_index !404
  %fi = call %"class.std::vector"* @injectFault0(i64 403, %"class.std::vector"* %3, i32 27, i32 0, i32 1, i32 0, i8* getelementptr inbounds ([5 x i8]* @load_namestr, i32 0, i32 0)), !llfi_injectfault !33
  %4 = bitcast %"class.std::vector"* %fi to %"struct.std::_Vector_base"*, !llfi_index !405
  %fi1 = call %"struct.std::_Vector_base"* @injectFault9(i64 404, %"struct.std::_Vector_base"* %4, i32 44, i32 0, i32 1, i32 0, i8* getelementptr inbounds ([8 x i8]* @bitcast_namestr, i32 0, i32 0)), !llfi_injectfault !33
  %5 = getelementptr %"struct.std::_Vector_base"* %fi1, i32 0, i32 0, !llfi_index !406
  %fi2 = call %"struct.std::_Vector_base<Node *, std::allocator<Node *> >::_Vector_impl"* @injectFault10(i64 405, %"struct.std::_Vector_base<Node *, std::allocator<Node *> >::_Vector_impl"* %5, i32 29, i32 0, i32 1, i32 0, i8* getelementptr inbounds ([14 x i8]* @getelementptr_namestr, i32 0, i32 0)), !llfi_injectfault !33
  %6 = getelementptr %"struct.std::_Vector_base<Node *, std::allocator<Node *> >::_Vector_impl"* %fi2, i32 0, i32 1, !llfi_index !407
  %fi3 = call %struct.Node*** @injectFault3(i64 406, %struct.Node*** %6, i32 29, i32 0, i32 1, i32 0, i8* getelementptr inbounds ([14 x i8]* @getelementptr_namestr, i32 0, i32 0)), !llfi_injectfault !33
  call void @_ZN9__gnu_cxx17__normal_iteratorIPP4NodeSt6vectorIS2_SaIS2_EEEC2ERKS3_(%"class.__gnu_cxx::__normal_iterator.8"* %1, %struct.Node*** %fi3) #0, !llfi_index !408
  %7 = getelementptr %"class.__gnu_cxx::__normal_iterator.8"* %1, i32 0, i32 0, !llfi_index !409
  %fi4 = call %struct.Node*** @injectFault3(i64 408, %struct.Node*** %7, i32 29, i32 0, i32 1, i32 0, i8* getelementptr inbounds ([14 x i8]* @getelementptr_namestr, i32 0, i32 0)), !llfi_injectfault !33
  %8 = load %struct.Node*** %fi4, !llfi_index !410
  %fi5 = call %struct.Node** @injectFault4(i64 409, %struct.Node** %8, i32 27, i32 0, i32 1, i32 0, i8* getelementptr inbounds ([5 x i8]* @load_namestr, i32 0, i32 0)), !llfi_injectfault !33
  ret %struct.Node** %fi5, !llfi_index !411
}

; Function Attrs: inlinehint nounwind uwtable
define linkonce_odr zeroext i1 @_ZN9__gnu_cxxneIPP4NodeSt6vectorIS2_SaIS2_EEEEbRKNS_17__normal_iteratorIT_T0_EESC_(%"class.__gnu_cxx::__normal_iterator.8"* %__lhs, %"class.__gnu_cxx::__normal_iterator.8"* %__rhs) #4 {
  %1 = alloca %"class.__gnu_cxx::__normal_iterator.8"*, align 8, !llfi_index !412
  %2 = alloca %"class.__gnu_cxx::__normal_iterator.8"*, align 8, !llfi_index !413
  store %"class.__gnu_cxx::__normal_iterator.8"* %__lhs, %"class.__gnu_cxx::__normal_iterator.8"** %1, align 8, !llfi_index !414
  store %"class.__gnu_cxx::__normal_iterator.8"* %__rhs, %"class.__gnu_cxx::__normal_iterator.8"** %2, align 8, !llfi_index !415
  %3 = load %"class.__gnu_cxx::__normal_iterator.8"** %1, align 8, !llfi_index !416
  %fi = call %"class.__gnu_cxx::__normal_iterator.8"* @injectFault17(i64 415, %"class.__gnu_cxx::__normal_iterator.8"* %3, i32 27, i32 0, i32 1, i32 0, i8* getelementptr inbounds ([5 x i8]* @load_namestr, i32 0, i32 0)), !llfi_injectfault !33
  %4 = call %struct.Node*** @_ZNK9__gnu_cxx17__normal_iteratorIPP4NodeSt6vectorIS2_SaIS2_EEE4baseEv(%"class.__gnu_cxx::__normal_iterator.8"* %fi) #0, !llfi_index !417
  %5 = load %struct.Node*** %4, !llfi_index !418
  %fi1 = call %struct.Node** @injectFault4(i64 417, %struct.Node** %5, i32 27, i32 0, i32 1, i32 0, i8* getelementptr inbounds ([5 x i8]* @load_namestr, i32 0, i32 0)), !llfi_injectfault !33
  %6 = load %"class.__gnu_cxx::__normal_iterator.8"** %2, align 8, !llfi_index !419
  %fi2 = call %"class.__gnu_cxx::__normal_iterator.8"* @injectFault17(i64 418, %"class.__gnu_cxx::__normal_iterator.8"* %6, i32 27, i32 0, i32 1, i32 0, i8* getelementptr inbounds ([5 x i8]* @load_namestr, i32 0, i32 0)), !llfi_injectfault !33
  %7 = call %struct.Node*** @_ZNK9__gnu_cxx17__normal_iteratorIPP4NodeSt6vectorIS2_SaIS2_EEE4baseEv(%"class.__gnu_cxx::__normal_iterator.8"* %fi2) #0, !llfi_index !420
  %8 = load %struct.Node*** %7, !llfi_index !421
  %fi3 = call %struct.Node** @injectFault4(i64 420, %struct.Node** %8, i32 27, i32 0, i32 1, i32 0, i8* getelementptr inbounds ([5 x i8]* @load_namestr, i32 0, i32 0)), !llfi_injectfault !33
  %9 = icmp ne %struct.Node** %fi1, %fi3, !llfi_index !422
  %fi4 = call i1 @injectFault5(i64 421, i1 %9, i32 46, i32 0, i32 1, i32 0, i8* getelementptr inbounds ([5 x i8]* @icmp_namestr, i32 0, i32 0)), !llfi_injectfault !33
  ret i1 %fi4, !llfi_index !423
}

; Function Attrs: nounwind uwtable
define linkonce_odr %struct.Node** @_ZNK9__gnu_cxx17__normal_iteratorIPP4NodeSt6vectorIS2_SaIS2_EEEdeEv(%"class.__gnu_cxx::__normal_iterator.8"* %this) #3 align 2 {
  %1 = alloca %"class.__gnu_cxx::__normal_iterator.8"*, align 8, !llfi_index !424
  store %"class.__gnu_cxx::__normal_iterator.8"* %this, %"class.__gnu_cxx::__normal_iterator.8"** %1, align 8, !llfi_index !425
  %2 = load %"class.__gnu_cxx::__normal_iterator.8"** %1, !llfi_index !426
  %fi = call %"class.__gnu_cxx::__normal_iterator.8"* @injectFault17(i64 425, %"class.__gnu_cxx::__normal_iterator.8"* %2, i32 27, i32 0, i32 1, i32 0, i8* getelementptr inbounds ([5 x i8]* @load_namestr, i32 0, i32 0)), !llfi_injectfault !33
  %3 = getelementptr %"class.__gnu_cxx::__normal_iterator.8"* %fi, i32 0, i32 0, !llfi_index !427
  %fi1 = call %struct.Node*** @injectFault3(i64 426, %struct.Node*** %3, i32 29, i32 0, i32 1, i32 0, i8* getelementptr inbounds ([14 x i8]* @getelementptr_namestr, i32 0, i32 0)), !llfi_injectfault !33
  %4 = load %struct.Node*** %fi1, align 8, !llfi_index !428
  %fi2 = call %struct.Node** @injectFault4(i64 427, %struct.Node** %4, i32 27, i32 0, i32 1, i32 0, i8* getelementptr inbounds ([5 x i8]* @load_namestr, i32 0, i32 0)), !llfi_injectfault !33
  ret %struct.Node** %fi2, !llfi_index !429
}

; Function Attrs: nounwind uwtable
define linkonce_odr %"class.__gnu_cxx::__normal_iterator.8"* @_ZN9__gnu_cxx17__normal_iteratorIPP4NodeSt6vectorIS2_SaIS2_EEEppEv(%"class.__gnu_cxx::__normal_iterator.8"* %this) #3 align 2 {
  %1 = alloca %"class.__gnu_cxx::__normal_iterator.8"*, align 8, !llfi_index !430
  store %"class.__gnu_cxx::__normal_iterator.8"* %this, %"class.__gnu_cxx::__normal_iterator.8"** %1, align 8, !llfi_index !431
  %2 = load %"class.__gnu_cxx::__normal_iterator.8"** %1, !llfi_index !432
  %fi = call %"class.__gnu_cxx::__normal_iterator.8"* @injectFault17(i64 431, %"class.__gnu_cxx::__normal_iterator.8"* %2, i32 27, i32 0, i32 1, i32 0, i8* getelementptr inbounds ([5 x i8]* @load_namestr, i32 0, i32 0)), !llfi_injectfault !33
  %3 = getelementptr %"class.__gnu_cxx::__normal_iterator.8"* %fi, i32 0, i32 0, !llfi_index !433
  %fi1 = call %struct.Node*** @injectFault3(i64 432, %struct.Node*** %3, i32 29, i32 0, i32 1, i32 0, i8* getelementptr inbounds ([14 x i8]* @getelementptr_namestr, i32 0, i32 0)), !llfi_injectfault !33
  %4 = load %struct.Node*** %fi1, align 8, !llfi_index !434
  %fi2 = call %struct.Node** @injectFault4(i64 433, %struct.Node** %4, i32 27, i32 0, i32 1, i32 0, i8* getelementptr inbounds ([5 x i8]* @load_namestr, i32 0, i32 0)), !llfi_injectfault !33
  %5 = getelementptr %struct.Node** %fi2, i32 1, !llfi_index !435
  %fi3 = call %struct.Node** @injectFault4(i64 434, %struct.Node** %5, i32 29, i32 0, i32 1, i32 0, i8* getelementptr inbounds ([14 x i8]* @getelementptr_namestr, i32 0, i32 0)), !llfi_injectfault !33
  store %struct.Node** %fi3, %struct.Node*** %fi1, align 8, !llfi_index !436
  ret %"class.__gnu_cxx::__normal_iterator.8"* %fi, !llfi_index !437
}

; Function Attrs: nounwind uwtable
define linkonce_odr %"class.std::vector"* @_ZNSt6vectorIP4NodeSaIS1_EEaSERKS3_(%"class.std::vector"* %this, %"class.std::vector"* %__x) #3 align 2 {
  %1 = alloca %"class.std::vector"*, align 8, !llfi_index !438
  %2 = alloca %"class.std::vector"*, align 8, !llfi_index !439
  %__xlen = alloca i64, align 8, !llfi_index !440
  %__tmp = alloca %struct.Node**, align 8, !llfi_index !441
  %3 = alloca %"class.__gnu_cxx::__normal_iterator", align 8, !llfi_index !442
  %4 = alloca %"class.__gnu_cxx::__normal_iterator", align 8, !llfi_index !443
  %5 = alloca %"class.__gnu_cxx::__normal_iterator.8", align 8, !llfi_index !444
  %6 = alloca %"class.__gnu_cxx::__normal_iterator", align 8, !llfi_index !445
  %7 = alloca %"class.__gnu_cxx::__normal_iterator", align 8, !llfi_index !446
  %8 = alloca %"class.__gnu_cxx::__normal_iterator.8", align 8, !llfi_index !447
  %9 = alloca %"class.__gnu_cxx::__normal_iterator.8", align 8, !llfi_index !448
  store %"class.std::vector"* %this, %"class.std::vector"** %1, align 8, !llfi_index !449
  store %"class.std::vector"* %__x, %"class.std::vector"** %2, align 8, !llfi_index !450
  %10 = load %"class.std::vector"** %1, !llfi_index !451
  %fi = call %"class.std::vector"* @injectFault0(i64 450, %"class.std::vector"* %10, i32 27, i32 0, i32 1, i32 0, i8* getelementptr inbounds ([5 x i8]* @load_namestr, i32 0, i32 0)), !llfi_injectfault !33
  %11 = load %"class.std::vector"** %2, align 8, !llfi_index !452
  %fi1 = call %"class.std::vector"* @injectFault0(i64 451, %"class.std::vector"* %11, i32 27, i32 0, i32 1, i32 0, i8* getelementptr inbounds ([5 x i8]* @load_namestr, i32 0, i32 0)), !llfi_injectfault !33
  %12 = icmp ne %"class.std::vector"* %fi1, %fi, !llfi_index !453
  %fi2 = call i1 @injectFault5(i64 452, i1 %12, i32 46, i32 0, i32 1, i32 0, i8* getelementptr inbounds ([5 x i8]* @icmp_namestr, i32 0, i32 0)), !llfi_injectfault !33
  br i1 %fi2, label %13, label %149, !llfi_index !454

; <label>:13                                      ; preds = %0
  %14 = load %"class.std::vector"** %2, align 8, !llfi_index !455
  %fi3 = call %"class.std::vector"* @injectFault0(i64 454, %"class.std::vector"* %14, i32 27, i32 0, i32 1, i32 0, i8* getelementptr inbounds ([5 x i8]* @load_namestr, i32 0, i32 0)), !llfi_injectfault !33
  %15 = call i64 @_ZNKSt6vectorIP4NodeSaIS1_EE4sizeEv(%"class.std::vector"* %fi3) #0, !llfi_index !456
  store i64 %15, i64* %__xlen, align 8, !llfi_index !457
  %16 = load i64* %__xlen, align 8, !llfi_index !458
  %fi4 = call i64 @injectFault24(i64 457, i64 %16, i32 27, i32 0, i32 1, i32 0, i8* getelementptr inbounds ([5 x i8]* @load_namestr, i32 0, i32 0)), !llfi_injectfault !33
  %17 = call i64 @_ZNKSt6vectorIP4NodeSaIS1_EE8capacityEv(%"class.std::vector"* %fi) #0, !llfi_index !459
  %18 = icmp ugt i64 %fi4, %17, !llfi_index !460
  %fi6 = call i1 @injectFault5(i64 459, i1 %18, i32 46, i32 0, i32 1, i32 0, i8* getelementptr inbounds ([5 x i8]* @icmp_namestr, i32 0, i32 0)), !llfi_injectfault !33
  br i1 %fi6, label %19, label %72, !llfi_index !461

; <label>:19                                      ; preds = %13
  %20 = load i64* %__xlen, align 8, !llfi_index !462
  %fi7 = call i64 @injectFault24(i64 461, i64 %20, i32 27, i32 0, i32 1, i32 0, i8* getelementptr inbounds ([5 x i8]* @load_namestr, i32 0, i32 0)), !llfi_injectfault !33
  %21 = load %"class.std::vector"** %2, align 8, !llfi_index !463
  %fi8 = call %"class.std::vector"* @injectFault0(i64 462, %"class.std::vector"* %21, i32 27, i32 0, i32 1, i32 0, i8* getelementptr inbounds ([5 x i8]* @load_namestr, i32 0, i32 0)), !llfi_injectfault !33
  %22 = call %struct.Node** @_ZNKSt6vectorIP4NodeSaIS1_EE5beginEv(%"class.std::vector"* %fi8) #0, !llfi_index !464
  %23 = getelementptr %"class.__gnu_cxx::__normal_iterator"* %3, i32 0, i32 0, !llfi_index !465
  %fi9 = call %struct.Node*** @injectFault3(i64 464, %struct.Node*** %23, i32 29, i32 0, i32 1, i32 0, i8* getelementptr inbounds ([14 x i8]* @getelementptr_namestr, i32 0, i32 0)), !llfi_injectfault !33
  store %struct.Node** %22, %struct.Node*** %fi9, !llfi_index !466
  %24 = load %"class.std::vector"** %2, align 8, !llfi_index !467
  %fi10 = call %"class.std::vector"* @injectFault0(i64 466, %"class.std::vector"* %24, i32 27, i32 0, i32 1, i32 0, i8* getelementptr inbounds ([5 x i8]* @load_namestr, i32 0, i32 0)), !llfi_injectfault !33
  %25 = call %struct.Node** @_ZNKSt6vectorIP4NodeSaIS1_EE3endEv(%"class.std::vector"* %fi10) #0, !llfi_index !468
  %26 = getelementptr %"class.__gnu_cxx::__normal_iterator"* %4, i32 0, i32 0, !llfi_index !469
  %fi11 = call %struct.Node*** @injectFault3(i64 468, %struct.Node*** %26, i32 29, i32 0, i32 1, i32 0, i8* getelementptr inbounds ([14 x i8]* @getelementptr_namestr, i32 0, i32 0)), !llfi_injectfault !33
  store %struct.Node** %25, %struct.Node*** %fi11, !llfi_index !470
  %27 = getelementptr %"class.__gnu_cxx::__normal_iterator"* %3, i32 0, i32 0, !llfi_index !471
  %fi12 = call %struct.Node*** @injectFault3(i64 470, %struct.Node*** %27, i32 29, i32 0, i32 1, i32 0, i8* getelementptr inbounds ([14 x i8]* @getelementptr_namestr, i32 0, i32 0)), !llfi_injectfault !33
  %28 = load %struct.Node*** %fi12, !llfi_index !472
  %fi13 = call %struct.Node** @injectFault4(i64 471, %struct.Node** %28, i32 27, i32 0, i32 1, i32 0, i8* getelementptr inbounds ([5 x i8]* @load_namestr, i32 0, i32 0)), !llfi_injectfault !33
  %29 = getelementptr %"class.__gnu_cxx::__normal_iterator"* %4, i32 0, i32 0, !llfi_index !473
  %fi14 = call %struct.Node*** @injectFault3(i64 472, %struct.Node*** %29, i32 29, i32 0, i32 1, i32 0, i8* getelementptr inbounds ([14 x i8]* @getelementptr_namestr, i32 0, i32 0)), !llfi_injectfault !33
  %30 = load %struct.Node*** %fi14, !llfi_index !474
  %fi15 = call %struct.Node** @injectFault4(i64 473, %struct.Node** %30, i32 27, i32 0, i32 1, i32 0, i8* getelementptr inbounds ([5 x i8]* @load_namestr, i32 0, i32 0)), !llfi_injectfault !33
  %31 = call %struct.Node** @_ZNSt6vectorIP4NodeSaIS1_EE20_M_allocate_and_copyIN9__gnu_cxx17__normal_iteratorIPKS1_S3_EEEEPS1_mT_SB_(%"class.std::vector"* %fi, i64 %fi7, %struct.Node** %fi13, %struct.Node** %fi15), !llfi_index !475
  store %struct.Node** %31, %struct.Node*** %__tmp, align 8, !llfi_index !476
  %32 = bitcast %"class.std::vector"* %fi to %"struct.std::_Vector_base"*, !llfi_index !477
  %fi16 = call %"struct.std::_Vector_base"* @injectFault9(i64 476, %"struct.std::_Vector_base"* %32, i32 44, i32 0, i32 1, i32 0, i8* getelementptr inbounds ([8 x i8]* @bitcast_namestr, i32 0, i32 0)), !llfi_injectfault !33
  %33 = getelementptr %"struct.std::_Vector_base"* %fi16, i32 0, i32 0, !llfi_index !478
  %fi5 = call %"struct.std::_Vector_base<Node *, std::allocator<Node *> >::_Vector_impl"* @injectFault10(i64 477, %"struct.std::_Vector_base<Node *, std::allocator<Node *> >::_Vector_impl"* %33, i32 29, i32 0, i32 1, i32 0, i8* getelementptr inbounds ([14 x i8]* @getelementptr_namestr, i32 0, i32 0)), !llfi_injectfault !33
  %34 = getelementptr %"struct.std::_Vector_base<Node *, std::allocator<Node *> >::_Vector_impl"* %fi5, i32 0, i32 0, !llfi_index !479
  %fi20 = call %struct.Node*** @injectFault3(i64 478, %struct.Node*** %34, i32 29, i32 0, i32 1, i32 0, i8* getelementptr inbounds ([14 x i8]* @getelementptr_namestr, i32 0, i32 0)), !llfi_injectfault !33
  %35 = load %struct.Node*** %fi20, align 8, !llfi_index !480
  %fi21 = call %struct.Node** @injectFault4(i64 479, %struct.Node** %35, i32 27, i32 0, i32 1, i32 0, i8* getelementptr inbounds ([5 x i8]* @load_namestr, i32 0, i32 0)), !llfi_injectfault !33
  %36 = bitcast %"class.std::vector"* %fi to %"struct.std::_Vector_base"*, !llfi_index !481
  %fi22 = call %"struct.std::_Vector_base"* @injectFault9(i64 480, %"struct.std::_Vector_base"* %36, i32 44, i32 0, i32 1, i32 0, i8* getelementptr inbounds ([8 x i8]* @bitcast_namestr, i32 0, i32 0)), !llfi_injectfault !33
  %37 = getelementptr %"struct.std::_Vector_base"* %fi22, i32 0, i32 0, !llfi_index !482
  %fi23 = call %"struct.std::_Vector_base<Node *, std::allocator<Node *> >::_Vector_impl"* @injectFault10(i64 481, %"struct.std::_Vector_base<Node *, std::allocator<Node *> >::_Vector_impl"* %37, i32 29, i32 0, i32 1, i32 0, i8* getelementptr inbounds ([14 x i8]* @getelementptr_namestr, i32 0, i32 0)), !llfi_injectfault !33
  %38 = getelementptr %"struct.std::_Vector_base<Node *, std::allocator<Node *> >::_Vector_impl"* %fi23, i32 0, i32 1, !llfi_index !483
  %fi24 = call %struct.Node*** @injectFault3(i64 482, %struct.Node*** %38, i32 29, i32 0, i32 1, i32 0, i8* getelementptr inbounds ([14 x i8]* @getelementptr_namestr, i32 0, i32 0)), !llfi_injectfault !33
  %39 = load %struct.Node*** %fi24, align 8, !llfi_index !484
  %fi25 = call %struct.Node** @injectFault4(i64 483, %struct.Node** %39, i32 27, i32 0, i32 1, i32 0, i8* getelementptr inbounds ([5 x i8]* @load_namestr, i32 0, i32 0)), !llfi_injectfault !33
  %40 = bitcast %"class.std::vector"* %fi to %"struct.std::_Vector_base"*, !llfi_index !485
  %fi26 = call %"struct.std::_Vector_base"* @injectFault9(i64 484, %"struct.std::_Vector_base"* %40, i32 44, i32 0, i32 1, i32 0, i8* getelementptr inbounds ([8 x i8]* @bitcast_namestr, i32 0, i32 0)), !llfi_injectfault !33
  %41 = call %"class.std::allocator"* @_ZNSt12_Vector_baseIP4NodeSaIS1_EE19_M_get_Tp_allocatorEv(%"struct.std::_Vector_base"* %fi26) #0, !llfi_index !486
  call void @_ZSt8_DestroyIPP4NodeS1_EvT_S3_RSaIT0_E(%struct.Node** %fi21, %struct.Node** %fi25, %"class.std::allocator"* %41), !llfi_index !487
  %42 = bitcast %"class.std::vector"* %fi to %"struct.std::_Vector_base"*, !llfi_index !488
  %fi27 = call %"struct.std::_Vector_base"* @injectFault9(i64 487, %"struct.std::_Vector_base"* %42, i32 44, i32 0, i32 1, i32 0, i8* getelementptr inbounds ([8 x i8]* @bitcast_namestr, i32 0, i32 0)), !llfi_injectfault !33
  %43 = bitcast %"class.std::vector"* %fi to %"struct.std::_Vector_base"*, !llfi_index !489
  %fi28 = call %"struct.std::_Vector_base"* @injectFault9(i64 488, %"struct.std::_Vector_base"* %43, i32 44, i32 0, i32 1, i32 0, i8* getelementptr inbounds ([8 x i8]* @bitcast_namestr, i32 0, i32 0)), !llfi_injectfault !33
  %44 = getelementptr %"struct.std::_Vector_base"* %fi28, i32 0, i32 0, !llfi_index !490
  %fi29 = call %"struct.std::_Vector_base<Node *, std::allocator<Node *> >::_Vector_impl"* @injectFault10(i64 489, %"struct.std::_Vector_base<Node *, std::allocator<Node *> >::_Vector_impl"* %44, i32 29, i32 0, i32 1, i32 0, i8* getelementptr inbounds ([14 x i8]* @getelementptr_namestr, i32 0, i32 0)), !llfi_injectfault !33
  %45 = getelementptr %"struct.std::_Vector_base<Node *, std::allocator<Node *> >::_Vector_impl"* %fi29, i32 0, i32 0, !llfi_index !491
  %fi30 = call %struct.Node*** @injectFault3(i64 490, %struct.Node*** %45, i32 29, i32 0, i32 1, i32 0, i8* getelementptr inbounds ([14 x i8]* @getelementptr_namestr, i32 0, i32 0)), !llfi_injectfault !33
  %46 = load %struct.Node*** %fi30, align 8, !llfi_index !492
  %fi31 = call %struct.Node** @injectFault4(i64 491, %struct.Node** %46, i32 27, i32 0, i32 1, i32 0, i8* getelementptr inbounds ([5 x i8]* @load_namestr, i32 0, i32 0)), !llfi_injectfault !33
  %47 = bitcast %"class.std::vector"* %fi to %"struct.std::_Vector_base"*, !llfi_index !493
  %fi32 = call %"struct.std::_Vector_base"* @injectFault9(i64 492, %"struct.std::_Vector_base"* %47, i32 44, i32 0, i32 1, i32 0, i8* getelementptr inbounds ([8 x i8]* @bitcast_namestr, i32 0, i32 0)), !llfi_injectfault !33
  %48 = getelementptr %"struct.std::_Vector_base"* %fi32, i32 0, i32 0, !llfi_index !494
  %fi33 = call %"struct.std::_Vector_base<Node *, std::allocator<Node *> >::_Vector_impl"* @injectFault10(i64 493, %"struct.std::_Vector_base<Node *, std::allocator<Node *> >::_Vector_impl"* %48, i32 29, i32 0, i32 1, i32 0, i8* getelementptr inbounds ([14 x i8]* @getelementptr_namestr, i32 0, i32 0)), !llfi_injectfault !33
  %49 = getelementptr %"struct.std::_Vector_base<Node *, std::allocator<Node *> >::_Vector_impl"* %fi33, i32 0, i32 2, !llfi_index !495
  %fi34 = call %struct.Node*** @injectFault3(i64 494, %struct.Node*** %49, i32 29, i32 0, i32 1, i32 0, i8* getelementptr inbounds ([14 x i8]* @getelementptr_namestr, i32 0, i32 0)), !llfi_injectfault !33
  %50 = load %struct.Node*** %fi34, align 8, !llfi_index !496
  %fi35 = call %struct.Node** @injectFault4(i64 495, %struct.Node** %50, i32 27, i32 0, i32 1, i32 0, i8* getelementptr inbounds ([5 x i8]* @load_namestr, i32 0, i32 0)), !llfi_injectfault !33
  %51 = bitcast %"class.std::vector"* %fi to %"struct.std::_Vector_base"*, !llfi_index !497
  %fi36 = call %"struct.std::_Vector_base"* @injectFault9(i64 496, %"struct.std::_Vector_base"* %51, i32 44, i32 0, i32 1, i32 0, i8* getelementptr inbounds ([8 x i8]* @bitcast_namestr, i32 0, i32 0)), !llfi_injectfault !33
  %52 = getelementptr %"struct.std::_Vector_base"* %fi36, i32 0, i32 0, !llfi_index !498
  %fi37 = call %"struct.std::_Vector_base<Node *, std::allocator<Node *> >::_Vector_impl"* @injectFault10(i64 497, %"struct.std::_Vector_base<Node *, std::allocator<Node *> >::_Vector_impl"* %52, i32 29, i32 0, i32 1, i32 0, i8* getelementptr inbounds ([14 x i8]* @getelementptr_namestr, i32 0, i32 0)), !llfi_injectfault !33
  %53 = getelementptr %"struct.std::_Vector_base<Node *, std::allocator<Node *> >::_Vector_impl"* %fi37, i32 0, i32 0, !llfi_index !499
  %fi38 = call %struct.Node*** @injectFault3(i64 498, %struct.Node*** %53, i32 29, i32 0, i32 1, i32 0, i8* getelementptr inbounds ([14 x i8]* @getelementptr_namestr, i32 0, i32 0)), !llfi_injectfault !33
  %54 = load %struct.Node*** %fi38, align 8, !llfi_index !500
  %fi39 = call %struct.Node** @injectFault4(i64 499, %struct.Node** %54, i32 27, i32 0, i32 1, i32 0, i8* getelementptr inbounds ([5 x i8]* @load_namestr, i32 0, i32 0)), !llfi_injectfault !33
  %55 = ptrtoint %struct.Node** %fi35 to i64, !llfi_index !501
  %fi40 = call i64 @injectFault24(i64 500, i64 %55, i32 42, i32 0, i32 1, i32 0, i8* getelementptr inbounds ([9 x i8]* @ptrtoint_namestr, i32 0, i32 0)), !llfi_injectfault !33
  %56 = ptrtoint %struct.Node** %fi39 to i64, !llfi_index !502
  %fi41 = call i64 @injectFault24(i64 501, i64 %56, i32 42, i32 0, i32 1, i32 0, i8* getelementptr inbounds ([9 x i8]* @ptrtoint_namestr, i32 0, i32 0)), !llfi_injectfault !33
  %57 = sub i64 %fi40, %fi41, !llfi_index !503
  %fi42 = call i64 @injectFault24(i64 502, i64 %57, i32 10, i32 0, i32 1, i32 0, i8* getelementptr inbounds ([4 x i8]* @sub_namestr, i32 0, i32 0)), !llfi_injectfault !33
  %58 = sdiv exact i64 %fi42, 8, !llfi_index !504
  %fi43 = call i64 @injectFault24(i64 503, i64 %58, i32 15, i32 0, i32 1, i32 0, i8* getelementptr inbounds ([5 x i8]* @sdiv_namestr, i32 0, i32 0)), !llfi_injectfault !33
  call void @_ZNSt12_Vector_baseIP4NodeSaIS1_EE13_M_deallocateEPS1_m(%"struct.std::_Vector_base"* %fi27, %struct.Node** %fi31, i64 %fi43), !llfi_index !505
  %59 = load %struct.Node*** %__tmp, align 8, !llfi_index !506
  %fi44 = call %struct.Node** @injectFault4(i64 505, %struct.Node** %59, i32 27, i32 0, i32 1, i32 0, i8* getelementptr inbounds ([5 x i8]* @load_namestr, i32 0, i32 0)), !llfi_injectfault !33
  %60 = bitcast %"class.std::vector"* %fi to %"struct.std::_Vector_base"*, !llfi_index !507
  %fi45 = call %"struct.std::_Vector_base"* @injectFault9(i64 506, %"struct.std::_Vector_base"* %60, i32 44, i32 0, i32 1, i32 0, i8* getelementptr inbounds ([8 x i8]* @bitcast_namestr, i32 0, i32 0)), !llfi_injectfault !33
  %61 = getelementptr %"struct.std::_Vector_base"* %fi45, i32 0, i32 0, !llfi_index !508
  %fi46 = call %"struct.std::_Vector_base<Node *, std::allocator<Node *> >::_Vector_impl"* @injectFault10(i64 507, %"struct.std::_Vector_base<Node *, std::allocator<Node *> >::_Vector_impl"* %61, i32 29, i32 0, i32 1, i32 0, i8* getelementptr inbounds ([14 x i8]* @getelementptr_namestr, i32 0, i32 0)), !llfi_injectfault !33
  %62 = getelementptr %"struct.std::_Vector_base<Node *, std::allocator<Node *> >::_Vector_impl"* %fi46, i32 0, i32 0, !llfi_index !509
  %fi47 = call %struct.Node*** @injectFault3(i64 508, %struct.Node*** %62, i32 29, i32 0, i32 1, i32 0, i8* getelementptr inbounds ([14 x i8]* @getelementptr_namestr, i32 0, i32 0)), !llfi_injectfault !33
  store %struct.Node** %fi44, %struct.Node*** %fi47, align 8, !llfi_index !510
  %63 = bitcast %"class.std::vector"* %fi to %"struct.std::_Vector_base"*, !llfi_index !511
  %fi48 = call %"struct.std::_Vector_base"* @injectFault9(i64 510, %"struct.std::_Vector_base"* %63, i32 44, i32 0, i32 1, i32 0, i8* getelementptr inbounds ([8 x i8]* @bitcast_namestr, i32 0, i32 0)), !llfi_injectfault !33
  %64 = getelementptr %"struct.std::_Vector_base"* %fi48, i32 0, i32 0, !llfi_index !512
  %fi49 = call %"struct.std::_Vector_base<Node *, std::allocator<Node *> >::_Vector_impl"* @injectFault10(i64 511, %"struct.std::_Vector_base<Node *, std::allocator<Node *> >::_Vector_impl"* %64, i32 29, i32 0, i32 1, i32 0, i8* getelementptr inbounds ([14 x i8]* @getelementptr_namestr, i32 0, i32 0)), !llfi_injectfault !33
  %65 = getelementptr %"struct.std::_Vector_base<Node *, std::allocator<Node *> >::_Vector_impl"* %fi49, i32 0, i32 0, !llfi_index !513
  %fi17 = call %struct.Node*** @injectFault3(i64 512, %struct.Node*** %65, i32 29, i32 0, i32 1, i32 0, i8* getelementptr inbounds ([14 x i8]* @getelementptr_namestr, i32 0, i32 0)), !llfi_injectfault !33
  %66 = load %struct.Node*** %fi17, align 8, !llfi_index !514
  %fi18 = call %struct.Node** @injectFault4(i64 513, %struct.Node** %66, i32 27, i32 0, i32 1, i32 0, i8* getelementptr inbounds ([5 x i8]* @load_namestr, i32 0, i32 0)), !llfi_injectfault !33
  %67 = load i64* %__xlen, align 8, !llfi_index !515
  %fi19 = call i64 @injectFault24(i64 514, i64 %67, i32 27, i32 0, i32 1, i32 0, i8* getelementptr inbounds ([5 x i8]* @load_namestr, i32 0, i32 0)), !llfi_injectfault !33
  %68 = getelementptr %struct.Node** %fi18, i64 %fi19, !llfi_index !516
  %fi55 = call %struct.Node** @injectFault4(i64 515, %struct.Node** %68, i32 29, i32 0, i32 1, i32 0, i8* getelementptr inbounds ([14 x i8]* @getelementptr_namestr, i32 0, i32 0)), !llfi_injectfault !33
  %69 = bitcast %"class.std::vector"* %fi to %"struct.std::_Vector_base"*, !llfi_index !517
  %fi56 = call %"struct.std::_Vector_base"* @injectFault9(i64 516, %"struct.std::_Vector_base"* %69, i32 44, i32 0, i32 1, i32 0, i8* getelementptr inbounds ([8 x i8]* @bitcast_namestr, i32 0, i32 0)), !llfi_injectfault !33
  %70 = getelementptr %"struct.std::_Vector_base"* %fi56, i32 0, i32 0, !llfi_index !518
  %fi57 = call %"struct.std::_Vector_base<Node *, std::allocator<Node *> >::_Vector_impl"* @injectFault10(i64 517, %"struct.std::_Vector_base<Node *, std::allocator<Node *> >::_Vector_impl"* %70, i32 29, i32 0, i32 1, i32 0, i8* getelementptr inbounds ([14 x i8]* @getelementptr_namestr, i32 0, i32 0)), !llfi_injectfault !33
  %71 = getelementptr %"struct.std::_Vector_base<Node *, std::allocator<Node *> >::_Vector_impl"* %fi57, i32 0, i32 2, !llfi_index !519
  %fi58 = call %struct.Node*** @injectFault3(i64 518, %struct.Node*** %71, i32 29, i32 0, i32 1, i32 0, i8* getelementptr inbounds ([14 x i8]* @getelementptr_namestr, i32 0, i32 0)), !llfi_injectfault !33
  store %struct.Node** %fi55, %struct.Node*** %fi58, align 8, !llfi_index !520
  br label %139, !llfi_index !521

; <label>:72                                      ; preds = %13
  %73 = call i64 @_ZNKSt6vectorIP4NodeSaIS1_EE4sizeEv(%"class.std::vector"* %fi) #0, !llfi_index !522
  %74 = load i64* %__xlen, align 8, !llfi_index !523
  %fi59 = call i64 @injectFault24(i64 522, i64 %74, i32 27, i32 0, i32 1, i32 0, i8* getelementptr inbounds ([5 x i8]* @load_namestr, i32 0, i32 0)), !llfi_injectfault !33
  %75 = icmp uge i64 %73, %fi59, !llfi_index !524
  %fi60 = call i1 @injectFault5(i64 523, i1 %75, i32 46, i32 0, i32 1, i32 0, i8* getelementptr inbounds ([5 x i8]* @icmp_namestr, i32 0, i32 0)), !llfi_injectfault !33
  br i1 %fi60, label %76, label %101, !llfi_index !525

; <label>:76                                      ; preds = %72
  %77 = load %"class.std::vector"** %2, align 8, !llfi_index !526
  %fi61 = call %"class.std::vector"* @injectFault0(i64 525, %"class.std::vector"* %77, i32 27, i32 0, i32 1, i32 0, i8* getelementptr inbounds ([5 x i8]* @load_namestr, i32 0, i32 0)), !llfi_injectfault !33
  %78 = call %struct.Node** @_ZNKSt6vectorIP4NodeSaIS1_EE5beginEv(%"class.std::vector"* %fi61) #0, !llfi_index !527
  %79 = getelementptr %"class.__gnu_cxx::__normal_iterator"* %6, i32 0, i32 0, !llfi_index !528
  %fi62 = call %struct.Node*** @injectFault3(i64 527, %struct.Node*** %79, i32 29, i32 0, i32 1, i32 0, i8* getelementptr inbounds ([14 x i8]* @getelementptr_namestr, i32 0, i32 0)), !llfi_injectfault !33
  store %struct.Node** %78, %struct.Node*** %fi62, !llfi_index !529
  %80 = load %"class.std::vector"** %2, align 8, !llfi_index !530
  %fi63 = call %"class.std::vector"* @injectFault0(i64 529, %"class.std::vector"* %80, i32 27, i32 0, i32 1, i32 0, i8* getelementptr inbounds ([5 x i8]* @load_namestr, i32 0, i32 0)), !llfi_injectfault !33
  %81 = call %struct.Node** @_ZNKSt6vectorIP4NodeSaIS1_EE3endEv(%"class.std::vector"* %fi63) #0, !llfi_index !531
  %82 = getelementptr %"class.__gnu_cxx::__normal_iterator"* %7, i32 0, i32 0, !llfi_index !532
  %fi64 = call %struct.Node*** @injectFault3(i64 531, %struct.Node*** %82, i32 29, i32 0, i32 1, i32 0, i8* getelementptr inbounds ([14 x i8]* @getelementptr_namestr, i32 0, i32 0)), !llfi_injectfault !33
  store %struct.Node** %81, %struct.Node*** %fi64, !llfi_index !533
  %83 = call %struct.Node** @_ZNSt6vectorIP4NodeSaIS1_EE5beginEv(%"class.std::vector"* %fi) #0, !llfi_index !534
  %84 = getelementptr %"class.__gnu_cxx::__normal_iterator.8"* %8, i32 0, i32 0, !llfi_index !535
  %fi65 = call %struct.Node*** @injectFault3(i64 534, %struct.Node*** %84, i32 29, i32 0, i32 1, i32 0, i8* getelementptr inbounds ([14 x i8]* @getelementptr_namestr, i32 0, i32 0)), !llfi_injectfault !33
  store %struct.Node** %83, %struct.Node*** %fi65, !llfi_index !536
  %85 = getelementptr %"class.__gnu_cxx::__normal_iterator"* %6, i32 0, i32 0, !llfi_index !537
  %fi66 = call %struct.Node*** @injectFault3(i64 536, %struct.Node*** %85, i32 29, i32 0, i32 1, i32 0, i8* getelementptr inbounds ([14 x i8]* @getelementptr_namestr, i32 0, i32 0)), !llfi_injectfault !33
  %86 = load %struct.Node*** %fi66, !llfi_index !538
  %fi67 = call %struct.Node** @injectFault4(i64 537, %struct.Node** %86, i32 27, i32 0, i32 1, i32 0, i8* getelementptr inbounds ([5 x i8]* @load_namestr, i32 0, i32 0)), !llfi_injectfault !33
  %87 = getelementptr %"class.__gnu_cxx::__normal_iterator"* %7, i32 0, i32 0, !llfi_index !539
  %fi68 = call %struct.Node*** @injectFault3(i64 538, %struct.Node*** %87, i32 29, i32 0, i32 1, i32 0, i8* getelementptr inbounds ([14 x i8]* @getelementptr_namestr, i32 0, i32 0)), !llfi_injectfault !33
  %88 = load %struct.Node*** %fi68, !llfi_index !540
  %fi69 = call %struct.Node** @injectFault4(i64 539, %struct.Node** %88, i32 27, i32 0, i32 1, i32 0, i8* getelementptr inbounds ([5 x i8]* @load_namestr, i32 0, i32 0)), !llfi_injectfault !33
  %89 = getelementptr %"class.__gnu_cxx::__normal_iterator.8"* %8, i32 0, i32 0, !llfi_index !541
  %fi70 = call %struct.Node*** @injectFault3(i64 540, %struct.Node*** %89, i32 29, i32 0, i32 1, i32 0, i8* getelementptr inbounds ([14 x i8]* @getelementptr_namestr, i32 0, i32 0)), !llfi_injectfault !33
  %90 = load %struct.Node*** %fi70, !llfi_index !542
  %fi71 = call %struct.Node** @injectFault4(i64 541, %struct.Node** %90, i32 27, i32 0, i32 1, i32 0, i8* getelementptr inbounds ([5 x i8]* @load_namestr, i32 0, i32 0)), !llfi_injectfault !33
  %91 = call %struct.Node** @_ZSt4copyIN9__gnu_cxx17__normal_iteratorIPKP4NodeSt6vectorIS3_SaIS3_EEEENS1_IPS3_S8_EEET0_T_SD_SC_(%struct.Node** %fi67, %struct.Node** %fi69, %struct.Node** %fi71), !llfi_index !543
  %92 = getelementptr %"class.__gnu_cxx::__normal_iterator.8"* %5, i32 0, i32 0, !llfi_index !544
  %fi72 = call %struct.Node*** @injectFault3(i64 543, %struct.Node*** %92, i32 29, i32 0, i32 1, i32 0, i8* getelementptr inbounds ([14 x i8]* @getelementptr_namestr, i32 0, i32 0)), !llfi_injectfault !33
  store %struct.Node** %91, %struct.Node*** %fi72, !llfi_index !545
  %93 = call %struct.Node** @_ZNSt6vectorIP4NodeSaIS1_EE3endEv(%"class.std::vector"* %fi) #0, !llfi_index !546
  %94 = getelementptr %"class.__gnu_cxx::__normal_iterator.8"* %9, i32 0, i32 0, !llfi_index !547
  %fi73 = call %struct.Node*** @injectFault3(i64 546, %struct.Node*** %94, i32 29, i32 0, i32 1, i32 0, i8* getelementptr inbounds ([14 x i8]* @getelementptr_namestr, i32 0, i32 0)), !llfi_injectfault !33
  store %struct.Node** %93, %struct.Node*** %fi73, !llfi_index !548
  %95 = bitcast %"class.std::vector"* %fi to %"struct.std::_Vector_base"*, !llfi_index !549
  %fi74 = call %"struct.std::_Vector_base"* @injectFault9(i64 548, %"struct.std::_Vector_base"* %95, i32 44, i32 0, i32 1, i32 0, i8* getelementptr inbounds ([8 x i8]* @bitcast_namestr, i32 0, i32 0)), !llfi_injectfault !33
  %96 = call %"class.std::allocator"* @_ZNSt12_Vector_baseIP4NodeSaIS1_EE19_M_get_Tp_allocatorEv(%"struct.std::_Vector_base"* %fi74) #0, !llfi_index !550
  %97 = getelementptr %"class.__gnu_cxx::__normal_iterator.8"* %5, i32 0, i32 0, !llfi_index !551
  %fi75 = call %struct.Node*** @injectFault3(i64 550, %struct.Node*** %97, i32 29, i32 0, i32 1, i32 0, i8* getelementptr inbounds ([14 x i8]* @getelementptr_namestr, i32 0, i32 0)), !llfi_injectfault !33
  %98 = load %struct.Node*** %fi75, !llfi_index !552
  %fi76 = call %struct.Node** @injectFault4(i64 551, %struct.Node** %98, i32 27, i32 0, i32 1, i32 0, i8* getelementptr inbounds ([5 x i8]* @load_namestr, i32 0, i32 0)), !llfi_injectfault !33
  %99 = getelementptr %"class.__gnu_cxx::__normal_iterator.8"* %9, i32 0, i32 0, !llfi_index !553
  %fi77 = call %struct.Node*** @injectFault3(i64 552, %struct.Node*** %99, i32 29, i32 0, i32 1, i32 0, i8* getelementptr inbounds ([14 x i8]* @getelementptr_namestr, i32 0, i32 0)), !llfi_injectfault !33
  %100 = load %struct.Node*** %fi77, !llfi_index !554
  %fi78 = call %struct.Node** @injectFault4(i64 553, %struct.Node** %100, i32 27, i32 0, i32 1, i32 0, i8* getelementptr inbounds ([5 x i8]* @load_namestr, i32 0, i32 0)), !llfi_injectfault !33
  call void @_ZSt8_DestroyIN9__gnu_cxx17__normal_iteratorIPP4NodeSt6vectorIS3_SaIS3_EEEES3_EvT_S9_RSaIT0_E(%struct.Node** %fi76, %struct.Node** %fi78, %"class.std::allocator"* %96), !llfi_index !555
  br label %138, !llfi_index !556

; <label>:101                                     ; preds = %72
  %102 = load %"class.std::vector"** %2, align 8, !llfi_index !557
  %fi79 = call %"class.std::vector"* @injectFault0(i64 556, %"class.std::vector"* %102, i32 27, i32 0, i32 1, i32 0, i8* getelementptr inbounds ([5 x i8]* @load_namestr, i32 0, i32 0)), !llfi_injectfault !33
  %103 = bitcast %"class.std::vector"* %fi79 to %"struct.std::_Vector_base"*, !llfi_index !558
  %fi80 = call %"struct.std::_Vector_base"* @injectFault9(i64 557, %"struct.std::_Vector_base"* %103, i32 44, i32 0, i32 1, i32 0, i8* getelementptr inbounds ([8 x i8]* @bitcast_namestr, i32 0, i32 0)), !llfi_injectfault !33
  %104 = getelementptr %"struct.std::_Vector_base"* %fi80, i32 0, i32 0, !llfi_index !559
  %fi81 = call %"struct.std::_Vector_base<Node *, std::allocator<Node *> >::_Vector_impl"* @injectFault10(i64 558, %"struct.std::_Vector_base<Node *, std::allocator<Node *> >::_Vector_impl"* %104, i32 29, i32 0, i32 1, i32 0, i8* getelementptr inbounds ([14 x i8]* @getelementptr_namestr, i32 0, i32 0)), !llfi_injectfault !33
  %105 = getelementptr %"struct.std::_Vector_base<Node *, std::allocator<Node *> >::_Vector_impl"* %fi81, i32 0, i32 0, !llfi_index !560
  %fi82 = call %struct.Node*** @injectFault3(i64 559, %struct.Node*** %105, i32 29, i32 0, i32 1, i32 0, i8* getelementptr inbounds ([14 x i8]* @getelementptr_namestr, i32 0, i32 0)), !llfi_injectfault !33
  %106 = load %struct.Node*** %fi82, align 8, !llfi_index !561
  %fi83 = call %struct.Node** @injectFault4(i64 560, %struct.Node** %106, i32 27, i32 0, i32 1, i32 0, i8* getelementptr inbounds ([5 x i8]* @load_namestr, i32 0, i32 0)), !llfi_injectfault !33
  %107 = load %"class.std::vector"** %2, align 8, !llfi_index !562
  %fi84 = call %"class.std::vector"* @injectFault0(i64 561, %"class.std::vector"* %107, i32 27, i32 0, i32 1, i32 0, i8* getelementptr inbounds ([5 x i8]* @load_namestr, i32 0, i32 0)), !llfi_injectfault !33
  %108 = bitcast %"class.std::vector"* %fi84 to %"struct.std::_Vector_base"*, !llfi_index !563
  %fi85 = call %"struct.std::_Vector_base"* @injectFault9(i64 562, %"struct.std::_Vector_base"* %108, i32 44, i32 0, i32 1, i32 0, i8* getelementptr inbounds ([8 x i8]* @bitcast_namestr, i32 0, i32 0)), !llfi_injectfault !33
  %109 = getelementptr %"struct.std::_Vector_base"* %fi85, i32 0, i32 0, !llfi_index !564
  %fi86 = call %"struct.std::_Vector_base<Node *, std::allocator<Node *> >::_Vector_impl"* @injectFault10(i64 563, %"struct.std::_Vector_base<Node *, std::allocator<Node *> >::_Vector_impl"* %109, i32 29, i32 0, i32 1, i32 0, i8* getelementptr inbounds ([14 x i8]* @getelementptr_namestr, i32 0, i32 0)), !llfi_injectfault !33
  %110 = getelementptr %"struct.std::_Vector_base<Node *, std::allocator<Node *> >::_Vector_impl"* %fi86, i32 0, i32 0, !llfi_index !565
  %fi87 = call %struct.Node*** @injectFault3(i64 564, %struct.Node*** %110, i32 29, i32 0, i32 1, i32 0, i8* getelementptr inbounds ([14 x i8]* @getelementptr_namestr, i32 0, i32 0)), !llfi_injectfault !33
  %111 = load %struct.Node*** %fi87, align 8, !llfi_index !566
  %fi88 = call %struct.Node** @injectFault4(i64 565, %struct.Node** %111, i32 27, i32 0, i32 1, i32 0, i8* getelementptr inbounds ([5 x i8]* @load_namestr, i32 0, i32 0)), !llfi_injectfault !33
  %112 = call i64 @_ZNKSt6vectorIP4NodeSaIS1_EE4sizeEv(%"class.std::vector"* %fi) #0, !llfi_index !567
  %113 = getelementptr %struct.Node** %fi88, i64 %112, !llfi_index !568
  %fi89 = call %struct.Node** @injectFault4(i64 567, %struct.Node** %113, i32 29, i32 0, i32 1, i32 0, i8* getelementptr inbounds ([14 x i8]* @getelementptr_namestr, i32 0, i32 0)), !llfi_injectfault !33
  %114 = bitcast %"class.std::vector"* %fi to %"struct.std::_Vector_base"*, !llfi_index !569
  %fi90 = call %"struct.std::_Vector_base"* @injectFault9(i64 568, %"struct.std::_Vector_base"* %114, i32 44, i32 0, i32 1, i32 0, i8* getelementptr inbounds ([8 x i8]* @bitcast_namestr, i32 0, i32 0)), !llfi_injectfault !33
  %115 = getelementptr %"struct.std::_Vector_base"* %fi90, i32 0, i32 0, !llfi_index !570
  %fi91 = call %"struct.std::_Vector_base<Node *, std::allocator<Node *> >::_Vector_impl"* @injectFault10(i64 569, %"struct.std::_Vector_base<Node *, std::allocator<Node *> >::_Vector_impl"* %115, i32 29, i32 0, i32 1, i32 0, i8* getelementptr inbounds ([14 x i8]* @getelementptr_namestr, i32 0, i32 0)), !llfi_injectfault !33
  %116 = getelementptr %"struct.std::_Vector_base<Node *, std::allocator<Node *> >::_Vector_impl"* %fi91, i32 0, i32 0, !llfi_index !571
  %fi92 = call %struct.Node*** @injectFault3(i64 570, %struct.Node*** %116, i32 29, i32 0, i32 1, i32 0, i8* getelementptr inbounds ([14 x i8]* @getelementptr_namestr, i32 0, i32 0)), !llfi_injectfault !33
  %117 = load %struct.Node*** %fi92, align 8, !llfi_index !572
  %fi93 = call %struct.Node** @injectFault4(i64 571, %struct.Node** %117, i32 27, i32 0, i32 1, i32 0, i8* getelementptr inbounds ([5 x i8]* @load_namestr, i32 0, i32 0)), !llfi_injectfault !33
  %118 = call %struct.Node** @_ZSt4copyIPP4NodeS2_ET0_T_S4_S3_(%struct.Node** %fi83, %struct.Node** %fi89, %struct.Node** %fi93), !llfi_index !573
  %119 = load %"class.std::vector"** %2, align 8, !llfi_index !574
  %fi94 = call %"class.std::vector"* @injectFault0(i64 573, %"class.std::vector"* %119, i32 27, i32 0, i32 1, i32 0, i8* getelementptr inbounds ([5 x i8]* @load_namestr, i32 0, i32 0)), !llfi_injectfault !33
  %120 = bitcast %"class.std::vector"* %fi94 to %"struct.std::_Vector_base"*, !llfi_index !575
  %fi95 = call %"struct.std::_Vector_base"* @injectFault9(i64 574, %"struct.std::_Vector_base"* %120, i32 44, i32 0, i32 1, i32 0, i8* getelementptr inbounds ([8 x i8]* @bitcast_namestr, i32 0, i32 0)), !llfi_injectfault !33
  %121 = getelementptr %"struct.std::_Vector_base"* %fi95, i32 0, i32 0, !llfi_index !576
  %fi96 = call %"struct.std::_Vector_base<Node *, std::allocator<Node *> >::_Vector_impl"* @injectFault10(i64 575, %"struct.std::_Vector_base<Node *, std::allocator<Node *> >::_Vector_impl"* %121, i32 29, i32 0, i32 1, i32 0, i8* getelementptr inbounds ([14 x i8]* @getelementptr_namestr, i32 0, i32 0)), !llfi_injectfault !33
  %122 = getelementptr %"struct.std::_Vector_base<Node *, std::allocator<Node *> >::_Vector_impl"* %fi96, i32 0, i32 0, !llfi_index !577
  %fi97 = call %struct.Node*** @injectFault3(i64 576, %struct.Node*** %122, i32 29, i32 0, i32 1, i32 0, i8* getelementptr inbounds ([14 x i8]* @getelementptr_namestr, i32 0, i32 0)), !llfi_injectfault !33
  %123 = load %struct.Node*** %fi97, align 8, !llfi_index !578
  %fi98 = call %struct.Node** @injectFault4(i64 577, %struct.Node** %123, i32 27, i32 0, i32 1, i32 0, i8* getelementptr inbounds ([5 x i8]* @load_namestr, i32 0, i32 0)), !llfi_injectfault !33
  %124 = call i64 @_ZNKSt6vectorIP4NodeSaIS1_EE4sizeEv(%"class.std::vector"* %fi) #0, !llfi_index !579
  %125 = getelementptr %struct.Node** %fi98, i64 %124, !llfi_index !580
  %fi99 = call %struct.Node** @injectFault4(i64 579, %struct.Node** %125, i32 29, i32 0, i32 1, i32 0, i8* getelementptr inbounds ([14 x i8]* @getelementptr_namestr, i32 0, i32 0)), !llfi_injectfault !33
  %126 = load %"class.std::vector"** %2, align 8, !llfi_index !581
  %fi100 = call %"class.std::vector"* @injectFault0(i64 580, %"class.std::vector"* %126, i32 27, i32 0, i32 1, i32 0, i8* getelementptr inbounds ([5 x i8]* @load_namestr, i32 0, i32 0)), !llfi_injectfault !33
  %127 = bitcast %"class.std::vector"* %fi100 to %"struct.std::_Vector_base"*, !llfi_index !582
  %fi101 = call %"struct.std::_Vector_base"* @injectFault9(i64 581, %"struct.std::_Vector_base"* %127, i32 44, i32 0, i32 1, i32 0, i8* getelementptr inbounds ([8 x i8]* @bitcast_namestr, i32 0, i32 0)), !llfi_injectfault !33
  %128 = getelementptr %"struct.std::_Vector_base"* %fi101, i32 0, i32 0, !llfi_index !583
  %fi102 = call %"struct.std::_Vector_base<Node *, std::allocator<Node *> >::_Vector_impl"* @injectFault10(i64 582, %"struct.std::_Vector_base<Node *, std::allocator<Node *> >::_Vector_impl"* %128, i32 29, i32 0, i32 1, i32 0, i8* getelementptr inbounds ([14 x i8]* @getelementptr_namestr, i32 0, i32 0)), !llfi_injectfault !33
  %129 = getelementptr %"struct.std::_Vector_base<Node *, std::allocator<Node *> >::_Vector_impl"* %fi102, i32 0, i32 1, !llfi_index !584
  %fi50 = call %struct.Node*** @injectFault3(i64 583, %struct.Node*** %129, i32 29, i32 0, i32 1, i32 0, i8* getelementptr inbounds ([14 x i8]* @getelementptr_namestr, i32 0, i32 0)), !llfi_injectfault !33
  %130 = load %struct.Node*** %fi50, align 8, !llfi_index !585
  %fi51 = call %struct.Node** @injectFault4(i64 584, %struct.Node** %130, i32 27, i32 0, i32 1, i32 0, i8* getelementptr inbounds ([5 x i8]* @load_namestr, i32 0, i32 0)), !llfi_injectfault !33
  %131 = bitcast %"class.std::vector"* %fi to %"struct.std::_Vector_base"*, !llfi_index !586
  %fi52 = call %"struct.std::_Vector_base"* @injectFault9(i64 585, %"struct.std::_Vector_base"* %131, i32 44, i32 0, i32 1, i32 0, i8* getelementptr inbounds ([8 x i8]* @bitcast_namestr, i32 0, i32 0)), !llfi_injectfault !33
  %132 = getelementptr %"struct.std::_Vector_base"* %fi52, i32 0, i32 0, !llfi_index !587
  %fi53 = call %"struct.std::_Vector_base<Node *, std::allocator<Node *> >::_Vector_impl"* @injectFault10(i64 586, %"struct.std::_Vector_base<Node *, std::allocator<Node *> >::_Vector_impl"* %132, i32 29, i32 0, i32 1, i32 0, i8* getelementptr inbounds ([14 x i8]* @getelementptr_namestr, i32 0, i32 0)), !llfi_injectfault !33
  %133 = getelementptr %"struct.std::_Vector_base<Node *, std::allocator<Node *> >::_Vector_impl"* %fi53, i32 0, i32 1, !llfi_index !588
  %fi54 = call %struct.Node*** @injectFault3(i64 587, %struct.Node*** %133, i32 29, i32 0, i32 1, i32 0, i8* getelementptr inbounds ([14 x i8]* @getelementptr_namestr, i32 0, i32 0)), !llfi_injectfault !33
  %134 = load %struct.Node*** %fi54, align 8, !llfi_index !589
  %fi103 = call %struct.Node** @injectFault4(i64 588, %struct.Node** %134, i32 27, i32 0, i32 1, i32 0, i8* getelementptr inbounds ([5 x i8]* @load_namestr, i32 0, i32 0)), !llfi_injectfault !33
  %135 = bitcast %"class.std::vector"* %fi to %"struct.std::_Vector_base"*, !llfi_index !590
  %fi104 = call %"struct.std::_Vector_base"* @injectFault9(i64 589, %"struct.std::_Vector_base"* %135, i32 44, i32 0, i32 1, i32 0, i8* getelementptr inbounds ([8 x i8]* @bitcast_namestr, i32 0, i32 0)), !llfi_injectfault !33
  %136 = call %"class.std::allocator"* @_ZNSt12_Vector_baseIP4NodeSaIS1_EE19_M_get_Tp_allocatorEv(%"struct.std::_Vector_base"* %fi104) #0, !llfi_index !591
  %137 = call %struct.Node** @_ZSt22__uninitialized_copy_aIPP4NodeS2_S1_ET0_T_S4_S3_RSaIT1_E(%struct.Node** %fi99, %struct.Node** %fi51, %struct.Node** %fi103, %"class.std::allocator"* %136), !llfi_index !592
  br label %138, !llfi_index !593

; <label>:138                                     ; preds = %101, %76
  br label %139, !llfi_index !594

; <label>:139                                     ; preds = %138, %19
  %140 = bitcast %"class.std::vector"* %fi to %"struct.std::_Vector_base"*, !llfi_index !595
  %fi105 = call %"struct.std::_Vector_base"* @injectFault9(i64 594, %"struct.std::_Vector_base"* %140, i32 44, i32 0, i32 1, i32 0, i8* getelementptr inbounds ([8 x i8]* @bitcast_namestr, i32 0, i32 0)), !llfi_injectfault !33
  %141 = getelementptr %"struct.std::_Vector_base"* %fi105, i32 0, i32 0, !llfi_index !596
  %fi106 = call %"struct.std::_Vector_base<Node *, std::allocator<Node *> >::_Vector_impl"* @injectFault10(i64 595, %"struct.std::_Vector_base<Node *, std::allocator<Node *> >::_Vector_impl"* %141, i32 29, i32 0, i32 1, i32 0, i8* getelementptr inbounds ([14 x i8]* @getelementptr_namestr, i32 0, i32 0)), !llfi_injectfault !33
  %142 = getelementptr %"struct.std::_Vector_base<Node *, std::allocator<Node *> >::_Vector_impl"* %fi106, i32 0, i32 0, !llfi_index !597
  %fi107 = call %struct.Node*** @injectFault3(i64 596, %struct.Node*** %142, i32 29, i32 0, i32 1, i32 0, i8* getelementptr inbounds ([14 x i8]* @getelementptr_namestr, i32 0, i32 0)), !llfi_injectfault !33
  %143 = load %struct.Node*** %fi107, align 8, !llfi_index !598
  %fi108 = call %struct.Node** @injectFault4(i64 597, %struct.Node** %143, i32 27, i32 0, i32 1, i32 0, i8* getelementptr inbounds ([5 x i8]* @load_namestr, i32 0, i32 0)), !llfi_injectfault !33
  %144 = load i64* %__xlen, align 8, !llfi_index !599
  %fi109 = call i64 @injectFault24(i64 598, i64 %144, i32 27, i32 0, i32 1, i32 0, i8* getelementptr inbounds ([5 x i8]* @load_namestr, i32 0, i32 0)), !llfi_injectfault !33
  %145 = getelementptr %struct.Node** %fi108, i64 %fi109, !llfi_index !600
  %fi110 = call %struct.Node** @injectFault4(i64 599, %struct.Node** %145, i32 29, i32 0, i32 1, i32 0, i8* getelementptr inbounds ([14 x i8]* @getelementptr_namestr, i32 0, i32 0)), !llfi_injectfault !33
  %146 = bitcast %"class.std::vector"* %fi to %"struct.std::_Vector_base"*, !llfi_index !601
  %fi111 = call %"struct.std::_Vector_base"* @injectFault9(i64 600, %"struct.std::_Vector_base"* %146, i32 44, i32 0, i32 1, i32 0, i8* getelementptr inbounds ([8 x i8]* @bitcast_namestr, i32 0, i32 0)), !llfi_injectfault !33
  %147 = getelementptr %"struct.std::_Vector_base"* %fi111, i32 0, i32 0, !llfi_index !602
  %fi112 = call %"struct.std::_Vector_base<Node *, std::allocator<Node *> >::_Vector_impl"* @injectFault10(i64 601, %"struct.std::_Vector_base<Node *, std::allocator<Node *> >::_Vector_impl"* %147, i32 29, i32 0, i32 1, i32 0, i8* getelementptr inbounds ([14 x i8]* @getelementptr_namestr, i32 0, i32 0)), !llfi_injectfault !33
  %148 = getelementptr %"struct.std::_Vector_base<Node *, std::allocator<Node *> >::_Vector_impl"* %fi112, i32 0, i32 1, !llfi_index !603
  %fi113 = call %struct.Node*** @injectFault3(i64 602, %struct.Node*** %148, i32 29, i32 0, i32 1, i32 0, i8* getelementptr inbounds ([14 x i8]* @getelementptr_namestr, i32 0, i32 0)), !llfi_injectfault !33
  store %struct.Node** %fi110, %struct.Node*** %fi113, align 8, !llfi_index !604
  br label %149, !llfi_index !605

; <label>:149                                     ; preds = %139, %0
  ret %"class.std::vector"* %fi, !llfi_index !606
}

; Function Attrs: nounwind uwtable
define linkonce_odr void @_ZNSt6vectorIP4NodeSaIS1_EED2Ev(%"class.std::vector"* %this) unnamed_addr #3 align 2 {
  %1 = alloca %"class.std::vector"*, align 8, !llfi_index !607
  store %"class.std::vector"* %this, %"class.std::vector"** %1, align 8, !llfi_index !608
  %2 = load %"class.std::vector"** %1, !llfi_index !609
  %fi = call %"class.std::vector"* @injectFault0(i64 608, %"class.std::vector"* %2, i32 27, i32 0, i32 1, i32 0, i8* getelementptr inbounds ([5 x i8]* @load_namestr, i32 0, i32 0)), !llfi_injectfault !33
  %3 = bitcast %"class.std::vector"* %fi to %"struct.std::_Vector_base"*, !llfi_index !610
  %fi1 = call %"struct.std::_Vector_base"* @injectFault9(i64 609, %"struct.std::_Vector_base"* %3, i32 44, i32 0, i32 1, i32 0, i8* getelementptr inbounds ([8 x i8]* @bitcast_namestr, i32 0, i32 0)), !llfi_injectfault !33
  %4 = getelementptr %"struct.std::_Vector_base"* %fi1, i32 0, i32 0, !llfi_index !611
  %fi2 = call %"struct.std::_Vector_base<Node *, std::allocator<Node *> >::_Vector_impl"* @injectFault10(i64 610, %"struct.std::_Vector_base<Node *, std::allocator<Node *> >::_Vector_impl"* %4, i32 29, i32 0, i32 1, i32 0, i8* getelementptr inbounds ([14 x i8]* @getelementptr_namestr, i32 0, i32 0)), !llfi_injectfault !33
  %5 = getelementptr %"struct.std::_Vector_base<Node *, std::allocator<Node *> >::_Vector_impl"* %fi2, i32 0, i32 0, !llfi_index !612
  %fi3 = call %struct.Node*** @injectFault3(i64 611, %struct.Node*** %5, i32 29, i32 0, i32 1, i32 0, i8* getelementptr inbounds ([14 x i8]* @getelementptr_namestr, i32 0, i32 0)), !llfi_injectfault !33
  %6 = load %struct.Node*** %fi3, align 8, !llfi_index !613
  %fi4 = call %struct.Node** @injectFault4(i64 612, %struct.Node** %6, i32 27, i32 0, i32 1, i32 0, i8* getelementptr inbounds ([5 x i8]* @load_namestr, i32 0, i32 0)), !llfi_injectfault !33
  %7 = bitcast %"class.std::vector"* %fi to %"struct.std::_Vector_base"*, !llfi_index !614
  %fi5 = call %"struct.std::_Vector_base"* @injectFault9(i64 613, %"struct.std::_Vector_base"* %7, i32 44, i32 0, i32 1, i32 0, i8* getelementptr inbounds ([8 x i8]* @bitcast_namestr, i32 0, i32 0)), !llfi_injectfault !33
  %8 = getelementptr %"struct.std::_Vector_base"* %fi5, i32 0, i32 0, !llfi_index !615
  %fi6 = call %"struct.std::_Vector_base<Node *, std::allocator<Node *> >::_Vector_impl"* @injectFault10(i64 614, %"struct.std::_Vector_base<Node *, std::allocator<Node *> >::_Vector_impl"* %8, i32 29, i32 0, i32 1, i32 0, i8* getelementptr inbounds ([14 x i8]* @getelementptr_namestr, i32 0, i32 0)), !llfi_injectfault !33
  %9 = getelementptr %"struct.std::_Vector_base<Node *, std::allocator<Node *> >::_Vector_impl"* %fi6, i32 0, i32 1, !llfi_index !616
  %fi7 = call %struct.Node*** @injectFault3(i64 615, %struct.Node*** %9, i32 29, i32 0, i32 1, i32 0, i8* getelementptr inbounds ([14 x i8]* @getelementptr_namestr, i32 0, i32 0)), !llfi_injectfault !33
  %10 = load %struct.Node*** %fi7, align 8, !llfi_index !617
  %fi8 = call %struct.Node** @injectFault4(i64 616, %struct.Node** %10, i32 27, i32 0, i32 1, i32 0, i8* getelementptr inbounds ([5 x i8]* @load_namestr, i32 0, i32 0)), !llfi_injectfault !33
  %11 = bitcast %"class.std::vector"* %fi to %"struct.std::_Vector_base"*, !llfi_index !618
  %fi9 = call %"struct.std::_Vector_base"* @injectFault9(i64 617, %"struct.std::_Vector_base"* %11, i32 44, i32 0, i32 1, i32 0, i8* getelementptr inbounds ([8 x i8]* @bitcast_namestr, i32 0, i32 0)), !llfi_injectfault !33
  %12 = call %"class.std::allocator"* @_ZNSt12_Vector_baseIP4NodeSaIS1_EE19_M_get_Tp_allocatorEv(%"struct.std::_Vector_base"* %fi9) #0, !llfi_index !619
  call void @_ZSt8_DestroyIPP4NodeS1_EvT_S3_RSaIT0_E(%struct.Node** %fi4, %struct.Node** %fi8, %"class.std::allocator"* %12), !llfi_index !620
  %13 = bitcast %"class.std::vector"* %fi to %"struct.std::_Vector_base"*, !llfi_index !621
  %fi10 = call %"struct.std::_Vector_base"* @injectFault9(i64 620, %"struct.std::_Vector_base"* %13, i32 44, i32 0, i32 1, i32 0, i8* getelementptr inbounds ([8 x i8]* @bitcast_namestr, i32 0, i32 0)), !llfi_injectfault !33
  call void @_ZNSt12_Vector_baseIP4NodeSaIS1_EED2Ev(%"struct.std::_Vector_base"* %fi10) #0, !llfi_index !622
  ret void, !llfi_index !623
}

; Function Attrs: inlinehint nounwind uwtable
define linkonce_odr void @_ZNSt3mapIP4NodeiSt4lessIS1_ESaISt4pairIKS1_iEEED2Ev(%"class.std::map"* %this) unnamed_addr #4 align 2 {
  %1 = alloca %"class.std::map"*, align 8, !llfi_index !624
  store %"class.std::map"* %this, %"class.std::map"** %1, align 8, !llfi_index !625
  %2 = load %"class.std::map"** %1, !llfi_index !626
  %fi = call %"class.std::map"* @injectFault12(i64 625, %"class.std::map"* %2, i32 27, i32 0, i32 1, i32 0, i8* getelementptr inbounds ([5 x i8]* @load_namestr, i32 0, i32 0)), !llfi_injectfault !33
  %3 = getelementptr %"class.std::map"* %fi, i32 0, i32 0, !llfi_index !627
  %fi1 = call %"class.std::_Rb_tree"* @injectFault14(i64 626, %"class.std::_Rb_tree"* %3, i32 29, i32 0, i32 1, i32 0, i8* getelementptr inbounds ([14 x i8]* @getelementptr_namestr, i32 0, i32 0)), !llfi_injectfault !33
  call void @_ZNSt8_Rb_treeIP4NodeSt4pairIKS1_iESt10_Select1stIS4_ESt4lessIS1_ESaIS4_EED2Ev(%"class.std::_Rb_tree"* %fi1) #0, !llfi_index !628
  ret void, !llfi_index !629
}

; Function Attrs: nounwind uwtable
define %struct.Node* @_Z6insertP4NodeiRSt6vectorIS0_SaIS0_EE(%struct.Node* %root, i32 %val, %"class.std::vector"* %all_nodes) #3 {
  %1 = alloca %struct.Node*, align 8, !llfi_index !630
  %2 = alloca %struct.Node*, align 8, !llfi_index !631
  %3 = alloca i32, align 4, !llfi_index !632
  %4 = alloca %"class.std::vector"*, align 8, !llfi_index !633
  %newNode = alloca %struct.Node*, align 8, !llfi_index !634
  store %struct.Node* %root, %struct.Node** %2, align 8, !llfi_index !635
  store i32 %val, i32* %3, align 4, !llfi_index !636
  store %"class.std::vector"* %all_nodes, %"class.std::vector"** %4, align 8, !llfi_index !637
  %5 = load %struct.Node** %2, align 8, !llfi_index !638
  %fi1 = call %struct.Node* @injectFault2(i64 637, %struct.Node* %5, i32 27, i32 0, i32 1, i32 0, i8* getelementptr inbounds ([5 x i8]* @load_namestr, i32 0, i32 0)), !llfi_injectfault !33
  %6 = icmp ne %struct.Node* %fi1, null, !llfi_index !639
  %fi2 = call i1 @injectFault5(i64 638, i1 %6, i32 46, i32 0, i32 1, i32 0, i8* getelementptr inbounds ([5 x i8]* @icmp_namestr, i32 0, i32 0)), !llfi_injectfault !33
  br i1 %fi2, label %13, label %7, !llfi_index !640

; <label>:7                                       ; preds = %0
  %8 = call noalias i8* @_Znwm(i64 32) #9, !llfi_index !641
  %9 = bitcast i8* %8 to %struct.Node*, !llfi_index !642
  %fi4 = call %struct.Node* @injectFault2(i64 641, %struct.Node* %9, i32 44, i32 0, i32 1, i32 0, i8* getelementptr inbounds ([8 x i8]* @bitcast_namestr, i32 0, i32 0)), !llfi_injectfault !33
  %10 = load i32* %3, align 4, !llfi_index !643
  %fi5 = call i32 @injectFault1(i64 642, i32 %10, i32 27, i32 0, i32 1, i32 0, i8* getelementptr inbounds ([5 x i8]* @load_namestr, i32 0, i32 0)), !llfi_injectfault !33
  call void @_ZN4NodeC2Ei(%struct.Node* %fi4, i32 %fi5), !llfi_index !644
  store %struct.Node* %fi4, %struct.Node** %newNode, align 8, !llfi_index !645
  %11 = load %"class.std::vector"** %4, align 8, !llfi_index !646
  %fi = call %"class.std::vector"* @injectFault0(i64 645, %"class.std::vector"* %11, i32 27, i32 0, i32 1, i32 0, i8* getelementptr inbounds ([5 x i8]* @load_namestr, i32 0, i32 0)), !llfi_injectfault !33
  call void @_ZNSt6vectorIP4NodeSaIS1_EE9push_backERKS1_(%"class.std::vector"* %fi, %struct.Node** %newNode), !llfi_index !647
  %12 = load %struct.Node** %newNode, align 8, !llfi_index !648
  %fi6 = call %struct.Node* @injectFault2(i64 647, %struct.Node* %12, i32 27, i32 0, i32 1, i32 0, i8* getelementptr inbounds ([5 x i8]* @load_namestr, i32 0, i32 0)), !llfi_injectfault !33
  store %struct.Node* %fi6, %struct.Node** %1, !llfi_index !649
  br label %49, !llfi_index !650

; <label>:13                                      ; preds = %0
  %14 = load i32* %3, align 4, !llfi_index !651
  %fi7 = call i32 @injectFault1(i64 650, i32 %14, i32 27, i32 0, i32 1, i32 0, i8* getelementptr inbounds ([5 x i8]* @load_namestr, i32 0, i32 0)), !llfi_injectfault !33
  %15 = load %struct.Node** %2, align 8, !llfi_index !652
  %fi8 = call %struct.Node* @injectFault2(i64 651, %struct.Node* %15, i32 27, i32 0, i32 1, i32 0, i8* getelementptr inbounds ([5 x i8]* @load_namestr, i32 0, i32 0)), !llfi_injectfault !33
  %16 = getelementptr %struct.Node* %fi8, i32 0, i32 0, !llfi_index !653
  %fi9 = call i32* @injectFault8(i64 652, i32* %16, i32 29, i32 0, i32 1, i32 0, i8* getelementptr inbounds ([14 x i8]* @getelementptr_namestr, i32 0, i32 0)), !llfi_injectfault !33
  %17 = load i32* %fi9, align 4, !llfi_index !654
  %fi3 = call i32 @injectFault1(i64 653, i32 %17, i32 27, i32 0, i32 1, i32 0, i8* getelementptr inbounds ([5 x i8]* @load_namestr, i32 0, i32 0)), !llfi_injectfault !33
  %18 = icmp slt i32 %fi7, %fi3, !llfi_index !655
  %fi10 = call i1 @injectFault5(i64 654, i1 %18, i32 46, i32 0, i32 1, i32 0, i8* getelementptr inbounds ([5 x i8]* @icmp_namestr, i32 0, i32 0)), !llfi_injectfault !33
  br i1 %fi10, label %19, label %33, !llfi_index !656

; <label>:19                                      ; preds = %13
  %20 = load %struct.Node** %2, align 8, !llfi_index !657
  %fi11 = call %struct.Node* @injectFault2(i64 656, %struct.Node* %20, i32 27, i32 0, i32 1, i32 0, i8* getelementptr inbounds ([5 x i8]* @load_namestr, i32 0, i32 0)), !llfi_injectfault !33
  %21 = getelementptr %struct.Node* %fi11, i32 0, i32 1, !llfi_index !658
  %fi12 = call %struct.Node** @injectFault4(i64 657, %struct.Node** %21, i32 29, i32 0, i32 1, i32 0, i8* getelementptr inbounds ([14 x i8]* @getelementptr_namestr, i32 0, i32 0)), !llfi_injectfault !33
  %22 = load %struct.Node** %fi12, align 8, !llfi_index !659
  %fi13 = call %struct.Node* @injectFault2(i64 658, %struct.Node* %22, i32 27, i32 0, i32 1, i32 0, i8* getelementptr inbounds ([5 x i8]* @load_namestr, i32 0, i32 0)), !llfi_injectfault !33
  %23 = load i32* %3, align 4, !llfi_index !660
  %fi14 = call i32 @injectFault1(i64 659, i32 %23, i32 27, i32 0, i32 1, i32 0, i8* getelementptr inbounds ([5 x i8]* @load_namestr, i32 0, i32 0)), !llfi_injectfault !33
  %24 = load %"class.std::vector"** %4, align 8, !llfi_index !661
  %fi15 = call %"class.std::vector"* @injectFault0(i64 660, %"class.std::vector"* %24, i32 27, i32 0, i32 1, i32 0, i8* getelementptr inbounds ([5 x i8]* @load_namestr, i32 0, i32 0)), !llfi_injectfault !33
  %25 = call %struct.Node* @_Z6insertP4NodeiRSt6vectorIS0_SaIS0_EE(%struct.Node* %fi13, i32 %fi14, %"class.std::vector"* %fi15), !llfi_index !662
  %26 = load %struct.Node** %2, align 8, !llfi_index !663
  %fi16 = call %struct.Node* @injectFault2(i64 662, %struct.Node* %26, i32 27, i32 0, i32 1, i32 0, i8* getelementptr inbounds ([5 x i8]* @load_namestr, i32 0, i32 0)), !llfi_injectfault !33
  %27 = getelementptr %struct.Node* %fi16, i32 0, i32 1, !llfi_index !664
  %fi17 = call %struct.Node** @injectFault4(i64 663, %struct.Node** %27, i32 29, i32 0, i32 1, i32 0, i8* getelementptr inbounds ([14 x i8]* @getelementptr_namestr, i32 0, i32 0)), !llfi_injectfault !33
  store %struct.Node* %25, %struct.Node** %fi17, align 8, !llfi_index !665
  %28 = load %struct.Node** %2, align 8, !llfi_index !666
  %fi18 = call %struct.Node* @injectFault2(i64 665, %struct.Node* %28, i32 27, i32 0, i32 1, i32 0, i8* getelementptr inbounds ([5 x i8]* @load_namestr, i32 0, i32 0)), !llfi_injectfault !33
  %29 = load %struct.Node** %2, align 8, !llfi_index !667
  %fi19 = call %struct.Node* @injectFault2(i64 666, %struct.Node* %29, i32 27, i32 0, i32 1, i32 0, i8* getelementptr inbounds ([5 x i8]* @load_namestr, i32 0, i32 0)), !llfi_injectfault !33
  %30 = getelementptr %struct.Node* %fi19, i32 0, i32 1, !llfi_index !668
  %fi20 = call %struct.Node** @injectFault4(i64 667, %struct.Node** %30, i32 29, i32 0, i32 1, i32 0, i8* getelementptr inbounds ([14 x i8]* @getelementptr_namestr, i32 0, i32 0)), !llfi_injectfault !33
  %31 = load %struct.Node** %fi20, align 8, !llfi_index !669
  %fi21 = call %struct.Node* @injectFault2(i64 668, %struct.Node* %31, i32 27, i32 0, i32 1, i32 0, i8* getelementptr inbounds ([5 x i8]* @load_namestr, i32 0, i32 0)), !llfi_injectfault !33
  %32 = getelementptr %struct.Node* %fi21, i32 0, i32 3, !llfi_index !670
  %fi22 = call %struct.Node** @injectFault4(i64 669, %struct.Node** %32, i32 29, i32 0, i32 1, i32 0, i8* getelementptr inbounds ([14 x i8]* @getelementptr_namestr, i32 0, i32 0)), !llfi_injectfault !33
  store %struct.Node* %fi18, %struct.Node** %fi22, align 8, !llfi_index !671
  br label %47, !llfi_index !672

; <label>:33                                      ; preds = %13
  %34 = load %struct.Node** %2, align 8, !llfi_index !673
  %fi23 = call %struct.Node* @injectFault2(i64 672, %struct.Node* %34, i32 27, i32 0, i32 1, i32 0, i8* getelementptr inbounds ([5 x i8]* @load_namestr, i32 0, i32 0)), !llfi_injectfault !33
  %35 = getelementptr %struct.Node* %fi23, i32 0, i32 2, !llfi_index !674
  %fi24 = call %struct.Node** @injectFault4(i64 673, %struct.Node** %35, i32 29, i32 0, i32 1, i32 0, i8* getelementptr inbounds ([14 x i8]* @getelementptr_namestr, i32 0, i32 0)), !llfi_injectfault !33
  %36 = load %struct.Node** %fi24, align 8, !llfi_index !675
  %fi25 = call %struct.Node* @injectFault2(i64 674, %struct.Node* %36, i32 27, i32 0, i32 1, i32 0, i8* getelementptr inbounds ([5 x i8]* @load_namestr, i32 0, i32 0)), !llfi_injectfault !33
  %37 = load i32* %3, align 4, !llfi_index !676
  %fi26 = call i32 @injectFault1(i64 675, i32 %37, i32 27, i32 0, i32 1, i32 0, i8* getelementptr inbounds ([5 x i8]* @load_namestr, i32 0, i32 0)), !llfi_injectfault !33
  %38 = load %"class.std::vector"** %4, align 8, !llfi_index !677
  %fi27 = call %"class.std::vector"* @injectFault0(i64 676, %"class.std::vector"* %38, i32 27, i32 0, i32 1, i32 0, i8* getelementptr inbounds ([5 x i8]* @load_namestr, i32 0, i32 0)), !llfi_injectfault !33
  %39 = call %struct.Node* @_Z6insertP4NodeiRSt6vectorIS0_SaIS0_EE(%struct.Node* %fi25, i32 %fi26, %"class.std::vector"* %fi27), !llfi_index !678
  %40 = load %struct.Node** %2, align 8, !llfi_index !679
  %fi28 = call %struct.Node* @injectFault2(i64 678, %struct.Node* %40, i32 27, i32 0, i32 1, i32 0, i8* getelementptr inbounds ([5 x i8]* @load_namestr, i32 0, i32 0)), !llfi_injectfault !33
  %41 = getelementptr %struct.Node* %fi28, i32 0, i32 2, !llfi_index !680
  %fi29 = call %struct.Node** @injectFault4(i64 679, %struct.Node** %41, i32 29, i32 0, i32 1, i32 0, i8* getelementptr inbounds ([14 x i8]* @getelementptr_namestr, i32 0, i32 0)), !llfi_injectfault !33
  store %struct.Node* %39, %struct.Node** %fi29, align 8, !llfi_index !681
  %42 = load %struct.Node** %2, align 8, !llfi_index !682
  %fi30 = call %struct.Node* @injectFault2(i64 681, %struct.Node* %42, i32 27, i32 0, i32 1, i32 0, i8* getelementptr inbounds ([5 x i8]* @load_namestr, i32 0, i32 0)), !llfi_injectfault !33
  %43 = load %struct.Node** %2, align 8, !llfi_index !683
  %fi31 = call %struct.Node* @injectFault2(i64 682, %struct.Node* %43, i32 27, i32 0, i32 1, i32 0, i8* getelementptr inbounds ([5 x i8]* @load_namestr, i32 0, i32 0)), !llfi_injectfault !33
  %44 = getelementptr %struct.Node* %fi31, i32 0, i32 2, !llfi_index !684
  %fi32 = call %struct.Node** @injectFault4(i64 683, %struct.Node** %44, i32 29, i32 0, i32 1, i32 0, i8* getelementptr inbounds ([14 x i8]* @getelementptr_namestr, i32 0, i32 0)), !llfi_injectfault !33
  %45 = load %struct.Node** %fi32, align 8, !llfi_index !685
  %fi33 = call %struct.Node* @injectFault2(i64 684, %struct.Node* %45, i32 27, i32 0, i32 1, i32 0, i8* getelementptr inbounds ([5 x i8]* @load_namestr, i32 0, i32 0)), !llfi_injectfault !33
  %46 = getelementptr %struct.Node* %fi33, i32 0, i32 3, !llfi_index !686
  %fi34 = call %struct.Node** @injectFault4(i64 685, %struct.Node** %46, i32 29, i32 0, i32 1, i32 0, i8* getelementptr inbounds ([14 x i8]* @getelementptr_namestr, i32 0, i32 0)), !llfi_injectfault !33
  store %struct.Node* %fi30, %struct.Node** %fi34, align 8, !llfi_index !687
  br label %47, !llfi_index !688

; <label>:47                                      ; preds = %33, %19
  %48 = load %struct.Node** %2, align 8, !llfi_index !689
  %fi35 = call %struct.Node* @injectFault2(i64 688, %struct.Node* %48, i32 27, i32 0, i32 1, i32 0, i8* getelementptr inbounds ([5 x i8]* @load_namestr, i32 0, i32 0)), !llfi_injectfault !33
  store %struct.Node* %fi35, %struct.Node** %1, !llfi_index !690
  br label %49, !llfi_index !691

; <label>:49                                      ; preds = %47, %7
  %50 = load %struct.Node** %1, !llfi_index !692
  %fi36 = call %struct.Node* @injectFault2(i64 691, %struct.Node* %50, i32 27, i32 0, i32 1, i32 0, i8* getelementptr inbounds ([5 x i8]* @load_namestr, i32 0, i32 0)), !llfi_injectfault !33
  ret %struct.Node* %fi36, !llfi_index !693
}

; Function Attrs: nobuiltin
declare noalias i8* @_Znwm(i64) #5

; Function Attrs: nounwind uwtable
define linkonce_odr void @_ZN4NodeC2Ei(%struct.Node* %this, i32 %v) unnamed_addr #3 align 2 {
  %1 = alloca %struct.Node*, align 8, !llfi_index !694
  %2 = alloca i32, align 4, !llfi_index !695
  store %struct.Node* %this, %struct.Node** %1, align 8, !llfi_index !696
  store i32 %v, i32* %2, align 4, !llfi_index !697
  %3 = load %struct.Node** %1, !llfi_index !698
  %fi = call %struct.Node* @injectFault2(i64 697, %struct.Node* %3, i32 27, i32 0, i32 1, i32 0, i8* getelementptr inbounds ([5 x i8]* @load_namestr, i32 0, i32 0)), !llfi_injectfault !33
  %4 = getelementptr %struct.Node* %fi, i32 0, i32 0, !llfi_index !699
  %fi1 = call i32* @injectFault8(i64 698, i32* %4, i32 29, i32 0, i32 1, i32 0, i8* getelementptr inbounds ([14 x i8]* @getelementptr_namestr, i32 0, i32 0)), !llfi_injectfault !33
  %5 = load i32* %2, align 4, !llfi_index !700
  %fi2 = call i32 @injectFault1(i64 699, i32 %5, i32 27, i32 0, i32 1, i32 0, i8* getelementptr inbounds ([5 x i8]* @load_namestr, i32 0, i32 0)), !llfi_injectfault !33
  store i32 %fi2, i32* %fi1, align 4, !llfi_index !701
  %6 = getelementptr %struct.Node* %fi, i32 0, i32 1, !llfi_index !702
  %fi3 = call %struct.Node** @injectFault4(i64 701, %struct.Node** %6, i32 29, i32 0, i32 1, i32 0, i8* getelementptr inbounds ([14 x i8]* @getelementptr_namestr, i32 0, i32 0)), !llfi_injectfault !33
  store %struct.Node* null, %struct.Node** %fi3, align 8, !llfi_index !703
  %7 = getelementptr %struct.Node* %fi, i32 0, i32 2, !llfi_index !704
  %fi4 = call %struct.Node** @injectFault4(i64 703, %struct.Node** %7, i32 29, i32 0, i32 1, i32 0, i8* getelementptr inbounds ([14 x i8]* @getelementptr_namestr, i32 0, i32 0)), !llfi_injectfault !33
  store %struct.Node* null, %struct.Node** %fi4, align 8, !llfi_index !705
  %8 = getelementptr %struct.Node* %fi, i32 0, i32 3, !llfi_index !706
  %fi5 = call %struct.Node** @injectFault4(i64 705, %struct.Node** %8, i32 29, i32 0, i32 1, i32 0, i8* getelementptr inbounds ([14 x i8]* @getelementptr_namestr, i32 0, i32 0)), !llfi_injectfault !33
  store %struct.Node* null, %struct.Node** %fi5, align 8, !llfi_index !707
  ret void, !llfi_index !708
}

; Function Attrs: nounwind uwtable
define i32 @main(i32 %argc, i8** %argv) #3 {
  call void @initInjections()
  %1 = alloca i32, align 4, !llfi_index !709
  %2 = alloca i32, align 4, !llfi_index !710
  %3 = alloca i8**, align 8, !llfi_index !711
  %filename = alloca %"class.std::__cxx11::basic_string", align 8, !llfi_index !712
  %4 = alloca %"class.std::allocator.9", align 1, !llfi_index !713
  %file = alloca %"class.std::basic_ifstream", align 8, !llfi_index !714
  %5 = alloca i32, !llfi_index !715
  %num = alloca i32, align 4, !llfi_index !716
  %root = alloca %struct.Node*, align 8, !llfi_index !717
  %all_nodes = alloca %"class.std::vector", align 8, !llfi_index !718
  %result = alloca %"class.std::vector.0", align 8, !llfi_index !719
  %i = alloca i64, align 8, !llfi_index !720
  store i32 0, i32* %1, !llfi_index !721
  store i32 %argc, i32* %2, align 4, !llfi_index !722
  store i8** %argv, i8*** %3, align 8, !llfi_index !723
  call void @_ZNSaIcEC1Ev(%"class.std::allocator.9"* %4) #0, !llfi_index !724
  call void @_ZNSt7__cxx1112basic_stringIcSt11char_traitsIcESaIcEEC1EPKcRKS3_(%"class.std::__cxx11::basic_string"* %filename, i8* getelementptr inbounds ([18 x i8]* @.str, i32 0, i32 0), %"class.std::allocator.9"* %4), !llfi_index !725
  call void @_ZNSaIcED1Ev(%"class.std::allocator.9"* %4) #0, !llfi_index !726
  %6 = load i32* %2, align 4, !llfi_index !727
  %fi7 = call i32 @injectFault1(i64 726, i32 %6, i32 27, i32 0, i32 1, i32 0, i8* getelementptr inbounds ([5 x i8]* @load_namestr, i32 0, i32 0)), !llfi_injectfault !33
  %7 = icmp sgt i32 %fi7, 1, !llfi_index !728
  %fi8 = call i1 @injectFault5(i64 727, i1 %7, i32 46, i32 0, i32 1, i32 0, i8* getelementptr inbounds ([5 x i8]* @icmp_namestr, i32 0, i32 0)), !llfi_injectfault !33
  br i1 %fi8, label %8, label %13, !llfi_index !729

; <label>:8                                       ; preds = %0
  %9 = load i8*** %3, align 8, !llfi_index !730
  %fi9 = call i8** @injectFault26(i64 729, i8** %9, i32 27, i32 0, i32 1, i32 0, i8* getelementptr inbounds ([5 x i8]* @load_namestr, i32 0, i32 0)), !llfi_injectfault !33
  %10 = getelementptr i8** %fi9, i64 1, !llfi_index !731
  %fi10 = call i8** @injectFault26(i64 730, i8** %10, i32 29, i32 0, i32 1, i32 0, i8* getelementptr inbounds ([14 x i8]* @getelementptr_namestr, i32 0, i32 0)), !llfi_injectfault !33
  %11 = load i8** %fi10, align 8, !llfi_index !732
  %fi11 = call i8* @injectFault18(i64 731, i8* %11, i32 27, i32 0, i32 1, i32 0, i8* getelementptr inbounds ([5 x i8]* @load_namestr, i32 0, i32 0)), !llfi_injectfault !33
  %12 = call %"class.std::__cxx11::basic_string"* @_ZNSt7__cxx1112basic_stringIcSt11char_traitsIcESaIcEEaSEPKc(%"class.std::__cxx11::basic_string"* %filename, i8* %fi11), !llfi_index !733
  br label %13, !llfi_index !734

; <label>:13                                      ; preds = %8, %0
  %14 = call i8* @_ZNKSt7__cxx1112basic_stringIcSt11char_traitsIcESaIcEE5c_strEv(%"class.std::__cxx11::basic_string"* %filename) #0, !llfi_index !735
  call void @_ZNSt14basic_ifstreamIcSt11char_traitsIcEEC1EPKcSt13_Ios_Openmode(%"class.std::basic_ifstream"* %file, i8* %14, i32 8), !llfi_index !736
  %15 = call zeroext i1 @_ZNSt14basic_ifstreamIcSt11char_traitsIcEE7is_openEv(%"class.std::basic_ifstream"* %file), !llfi_index !737
  br i1 %15, label %20, label %16, !llfi_index !738

; <label>:16                                      ; preds = %13
  %17 = call %"class.std::basic_ostream"* @_ZStlsISt11char_traitsIcEERSt13basic_ostreamIcT_ES5_PKc(%"class.std::basic_ostream"* @_ZSt4cerr, i8* getelementptr inbounds ([23 x i8]* @.str1, i32 0, i32 0)), !llfi_index !739
  %18 = call %"class.std::basic_ostream"* @_ZStlsIcSt11char_traitsIcESaIcEERSt13basic_ostreamIT_T0_ES7_RKNSt7__cxx1112basic_stringIS4_S5_T1_EE(%"class.std::basic_ostream"* %17, %"class.std::__cxx11::basic_string"* %filename), !llfi_index !740
  %19 = call %"class.std::basic_ostream"* @_ZNSolsEPFRSoS_E(%"class.std::basic_ostream"* %18, %"class.std::basic_ostream"* (%"class.std::basic_ostream"*)* @_ZSt4endlIcSt11char_traitsIcEERSt13basic_ostreamIT_T0_ES6_), !llfi_index !741
  store i32 1, i32* %1, !llfi_index !742
  store i32 1, i32* %5, !llfi_index !743
  br label %54, !llfi_index !744

; <label>:20                                      ; preds = %13
  store %struct.Node* null, %struct.Node** %root, align 8, !llfi_index !745
  call void @_ZNSt6vectorIP4NodeSaIS1_EEC2Ev(%"class.std::vector"* %all_nodes) #0, !llfi_index !746
  br label %21, !llfi_index !747

; <label>:21                                      ; preds = %33, %20
  %22 = bitcast %"class.std::basic_ifstream"* %file to %"class.std::basic_istream"*, !llfi_index !748
  %fi12 = call %"class.std::basic_istream"* @injectFault27(i64 747, %"class.std::basic_istream"* %22, i32 44, i32 0, i32 1, i32 0, i8* getelementptr inbounds ([8 x i8]* @bitcast_namestr, i32 0, i32 0)), !llfi_injectfault !33
  %23 = call %"class.std::basic_istream"* @_ZNSirsERi(%"class.std::basic_istream"* %fi12, i32* %num), !llfi_index !749
  %24 = bitcast %"class.std::basic_istream"* %23 to i8**, !llfi_index !750
  %fi13 = call i8** @injectFault26(i64 749, i8** %24, i32 44, i32 0, i32 1, i32 0, i8* getelementptr inbounds ([8 x i8]* @bitcast_namestr, i32 0, i32 0)), !llfi_injectfault !33
  %25 = load i8** %fi13, !llfi_index !751
  %fi14 = call i8* @injectFault18(i64 750, i8* %25, i32 27, i32 0, i32 1, i32 0, i8* getelementptr inbounds ([5 x i8]* @load_namestr, i32 0, i32 0)), !llfi_injectfault !33
  %26 = getelementptr i8* %fi14, i64 -24, !llfi_index !752
  %fi15 = call i8* @injectFault18(i64 751, i8* %26, i32 29, i32 0, i32 1, i32 0, i8* getelementptr inbounds ([14 x i8]* @getelementptr_namestr, i32 0, i32 0)), !llfi_injectfault !33
  %27 = bitcast i8* %fi15 to i64*, !llfi_index !753
  %fi16 = call i64* @injectFault28(i64 752, i64* %27, i32 44, i32 0, i32 1, i32 0, i8* getelementptr inbounds ([8 x i8]* @bitcast_namestr, i32 0, i32 0)), !llfi_injectfault !33
  %28 = load i64* %fi16, !llfi_index !754
  %fi17 = call i64 @injectFault24(i64 753, i64 %28, i32 27, i32 0, i32 1, i32 0, i8* getelementptr inbounds ([5 x i8]* @load_namestr, i32 0, i32 0)), !llfi_injectfault !33
  %29 = bitcast %"class.std::basic_istream"* %23 to i8*, !llfi_index !755
  %fi18 = call i8* @injectFault18(i64 754, i8* %29, i32 44, i32 0, i32 1, i32 0, i8* getelementptr inbounds ([8 x i8]* @bitcast_namestr, i32 0, i32 0)), !llfi_injectfault !33
  %30 = getelementptr i8* %fi18, i64 %fi17, !llfi_index !756
  %fi19 = call i8* @injectFault18(i64 755, i8* %30, i32 29, i32 0, i32 1, i32 0, i8* getelementptr inbounds ([14 x i8]* @getelementptr_namestr, i32 0, i32 0)), !llfi_injectfault !33
  %31 = bitcast i8* %fi19 to %"class.std::basic_ios"*, !llfi_index !757
  %fi20 = call %"class.std::basic_ios"* @injectFault29(i64 756, %"class.std::basic_ios"* %31, i32 44, i32 0, i32 1, i32 0, i8* getelementptr inbounds ([8 x i8]* @bitcast_namestr, i32 0, i32 0)), !llfi_injectfault !33
  %32 = call zeroext i1 @_ZNKSt9basic_iosIcSt11char_traitsIcEEcvbEv(%"class.std::basic_ios"* %fi20), !llfi_index !758
  br i1 %32, label %33, label %37, !llfi_index !759

; <label>:33                                      ; preds = %21
  %34 = load %struct.Node** %root, align 8, !llfi_index !760
  %fi21 = call %struct.Node* @injectFault2(i64 759, %struct.Node* %34, i32 27, i32 0, i32 1, i32 0, i8* getelementptr inbounds ([5 x i8]* @load_namestr, i32 0, i32 0)), !llfi_injectfault !33
  %35 = load i32* %num, align 4, !llfi_index !761
  %fi22 = call i32 @injectFault1(i64 760, i32 %35, i32 27, i32 0, i32 1, i32 0, i8* getelementptr inbounds ([5 x i8]* @load_namestr, i32 0, i32 0)), !llfi_injectfault !33
  %36 = call %struct.Node* @_Z6insertP4NodeiRSt6vectorIS0_SaIS0_EE(%struct.Node* %fi21, i32 %fi22, %"class.std::vector"* %all_nodes), !llfi_index !762
  store %struct.Node* %36, %struct.Node** %root, align 8, !llfi_index !763
  br label %21, !llfi_index !764

; <label>:37                                      ; preds = %21
  call void @_ZNSt14basic_ifstreamIcSt11char_traitsIcEE5closeEv(%"class.std::basic_ifstream"* %file), !llfi_index !765
  call void @_ZNSt6vectorIiSaIiEEC2Ev(%"class.std::vector.0"* %result) #0, !llfi_index !766
  %38 = load %struct.Node** %root, align 8, !llfi_index !767
  %fi23 = call %struct.Node* @injectFault2(i64 766, %struct.Node* %38, i32 27, i32 0, i32 1, i32 0, i8* getelementptr inbounds ([5 x i8]* @load_namestr, i32 0, i32 0)), !llfi_injectfault !33
  call void @_Z13bfs_bottom_upP4NodeRKSt6vectorIS0_SaIS0_EERS1_IiSaIiEE(%struct.Node* %fi23, %"class.std::vector"* %all_nodes, %"class.std::vector.0"* %result), !llfi_index !768
  store i64 0, i64* %i, align 8, !llfi_index !769
  br label %39, !llfi_index !770

; <label>:39                                      ; preds = %49, %37
  %40 = load i64* %i, align 8, !llfi_index !771
  %fi = call i64 @injectFault24(i64 770, i64 %40, i32 27, i32 0, i32 1, i32 0, i8* getelementptr inbounds ([5 x i8]* @load_namestr, i32 0, i32 0)), !llfi_injectfault !33
  %41 = call i64 @_ZNKSt6vectorIiSaIiEE4sizeEv(%"class.std::vector.0"* %result) #0, !llfi_index !772
  %42 = icmp ult i64 %fi, %41, !llfi_index !773
  %fi1 = call i1 @injectFault5(i64 772, i1 %42, i32 46, i32 0, i32 1, i32 0, i8* getelementptr inbounds ([5 x i8]* @icmp_namestr, i32 0, i32 0)), !llfi_injectfault !33
  br i1 %fi1, label %43, label %52, !llfi_index !774

; <label>:43                                      ; preds = %39
  %44 = load i64* %i, align 8, !llfi_index !775
  %fi2 = call i64 @injectFault24(i64 774, i64 %44, i32 27, i32 0, i32 1, i32 0, i8* getelementptr inbounds ([5 x i8]* @load_namestr, i32 0, i32 0)), !llfi_injectfault !33
  %45 = call i32* @_ZNSt6vectorIiSaIiEEixEm(%"class.std::vector.0"* %result, i64 %fi2) #0, !llfi_index !776
  %46 = load i32* %45, !llfi_index !777
  %fi3 = call i32 @injectFault1(i64 776, i32 %46, i32 27, i32 0, i32 1, i32 0, i8* getelementptr inbounds ([5 x i8]* @load_namestr, i32 0, i32 0)), !llfi_injectfault !33
  %47 = call %"class.std::basic_ostream"* @_ZNSolsEi(%"class.std::basic_ostream"* @_ZSt4cout, i32 %fi3), !llfi_index !778
  %48 = call %"class.std::basic_ostream"* @_ZStlsISt11char_traitsIcEERSt13basic_ostreamIcT_ES5_PKc(%"class.std::basic_ostream"* %47, i8* getelementptr inbounds ([2 x i8]* @.str2, i32 0, i32 0)), !llfi_index !779
  br label %49, !llfi_index !780

; <label>:49                                      ; preds = %43
  %50 = load i64* %i, align 8, !llfi_index !781
  %fi4 = call i64 @injectFault24(i64 780, i64 %50, i32 27, i32 0, i32 1, i32 0, i8* getelementptr inbounds ([5 x i8]* @load_namestr, i32 0, i32 0)), !llfi_injectfault !33
  %51 = add i64 %fi4, 1, !llfi_index !782
  %fi5 = call i64 @injectFault24(i64 781, i64 %51, i32 8, i32 0, i32 1, i32 0, i8* getelementptr inbounds ([4 x i8]* @add_namestr, i32 0, i32 0)), !llfi_injectfault !33
  store i64 %fi5, i64* %i, align 8, !llfi_index !783
  br label %39, !llfi_index !784

; <label>:52                                      ; preds = %39
  %53 = call %"class.std::basic_ostream"* @_ZNSolsEPFRSoS_E(%"class.std::basic_ostream"* @_ZSt4cout, %"class.std::basic_ostream"* (%"class.std::basic_ostream"*)* @_ZSt4endlIcSt11char_traitsIcEERSt13basic_ostreamIT_T0_ES6_), !llfi_index !785
  store i32 0, i32* %1, !llfi_index !786
  store i32 1, i32* %5, !llfi_index !787
  call void @_ZNSt6vectorIiSaIiEED2Ev(%"class.std::vector.0"* %result) #0, !llfi_index !788
  call void @_ZNSt6vectorIP4NodeSaIS1_EED2Ev(%"class.std::vector"* %all_nodes) #0, !llfi_index !789
  br label %54, !llfi_index !790

; <label>:54                                      ; preds = %52, %16
  call void @_ZNSt14basic_ifstreamIcSt11char_traitsIcEED1Ev(%"class.std::basic_ifstream"* %file) #0, !llfi_index !791
  call void @_ZNSt7__cxx1112basic_stringIcSt11char_traitsIcESaIcEED1Ev(%"class.std::__cxx11::basic_string"* %filename) #0, !llfi_index !792
  %55 = load i32* %1, !llfi_index !793
  %fi6 = call i32 @injectFault1(i64 792, i32 %55, i32 27, i32 0, i32 1, i32 0, i8* getelementptr inbounds ([5 x i8]* @load_namestr, i32 0, i32 0)), !llfi_injectfault !33
  call void @postInjections()
  ret i32 %fi6, !llfi_index !794
}

declare void @_ZNSt7__cxx1112basic_stringIcSt11char_traitsIcESaIcEEC1EPKcRKS3_(%"class.std::__cxx11::basic_string"*, i8*, %"class.std::allocator.9"*) #1

; Function Attrs: nounwind
declare void @_ZNSaIcEC1Ev(%"class.std::allocator.9"*) #2

; Function Attrs: nounwind
declare void @_ZNSaIcED1Ev(%"class.std::allocator.9"*) #2

declare %"class.std::__cxx11::basic_string"* @_ZNSt7__cxx1112basic_stringIcSt11char_traitsIcESaIcEEaSEPKc(%"class.std::__cxx11::basic_string"*, i8*) #1

declare void @_ZNSt14basic_ifstreamIcSt11char_traitsIcEEC1EPKcSt13_Ios_Openmode(%"class.std::basic_ifstream"*, i8*, i32) #1

; Function Attrs: nounwind
declare i8* @_ZNKSt7__cxx1112basic_stringIcSt11char_traitsIcESaIcEE5c_strEv(%"class.std::__cxx11::basic_string"*) #2

declare zeroext i1 @_ZNSt14basic_ifstreamIcSt11char_traitsIcEE7is_openEv(%"class.std::basic_ifstream"*) #1

declare %"class.std::basic_ostream"* @_ZStlsIcSt11char_traitsIcESaIcEERSt13basic_ostreamIT_T0_ES7_RKNSt7__cxx1112basic_stringIS4_S5_T1_EE(%"class.std::basic_ostream"*, %"class.std::__cxx11::basic_string"*) #1

declare %"class.std::basic_ostream"* @_ZStlsISt11char_traitsIcEERSt13basic_ostreamIcT_ES5_PKc(%"class.std::basic_ostream"*, i8*) #1

declare %"class.std::basic_ostream"* @_ZNSolsEPFRSoS_E(%"class.std::basic_ostream"*, %"class.std::basic_ostream"* (%"class.std::basic_ostream"*)*) #1

declare %"class.std::basic_ostream"* @_ZSt4endlIcSt11char_traitsIcEERSt13basic_ostreamIT_T0_ES6_(%"class.std::basic_ostream"*) #1

declare %"class.std::basic_istream"* @_ZNSirsERi(%"class.std::basic_istream"*, i32*) #1

declare zeroext i1 @_ZNKSt9basic_iosIcSt11char_traitsIcEEcvbEv(%"class.std::basic_ios"*) #1

declare void @_ZNSt14basic_ifstreamIcSt11char_traitsIcEE5closeEv(%"class.std::basic_ifstream"*) #1

; Function Attrs: nounwind uwtable
define linkonce_odr void @_ZNSt6vectorIiSaIiEEC2Ev(%"class.std::vector.0"* %this) unnamed_addr #3 align 2 {
  %1 = alloca %"class.std::vector.0"*, align 8, !llfi_index !795
  store %"class.std::vector.0"* %this, %"class.std::vector.0"** %1, align 8, !llfi_index !796
  %2 = load %"class.std::vector.0"** %1, !llfi_index !797
  %fi = call %"class.std::vector.0"* @injectFault7(i64 796, %"class.std::vector.0"* %2, i32 27, i32 0, i32 1, i32 0, i8* getelementptr inbounds ([5 x i8]* @load_namestr, i32 0, i32 0)), !llfi_injectfault !33
  %3 = bitcast %"class.std::vector.0"* %fi to %"struct.std::_Vector_base.1"*, !llfi_index !798
  %fi1 = call %"struct.std::_Vector_base.1"* @injectFault19(i64 797, %"struct.std::_Vector_base.1"* %3, i32 44, i32 0, i32 1, i32 0, i8* getelementptr inbounds ([8 x i8]* @bitcast_namestr, i32 0, i32 0)), !llfi_injectfault !33
  call void @_ZNSt12_Vector_baseIiSaIiEEC2Ev(%"struct.std::_Vector_base.1"* %fi1), !llfi_index !799
  ret void, !llfi_index !800
}

; Function Attrs: nounwind uwtable
define linkonce_odr i64 @_ZNKSt6vectorIiSaIiEE4sizeEv(%"class.std::vector.0"* %this) #3 align 2 {
  %1 = alloca %"class.std::vector.0"*, align 8, !llfi_index !801
  store %"class.std::vector.0"* %this, %"class.std::vector.0"** %1, align 8, !llfi_index !802
  %2 = load %"class.std::vector.0"** %1, !llfi_index !803
  %fi = call %"class.std::vector.0"* @injectFault7(i64 802, %"class.std::vector.0"* %2, i32 27, i32 0, i32 1, i32 0, i8* getelementptr inbounds ([5 x i8]* @load_namestr, i32 0, i32 0)), !llfi_injectfault !33
  %3 = bitcast %"class.std::vector.0"* %fi to %"struct.std::_Vector_base.1"*, !llfi_index !804
  %fi1 = call %"struct.std::_Vector_base.1"* @injectFault19(i64 803, %"struct.std::_Vector_base.1"* %3, i32 44, i32 0, i32 1, i32 0, i8* getelementptr inbounds ([8 x i8]* @bitcast_namestr, i32 0, i32 0)), !llfi_injectfault !33
  %4 = getelementptr %"struct.std::_Vector_base.1"* %fi1, i32 0, i32 0, !llfi_index !805
  %fi2 = call %"struct.std::_Vector_base<int, std::allocator<int> >::_Vector_impl"* @injectFault21(i64 804, %"struct.std::_Vector_base<int, std::allocator<int> >::_Vector_impl"* %4, i32 29, i32 0, i32 1, i32 0, i8* getelementptr inbounds ([14 x i8]* @getelementptr_namestr, i32 0, i32 0)), !llfi_injectfault !33
  %5 = getelementptr %"struct.std::_Vector_base<int, std::allocator<int> >::_Vector_impl"* %fi2, i32 0, i32 1, !llfi_index !806
  %fi3 = call i32** @injectFault22(i64 805, i32** %5, i32 29, i32 0, i32 1, i32 0, i8* getelementptr inbounds ([14 x i8]* @getelementptr_namestr, i32 0, i32 0)), !llfi_injectfault !33
  %6 = load i32** %fi3, align 8, !llfi_index !807
  %fi4 = call i32* @injectFault8(i64 806, i32* %6, i32 27, i32 0, i32 1, i32 0, i8* getelementptr inbounds ([5 x i8]* @load_namestr, i32 0, i32 0)), !llfi_injectfault !33
  %7 = bitcast %"class.std::vector.0"* %fi to %"struct.std::_Vector_base.1"*, !llfi_index !808
  %fi5 = call %"struct.std::_Vector_base.1"* @injectFault19(i64 807, %"struct.std::_Vector_base.1"* %7, i32 44, i32 0, i32 1, i32 0, i8* getelementptr inbounds ([8 x i8]* @bitcast_namestr, i32 0, i32 0)), !llfi_injectfault !33
  %8 = getelementptr %"struct.std::_Vector_base.1"* %fi5, i32 0, i32 0, !llfi_index !809
  %fi6 = call %"struct.std::_Vector_base<int, std::allocator<int> >::_Vector_impl"* @injectFault21(i64 808, %"struct.std::_Vector_base<int, std::allocator<int> >::_Vector_impl"* %8, i32 29, i32 0, i32 1, i32 0, i8* getelementptr inbounds ([14 x i8]* @getelementptr_namestr, i32 0, i32 0)), !llfi_injectfault !33
  %9 = getelementptr %"struct.std::_Vector_base<int, std::allocator<int> >::_Vector_impl"* %fi6, i32 0, i32 0, !llfi_index !810
  %fi7 = call i32** @injectFault22(i64 809, i32** %9, i32 29, i32 0, i32 1, i32 0, i8* getelementptr inbounds ([14 x i8]* @getelementptr_namestr, i32 0, i32 0)), !llfi_injectfault !33
  %10 = load i32** %fi7, align 8, !llfi_index !811
  %fi8 = call i32* @injectFault8(i64 810, i32* %10, i32 27, i32 0, i32 1, i32 0, i8* getelementptr inbounds ([5 x i8]* @load_namestr, i32 0, i32 0)), !llfi_injectfault !33
  %11 = ptrtoint i32* %fi4 to i64, !llfi_index !812
  %fi9 = call i64 @injectFault24(i64 811, i64 %11, i32 42, i32 0, i32 1, i32 0, i8* getelementptr inbounds ([9 x i8]* @ptrtoint_namestr, i32 0, i32 0)), !llfi_injectfault !33
  %12 = ptrtoint i32* %fi8 to i64, !llfi_index !813
  %fi10 = call i64 @injectFault24(i64 812, i64 %12, i32 42, i32 0, i32 1, i32 0, i8* getelementptr inbounds ([9 x i8]* @ptrtoint_namestr, i32 0, i32 0)), !llfi_injectfault !33
  %13 = sub i64 %fi9, %fi10, !llfi_index !814
  %fi11 = call i64 @injectFault24(i64 813, i64 %13, i32 10, i32 0, i32 1, i32 0, i8* getelementptr inbounds ([4 x i8]* @sub_namestr, i32 0, i32 0)), !llfi_injectfault !33
  %14 = sdiv exact i64 %fi11, 4, !llfi_index !815
  %fi12 = call i64 @injectFault24(i64 814, i64 %14, i32 15, i32 0, i32 1, i32 0, i8* getelementptr inbounds ([5 x i8]* @sdiv_namestr, i32 0, i32 0)), !llfi_injectfault !33
  ret i64 %fi12, !llfi_index !816
}

declare %"class.std::basic_ostream"* @_ZNSolsEi(%"class.std::basic_ostream"*, i32) #1

; Function Attrs: nounwind uwtable
define linkonce_odr i32* @_ZNSt6vectorIiSaIiEEixEm(%"class.std::vector.0"* %this, i64 %__n) #3 align 2 {
  %1 = alloca %"class.std::vector.0"*, align 8, !llfi_index !817
  %2 = alloca i64, align 8, !llfi_index !818
  store %"class.std::vector.0"* %this, %"class.std::vector.0"** %1, align 8, !llfi_index !819
  store i64 %__n, i64* %2, align 8, !llfi_index !820
  %3 = load %"class.std::vector.0"** %1, !llfi_index !821
  %fi = call %"class.std::vector.0"* @injectFault7(i64 820, %"class.std::vector.0"* %3, i32 27, i32 0, i32 1, i32 0, i8* getelementptr inbounds ([5 x i8]* @load_namestr, i32 0, i32 0)), !llfi_injectfault !33
  %4 = bitcast %"class.std::vector.0"* %fi to %"struct.std::_Vector_base.1"*, !llfi_index !822
  %fi1 = call %"struct.std::_Vector_base.1"* @injectFault19(i64 821, %"struct.std::_Vector_base.1"* %4, i32 44, i32 0, i32 1, i32 0, i8* getelementptr inbounds ([8 x i8]* @bitcast_namestr, i32 0, i32 0)), !llfi_injectfault !33
  %5 = getelementptr %"struct.std::_Vector_base.1"* %fi1, i32 0, i32 0, !llfi_index !823
  %fi2 = call %"struct.std::_Vector_base<int, std::allocator<int> >::_Vector_impl"* @injectFault21(i64 822, %"struct.std::_Vector_base<int, std::allocator<int> >::_Vector_impl"* %5, i32 29, i32 0, i32 1, i32 0, i8* getelementptr inbounds ([14 x i8]* @getelementptr_namestr, i32 0, i32 0)), !llfi_injectfault !33
  %6 = getelementptr %"struct.std::_Vector_base<int, std::allocator<int> >::_Vector_impl"* %fi2, i32 0, i32 0, !llfi_index !824
  %fi3 = call i32** @injectFault22(i64 823, i32** %6, i32 29, i32 0, i32 1, i32 0, i8* getelementptr inbounds ([14 x i8]* @getelementptr_namestr, i32 0, i32 0)), !llfi_injectfault !33
  %7 = load i32** %fi3, align 8, !llfi_index !825
  %fi4 = call i32* @injectFault8(i64 824, i32* %7, i32 27, i32 0, i32 1, i32 0, i8* getelementptr inbounds ([5 x i8]* @load_namestr, i32 0, i32 0)), !llfi_injectfault !33
  %8 = load i64* %2, align 8, !llfi_index !826
  %fi5 = call i64 @injectFault24(i64 825, i64 %8, i32 27, i32 0, i32 1, i32 0, i8* getelementptr inbounds ([5 x i8]* @load_namestr, i32 0, i32 0)), !llfi_injectfault !33
  %9 = getelementptr i32* %fi4, i64 %fi5, !llfi_index !827
  %fi6 = call i32* @injectFault8(i64 826, i32* %9, i32 29, i32 0, i32 1, i32 0, i8* getelementptr inbounds ([14 x i8]* @getelementptr_namestr, i32 0, i32 0)), !llfi_injectfault !33
  ret i32* %fi6, !llfi_index !828
}

; Function Attrs: nounwind uwtable
define linkonce_odr void @_ZNSt6vectorIiSaIiEED2Ev(%"class.std::vector.0"* %this) unnamed_addr #3 align 2 {
  %1 = alloca %"class.std::vector.0"*, align 8, !llfi_index !829
  store %"class.std::vector.0"* %this, %"class.std::vector.0"** %1, align 8, !llfi_index !830
  %2 = load %"class.std::vector.0"** %1, !llfi_index !831
  %fi1 = call %"class.std::vector.0"* @injectFault7(i64 830, %"class.std::vector.0"* %2, i32 27, i32 0, i32 1, i32 0, i8* getelementptr inbounds ([5 x i8]* @load_namestr, i32 0, i32 0)), !llfi_injectfault !33
  %3 = bitcast %"class.std::vector.0"* %fi1 to %"struct.std::_Vector_base.1"*, !llfi_index !832
  %fi2 = call %"struct.std::_Vector_base.1"* @injectFault19(i64 831, %"struct.std::_Vector_base.1"* %3, i32 44, i32 0, i32 1, i32 0, i8* getelementptr inbounds ([8 x i8]* @bitcast_namestr, i32 0, i32 0)), !llfi_injectfault !33
  %4 = getelementptr %"struct.std::_Vector_base.1"* %fi2, i32 0, i32 0, !llfi_index !833
  %fi3 = call %"struct.std::_Vector_base<int, std::allocator<int> >::_Vector_impl"* @injectFault21(i64 832, %"struct.std::_Vector_base<int, std::allocator<int> >::_Vector_impl"* %4, i32 29, i32 0, i32 1, i32 0, i8* getelementptr inbounds ([14 x i8]* @getelementptr_namestr, i32 0, i32 0)), !llfi_injectfault !33
  %5 = getelementptr %"struct.std::_Vector_base<int, std::allocator<int> >::_Vector_impl"* %fi3, i32 0, i32 0, !llfi_index !834
  %fi4 = call i32** @injectFault22(i64 833, i32** %5, i32 29, i32 0, i32 1, i32 0, i8* getelementptr inbounds ([14 x i8]* @getelementptr_namestr, i32 0, i32 0)), !llfi_injectfault !33
  %6 = load i32** %fi4, align 8, !llfi_index !835
  %fi5 = call i32* @injectFault8(i64 834, i32* %6, i32 27, i32 0, i32 1, i32 0, i8* getelementptr inbounds ([5 x i8]* @load_namestr, i32 0, i32 0)), !llfi_injectfault !33
  %7 = bitcast %"class.std::vector.0"* %fi1 to %"struct.std::_Vector_base.1"*, !llfi_index !836
  %fi6 = call %"struct.std::_Vector_base.1"* @injectFault19(i64 835, %"struct.std::_Vector_base.1"* %7, i32 44, i32 0, i32 1, i32 0, i8* getelementptr inbounds ([8 x i8]* @bitcast_namestr, i32 0, i32 0)), !llfi_injectfault !33
  %8 = getelementptr %"struct.std::_Vector_base.1"* %fi6, i32 0, i32 0, !llfi_index !837
  %fi7 = call %"struct.std::_Vector_base<int, std::allocator<int> >::_Vector_impl"* @injectFault21(i64 836, %"struct.std::_Vector_base<int, std::allocator<int> >::_Vector_impl"* %8, i32 29, i32 0, i32 1, i32 0, i8* getelementptr inbounds ([14 x i8]* @getelementptr_namestr, i32 0, i32 0)), !llfi_injectfault !33
  %9 = getelementptr %"struct.std::_Vector_base<int, std::allocator<int> >::_Vector_impl"* %fi7, i32 0, i32 1, !llfi_index !838
  %fi8 = call i32** @injectFault22(i64 837, i32** %9, i32 29, i32 0, i32 1, i32 0, i8* getelementptr inbounds ([14 x i8]* @getelementptr_namestr, i32 0, i32 0)), !llfi_injectfault !33
  %10 = load i32** %fi8, align 8, !llfi_index !839
  %fi9 = call i32* @injectFault8(i64 838, i32* %10, i32 27, i32 0, i32 1, i32 0, i8* getelementptr inbounds ([5 x i8]* @load_namestr, i32 0, i32 0)), !llfi_injectfault !33
  %11 = bitcast %"class.std::vector.0"* %fi1 to %"struct.std::_Vector_base.1"*, !llfi_index !840
  %fi10 = call %"struct.std::_Vector_base.1"* @injectFault19(i64 839, %"struct.std::_Vector_base.1"* %11, i32 44, i32 0, i32 1, i32 0, i8* getelementptr inbounds ([8 x i8]* @bitcast_namestr, i32 0, i32 0)), !llfi_injectfault !33
  %12 = call %"class.std::allocator.2"* @_ZNSt12_Vector_baseIiSaIiEE19_M_get_Tp_allocatorEv(%"struct.std::_Vector_base.1"* %fi10) #0, !llfi_index !841
  call void @_ZSt8_DestroyIPiiEvT_S1_RSaIT0_E(i32* %fi5, i32* %fi9, %"class.std::allocator.2"* %12), !llfi_index !842
  %13 = bitcast %"class.std::vector.0"* %fi1 to %"struct.std::_Vector_base.1"*, !llfi_index !843
  %fi = call %"struct.std::_Vector_base.1"* @injectFault19(i64 842, %"struct.std::_Vector_base.1"* %13, i32 44, i32 0, i32 1, i32 0, i8* getelementptr inbounds ([8 x i8]* @bitcast_namestr, i32 0, i32 0)), !llfi_injectfault !33
  call void @_ZNSt12_Vector_baseIiSaIiEED2Ev(%"struct.std::_Vector_base.1"* %fi) #0, !llfi_index !844
  ret void, !llfi_index !845
}

; Function Attrs: nounwind
declare void @_ZNSt14basic_ifstreamIcSt11char_traitsIcEED1Ev(%"class.std::basic_ifstream"*) #2

; Function Attrs: nounwind
declare void @_ZNSt7__cxx1112basic_stringIcSt11char_traitsIcESaIcEED1Ev(%"class.std::__cxx11::basic_string"*) #2

; Function Attrs: inlinehint nounwind uwtable
define linkonce_odr void @_ZSt8_DestroyIPiiEvT_S1_RSaIT0_E(i32* %__first, i32* %__last, %"class.std::allocator.2"*) #4 {
  %2 = alloca i32*, align 8, !llfi_index !846
  %3 = alloca i32*, align 8, !llfi_index !847
  %4 = alloca %"class.std::allocator.2"*, align 8, !llfi_index !848
  store i32* %__first, i32** %2, align 8, !llfi_index !849
  store i32* %__last, i32** %3, align 8, !llfi_index !850
  store %"class.std::allocator.2"* %0, %"class.std::allocator.2"** %4, align 8, !llfi_index !851
  %5 = load i32** %2, align 8, !llfi_index !852
  %fi = call i32* @injectFault8(i64 851, i32* %5, i32 27, i32 0, i32 1, i32 0, i8* getelementptr inbounds ([5 x i8]* @load_namestr, i32 0, i32 0)), !llfi_injectfault !33
  %6 = load i32** %3, align 8, !llfi_index !853
  %fi1 = call i32* @injectFault8(i64 852, i32* %6, i32 27, i32 0, i32 1, i32 0, i8* getelementptr inbounds ([5 x i8]* @load_namestr, i32 0, i32 0)), !llfi_injectfault !33
  call void @_ZSt8_DestroyIPiEvT_S1_(i32* %fi, i32* %fi1), !llfi_index !854
  ret void, !llfi_index !855
}

; Function Attrs: nounwind uwtable
define linkonce_odr %"class.std::allocator.2"* @_ZNSt12_Vector_baseIiSaIiEE19_M_get_Tp_allocatorEv(%"struct.std::_Vector_base.1"* %this) #3 align 2 {
  %1 = alloca %"struct.std::_Vector_base.1"*, align 8, !llfi_index !856
  store %"struct.std::_Vector_base.1"* %this, %"struct.std::_Vector_base.1"** %1, align 8, !llfi_index !857
  %2 = load %"struct.std::_Vector_base.1"** %1, !llfi_index !858
  %fi = call %"struct.std::_Vector_base.1"* @injectFault19(i64 857, %"struct.std::_Vector_base.1"* %2, i32 27, i32 0, i32 1, i32 0, i8* getelementptr inbounds ([5 x i8]* @load_namestr, i32 0, i32 0)), !llfi_injectfault !33
  %3 = getelementptr %"struct.std::_Vector_base.1"* %fi, i32 0, i32 0, !llfi_index !859
  %fi1 = call %"struct.std::_Vector_base<int, std::allocator<int> >::_Vector_impl"* @injectFault21(i64 858, %"struct.std::_Vector_base<int, std::allocator<int> >::_Vector_impl"* %3, i32 29, i32 0, i32 1, i32 0, i8* getelementptr inbounds ([14 x i8]* @getelementptr_namestr, i32 0, i32 0)), !llfi_injectfault !33
  %4 = bitcast %"struct.std::_Vector_base<int, std::allocator<int> >::_Vector_impl"* %fi1 to %"class.std::allocator.2"*, !llfi_index !860
  %fi2 = call %"class.std::allocator.2"* @injectFault23(i64 859, %"class.std::allocator.2"* %4, i32 44, i32 0, i32 1, i32 0, i8* getelementptr inbounds ([8 x i8]* @bitcast_namestr, i32 0, i32 0)), !llfi_injectfault !33
  ret %"class.std::allocator.2"* %fi2, !llfi_index !861
}

; Function Attrs: nounwind uwtable
define linkonce_odr void @_ZNSt12_Vector_baseIiSaIiEED2Ev(%"struct.std::_Vector_base.1"* %this) unnamed_addr #3 align 2 {
  %1 = alloca %"struct.std::_Vector_base.1"*, align 8, !llfi_index !862
  store %"struct.std::_Vector_base.1"* %this, %"struct.std::_Vector_base.1"** %1, align 8, !llfi_index !863
  %2 = load %"struct.std::_Vector_base.1"** %1, !llfi_index !864
  %fi = call %"struct.std::_Vector_base.1"* @injectFault19(i64 863, %"struct.std::_Vector_base.1"* %2, i32 27, i32 0, i32 1, i32 0, i8* getelementptr inbounds ([5 x i8]* @load_namestr, i32 0, i32 0)), !llfi_injectfault !33
  %3 = getelementptr %"struct.std::_Vector_base.1"* %fi, i32 0, i32 0, !llfi_index !865
  %fi1 = call %"struct.std::_Vector_base<int, std::allocator<int> >::_Vector_impl"* @injectFault21(i64 864, %"struct.std::_Vector_base<int, std::allocator<int> >::_Vector_impl"* %3, i32 29, i32 0, i32 1, i32 0, i8* getelementptr inbounds ([14 x i8]* @getelementptr_namestr, i32 0, i32 0)), !llfi_injectfault !33
  %4 = getelementptr %"struct.std::_Vector_base<int, std::allocator<int> >::_Vector_impl"* %fi1, i32 0, i32 0, !llfi_index !866
  %fi2 = call i32** @injectFault22(i64 865, i32** %4, i32 29, i32 0, i32 1, i32 0, i8* getelementptr inbounds ([14 x i8]* @getelementptr_namestr, i32 0, i32 0)), !llfi_injectfault !33
  %5 = load i32** %fi2, align 8, !llfi_index !867
  %fi3 = call i32* @injectFault8(i64 866, i32* %5, i32 27, i32 0, i32 1, i32 0, i8* getelementptr inbounds ([5 x i8]* @load_namestr, i32 0, i32 0)), !llfi_injectfault !33
  %6 = getelementptr %"struct.std::_Vector_base.1"* %fi, i32 0, i32 0, !llfi_index !868
  %fi4 = call %"struct.std::_Vector_base<int, std::allocator<int> >::_Vector_impl"* @injectFault21(i64 867, %"struct.std::_Vector_base<int, std::allocator<int> >::_Vector_impl"* %6, i32 29, i32 0, i32 1, i32 0, i8* getelementptr inbounds ([14 x i8]* @getelementptr_namestr, i32 0, i32 0)), !llfi_injectfault !33
  %7 = getelementptr %"struct.std::_Vector_base<int, std::allocator<int> >::_Vector_impl"* %fi4, i32 0, i32 2, !llfi_index !869
  %fi5 = call i32** @injectFault22(i64 868, i32** %7, i32 29, i32 0, i32 1, i32 0, i8* getelementptr inbounds ([14 x i8]* @getelementptr_namestr, i32 0, i32 0)), !llfi_injectfault !33
  %8 = load i32** %fi5, align 8, !llfi_index !870
  %fi6 = call i32* @injectFault8(i64 869, i32* %8, i32 27, i32 0, i32 1, i32 0, i8* getelementptr inbounds ([5 x i8]* @load_namestr, i32 0, i32 0)), !llfi_injectfault !33
  %9 = getelementptr %"struct.std::_Vector_base.1"* %fi, i32 0, i32 0, !llfi_index !871
  %fi7 = call %"struct.std::_Vector_base<int, std::allocator<int> >::_Vector_impl"* @injectFault21(i64 870, %"struct.std::_Vector_base<int, std::allocator<int> >::_Vector_impl"* %9, i32 29, i32 0, i32 1, i32 0, i8* getelementptr inbounds ([14 x i8]* @getelementptr_namestr, i32 0, i32 0)), !llfi_injectfault !33
  %10 = getelementptr %"struct.std::_Vector_base<int, std::allocator<int> >::_Vector_impl"* %fi7, i32 0, i32 0, !llfi_index !872
  %fi8 = call i32** @injectFault22(i64 871, i32** %10, i32 29, i32 0, i32 1, i32 0, i8* getelementptr inbounds ([14 x i8]* @getelementptr_namestr, i32 0, i32 0)), !llfi_injectfault !33
  %11 = load i32** %fi8, align 8, !llfi_index !873
  %fi9 = call i32* @injectFault8(i64 872, i32* %11, i32 27, i32 0, i32 1, i32 0, i8* getelementptr inbounds ([5 x i8]* @load_namestr, i32 0, i32 0)), !llfi_injectfault !33
  %12 = ptrtoint i32* %fi6 to i64, !llfi_index !874
  %fi10 = call i64 @injectFault24(i64 873, i64 %12, i32 42, i32 0, i32 1, i32 0, i8* getelementptr inbounds ([9 x i8]* @ptrtoint_namestr, i32 0, i32 0)), !llfi_injectfault !33
  %13 = ptrtoint i32* %fi9 to i64, !llfi_index !875
  %fi11 = call i64 @injectFault24(i64 874, i64 %13, i32 42, i32 0, i32 1, i32 0, i8* getelementptr inbounds ([9 x i8]* @ptrtoint_namestr, i32 0, i32 0)), !llfi_injectfault !33
  %14 = sub i64 %fi10, %fi11, !llfi_index !876
  %fi12 = call i64 @injectFault24(i64 875, i64 %14, i32 10, i32 0, i32 1, i32 0, i8* getelementptr inbounds ([4 x i8]* @sub_namestr, i32 0, i32 0)), !llfi_injectfault !33
  %15 = sdiv exact i64 %fi12, 4, !llfi_index !877
  %fi13 = call i64 @injectFault24(i64 876, i64 %15, i32 15, i32 0, i32 1, i32 0, i8* getelementptr inbounds ([5 x i8]* @sdiv_namestr, i32 0, i32 0)), !llfi_injectfault !33
  call void @_ZNSt12_Vector_baseIiSaIiEE13_M_deallocateEPim(%"struct.std::_Vector_base.1"* %fi, i32* %fi3, i64 %fi13), !llfi_index !878
  %16 = getelementptr %"struct.std::_Vector_base.1"* %fi, i32 0, i32 0, !llfi_index !879
  %fi14 = call %"struct.std::_Vector_base<int, std::allocator<int> >::_Vector_impl"* @injectFault21(i64 878, %"struct.std::_Vector_base<int, std::allocator<int> >::_Vector_impl"* %16, i32 29, i32 0, i32 1, i32 0, i8* getelementptr inbounds ([14 x i8]* @getelementptr_namestr, i32 0, i32 0)), !llfi_injectfault !33
  call void @_ZNSt12_Vector_baseIiSaIiEE12_Vector_implD2Ev(%"struct.std::_Vector_base<int, std::allocator<int> >::_Vector_impl"* %fi14) #0, !llfi_index !880
  ret void, !llfi_index !881
}

; Function Attrs: nounwind uwtable
define linkonce_odr void @_ZNSt12_Vector_baseIiSaIiEE13_M_deallocateEPim(%"struct.std::_Vector_base.1"* %this, i32* %__p, i64 %__n) #3 align 2 {
  %1 = alloca %"struct.std::_Vector_base.1"*, align 8, !llfi_index !882
  %2 = alloca i32*, align 8, !llfi_index !883
  %3 = alloca i64, align 8, !llfi_index !884
  store %"struct.std::_Vector_base.1"* %this, %"struct.std::_Vector_base.1"** %1, align 8, !llfi_index !885
  store i32* %__p, i32** %2, align 8, !llfi_index !886
  store i64 %__n, i64* %3, align 8, !llfi_index !887
  %4 = load %"struct.std::_Vector_base.1"** %1, !llfi_index !888
  %fi = call %"struct.std::_Vector_base.1"* @injectFault19(i64 887, %"struct.std::_Vector_base.1"* %4, i32 27, i32 0, i32 1, i32 0, i8* getelementptr inbounds ([5 x i8]* @load_namestr, i32 0, i32 0)), !llfi_injectfault !33
  %5 = load i32** %2, align 8, !llfi_index !889
  %fi1 = call i32* @injectFault8(i64 888, i32* %5, i32 27, i32 0, i32 1, i32 0, i8* getelementptr inbounds ([5 x i8]* @load_namestr, i32 0, i32 0)), !llfi_injectfault !33
  %6 = icmp ne i32* %fi1, null, !llfi_index !890
  %fi2 = call i1 @injectFault5(i64 889, i1 %6, i32 46, i32 0, i32 1, i32 0, i8* getelementptr inbounds ([5 x i8]* @icmp_namestr, i32 0, i32 0)), !llfi_injectfault !33
  br i1 %fi2, label %7, label %12, !llfi_index !891

; <label>:7                                       ; preds = %0
  %8 = getelementptr %"struct.std::_Vector_base.1"* %fi, i32 0, i32 0, !llfi_index !892
  %fi3 = call %"struct.std::_Vector_base<int, std::allocator<int> >::_Vector_impl"* @injectFault21(i64 891, %"struct.std::_Vector_base<int, std::allocator<int> >::_Vector_impl"* %8, i32 29, i32 0, i32 1, i32 0, i8* getelementptr inbounds ([14 x i8]* @getelementptr_namestr, i32 0, i32 0)), !llfi_injectfault !33
  %9 = bitcast %"struct.std::_Vector_base<int, std::allocator<int> >::_Vector_impl"* %fi3 to %"class.std::allocator.2"*, !llfi_index !893
  %fi4 = call %"class.std::allocator.2"* @injectFault23(i64 892, %"class.std::allocator.2"* %9, i32 44, i32 0, i32 1, i32 0, i8* getelementptr inbounds ([8 x i8]* @bitcast_namestr, i32 0, i32 0)), !llfi_injectfault !33
  %10 = load i32** %2, align 8, !llfi_index !894
  %fi5 = call i32* @injectFault8(i64 893, i32* %10, i32 27, i32 0, i32 1, i32 0, i8* getelementptr inbounds ([5 x i8]* @load_namestr, i32 0, i32 0)), !llfi_injectfault !33
  %11 = load i64* %3, align 8, !llfi_index !895
  %fi6 = call i64 @injectFault24(i64 894, i64 %11, i32 27, i32 0, i32 1, i32 0, i8* getelementptr inbounds ([5 x i8]* @load_namestr, i32 0, i32 0)), !llfi_injectfault !33
  call void @_ZNSt16allocator_traitsISaIiEE10deallocateERS0_Pim(%"class.std::allocator.2"* %fi4, i32* %fi5, i64 %fi6), !llfi_index !896
  br label %12, !llfi_index !897

; <label>:12                                      ; preds = %7, %0
  ret void, !llfi_index !898
}

; Function Attrs: inlinehint nounwind uwtable
define linkonce_odr void @_ZNSt12_Vector_baseIiSaIiEE12_Vector_implD2Ev(%"struct.std::_Vector_base<int, std::allocator<int> >::_Vector_impl"* %this) unnamed_addr #4 align 2 {
  %1 = alloca %"struct.std::_Vector_base<int, std::allocator<int> >::_Vector_impl"*, align 8, !llfi_index !899
  store %"struct.std::_Vector_base<int, std::allocator<int> >::_Vector_impl"* %this, %"struct.std::_Vector_base<int, std::allocator<int> >::_Vector_impl"** %1, align 8, !llfi_index !900
  %2 = load %"struct.std::_Vector_base<int, std::allocator<int> >::_Vector_impl"** %1, !llfi_index !901
  %fi = call %"struct.std::_Vector_base<int, std::allocator<int> >::_Vector_impl"* @injectFault21(i64 900, %"struct.std::_Vector_base<int, std::allocator<int> >::_Vector_impl"* %2, i32 27, i32 0, i32 1, i32 0, i8* getelementptr inbounds ([5 x i8]* @load_namestr, i32 0, i32 0)), !llfi_injectfault !33
  %3 = bitcast %"struct.std::_Vector_base<int, std::allocator<int> >::_Vector_impl"* %fi to %"class.std::allocator.2"*, !llfi_index !902
  %fi1 = call %"class.std::allocator.2"* @injectFault23(i64 901, %"class.std::allocator.2"* %3, i32 44, i32 0, i32 1, i32 0, i8* getelementptr inbounds ([8 x i8]* @bitcast_namestr, i32 0, i32 0)), !llfi_injectfault !33
  call void @_ZNSaIiED2Ev(%"class.std::allocator.2"* %fi1) #0, !llfi_index !903
  ret void, !llfi_index !904
}

; Function Attrs: nounwind uwtable
define linkonce_odr void @_ZNSaIiED2Ev(%"class.std::allocator.2"* %this) unnamed_addr #3 align 2 {
  %1 = alloca %"class.std::allocator.2"*, align 8, !llfi_index !905
  store %"class.std::allocator.2"* %this, %"class.std::allocator.2"** %1, align 8, !llfi_index !906
  %2 = load %"class.std::allocator.2"** %1, !llfi_index !907
  %fi = call %"class.std::allocator.2"* @injectFault23(i64 906, %"class.std::allocator.2"* %2, i32 27, i32 0, i32 1, i32 0, i8* getelementptr inbounds ([5 x i8]* @load_namestr, i32 0, i32 0)), !llfi_injectfault !33
  %3 = bitcast %"class.std::allocator.2"* %fi to %"class.__gnu_cxx::new_allocator.3"*, !llfi_index !908
  %fi1 = call %"class.__gnu_cxx::new_allocator.3"* @injectFault30(i64 907, %"class.__gnu_cxx::new_allocator.3"* %3, i32 44, i32 0, i32 1, i32 0, i8* getelementptr inbounds ([8 x i8]* @bitcast_namestr, i32 0, i32 0)), !llfi_injectfault !33
  call void @_ZN9__gnu_cxx13new_allocatorIiED2Ev(%"class.__gnu_cxx::new_allocator.3"* %fi1) #0, !llfi_index !909
  ret void, !llfi_index !910
}

; Function Attrs: nounwind uwtable
define linkonce_odr void @_ZN9__gnu_cxx13new_allocatorIiED2Ev(%"class.__gnu_cxx::new_allocator.3"* %this) unnamed_addr #3 align 2 {
  %1 = alloca %"class.__gnu_cxx::new_allocator.3"*, align 8, !llfi_index !911
  store %"class.__gnu_cxx::new_allocator.3"* %this, %"class.__gnu_cxx::new_allocator.3"** %1, align 8, !llfi_index !912
  %2 = load %"class.__gnu_cxx::new_allocator.3"** %1, !llfi_index !913
  %fi = call %"class.__gnu_cxx::new_allocator.3"* @injectFault30(i64 912, %"class.__gnu_cxx::new_allocator.3"* %2, i32 27, i32 0, i32 1, i32 0, i8* getelementptr inbounds ([5 x i8]* @load_namestr, i32 0, i32 0)), !llfi_injectfault !33
  ret void, !llfi_index !914
}

; Function Attrs: nounwind uwtable
define linkonce_odr void @_ZNSt16allocator_traitsISaIiEE10deallocateERS0_Pim(%"class.std::allocator.2"* %__a, i32* %__p, i64 %__n) #3 align 2 {
  %1 = alloca %"class.std::allocator.2"*, align 8, !llfi_index !915
  %2 = alloca i32*, align 8, !llfi_index !916
  %3 = alloca i64, align 8, !llfi_index !917
  store %"class.std::allocator.2"* %__a, %"class.std::allocator.2"** %1, align 8, !llfi_index !918
  store i32* %__p, i32** %2, align 8, !llfi_index !919
  store i64 %__n, i64* %3, align 8, !llfi_index !920
  %4 = load %"class.std::allocator.2"** %1, align 8, !llfi_index !921
  %fi = call %"class.std::allocator.2"* @injectFault23(i64 920, %"class.std::allocator.2"* %4, i32 27, i32 0, i32 1, i32 0, i8* getelementptr inbounds ([5 x i8]* @load_namestr, i32 0, i32 0)), !llfi_injectfault !33
  %5 = bitcast %"class.std::allocator.2"* %fi to %"class.__gnu_cxx::new_allocator.3"*, !llfi_index !922
  %fi1 = call %"class.__gnu_cxx::new_allocator.3"* @injectFault30(i64 921, %"class.__gnu_cxx::new_allocator.3"* %5, i32 44, i32 0, i32 1, i32 0, i8* getelementptr inbounds ([8 x i8]* @bitcast_namestr, i32 0, i32 0)), !llfi_injectfault !33
  %6 = load i32** %2, align 8, !llfi_index !923
  %fi2 = call i32* @injectFault8(i64 922, i32* %6, i32 27, i32 0, i32 1, i32 0, i8* getelementptr inbounds ([5 x i8]* @load_namestr, i32 0, i32 0)), !llfi_injectfault !33
  %7 = load i64* %3, align 8, !llfi_index !924
  %fi3 = call i64 @injectFault24(i64 923, i64 %7, i32 27, i32 0, i32 1, i32 0, i8* getelementptr inbounds ([5 x i8]* @load_namestr, i32 0, i32 0)), !llfi_injectfault !33
  call void @_ZN9__gnu_cxx13new_allocatorIiE10deallocateEPim(%"class.__gnu_cxx::new_allocator.3"* %fi1, i32* %fi2, i64 %fi3), !llfi_index !925
  ret void, !llfi_index !926
}

; Function Attrs: nounwind uwtable
define linkonce_odr void @_ZN9__gnu_cxx13new_allocatorIiE10deallocateEPim(%"class.__gnu_cxx::new_allocator.3"* %this, i32* %__p, i64) #3 align 2 {
  %2 = alloca %"class.__gnu_cxx::new_allocator.3"*, align 8, !llfi_index !927
  %3 = alloca i32*, align 8, !llfi_index !928
  %4 = alloca i64, align 8, !llfi_index !929
  store %"class.__gnu_cxx::new_allocator.3"* %this, %"class.__gnu_cxx::new_allocator.3"** %2, align 8, !llfi_index !930
  store i32* %__p, i32** %3, align 8, !llfi_index !931
  store i64 %0, i64* %4, align 8, !llfi_index !932
  %5 = load %"class.__gnu_cxx::new_allocator.3"** %2, !llfi_index !933
  %fi = call %"class.__gnu_cxx::new_allocator.3"* @injectFault30(i64 932, %"class.__gnu_cxx::new_allocator.3"* %5, i32 27, i32 0, i32 1, i32 0, i8* getelementptr inbounds ([5 x i8]* @load_namestr, i32 0, i32 0)), !llfi_injectfault !33
  %6 = load i32** %3, align 8, !llfi_index !934
  %fi1 = call i32* @injectFault8(i64 933, i32* %6, i32 27, i32 0, i32 1, i32 0, i8* getelementptr inbounds ([5 x i8]* @load_namestr, i32 0, i32 0)), !llfi_injectfault !33
  %7 = bitcast i32* %fi1 to i8*, !llfi_index !935
  %fi2 = call i8* @injectFault18(i64 934, i8* %7, i32 44, i32 0, i32 1, i32 0, i8* getelementptr inbounds ([8 x i8]* @bitcast_namestr, i32 0, i32 0)), !llfi_injectfault !33
  call void @_ZdlPv(i8* %fi2) #0, !llfi_index !936
  ret void, !llfi_index !937
}

; Function Attrs: nobuiltin nounwind
declare void @_ZdlPv(i8*) #6

; Function Attrs: inlinehint nounwind uwtable
define linkonce_odr void @_ZSt8_DestroyIPiEvT_S1_(i32* %__first, i32* %__last) #4 {
  %1 = alloca i32*, align 8, !llfi_index !938
  %2 = alloca i32*, align 8, !llfi_index !939
  store i32* %__first, i32** %1, align 8, !llfi_index !940
  store i32* %__last, i32** %2, align 8, !llfi_index !941
  %3 = load i32** %1, align 8, !llfi_index !942
  %fi = call i32* @injectFault8(i64 941, i32* %3, i32 27, i32 0, i32 1, i32 0, i8* getelementptr inbounds ([5 x i8]* @load_namestr, i32 0, i32 0)), !llfi_injectfault !33
  %4 = load i32** %2, align 8, !llfi_index !943
  %fi1 = call i32* @injectFault8(i64 942, i32* %4, i32 27, i32 0, i32 1, i32 0, i8* getelementptr inbounds ([5 x i8]* @load_namestr, i32 0, i32 0)), !llfi_injectfault !33
  call void @_ZNSt12_Destroy_auxILb1EE9__destroyIPiEEvT_S3_(i32* %fi, i32* %fi1), !llfi_index !944
  ret void, !llfi_index !945
}

; Function Attrs: nounwind uwtable
define linkonce_odr void @_ZNSt12_Destroy_auxILb1EE9__destroyIPiEEvT_S3_(i32*, i32*) #3 align 2 {
  %3 = alloca i32*, align 8, !llfi_index !946
  %4 = alloca i32*, align 8, !llfi_index !947
  store i32* %0, i32** %3, align 8, !llfi_index !948
  store i32* %1, i32** %4, align 8, !llfi_index !949
  ret void, !llfi_index !950
}

; Function Attrs: nounwind uwtable
define linkonce_odr void @_ZNSt12_Vector_baseIiSaIiEEC2Ev(%"struct.std::_Vector_base.1"* %this) unnamed_addr #3 align 2 {
  %1 = alloca %"struct.std::_Vector_base.1"*, align 8, !llfi_index !951
  store %"struct.std::_Vector_base.1"* %this, %"struct.std::_Vector_base.1"** %1, align 8, !llfi_index !952
  %2 = load %"struct.std::_Vector_base.1"** %1, !llfi_index !953
  %fi = call %"struct.std::_Vector_base.1"* @injectFault19(i64 952, %"struct.std::_Vector_base.1"* %2, i32 27, i32 0, i32 1, i32 0, i8* getelementptr inbounds ([5 x i8]* @load_namestr, i32 0, i32 0)), !llfi_injectfault !33
  %3 = getelementptr %"struct.std::_Vector_base.1"* %fi, i32 0, i32 0, !llfi_index !954
  %fi1 = call %"struct.std::_Vector_base<int, std::allocator<int> >::_Vector_impl"* @injectFault21(i64 953, %"struct.std::_Vector_base<int, std::allocator<int> >::_Vector_impl"* %3, i32 29, i32 0, i32 1, i32 0, i8* getelementptr inbounds ([14 x i8]* @getelementptr_namestr, i32 0, i32 0)), !llfi_injectfault !33
  call void @_ZNSt12_Vector_baseIiSaIiEE12_Vector_implC2Ev(%"struct.std::_Vector_base<int, std::allocator<int> >::_Vector_impl"* %fi1), !llfi_index !955
  ret void, !llfi_index !956
}

; Function Attrs: nounwind uwtable
define linkonce_odr void @_ZNSt12_Vector_baseIiSaIiEE12_Vector_implC2Ev(%"struct.std::_Vector_base<int, std::allocator<int> >::_Vector_impl"* %this) unnamed_addr #3 align 2 {
  %1 = alloca %"struct.std::_Vector_base<int, std::allocator<int> >::_Vector_impl"*, align 8, !llfi_index !957
  store %"struct.std::_Vector_base<int, std::allocator<int> >::_Vector_impl"* %this, %"struct.std::_Vector_base<int, std::allocator<int> >::_Vector_impl"** %1, align 8, !llfi_index !958
  %2 = load %"struct.std::_Vector_base<int, std::allocator<int> >::_Vector_impl"** %1, !llfi_index !959
  %fi = call %"struct.std::_Vector_base<int, std::allocator<int> >::_Vector_impl"* @injectFault21(i64 958, %"struct.std::_Vector_base<int, std::allocator<int> >::_Vector_impl"* %2, i32 27, i32 0, i32 1, i32 0, i8* getelementptr inbounds ([5 x i8]* @load_namestr, i32 0, i32 0)), !llfi_injectfault !33
  %3 = bitcast %"struct.std::_Vector_base<int, std::allocator<int> >::_Vector_impl"* %fi to %"class.std::allocator.2"*, !llfi_index !960
  %fi1 = call %"class.std::allocator.2"* @injectFault23(i64 959, %"class.std::allocator.2"* %3, i32 44, i32 0, i32 1, i32 0, i8* getelementptr inbounds ([8 x i8]* @bitcast_namestr, i32 0, i32 0)), !llfi_injectfault !33
  call void @_ZNSaIiEC2Ev(%"class.std::allocator.2"* %fi1) #0, !llfi_index !961
  %4 = getelementptr %"struct.std::_Vector_base<int, std::allocator<int> >::_Vector_impl"* %fi, i32 0, i32 0, !llfi_index !962
  %fi2 = call i32** @injectFault22(i64 961, i32** %4, i32 29, i32 0, i32 1, i32 0, i8* getelementptr inbounds ([14 x i8]* @getelementptr_namestr, i32 0, i32 0)), !llfi_injectfault !33
  store i32* null, i32** %fi2, align 8, !llfi_index !963
  %5 = getelementptr %"struct.std::_Vector_base<int, std::allocator<int> >::_Vector_impl"* %fi, i32 0, i32 1, !llfi_index !964
  %fi3 = call i32** @injectFault22(i64 963, i32** %5, i32 29, i32 0, i32 1, i32 0, i8* getelementptr inbounds ([14 x i8]* @getelementptr_namestr, i32 0, i32 0)), !llfi_injectfault !33
  store i32* null, i32** %fi3, align 8, !llfi_index !965
  %6 = getelementptr %"struct.std::_Vector_base<int, std::allocator<int> >::_Vector_impl"* %fi, i32 0, i32 2, !llfi_index !966
  %fi4 = call i32** @injectFault22(i64 965, i32** %6, i32 29, i32 0, i32 1, i32 0, i8* getelementptr inbounds ([14 x i8]* @getelementptr_namestr, i32 0, i32 0)), !llfi_injectfault !33
  store i32* null, i32** %fi4, align 8, !llfi_index !967
  ret void, !llfi_index !968
}

; Function Attrs: nounwind uwtable
define linkonce_odr void @_ZNSaIiEC2Ev(%"class.std::allocator.2"* %this) unnamed_addr #3 align 2 {
  %1 = alloca %"class.std::allocator.2"*, align 8, !llfi_index !969
  store %"class.std::allocator.2"* %this, %"class.std::allocator.2"** %1, align 8, !llfi_index !970
  %2 = load %"class.std::allocator.2"** %1, !llfi_index !971
  %fi = call %"class.std::allocator.2"* @injectFault23(i64 970, %"class.std::allocator.2"* %2, i32 27, i32 0, i32 1, i32 0, i8* getelementptr inbounds ([5 x i8]* @load_namestr, i32 0, i32 0)), !llfi_injectfault !33
  %3 = bitcast %"class.std::allocator.2"* %fi to %"class.__gnu_cxx::new_allocator.3"*, !llfi_index !972
  %fi1 = call %"class.__gnu_cxx::new_allocator.3"* @injectFault30(i64 971, %"class.__gnu_cxx::new_allocator.3"* %3, i32 44, i32 0, i32 1, i32 0, i8* getelementptr inbounds ([8 x i8]* @bitcast_namestr, i32 0, i32 0)), !llfi_injectfault !33
  call void @_ZN9__gnu_cxx13new_allocatorIiEC2Ev(%"class.__gnu_cxx::new_allocator.3"* %fi1) #0, !llfi_index !973
  ret void, !llfi_index !974
}

; Function Attrs: nounwind uwtable
define linkonce_odr void @_ZN9__gnu_cxx13new_allocatorIiEC2Ev(%"class.__gnu_cxx::new_allocator.3"* %this) unnamed_addr #3 align 2 {
  %1 = alloca %"class.__gnu_cxx::new_allocator.3"*, align 8, !llfi_index !975
  store %"class.__gnu_cxx::new_allocator.3"* %this, %"class.__gnu_cxx::new_allocator.3"** %1, align 8, !llfi_index !976
  %2 = load %"class.__gnu_cxx::new_allocator.3"** %1, !llfi_index !977
  %fi = call %"class.__gnu_cxx::new_allocator.3"* @injectFault30(i64 976, %"class.__gnu_cxx::new_allocator.3"* %2, i32 27, i32 0, i32 1, i32 0, i8* getelementptr inbounds ([5 x i8]* @load_namestr, i32 0, i32 0)), !llfi_injectfault !33
  ret void, !llfi_index !978
}

; Function Attrs: nounwind uwtable
define linkonce_odr i64 @_ZNKSt6vectorIP4NodeSaIS1_EE4sizeEv(%"class.std::vector"* %this) #3 align 2 {
  %1 = alloca %"class.std::vector"*, align 8, !llfi_index !979
  store %"class.std::vector"* %this, %"class.std::vector"** %1, align 8, !llfi_index !980
  %2 = load %"class.std::vector"** %1, !llfi_index !981
  %fi = call %"class.std::vector"* @injectFault0(i64 980, %"class.std::vector"* %2, i32 27, i32 0, i32 1, i32 0, i8* getelementptr inbounds ([5 x i8]* @load_namestr, i32 0, i32 0)), !llfi_injectfault !33
  %3 = bitcast %"class.std::vector"* %fi to %"struct.std::_Vector_base"*, !llfi_index !982
  %fi1 = call %"struct.std::_Vector_base"* @injectFault9(i64 981, %"struct.std::_Vector_base"* %3, i32 44, i32 0, i32 1, i32 0, i8* getelementptr inbounds ([8 x i8]* @bitcast_namestr, i32 0, i32 0)), !llfi_injectfault !33
  %4 = getelementptr %"struct.std::_Vector_base"* %fi1, i32 0, i32 0, !llfi_index !983
  %fi2 = call %"struct.std::_Vector_base<Node *, std::allocator<Node *> >::_Vector_impl"* @injectFault10(i64 982, %"struct.std::_Vector_base<Node *, std::allocator<Node *> >::_Vector_impl"* %4, i32 29, i32 0, i32 1, i32 0, i8* getelementptr inbounds ([14 x i8]* @getelementptr_namestr, i32 0, i32 0)), !llfi_injectfault !33
  %5 = getelementptr %"struct.std::_Vector_base<Node *, std::allocator<Node *> >::_Vector_impl"* %fi2, i32 0, i32 1, !llfi_index !984
  %fi3 = call %struct.Node*** @injectFault3(i64 983, %struct.Node*** %5, i32 29, i32 0, i32 1, i32 0, i8* getelementptr inbounds ([14 x i8]* @getelementptr_namestr, i32 0, i32 0)), !llfi_injectfault !33
  %6 = load %struct.Node*** %fi3, align 8, !llfi_index !985
  %fi4 = call %struct.Node** @injectFault4(i64 984, %struct.Node** %6, i32 27, i32 0, i32 1, i32 0, i8* getelementptr inbounds ([5 x i8]* @load_namestr, i32 0, i32 0)), !llfi_injectfault !33
  %7 = bitcast %"class.std::vector"* %fi to %"struct.std::_Vector_base"*, !llfi_index !986
  %fi5 = call %"struct.std::_Vector_base"* @injectFault9(i64 985, %"struct.std::_Vector_base"* %7, i32 44, i32 0, i32 1, i32 0, i8* getelementptr inbounds ([8 x i8]* @bitcast_namestr, i32 0, i32 0)), !llfi_injectfault !33
  %8 = getelementptr %"struct.std::_Vector_base"* %fi5, i32 0, i32 0, !llfi_index !987
  %fi6 = call %"struct.std::_Vector_base<Node *, std::allocator<Node *> >::_Vector_impl"* @injectFault10(i64 986, %"struct.std::_Vector_base<Node *, std::allocator<Node *> >::_Vector_impl"* %8, i32 29, i32 0, i32 1, i32 0, i8* getelementptr inbounds ([14 x i8]* @getelementptr_namestr, i32 0, i32 0)), !llfi_injectfault !33
  %9 = getelementptr %"struct.std::_Vector_base<Node *, std::allocator<Node *> >::_Vector_impl"* %fi6, i32 0, i32 0, !llfi_index !988
  %fi7 = call %struct.Node*** @injectFault3(i64 987, %struct.Node*** %9, i32 29, i32 0, i32 1, i32 0, i8* getelementptr inbounds ([14 x i8]* @getelementptr_namestr, i32 0, i32 0)), !llfi_injectfault !33
  %10 = load %struct.Node*** %fi7, align 8, !llfi_index !989
  %fi8 = call %struct.Node** @injectFault4(i64 988, %struct.Node** %10, i32 27, i32 0, i32 1, i32 0, i8* getelementptr inbounds ([5 x i8]* @load_namestr, i32 0, i32 0)), !llfi_injectfault !33
  %11 = ptrtoint %struct.Node** %fi4 to i64, !llfi_index !990
  %fi9 = call i64 @injectFault24(i64 989, i64 %11, i32 42, i32 0, i32 1, i32 0, i8* getelementptr inbounds ([9 x i8]* @ptrtoint_namestr, i32 0, i32 0)), !llfi_injectfault !33
  %12 = ptrtoint %struct.Node** %fi8 to i64, !llfi_index !991
  %fi10 = call i64 @injectFault24(i64 990, i64 %12, i32 42, i32 0, i32 1, i32 0, i8* getelementptr inbounds ([9 x i8]* @ptrtoint_namestr, i32 0, i32 0)), !llfi_injectfault !33
  %13 = sub i64 %fi9, %fi10, !llfi_index !992
  %fi11 = call i64 @injectFault24(i64 991, i64 %13, i32 10, i32 0, i32 1, i32 0, i8* getelementptr inbounds ([4 x i8]* @sub_namestr, i32 0, i32 0)), !llfi_injectfault !33
  %14 = sdiv exact i64 %fi11, 8, !llfi_index !993
  %fi12 = call i64 @injectFault24(i64 992, i64 %14, i32 15, i32 0, i32 1, i32 0, i8* getelementptr inbounds ([5 x i8]* @sdiv_namestr, i32 0, i32 0)), !llfi_injectfault !33
  ret i64 %fi12, !llfi_index !994
}

; Function Attrs: nounwind uwtable
define linkonce_odr i64 @_ZNKSt6vectorIP4NodeSaIS1_EE8capacityEv(%"class.std::vector"* %this) #3 align 2 {
  %1 = alloca %"class.std::vector"*, align 8, !llfi_index !995
  store %"class.std::vector"* %this, %"class.std::vector"** %1, align 8, !llfi_index !996
  %2 = load %"class.std::vector"** %1, !llfi_index !997
  %fi = call %"class.std::vector"* @injectFault0(i64 996, %"class.std::vector"* %2, i32 27, i32 0, i32 1, i32 0, i8* getelementptr inbounds ([5 x i8]* @load_namestr, i32 0, i32 0)), !llfi_injectfault !33
  %3 = bitcast %"class.std::vector"* %fi to %"struct.std::_Vector_base"*, !llfi_index !998
  %fi1 = call %"struct.std::_Vector_base"* @injectFault9(i64 997, %"struct.std::_Vector_base"* %3, i32 44, i32 0, i32 1, i32 0, i8* getelementptr inbounds ([8 x i8]* @bitcast_namestr, i32 0, i32 0)), !llfi_injectfault !33
  %4 = getelementptr %"struct.std::_Vector_base"* %fi1, i32 0, i32 0, !llfi_index !999
  %fi2 = call %"struct.std::_Vector_base<Node *, std::allocator<Node *> >::_Vector_impl"* @injectFault10(i64 998, %"struct.std::_Vector_base<Node *, std::allocator<Node *> >::_Vector_impl"* %4, i32 29, i32 0, i32 1, i32 0, i8* getelementptr inbounds ([14 x i8]* @getelementptr_namestr, i32 0, i32 0)), !llfi_injectfault !33
  %5 = getelementptr %"struct.std::_Vector_base<Node *, std::allocator<Node *> >::_Vector_impl"* %fi2, i32 0, i32 2, !llfi_index !1000
  %fi3 = call %struct.Node*** @injectFault3(i64 999, %struct.Node*** %5, i32 29, i32 0, i32 1, i32 0, i8* getelementptr inbounds ([14 x i8]* @getelementptr_namestr, i32 0, i32 0)), !llfi_injectfault !33
  %6 = load %struct.Node*** %fi3, align 8, !llfi_index !1001
  %fi4 = call %struct.Node** @injectFault4(i64 1000, %struct.Node** %6, i32 27, i32 0, i32 1, i32 0, i8* getelementptr inbounds ([5 x i8]* @load_namestr, i32 0, i32 0)), !llfi_injectfault !33
  %7 = bitcast %"class.std::vector"* %fi to %"struct.std::_Vector_base"*, !llfi_index !1002
  %fi5 = call %"struct.std::_Vector_base"* @injectFault9(i64 1001, %"struct.std::_Vector_base"* %7, i32 44, i32 0, i32 1, i32 0, i8* getelementptr inbounds ([8 x i8]* @bitcast_namestr, i32 0, i32 0)), !llfi_injectfault !33
  %8 = getelementptr %"struct.std::_Vector_base"* %fi5, i32 0, i32 0, !llfi_index !1003
  %fi6 = call %"struct.std::_Vector_base<Node *, std::allocator<Node *> >::_Vector_impl"* @injectFault10(i64 1002, %"struct.std::_Vector_base<Node *, std::allocator<Node *> >::_Vector_impl"* %8, i32 29, i32 0, i32 1, i32 0, i8* getelementptr inbounds ([14 x i8]* @getelementptr_namestr, i32 0, i32 0)), !llfi_injectfault !33
  %9 = getelementptr %"struct.std::_Vector_base<Node *, std::allocator<Node *> >::_Vector_impl"* %fi6, i32 0, i32 0, !llfi_index !1004
  %fi7 = call %struct.Node*** @injectFault3(i64 1003, %struct.Node*** %9, i32 29, i32 0, i32 1, i32 0, i8* getelementptr inbounds ([14 x i8]* @getelementptr_namestr, i32 0, i32 0)), !llfi_injectfault !33
  %10 = load %struct.Node*** %fi7, align 8, !llfi_index !1005
  %fi8 = call %struct.Node** @injectFault4(i64 1004, %struct.Node** %10, i32 27, i32 0, i32 1, i32 0, i8* getelementptr inbounds ([5 x i8]* @load_namestr, i32 0, i32 0)), !llfi_injectfault !33
  %11 = ptrtoint %struct.Node** %fi4 to i64, !llfi_index !1006
  %fi9 = call i64 @injectFault24(i64 1005, i64 %11, i32 42, i32 0, i32 1, i32 0, i8* getelementptr inbounds ([9 x i8]* @ptrtoint_namestr, i32 0, i32 0)), !llfi_injectfault !33
  %12 = ptrtoint %struct.Node** %fi8 to i64, !llfi_index !1007
  %fi10 = call i64 @injectFault24(i64 1006, i64 %12, i32 42, i32 0, i32 1, i32 0, i8* getelementptr inbounds ([9 x i8]* @ptrtoint_namestr, i32 0, i32 0)), !llfi_injectfault !33
  %13 = sub i64 %fi9, %fi10, !llfi_index !1008
  %fi11 = call i64 @injectFault24(i64 1007, i64 %13, i32 10, i32 0, i32 1, i32 0, i8* getelementptr inbounds ([4 x i8]* @sub_namestr, i32 0, i32 0)), !llfi_injectfault !33
  %14 = sdiv exact i64 %fi11, 8, !llfi_index !1009
  %fi12 = call i64 @injectFault24(i64 1008, i64 %14, i32 15, i32 0, i32 1, i32 0, i8* getelementptr inbounds ([5 x i8]* @sdiv_namestr, i32 0, i32 0)), !llfi_injectfault !33
  ret i64 %fi12, !llfi_index !1010
}

; Function Attrs: nounwind uwtable
define linkonce_odr %struct.Node** @_ZNSt6vectorIP4NodeSaIS1_EE20_M_allocate_and_copyIN9__gnu_cxx17__normal_iteratorIPKS1_S3_EEEEPS1_mT_SB_(%"class.std::vector"* %this, i64 %__n, %struct.Node** %__first.coerce, %struct.Node** %__last.coerce) #3 align 2 {
  %1 = alloca %"class.std::vector"*, align 8, !llfi_index !1011
  %2 = alloca i64, align 8, !llfi_index !1012
  %__first = alloca %"class.__gnu_cxx::__normal_iterator", align 8, !llfi_index !1013
  %__last = alloca %"class.__gnu_cxx::__normal_iterator", align 8, !llfi_index !1014
  %__result = alloca %struct.Node**, align 8, !llfi_index !1015
  %3 = alloca %"class.__gnu_cxx::__normal_iterator", align 8, !llfi_index !1016
  %4 = alloca %"class.__gnu_cxx::__normal_iterator", align 8, !llfi_index !1017
  store %"class.std::vector"* %this, %"class.std::vector"** %1, align 8, !llfi_index !1018
  store i64 %__n, i64* %2, align 8, !llfi_index !1019
  %5 = getelementptr %"class.__gnu_cxx::__normal_iterator"* %__first, i32 0, i32 0, !llfi_index !1020
  %fi = call %struct.Node*** @injectFault3(i64 1019, %struct.Node*** %5, i32 29, i32 0, i32 1, i32 0, i8* getelementptr inbounds ([14 x i8]* @getelementptr_namestr, i32 0, i32 0)), !llfi_injectfault !33
  store %struct.Node** %__first.coerce, %struct.Node*** %fi, !llfi_index !1021
  %6 = getelementptr %"class.__gnu_cxx::__normal_iterator"* %__last, i32 0, i32 0, !llfi_index !1022
  %fi1 = call %struct.Node*** @injectFault3(i64 1021, %struct.Node*** %6, i32 29, i32 0, i32 1, i32 0, i8* getelementptr inbounds ([14 x i8]* @getelementptr_namestr, i32 0, i32 0)), !llfi_injectfault !33
  store %struct.Node** %__last.coerce, %struct.Node*** %fi1, !llfi_index !1023
  %7 = load %"class.std::vector"** %1, !llfi_index !1024
  %fi2 = call %"class.std::vector"* @injectFault0(i64 1023, %"class.std::vector"* %7, i32 27, i32 0, i32 1, i32 0, i8* getelementptr inbounds ([5 x i8]* @load_namestr, i32 0, i32 0)), !llfi_injectfault !33
  %8 = bitcast %"class.std::vector"* %fi2 to %"struct.std::_Vector_base"*, !llfi_index !1025
  %fi3 = call %"struct.std::_Vector_base"* @injectFault9(i64 1024, %"struct.std::_Vector_base"* %8, i32 44, i32 0, i32 1, i32 0, i8* getelementptr inbounds ([8 x i8]* @bitcast_namestr, i32 0, i32 0)), !llfi_injectfault !33
  %9 = load i64* %2, align 8, !llfi_index !1026
  %fi4 = call i64 @injectFault24(i64 1025, i64 %9, i32 27, i32 0, i32 1, i32 0, i8* getelementptr inbounds ([5 x i8]* @load_namestr, i32 0, i32 0)), !llfi_injectfault !33
  %10 = call %struct.Node** @_ZNSt12_Vector_baseIP4NodeSaIS1_EE11_M_allocateEm(%"struct.std::_Vector_base"* %fi3, i64 %fi4), !llfi_index !1027
  store %struct.Node** %10, %struct.Node*** %__result, align 8, !llfi_index !1028
  %11 = bitcast %"class.__gnu_cxx::__normal_iterator"* %3 to i8*, !llfi_index !1029
  %fi5 = call i8* @injectFault18(i64 1028, i8* %11, i32 44, i32 0, i32 1, i32 0, i8* getelementptr inbounds ([8 x i8]* @bitcast_namestr, i32 0, i32 0)), !llfi_injectfault !33
  %12 = bitcast %"class.__gnu_cxx::__normal_iterator"* %__first to i8*, !llfi_index !1030
  %fi6 = call i8* @injectFault18(i64 1029, i8* %12, i32 44, i32 0, i32 1, i32 0, i8* getelementptr inbounds ([8 x i8]* @bitcast_namestr, i32 0, i32 0)), !llfi_injectfault !33
  call void @llvm.memcpy.p0i8.p0i8.i64(i8* %fi5, i8* %fi6, i64 8, i32 8, i1 false), !llfi_index !1031
  %13 = bitcast %"class.__gnu_cxx::__normal_iterator"* %4 to i8*, !llfi_index !1032
  %fi7 = call i8* @injectFault18(i64 1031, i8* %13, i32 44, i32 0, i32 1, i32 0, i8* getelementptr inbounds ([8 x i8]* @bitcast_namestr, i32 0, i32 0)), !llfi_injectfault !33
  %14 = bitcast %"class.__gnu_cxx::__normal_iterator"* %__last to i8*, !llfi_index !1033
  %fi8 = call i8* @injectFault18(i64 1032, i8* %14, i32 44, i32 0, i32 1, i32 0, i8* getelementptr inbounds ([8 x i8]* @bitcast_namestr, i32 0, i32 0)), !llfi_injectfault !33
  call void @llvm.memcpy.p0i8.p0i8.i64(i8* %fi7, i8* %fi8, i64 8, i32 8, i1 false), !llfi_index !1034
  %15 = load %struct.Node*** %__result, align 8, !llfi_index !1035
  %fi9 = call %struct.Node** @injectFault4(i64 1034, %struct.Node** %15, i32 27, i32 0, i32 1, i32 0, i8* getelementptr inbounds ([5 x i8]* @load_namestr, i32 0, i32 0)), !llfi_injectfault !33
  %16 = bitcast %"class.std::vector"* %fi2 to %"struct.std::_Vector_base"*, !llfi_index !1036
  %fi10 = call %"struct.std::_Vector_base"* @injectFault9(i64 1035, %"struct.std::_Vector_base"* %16, i32 44, i32 0, i32 1, i32 0, i8* getelementptr inbounds ([8 x i8]* @bitcast_namestr, i32 0, i32 0)), !llfi_injectfault !33
  %17 = call %"class.std::allocator"* @_ZNSt12_Vector_baseIP4NodeSaIS1_EE19_M_get_Tp_allocatorEv(%"struct.std::_Vector_base"* %fi10) #0, !llfi_index !1037
  %18 = getelementptr %"class.__gnu_cxx::__normal_iterator"* %3, i32 0, i32 0, !llfi_index !1038
  %fi11 = call %struct.Node*** @injectFault3(i64 1037, %struct.Node*** %18, i32 29, i32 0, i32 1, i32 0, i8* getelementptr inbounds ([14 x i8]* @getelementptr_namestr, i32 0, i32 0)), !llfi_injectfault !33
  %19 = load %struct.Node*** %fi11, !llfi_index !1039
  %fi12 = call %struct.Node** @injectFault4(i64 1038, %struct.Node** %19, i32 27, i32 0, i32 1, i32 0, i8* getelementptr inbounds ([5 x i8]* @load_namestr, i32 0, i32 0)), !llfi_injectfault !33
  %20 = getelementptr %"class.__gnu_cxx::__normal_iterator"* %4, i32 0, i32 0, !llfi_index !1040
  %fi13 = call %struct.Node*** @injectFault3(i64 1039, %struct.Node*** %20, i32 29, i32 0, i32 1, i32 0, i8* getelementptr inbounds ([14 x i8]* @getelementptr_namestr, i32 0, i32 0)), !llfi_injectfault !33
  %21 = load %struct.Node*** %fi13, !llfi_index !1041
  %fi14 = call %struct.Node** @injectFault4(i64 1040, %struct.Node** %21, i32 27, i32 0, i32 1, i32 0, i8* getelementptr inbounds ([5 x i8]* @load_namestr, i32 0, i32 0)), !llfi_injectfault !33
  %22 = call %struct.Node** @_ZSt22__uninitialized_copy_aIN9__gnu_cxx17__normal_iteratorIPKP4NodeSt6vectorIS3_SaIS3_EEEEPS3_S3_ET0_T_SC_SB_RSaIT1_E(%struct.Node** %fi12, %struct.Node** %fi14, %struct.Node** %fi9, %"class.std::allocator"* %17), !llfi_index !1042
  %23 = load %struct.Node*** %__result, align 8, !llfi_index !1043
  %fi15 = call %struct.Node** @injectFault4(i64 1042, %struct.Node** %23, i32 27, i32 0, i32 1, i32 0, i8* getelementptr inbounds ([5 x i8]* @load_namestr, i32 0, i32 0)), !llfi_injectfault !33
  ret %struct.Node** %fi15, !llfi_index !1044
}

; Function Attrs: inlinehint nounwind uwtable
define linkonce_odr void @_ZSt8_DestroyIPP4NodeS1_EvT_S3_RSaIT0_E(%struct.Node** %__first, %struct.Node** %__last, %"class.std::allocator"*) #4 {
  %2 = alloca %struct.Node**, align 8, !llfi_index !1045
  %3 = alloca %struct.Node**, align 8, !llfi_index !1046
  %4 = alloca %"class.std::allocator"*, align 8, !llfi_index !1047
  store %struct.Node** %__first, %struct.Node*** %2, align 8, !llfi_index !1048
  store %struct.Node** %__last, %struct.Node*** %3, align 8, !llfi_index !1049
  store %"class.std::allocator"* %0, %"class.std::allocator"** %4, align 8, !llfi_index !1050
  %5 = load %struct.Node*** %2, align 8, !llfi_index !1051
  %fi = call %struct.Node** @injectFault4(i64 1050, %struct.Node** %5, i32 27, i32 0, i32 1, i32 0, i8* getelementptr inbounds ([5 x i8]* @load_namestr, i32 0, i32 0)), !llfi_injectfault !33
  %6 = load %struct.Node*** %3, align 8, !llfi_index !1052
  %fi1 = call %struct.Node** @injectFault4(i64 1051, %struct.Node** %6, i32 27, i32 0, i32 1, i32 0, i8* getelementptr inbounds ([5 x i8]* @load_namestr, i32 0, i32 0)), !llfi_injectfault !33
  call void @_ZSt8_DestroyIPP4NodeEvT_S3_(%struct.Node** %fi, %struct.Node** %fi1), !llfi_index !1053
  ret void, !llfi_index !1054
}

; Function Attrs: nounwind uwtable
define linkonce_odr %"class.std::allocator"* @_ZNSt12_Vector_baseIP4NodeSaIS1_EE19_M_get_Tp_allocatorEv(%"struct.std::_Vector_base"* %this) #3 align 2 {
  %1 = alloca %"struct.std::_Vector_base"*, align 8, !llfi_index !1055
  store %"struct.std::_Vector_base"* %this, %"struct.std::_Vector_base"** %1, align 8, !llfi_index !1056
  %2 = load %"struct.std::_Vector_base"** %1, !llfi_index !1057
  %fi = call %"struct.std::_Vector_base"* @injectFault9(i64 1056, %"struct.std::_Vector_base"* %2, i32 27, i32 0, i32 1, i32 0, i8* getelementptr inbounds ([5 x i8]* @load_namestr, i32 0, i32 0)), !llfi_injectfault !33
  %3 = getelementptr %"struct.std::_Vector_base"* %fi, i32 0, i32 0, !llfi_index !1058
  %fi1 = call %"struct.std::_Vector_base<Node *, std::allocator<Node *> >::_Vector_impl"* @injectFault10(i64 1057, %"struct.std::_Vector_base<Node *, std::allocator<Node *> >::_Vector_impl"* %3, i32 29, i32 0, i32 1, i32 0, i8* getelementptr inbounds ([14 x i8]* @getelementptr_namestr, i32 0, i32 0)), !llfi_injectfault !33
  %4 = bitcast %"struct.std::_Vector_base<Node *, std::allocator<Node *> >::_Vector_impl"* %fi1 to %"class.std::allocator"*, !llfi_index !1059
  %fi2 = call %"class.std::allocator"* @injectFault20(i64 1058, %"class.std::allocator"* %4, i32 44, i32 0, i32 1, i32 0, i8* getelementptr inbounds ([8 x i8]* @bitcast_namestr, i32 0, i32 0)), !llfi_injectfault !33
  ret %"class.std::allocator"* %fi2, !llfi_index !1060
}

; Function Attrs: nounwind uwtable
define linkonce_odr void @_ZNSt12_Vector_baseIP4NodeSaIS1_EE13_M_deallocateEPS1_m(%"struct.std::_Vector_base"* %this, %struct.Node** %__p, i64 %__n) #3 align 2 {
  %1 = alloca %"struct.std::_Vector_base"*, align 8, !llfi_index !1061
  %2 = alloca %struct.Node**, align 8, !llfi_index !1062
  %3 = alloca i64, align 8, !llfi_index !1063
  store %"struct.std::_Vector_base"* %this, %"struct.std::_Vector_base"** %1, align 8, !llfi_index !1064
  store %struct.Node** %__p, %struct.Node*** %2, align 8, !llfi_index !1065
  store i64 %__n, i64* %3, align 8, !llfi_index !1066
  %4 = load %"struct.std::_Vector_base"** %1, !llfi_index !1067
  %fi = call %"struct.std::_Vector_base"* @injectFault9(i64 1066, %"struct.std::_Vector_base"* %4, i32 27, i32 0, i32 1, i32 0, i8* getelementptr inbounds ([5 x i8]* @load_namestr, i32 0, i32 0)), !llfi_injectfault !33
  %5 = load %struct.Node*** %2, align 8, !llfi_index !1068
  %fi1 = call %struct.Node** @injectFault4(i64 1067, %struct.Node** %5, i32 27, i32 0, i32 1, i32 0, i8* getelementptr inbounds ([5 x i8]* @load_namestr, i32 0, i32 0)), !llfi_injectfault !33
  %6 = icmp ne %struct.Node** %fi1, null, !llfi_index !1069
  %fi2 = call i1 @injectFault5(i64 1068, i1 %6, i32 46, i32 0, i32 1, i32 0, i8* getelementptr inbounds ([5 x i8]* @icmp_namestr, i32 0, i32 0)), !llfi_injectfault !33
  br i1 %fi2, label %7, label %12, !llfi_index !1070

; <label>:7                                       ; preds = %0
  %8 = getelementptr %"struct.std::_Vector_base"* %fi, i32 0, i32 0, !llfi_index !1071
  %fi3 = call %"struct.std::_Vector_base<Node *, std::allocator<Node *> >::_Vector_impl"* @injectFault10(i64 1070, %"struct.std::_Vector_base<Node *, std::allocator<Node *> >::_Vector_impl"* %8, i32 29, i32 0, i32 1, i32 0, i8* getelementptr inbounds ([14 x i8]* @getelementptr_namestr, i32 0, i32 0)), !llfi_injectfault !33
  %9 = bitcast %"struct.std::_Vector_base<Node *, std::allocator<Node *> >::_Vector_impl"* %fi3 to %"class.std::allocator"*, !llfi_index !1072
  %fi4 = call %"class.std::allocator"* @injectFault20(i64 1071, %"class.std::allocator"* %9, i32 44, i32 0, i32 1, i32 0, i8* getelementptr inbounds ([8 x i8]* @bitcast_namestr, i32 0, i32 0)), !llfi_injectfault !33
  %10 = load %struct.Node*** %2, align 8, !llfi_index !1073
  %fi5 = call %struct.Node** @injectFault4(i64 1072, %struct.Node** %10, i32 27, i32 0, i32 1, i32 0, i8* getelementptr inbounds ([5 x i8]* @load_namestr, i32 0, i32 0)), !llfi_injectfault !33
  %11 = load i64* %3, align 8, !llfi_index !1074
  %fi6 = call i64 @injectFault24(i64 1073, i64 %11, i32 27, i32 0, i32 1, i32 0, i8* getelementptr inbounds ([5 x i8]* @load_namestr, i32 0, i32 0)), !llfi_injectfault !33
  call void @_ZNSt16allocator_traitsISaIP4NodeEE10deallocateERS2_PS1_m(%"class.std::allocator"* %fi4, %struct.Node** %fi5, i64 %fi6), !llfi_index !1075
  br label %12, !llfi_index !1076

; <label>:12                                      ; preds = %7, %0
  ret void, !llfi_index !1077
}

; Function Attrs: inlinehint nounwind uwtable
define linkonce_odr void @_ZSt8_DestroyIN9__gnu_cxx17__normal_iteratorIPP4NodeSt6vectorIS3_SaIS3_EEEES3_EvT_S9_RSaIT0_E(%struct.Node** %__first.coerce, %struct.Node** %__last.coerce, %"class.std::allocator"*) #4 {
  %__first = alloca %"class.__gnu_cxx::__normal_iterator.8", align 8, !llfi_index !1078
  %__last = alloca %"class.__gnu_cxx::__normal_iterator.8", align 8, !llfi_index !1079
  %2 = alloca %"class.std::allocator"*, align 8, !llfi_index !1080
  %3 = alloca %"class.__gnu_cxx::__normal_iterator.8", align 8, !llfi_index !1081
  %4 = alloca %"class.__gnu_cxx::__normal_iterator.8", align 8, !llfi_index !1082
  %5 = getelementptr %"class.__gnu_cxx::__normal_iterator.8"* %__first, i32 0, i32 0, !llfi_index !1083
  %fi = call %struct.Node*** @injectFault3(i64 1082, %struct.Node*** %5, i32 29, i32 0, i32 1, i32 0, i8* getelementptr inbounds ([14 x i8]* @getelementptr_namestr, i32 0, i32 0)), !llfi_injectfault !33
  store %struct.Node** %__first.coerce, %struct.Node*** %fi, !llfi_index !1084
  %6 = getelementptr %"class.__gnu_cxx::__normal_iterator.8"* %__last, i32 0, i32 0, !llfi_index !1085
  %fi1 = call %struct.Node*** @injectFault3(i64 1084, %struct.Node*** %6, i32 29, i32 0, i32 1, i32 0, i8* getelementptr inbounds ([14 x i8]* @getelementptr_namestr, i32 0, i32 0)), !llfi_injectfault !33
  store %struct.Node** %__last.coerce, %struct.Node*** %fi1, !llfi_index !1086
  store %"class.std::allocator"* %0, %"class.std::allocator"** %2, align 8, !llfi_index !1087
  %7 = bitcast %"class.__gnu_cxx::__normal_iterator.8"* %3 to i8*, !llfi_index !1088
  %fi2 = call i8* @injectFault18(i64 1087, i8* %7, i32 44, i32 0, i32 1, i32 0, i8* getelementptr inbounds ([8 x i8]* @bitcast_namestr, i32 0, i32 0)), !llfi_injectfault !33
  %8 = bitcast %"class.__gnu_cxx::__normal_iterator.8"* %__first to i8*, !llfi_index !1089
  %fi3 = call i8* @injectFault18(i64 1088, i8* %8, i32 44, i32 0, i32 1, i32 0, i8* getelementptr inbounds ([8 x i8]* @bitcast_namestr, i32 0, i32 0)), !llfi_injectfault !33
  call void @llvm.memcpy.p0i8.p0i8.i64(i8* %fi2, i8* %fi3, i64 8, i32 8, i1 false), !llfi_index !1090
  %9 = bitcast %"class.__gnu_cxx::__normal_iterator.8"* %4 to i8*, !llfi_index !1091
  %fi4 = call i8* @injectFault18(i64 1090, i8* %9, i32 44, i32 0, i32 1, i32 0, i8* getelementptr inbounds ([8 x i8]* @bitcast_namestr, i32 0, i32 0)), !llfi_injectfault !33
  %10 = bitcast %"class.__gnu_cxx::__normal_iterator.8"* %__last to i8*, !llfi_index !1092
  %fi5 = call i8* @injectFault18(i64 1091, i8* %10, i32 44, i32 0, i32 1, i32 0, i8* getelementptr inbounds ([8 x i8]* @bitcast_namestr, i32 0, i32 0)), !llfi_injectfault !33
  call void @llvm.memcpy.p0i8.p0i8.i64(i8* %fi4, i8* %fi5, i64 8, i32 8, i1 false), !llfi_index !1093
  %11 = getelementptr %"class.__gnu_cxx::__normal_iterator.8"* %3, i32 0, i32 0, !llfi_index !1094
  %fi6 = call %struct.Node*** @injectFault3(i64 1093, %struct.Node*** %11, i32 29, i32 0, i32 1, i32 0, i8* getelementptr inbounds ([14 x i8]* @getelementptr_namestr, i32 0, i32 0)), !llfi_injectfault !33
  %12 = load %struct.Node*** %fi6, !llfi_index !1095
  %fi7 = call %struct.Node** @injectFault4(i64 1094, %struct.Node** %12, i32 27, i32 0, i32 1, i32 0, i8* getelementptr inbounds ([5 x i8]* @load_namestr, i32 0, i32 0)), !llfi_injectfault !33
  %13 = getelementptr %"class.__gnu_cxx::__normal_iterator.8"* %4, i32 0, i32 0, !llfi_index !1096
  %fi8 = call %struct.Node*** @injectFault3(i64 1095, %struct.Node*** %13, i32 29, i32 0, i32 1, i32 0, i8* getelementptr inbounds ([14 x i8]* @getelementptr_namestr, i32 0, i32 0)), !llfi_injectfault !33
  %14 = load %struct.Node*** %fi8, !llfi_index !1097
  %fi9 = call %struct.Node** @injectFault4(i64 1096, %struct.Node** %14, i32 27, i32 0, i32 1, i32 0, i8* getelementptr inbounds ([5 x i8]* @load_namestr, i32 0, i32 0)), !llfi_injectfault !33
  call void @_ZSt8_DestroyIN9__gnu_cxx17__normal_iteratorIPP4NodeSt6vectorIS3_SaIS3_EEEEEvT_S9_(%struct.Node** %fi7, %struct.Node** %fi9), !llfi_index !1098
  ret void, !llfi_index !1099
}

; Function Attrs: inlinehint nounwind uwtable
define linkonce_odr %struct.Node** @_ZSt4copyIN9__gnu_cxx17__normal_iteratorIPKP4NodeSt6vectorIS3_SaIS3_EEEENS1_IPS3_S8_EEET0_T_SD_SC_(%struct.Node** %__first.coerce, %struct.Node** %__last.coerce, %struct.Node** %__result.coerce) #4 {
  %1 = alloca %"class.__gnu_cxx::__normal_iterator.8", align 8, !llfi_index !1100
  %__first = alloca %"class.__gnu_cxx::__normal_iterator", align 8, !llfi_index !1101
  %__last = alloca %"class.__gnu_cxx::__normal_iterator", align 8, !llfi_index !1102
  %__result = alloca %"class.__gnu_cxx::__normal_iterator.8", align 8, !llfi_index !1103
  %2 = alloca %"class.__gnu_cxx::__normal_iterator", align 8, !llfi_index !1104
  %3 = alloca %"class.__gnu_cxx::__normal_iterator", align 8, !llfi_index !1105
  %4 = alloca %"class.__gnu_cxx::__normal_iterator", align 8, !llfi_index !1106
  %5 = alloca %"class.__gnu_cxx::__normal_iterator", align 8, !llfi_index !1107
  %6 = alloca %"class.__gnu_cxx::__normal_iterator.8", align 8, !llfi_index !1108
  %7 = getelementptr %"class.__gnu_cxx::__normal_iterator"* %__first, i32 0, i32 0, !llfi_index !1109
  %fi = call %struct.Node*** @injectFault3(i64 1108, %struct.Node*** %7, i32 29, i32 0, i32 1, i32 0, i8* getelementptr inbounds ([14 x i8]* @getelementptr_namestr, i32 0, i32 0)), !llfi_injectfault !33
  store %struct.Node** %__first.coerce, %struct.Node*** %fi, !llfi_index !1110
  %8 = getelementptr %"class.__gnu_cxx::__normal_iterator"* %__last, i32 0, i32 0, !llfi_index !1111
  %fi1 = call %struct.Node*** @injectFault3(i64 1110, %struct.Node*** %8, i32 29, i32 0, i32 1, i32 0, i8* getelementptr inbounds ([14 x i8]* @getelementptr_namestr, i32 0, i32 0)), !llfi_injectfault !33
  store %struct.Node** %__last.coerce, %struct.Node*** %fi1, !llfi_index !1112
  %9 = getelementptr %"class.__gnu_cxx::__normal_iterator.8"* %__result, i32 0, i32 0, !llfi_index !1113
  %fi3 = call %struct.Node*** @injectFault3(i64 1112, %struct.Node*** %9, i32 29, i32 0, i32 1, i32 0, i8* getelementptr inbounds ([14 x i8]* @getelementptr_namestr, i32 0, i32 0)), !llfi_injectfault !33
  store %struct.Node** %__result.coerce, %struct.Node*** %fi3, !llfi_index !1114
  %10 = bitcast %"class.__gnu_cxx::__normal_iterator"* %3 to i8*, !llfi_index !1115
  %fi4 = call i8* @injectFault18(i64 1114, i8* %10, i32 44, i32 0, i32 1, i32 0, i8* getelementptr inbounds ([8 x i8]* @bitcast_namestr, i32 0, i32 0)), !llfi_injectfault !33
  %11 = bitcast %"class.__gnu_cxx::__normal_iterator"* %__first to i8*, !llfi_index !1116
  %fi5 = call i8* @injectFault18(i64 1115, i8* %11, i32 44, i32 0, i32 1, i32 0, i8* getelementptr inbounds ([8 x i8]* @bitcast_namestr, i32 0, i32 0)), !llfi_injectfault !33
  call void @llvm.memcpy.p0i8.p0i8.i64(i8* %fi4, i8* %fi5, i64 8, i32 8, i1 false), !llfi_index !1117
  %12 = getelementptr %"class.__gnu_cxx::__normal_iterator"* %3, i32 0, i32 0, !llfi_index !1118
  %fi6 = call %struct.Node*** @injectFault3(i64 1117, %struct.Node*** %12, i32 29, i32 0, i32 1, i32 0, i8* getelementptr inbounds ([14 x i8]* @getelementptr_namestr, i32 0, i32 0)), !llfi_injectfault !33
  %13 = load %struct.Node*** %fi6, !llfi_index !1119
  %fi7 = call %struct.Node** @injectFault4(i64 1118, %struct.Node** %13, i32 27, i32 0, i32 1, i32 0, i8* getelementptr inbounds ([5 x i8]* @load_namestr, i32 0, i32 0)), !llfi_injectfault !33
  %14 = call %struct.Node** @_ZSt12__miter_baseIN9__gnu_cxx17__normal_iteratorIPKP4NodeSt6vectorIS3_SaIS3_EEEEENSt11_Miter_baseIT_E13iterator_typeESB_(%struct.Node** %fi7), !llfi_index !1120
  %15 = getelementptr %"class.__gnu_cxx::__normal_iterator"* %2, i32 0, i32 0, !llfi_index !1121
  %fi8 = call %struct.Node*** @injectFault3(i64 1120, %struct.Node*** %15, i32 29, i32 0, i32 1, i32 0, i8* getelementptr inbounds ([14 x i8]* @getelementptr_namestr, i32 0, i32 0)), !llfi_injectfault !33
  store %struct.Node** %14, %struct.Node*** %fi8, !llfi_index !1122
  %16 = bitcast %"class.__gnu_cxx::__normal_iterator"* %5 to i8*, !llfi_index !1123
  %fi9 = call i8* @injectFault18(i64 1122, i8* %16, i32 44, i32 0, i32 1, i32 0, i8* getelementptr inbounds ([8 x i8]* @bitcast_namestr, i32 0, i32 0)), !llfi_injectfault !33
  %17 = bitcast %"class.__gnu_cxx::__normal_iterator"* %__last to i8*, !llfi_index !1124
  %fi2 = call i8* @injectFault18(i64 1123, i8* %17, i32 44, i32 0, i32 1, i32 0, i8* getelementptr inbounds ([8 x i8]* @bitcast_namestr, i32 0, i32 0)), !llfi_injectfault !33
  call void @llvm.memcpy.p0i8.p0i8.i64(i8* %fi9, i8* %fi2, i64 8, i32 8, i1 false), !llfi_index !1125
  %18 = getelementptr %"class.__gnu_cxx::__normal_iterator"* %5, i32 0, i32 0, !llfi_index !1126
  %fi10 = call %struct.Node*** @injectFault3(i64 1125, %struct.Node*** %18, i32 29, i32 0, i32 1, i32 0, i8* getelementptr inbounds ([14 x i8]* @getelementptr_namestr, i32 0, i32 0)), !llfi_injectfault !33
  %19 = load %struct.Node*** %fi10, !llfi_index !1127
  %fi11 = call %struct.Node** @injectFault4(i64 1126, %struct.Node** %19, i32 27, i32 0, i32 1, i32 0, i8* getelementptr inbounds ([5 x i8]* @load_namestr, i32 0, i32 0)), !llfi_injectfault !33
  %20 = call %struct.Node** @_ZSt12__miter_baseIN9__gnu_cxx17__normal_iteratorIPKP4NodeSt6vectorIS3_SaIS3_EEEEENSt11_Miter_baseIT_E13iterator_typeESB_(%struct.Node** %fi11), !llfi_index !1128
  %21 = getelementptr %"class.__gnu_cxx::__normal_iterator"* %4, i32 0, i32 0, !llfi_index !1129
  %fi12 = call %struct.Node*** @injectFault3(i64 1128, %struct.Node*** %21, i32 29, i32 0, i32 1, i32 0, i8* getelementptr inbounds ([14 x i8]* @getelementptr_namestr, i32 0, i32 0)), !llfi_injectfault !33
  store %struct.Node** %20, %struct.Node*** %fi12, !llfi_index !1130
  %22 = bitcast %"class.__gnu_cxx::__normal_iterator.8"* %6 to i8*, !llfi_index !1131
  %fi13 = call i8* @injectFault18(i64 1130, i8* %22, i32 44, i32 0, i32 1, i32 0, i8* getelementptr inbounds ([8 x i8]* @bitcast_namestr, i32 0, i32 0)), !llfi_injectfault !33
  %23 = bitcast %"class.__gnu_cxx::__normal_iterator.8"* %__result to i8*, !llfi_index !1132
  %fi14 = call i8* @injectFault18(i64 1131, i8* %23, i32 44, i32 0, i32 1, i32 0, i8* getelementptr inbounds ([8 x i8]* @bitcast_namestr, i32 0, i32 0)), !llfi_injectfault !33
  call void @llvm.memcpy.p0i8.p0i8.i64(i8* %fi13, i8* %fi14, i64 8, i32 8, i1 false), !llfi_index !1133
  %24 = getelementptr %"class.__gnu_cxx::__normal_iterator"* %2, i32 0, i32 0, !llfi_index !1134
  %fi15 = call %struct.Node*** @injectFault3(i64 1133, %struct.Node*** %24, i32 29, i32 0, i32 1, i32 0, i8* getelementptr inbounds ([14 x i8]* @getelementptr_namestr, i32 0, i32 0)), !llfi_injectfault !33
  %25 = load %struct.Node*** %fi15, !llfi_index !1135
  %fi16 = call %struct.Node** @injectFault4(i64 1134, %struct.Node** %25, i32 27, i32 0, i32 1, i32 0, i8* getelementptr inbounds ([5 x i8]* @load_namestr, i32 0, i32 0)), !llfi_injectfault !33
  %26 = getelementptr %"class.__gnu_cxx::__normal_iterator"* %4, i32 0, i32 0, !llfi_index !1136
  %fi17 = call %struct.Node*** @injectFault3(i64 1135, %struct.Node*** %26, i32 29, i32 0, i32 1, i32 0, i8* getelementptr inbounds ([14 x i8]* @getelementptr_namestr, i32 0, i32 0)), !llfi_injectfault !33
  %27 = load %struct.Node*** %fi17, !llfi_index !1137
  %fi18 = call %struct.Node** @injectFault4(i64 1136, %struct.Node** %27, i32 27, i32 0, i32 1, i32 0, i8* getelementptr inbounds ([5 x i8]* @load_namestr, i32 0, i32 0)), !llfi_injectfault !33
  %28 = getelementptr %"class.__gnu_cxx::__normal_iterator.8"* %6, i32 0, i32 0, !llfi_index !1138
  %fi19 = call %struct.Node*** @injectFault3(i64 1137, %struct.Node*** %28, i32 29, i32 0, i32 1, i32 0, i8* getelementptr inbounds ([14 x i8]* @getelementptr_namestr, i32 0, i32 0)), !llfi_injectfault !33
  %29 = load %struct.Node*** %fi19, !llfi_index !1139
  %fi20 = call %struct.Node** @injectFault4(i64 1138, %struct.Node** %29, i32 27, i32 0, i32 1, i32 0, i8* getelementptr inbounds ([5 x i8]* @load_namestr, i32 0, i32 0)), !llfi_injectfault !33
  %30 = call %struct.Node** @_ZSt14__copy_move_a2ILb0EN9__gnu_cxx17__normal_iteratorIPKP4NodeSt6vectorIS3_SaIS3_EEEENS1_IPS3_S8_EEET1_T0_SD_SC_(%struct.Node** %fi16, %struct.Node** %fi18, %struct.Node** %fi20), !llfi_index !1140
  %31 = getelementptr %"class.__gnu_cxx::__normal_iterator.8"* %1, i32 0, i32 0, !llfi_index !1141
  %fi22 = call %struct.Node*** @injectFault3(i64 1140, %struct.Node*** %31, i32 29, i32 0, i32 1, i32 0, i8* getelementptr inbounds ([14 x i8]* @getelementptr_namestr, i32 0, i32 0)), !llfi_injectfault !33
  store %struct.Node** %30, %struct.Node*** %fi22, !llfi_index !1142
  %32 = getelementptr %"class.__gnu_cxx::__normal_iterator.8"* %1, i32 0, i32 0, !llfi_index !1143
  %fi23 = call %struct.Node*** @injectFault3(i64 1142, %struct.Node*** %32, i32 29, i32 0, i32 1, i32 0, i8* getelementptr inbounds ([14 x i8]* @getelementptr_namestr, i32 0, i32 0)), !llfi_injectfault !33
  %33 = load %struct.Node*** %fi23, !llfi_index !1144
  %fi21 = call %struct.Node** @injectFault4(i64 1143, %struct.Node** %33, i32 27, i32 0, i32 1, i32 0, i8* getelementptr inbounds ([5 x i8]* @load_namestr, i32 0, i32 0)), !llfi_injectfault !33
  ret %struct.Node** %fi21, !llfi_index !1145
}

; Function Attrs: inlinehint nounwind uwtable
define linkonce_odr %struct.Node** @_ZSt4copyIPP4NodeS2_ET0_T_S4_S3_(%struct.Node** %__first, %struct.Node** %__last, %struct.Node** %__result) #4 {
  %1 = alloca %struct.Node**, align 8, !llfi_index !1146
  %2 = alloca %struct.Node**, align 8, !llfi_index !1147
  %3 = alloca %struct.Node**, align 8, !llfi_index !1148
  store %struct.Node** %__first, %struct.Node*** %1, align 8, !llfi_index !1149
  store %struct.Node** %__last, %struct.Node*** %2, align 8, !llfi_index !1150
  store %struct.Node** %__result, %struct.Node*** %3, align 8, !llfi_index !1151
  %4 = load %struct.Node*** %1, align 8, !llfi_index !1152
  %fi = call %struct.Node** @injectFault4(i64 1151, %struct.Node** %4, i32 27, i32 0, i32 1, i32 0, i8* getelementptr inbounds ([5 x i8]* @load_namestr, i32 0, i32 0)), !llfi_injectfault !33
  %5 = call %struct.Node** @_ZSt12__miter_baseIPP4NodeENSt11_Miter_baseIT_E13iterator_typeES4_(%struct.Node** %fi), !llfi_index !1153
  %6 = load %struct.Node*** %2, align 8, !llfi_index !1154
  %fi1 = call %struct.Node** @injectFault4(i64 1153, %struct.Node** %6, i32 27, i32 0, i32 1, i32 0, i8* getelementptr inbounds ([5 x i8]* @load_namestr, i32 0, i32 0)), !llfi_injectfault !33
  %7 = call %struct.Node** @_ZSt12__miter_baseIPP4NodeENSt11_Miter_baseIT_E13iterator_typeES4_(%struct.Node** %fi1), !llfi_index !1155
  %8 = load %struct.Node*** %3, align 8, !llfi_index !1156
  %fi2 = call %struct.Node** @injectFault4(i64 1155, %struct.Node** %8, i32 27, i32 0, i32 1, i32 0, i8* getelementptr inbounds ([5 x i8]* @load_namestr, i32 0, i32 0)), !llfi_injectfault !33
  %9 = call %struct.Node** @_ZSt14__copy_move_a2ILb0EPP4NodeS2_ET1_T0_S4_S3_(%struct.Node** %5, %struct.Node** %7, %struct.Node** %fi2), !llfi_index !1157
  ret %struct.Node** %9, !llfi_index !1158
}

; Function Attrs: inlinehint nounwind uwtable
define linkonce_odr %struct.Node** @_ZSt22__uninitialized_copy_aIPP4NodeS2_S1_ET0_T_S4_S3_RSaIT1_E(%struct.Node** %__first, %struct.Node** %__last, %struct.Node** %__result, %"class.std::allocator"*) #4 {
  %2 = alloca %struct.Node**, align 8, !llfi_index !1159
  %3 = alloca %struct.Node**, align 8, !llfi_index !1160
  %4 = alloca %struct.Node**, align 8, !llfi_index !1161
  %5 = alloca %"class.std::allocator"*, align 8, !llfi_index !1162
  store %struct.Node** %__first, %struct.Node*** %2, align 8, !llfi_index !1163
  store %struct.Node** %__last, %struct.Node*** %3, align 8, !llfi_index !1164
  store %struct.Node** %__result, %struct.Node*** %4, align 8, !llfi_index !1165
  store %"class.std::allocator"* %0, %"class.std::allocator"** %5, align 8, !llfi_index !1166
  %6 = load %struct.Node*** %2, align 8, !llfi_index !1167
  %fi = call %struct.Node** @injectFault4(i64 1166, %struct.Node** %6, i32 27, i32 0, i32 1, i32 0, i8* getelementptr inbounds ([5 x i8]* @load_namestr, i32 0, i32 0)), !llfi_injectfault !33
  %7 = load %struct.Node*** %3, align 8, !llfi_index !1168
  %fi1 = call %struct.Node** @injectFault4(i64 1167, %struct.Node** %7, i32 27, i32 0, i32 1, i32 0, i8* getelementptr inbounds ([5 x i8]* @load_namestr, i32 0, i32 0)), !llfi_injectfault !33
  %8 = load %struct.Node*** %4, align 8, !llfi_index !1169
  %fi2 = call %struct.Node** @injectFault4(i64 1168, %struct.Node** %8, i32 27, i32 0, i32 1, i32 0, i8* getelementptr inbounds ([5 x i8]* @load_namestr, i32 0, i32 0)), !llfi_injectfault !33
  %9 = call %struct.Node** @_ZSt18uninitialized_copyIPP4NodeS2_ET0_T_S4_S3_(%struct.Node** %fi, %struct.Node** %fi1, %struct.Node** %fi2), !llfi_index !1170
  ret %struct.Node** %9, !llfi_index !1171
}

; Function Attrs: inlinehint nounwind uwtable
define linkonce_odr %struct.Node** @_ZSt18uninitialized_copyIPP4NodeS2_ET0_T_S4_S3_(%struct.Node** %__first, %struct.Node** %__last, %struct.Node** %__result) #4 {
  %1 = alloca %struct.Node**, align 8, !llfi_index !1172
  %2 = alloca %struct.Node**, align 8, !llfi_index !1173
  %3 = alloca %struct.Node**, align 8, !llfi_index !1174
  %__assignable = alloca i8, align 1, !llfi_index !1175
  store %struct.Node** %__first, %struct.Node*** %1, align 8, !llfi_index !1176
  store %struct.Node** %__last, %struct.Node*** %2, align 8, !llfi_index !1177
  store %struct.Node** %__result, %struct.Node*** %3, align 8, !llfi_index !1178
  store i8 1, i8* %__assignable, align 1, !llfi_index !1179
  %4 = load %struct.Node*** %1, align 8, !llfi_index !1180
  %fi = call %struct.Node** @injectFault4(i64 1179, %struct.Node** %4, i32 27, i32 0, i32 1, i32 0, i8* getelementptr inbounds ([5 x i8]* @load_namestr, i32 0, i32 0)), !llfi_injectfault !33
  %5 = load %struct.Node*** %2, align 8, !llfi_index !1181
  %fi1 = call %struct.Node** @injectFault4(i64 1180, %struct.Node** %5, i32 27, i32 0, i32 1, i32 0, i8* getelementptr inbounds ([5 x i8]* @load_namestr, i32 0, i32 0)), !llfi_injectfault !33
  %6 = load %struct.Node*** %3, align 8, !llfi_index !1182
  %fi2 = call %struct.Node** @injectFault4(i64 1181, %struct.Node** %6, i32 27, i32 0, i32 1, i32 0, i8* getelementptr inbounds ([5 x i8]* @load_namestr, i32 0, i32 0)), !llfi_injectfault !33
  %7 = call %struct.Node** @_ZNSt20__uninitialized_copyILb1EE13__uninit_copyIPP4NodeS4_EET0_T_S6_S5_(%struct.Node** %fi, %struct.Node** %fi1, %struct.Node** %fi2), !llfi_index !1183
  ret %struct.Node** %7, !llfi_index !1184
}

; Function Attrs: nounwind uwtable
define linkonce_odr %struct.Node** @_ZNSt20__uninitialized_copyILb1EE13__uninit_copyIPP4NodeS4_EET0_T_S6_S5_(%struct.Node** %__first, %struct.Node** %__last, %struct.Node** %__result) #3 align 2 {
  %1 = alloca %struct.Node**, align 8, !llfi_index !1185
  %2 = alloca %struct.Node**, align 8, !llfi_index !1186
  %3 = alloca %struct.Node**, align 8, !llfi_index !1187
  store %struct.Node** %__first, %struct.Node*** %1, align 8, !llfi_index !1188
  store %struct.Node** %__last, %struct.Node*** %2, align 8, !llfi_index !1189
  store %struct.Node** %__result, %struct.Node*** %3, align 8, !llfi_index !1190
  %4 = load %struct.Node*** %1, align 8, !llfi_index !1191
  %fi = call %struct.Node** @injectFault4(i64 1190, %struct.Node** %4, i32 27, i32 0, i32 1, i32 0, i8* getelementptr inbounds ([5 x i8]* @load_namestr, i32 0, i32 0)), !llfi_injectfault !33
  %5 = load %struct.Node*** %2, align 8, !llfi_index !1192
  %fi1 = call %struct.Node** @injectFault4(i64 1191, %struct.Node** %5, i32 27, i32 0, i32 1, i32 0, i8* getelementptr inbounds ([5 x i8]* @load_namestr, i32 0, i32 0)), !llfi_injectfault !33
  %6 = load %struct.Node*** %3, align 8, !llfi_index !1193
  %fi2 = call %struct.Node** @injectFault4(i64 1192, %struct.Node** %6, i32 27, i32 0, i32 1, i32 0, i8* getelementptr inbounds ([5 x i8]* @load_namestr, i32 0, i32 0)), !llfi_injectfault !33
  %7 = call %struct.Node** @_ZSt4copyIPP4NodeS2_ET0_T_S4_S3_(%struct.Node** %fi, %struct.Node** %fi1, %struct.Node** %fi2), !llfi_index !1194
  ret %struct.Node** %7, !llfi_index !1195
}

; Function Attrs: inlinehint nounwind uwtable
define linkonce_odr %struct.Node** @_ZSt14__copy_move_a2ILb0EPP4NodeS2_ET1_T0_S4_S3_(%struct.Node** %__first, %struct.Node** %__last, %struct.Node** %__result) #4 {
  %1 = alloca %struct.Node**, align 8, !llfi_index !1196
  %2 = alloca %struct.Node**, align 8, !llfi_index !1197
  %3 = alloca %struct.Node**, align 8, !llfi_index !1198
  store %struct.Node** %__first, %struct.Node*** %1, align 8, !llfi_index !1199
  store %struct.Node** %__last, %struct.Node*** %2, align 8, !llfi_index !1200
  store %struct.Node** %__result, %struct.Node*** %3, align 8, !llfi_index !1201
  %4 = load %struct.Node*** %1, align 8, !llfi_index !1202
  %fi = call %struct.Node** @injectFault4(i64 1201, %struct.Node** %4, i32 27, i32 0, i32 1, i32 0, i8* getelementptr inbounds ([5 x i8]* @load_namestr, i32 0, i32 0)), !llfi_injectfault !33
  %5 = call %struct.Node** @_ZSt12__niter_baseIPP4NodeENSt11_Niter_baseIT_E13iterator_typeES4_(%struct.Node** %fi), !llfi_index !1203
  %6 = load %struct.Node*** %2, align 8, !llfi_index !1204
  %fi1 = call %struct.Node** @injectFault4(i64 1203, %struct.Node** %6, i32 27, i32 0, i32 1, i32 0, i8* getelementptr inbounds ([5 x i8]* @load_namestr, i32 0, i32 0)), !llfi_injectfault !33
  %7 = call %struct.Node** @_ZSt12__niter_baseIPP4NodeENSt11_Niter_baseIT_E13iterator_typeES4_(%struct.Node** %fi1), !llfi_index !1205
  %8 = load %struct.Node*** %3, align 8, !llfi_index !1206
  %fi2 = call %struct.Node** @injectFault4(i64 1205, %struct.Node** %8, i32 27, i32 0, i32 1, i32 0, i8* getelementptr inbounds ([5 x i8]* @load_namestr, i32 0, i32 0)), !llfi_injectfault !33
  %9 = call %struct.Node** @_ZSt12__niter_baseIPP4NodeENSt11_Niter_baseIT_E13iterator_typeES4_(%struct.Node** %fi2), !llfi_index !1207
  %10 = call %struct.Node** @_ZSt13__copy_move_aILb0EPP4NodeS2_ET1_T0_S4_S3_(%struct.Node** %5, %struct.Node** %7, %struct.Node** %9), !llfi_index !1208
  ret %struct.Node** %10, !llfi_index !1209
}

; Function Attrs: inlinehint nounwind uwtable
define linkonce_odr %struct.Node** @_ZSt12__miter_baseIPP4NodeENSt11_Miter_baseIT_E13iterator_typeES4_(%struct.Node** %__it) #4 {
  %1 = alloca %struct.Node**, align 8, !llfi_index !1210
  store %struct.Node** %__it, %struct.Node*** %1, align 8, !llfi_index !1211
  %2 = load %struct.Node*** %1, align 8, !llfi_index !1212
  %fi = call %struct.Node** @injectFault4(i64 1211, %struct.Node** %2, i32 27, i32 0, i32 1, i32 0, i8* getelementptr inbounds ([5 x i8]* @load_namestr, i32 0, i32 0)), !llfi_injectfault !33
  %3 = call %struct.Node** @_ZNSt10_Iter_baseIPP4NodeLb0EE7_S_baseES2_(%struct.Node** %fi), !llfi_index !1213
  ret %struct.Node** %3, !llfi_index !1214
}

; Function Attrs: nounwind uwtable
define linkonce_odr %struct.Node** @_ZNSt10_Iter_baseIPP4NodeLb0EE7_S_baseES2_(%struct.Node** %__it) #3 align 2 {
  %1 = alloca %struct.Node**, align 8, !llfi_index !1215
  store %struct.Node** %__it, %struct.Node*** %1, align 8, !llfi_index !1216
  %2 = load %struct.Node*** %1, align 8, !llfi_index !1217
  %fi = call %struct.Node** @injectFault4(i64 1216, %struct.Node** %2, i32 27, i32 0, i32 1, i32 0, i8* getelementptr inbounds ([5 x i8]* @load_namestr, i32 0, i32 0)), !llfi_injectfault !33
  ret %struct.Node** %fi, !llfi_index !1218
}

; Function Attrs: inlinehint nounwind uwtable
define linkonce_odr %struct.Node** @_ZSt13__copy_move_aILb0EPP4NodeS2_ET1_T0_S4_S3_(%struct.Node** %__first, %struct.Node** %__last, %struct.Node** %__result) #4 {
  %1 = alloca %struct.Node**, align 8, !llfi_index !1219
  %2 = alloca %struct.Node**, align 8, !llfi_index !1220
  %3 = alloca %struct.Node**, align 8, !llfi_index !1221
  %__simple = alloca i8, align 1, !llfi_index !1222
  store %struct.Node** %__first, %struct.Node*** %1, align 8, !llfi_index !1223
  store %struct.Node** %__last, %struct.Node*** %2, align 8, !llfi_index !1224
  store %struct.Node** %__result, %struct.Node*** %3, align 8, !llfi_index !1225
  store i8 1, i8* %__simple, align 1, !llfi_index !1226
  %4 = load %struct.Node*** %1, align 8, !llfi_index !1227
  %fi = call %struct.Node** @injectFault4(i64 1226, %struct.Node** %4, i32 27, i32 0, i32 1, i32 0, i8* getelementptr inbounds ([5 x i8]* @load_namestr, i32 0, i32 0)), !llfi_injectfault !33
  %5 = load %struct.Node*** %2, align 8, !llfi_index !1228
  %fi1 = call %struct.Node** @injectFault4(i64 1227, %struct.Node** %5, i32 27, i32 0, i32 1, i32 0, i8* getelementptr inbounds ([5 x i8]* @load_namestr, i32 0, i32 0)), !llfi_injectfault !33
  %6 = load %struct.Node*** %3, align 8, !llfi_index !1229
  %fi2 = call %struct.Node** @injectFault4(i64 1228, %struct.Node** %6, i32 27, i32 0, i32 1, i32 0, i8* getelementptr inbounds ([5 x i8]* @load_namestr, i32 0, i32 0)), !llfi_injectfault !33
  %7 = call %struct.Node** @_ZNSt11__copy_moveILb0ELb1ESt26random_access_iterator_tagE8__copy_mIP4NodeEEPT_PKS5_S8_S6_(%struct.Node** %fi, %struct.Node** %fi1, %struct.Node** %fi2), !llfi_index !1230
  ret %struct.Node** %7, !llfi_index !1231
}

; Function Attrs: inlinehint nounwind uwtable
define linkonce_odr %struct.Node** @_ZSt12__niter_baseIPP4NodeENSt11_Niter_baseIT_E13iterator_typeES4_(%struct.Node** %__it) #4 {
  %1 = alloca %struct.Node**, align 8, !llfi_index !1232
  store %struct.Node** %__it, %struct.Node*** %1, align 8, !llfi_index !1233
  %2 = load %struct.Node*** %1, align 8, !llfi_index !1234
  %fi = call %struct.Node** @injectFault4(i64 1233, %struct.Node** %2, i32 27, i32 0, i32 1, i32 0, i8* getelementptr inbounds ([5 x i8]* @load_namestr, i32 0, i32 0)), !llfi_injectfault !33
  %3 = call %struct.Node** @_ZNSt10_Iter_baseIPP4NodeLb0EE7_S_baseES2_(%struct.Node** %fi), !llfi_index !1235
  ret %struct.Node** %3, !llfi_index !1236
}

; Function Attrs: nounwind uwtable
define linkonce_odr %struct.Node** @_ZNSt11__copy_moveILb0ELb1ESt26random_access_iterator_tagE8__copy_mIP4NodeEEPT_PKS5_S8_S6_(%struct.Node** %__first, %struct.Node** %__last, %struct.Node** %__result) #3 align 2 {
  %1 = alloca %struct.Node**, align 8, !llfi_index !1237
  %2 = alloca %struct.Node**, align 8, !llfi_index !1238
  %3 = alloca %struct.Node**, align 8, !llfi_index !1239
  %_Num = alloca i64, align 8, !llfi_index !1240
  store %struct.Node** %__first, %struct.Node*** %1, align 8, !llfi_index !1241
  store %struct.Node** %__last, %struct.Node*** %2, align 8, !llfi_index !1242
  store %struct.Node** %__result, %struct.Node*** %3, align 8, !llfi_index !1243
  %4 = load %struct.Node*** %2, align 8, !llfi_index !1244
  %fi = call %struct.Node** @injectFault4(i64 1243, %struct.Node** %4, i32 27, i32 0, i32 1, i32 0, i8* getelementptr inbounds ([5 x i8]* @load_namestr, i32 0, i32 0)), !llfi_injectfault !33
  %5 = load %struct.Node*** %1, align 8, !llfi_index !1245
  %fi1 = call %struct.Node** @injectFault4(i64 1244, %struct.Node** %5, i32 27, i32 0, i32 1, i32 0, i8* getelementptr inbounds ([5 x i8]* @load_namestr, i32 0, i32 0)), !llfi_injectfault !33
  %6 = ptrtoint %struct.Node** %fi to i64, !llfi_index !1246
  %fi2 = call i64 @injectFault24(i64 1245, i64 %6, i32 42, i32 0, i32 1, i32 0, i8* getelementptr inbounds ([9 x i8]* @ptrtoint_namestr, i32 0, i32 0)), !llfi_injectfault !33
  %7 = ptrtoint %struct.Node** %fi1 to i64, !llfi_index !1247
  %fi3 = call i64 @injectFault24(i64 1246, i64 %7, i32 42, i32 0, i32 1, i32 0, i8* getelementptr inbounds ([9 x i8]* @ptrtoint_namestr, i32 0, i32 0)), !llfi_injectfault !33
  %8 = sub i64 %fi2, %fi3, !llfi_index !1248
  %fi4 = call i64 @injectFault24(i64 1247, i64 %8, i32 10, i32 0, i32 1, i32 0, i8* getelementptr inbounds ([4 x i8]* @sub_namestr, i32 0, i32 0)), !llfi_injectfault !33
  %9 = sdiv exact i64 %fi4, 8, !llfi_index !1249
  %fi6 = call i64 @injectFault24(i64 1248, i64 %9, i32 15, i32 0, i32 1, i32 0, i8* getelementptr inbounds ([5 x i8]* @sdiv_namestr, i32 0, i32 0)), !llfi_injectfault !33
  store i64 %fi6, i64* %_Num, align 8, !llfi_index !1250
  %10 = load i64* %_Num, align 8, !llfi_index !1251
  %fi7 = call i64 @injectFault24(i64 1250, i64 %10, i32 27, i32 0, i32 1, i32 0, i8* getelementptr inbounds ([5 x i8]* @load_namestr, i32 0, i32 0)), !llfi_injectfault !33
  %11 = icmp ne i64 %fi7, 0, !llfi_index !1252
  %fi8 = call i1 @injectFault5(i64 1251, i1 %11, i32 46, i32 0, i32 1, i32 0, i8* getelementptr inbounds ([5 x i8]* @icmp_namestr, i32 0, i32 0)), !llfi_injectfault !33
  br i1 %fi8, label %12, label %19, !llfi_index !1253

; <label>:12                                      ; preds = %0
  %13 = load %struct.Node*** %3, align 8, !llfi_index !1254
  %fi9 = call %struct.Node** @injectFault4(i64 1253, %struct.Node** %13, i32 27, i32 0, i32 1, i32 0, i8* getelementptr inbounds ([5 x i8]* @load_namestr, i32 0, i32 0)), !llfi_injectfault !33
  %14 = bitcast %struct.Node** %fi9 to i8*, !llfi_index !1255
  %fi10 = call i8* @injectFault18(i64 1254, i8* %14, i32 44, i32 0, i32 1, i32 0, i8* getelementptr inbounds ([8 x i8]* @bitcast_namestr, i32 0, i32 0)), !llfi_injectfault !33
  %15 = load %struct.Node*** %1, align 8, !llfi_index !1256
  %fi11 = call %struct.Node** @injectFault4(i64 1255, %struct.Node** %15, i32 27, i32 0, i32 1, i32 0, i8* getelementptr inbounds ([5 x i8]* @load_namestr, i32 0, i32 0)), !llfi_injectfault !33
  %16 = bitcast %struct.Node** %fi11 to i8*, !llfi_index !1257
  %fi12 = call i8* @injectFault18(i64 1256, i8* %16, i32 44, i32 0, i32 1, i32 0, i8* getelementptr inbounds ([8 x i8]* @bitcast_namestr, i32 0, i32 0)), !llfi_injectfault !33
  %17 = load i64* %_Num, align 8, !llfi_index !1258
  %fi5 = call i64 @injectFault24(i64 1257, i64 %17, i32 27, i32 0, i32 1, i32 0, i8* getelementptr inbounds ([5 x i8]* @load_namestr, i32 0, i32 0)), !llfi_injectfault !33
  %18 = mul i64 8, %fi5, !llfi_index !1259
  %fi13 = call i64 @injectFault24(i64 1258, i64 %18, i32 12, i32 0, i32 1, i32 0, i8* getelementptr inbounds ([4 x i8]* @mul_namestr, i32 0, i32 0)), !llfi_injectfault !33
  call void @llvm.memmove.p0i8.p0i8.i64(i8* %fi10, i8* %fi12, i64 %fi13, i32 8, i1 false), !llfi_index !1260
  br label %19, !llfi_index !1261

; <label>:19                                      ; preds = %12, %0
  %20 = load %struct.Node*** %3, align 8, !llfi_index !1262
  %fi14 = call %struct.Node** @injectFault4(i64 1261, %struct.Node** %20, i32 27, i32 0, i32 1, i32 0, i8* getelementptr inbounds ([5 x i8]* @load_namestr, i32 0, i32 0)), !llfi_injectfault !33
  %21 = load i64* %_Num, align 8, !llfi_index !1263
  %fi15 = call i64 @injectFault24(i64 1262, i64 %21, i32 27, i32 0, i32 1, i32 0, i8* getelementptr inbounds ([5 x i8]* @load_namestr, i32 0, i32 0)), !llfi_injectfault !33
